
========================================================================

** ELF Header Information

    File Name: bin\ios_fifo_host.axf

    Machine class: ELFCLASS32 (32-bit)
    Data encoding: ELFDATA2LSB (Little endian)
    Header version: EV_CURRENT (Current version)
    Operating System ABI: none
    ABI Version: 0
    File Type: ET_EXEC (Executable) (2)
    Machine: EM_ARM (ARM)

    Image Entry point: 0x0000c135
    Flags: EF_ARM_HASENTRY + EF_ARM_ABI_FLOAT_HARD (0x05000402)

    ARM ELF revision: 5 (ABI version 2)

    Conforms to Hard float procedure-call standard

    Built with
    Component: Arm Compiler for Embedded 6.19 Tool: armasm [5e73cb00]
    Component: Arm Compiler for Embedded 6.19 Tool: armlink [5e73cb00]

    Header size: 52 bytes (0x34)
    Program header entry size: 32 bytes (0x20)
    Section header entry size: 40 bytes (0x28)

    Program header entries: 1
    Section header entries: 16

    Program header offset: 60312 (0x0000eb98)
    Section header offset: 60344 (0x0000ebb8)

    Section header string table index: 15

========================================================================

** Program header #0 (PT_LOAD) [PF_X + PF_W + PF_R + PF_ARM_ENTRY]
    Size : 38656 bytes (18064 bytes in file)
    Virtual address: 0x0000c000 (Alignment 8)


========================================================================

** Section #1 'ROMEM' (SHT_PROGBITS) [SHF_ALLOC + SHF_EXECINSTR]
    Size   : 17980 bytes (alignment 4)
    Address: 0x0000c000

    $d
    RESET
    __Vectors
        0x0000c000:    10011000    ....    DCD    268505088
        0x0000c004:    0000c101    ....    DCD    49409
        0x0000c008:    0000c11f    ....    DCD    49439
        0x0000c00c:    0000c11d    ....    DCD    49437
        0x0000c010:    0000c121    !...    DCD    49441
        0x0000c014:    0000c123    #...    DCD    49443
        0x0000c018:    0000c125    %...    DCD    49445
        0x0000c01c:    00000000    ....    DCD    0
        0x0000c020:    00000000    ....    DCD    0
        0x0000c024:    00000000    ....    DCD    0
        0x0000c028:    00000000    ....    DCD    0
        0x0000c02c:    0000c127    '...    DCD    49447
        0x0000c030:    0000c129    )...    DCD    49449
        0x0000c034:    00000000    ....    DCD    0
        0x0000c038:    0000c12b    +...    DCD    49451
        0x0000c03c:    0000c12d    -...    DCD    49453
        0x0000c040:    0000c12f    /...    DCD    49455
        0x0000c044:    0000c12f    /...    DCD    49455
        0x0000c048:    0000c12f    /...    DCD    49455
        0x0000c04c:    0000c12f    /...    DCD    49455
        0x0000c050:    0000c12f    /...    DCD    49455
        0x0000c054:    0000c12f    /...    DCD    49455
        0x0000c058:    0000c12f    /...    DCD    49455
        0x0000c05c:    0000c12f    /...    DCD    49455
        0x0000c060:    0000c12f    /...    DCD    49455
        0x0000c064:    0000c12f    /...    DCD    49455
        0x0000c068:    0000c12f    /...    DCD    49455
        0x0000c06c:    0000c12f    /...    DCD    49455
        0x0000c070:    0000c12f    /...    DCD    49455
        0x0000c074:    0000c5d5    ....    DCD    50645
        0x0000c078:    0000c12f    /...    DCD    49455
        0x0000c07c:    0000c12f    /...    DCD    49455
        0x0000c080:    0000c12f    /...    DCD    49455
        0x0000c084:    0000c12f    /...    DCD    49455
        0x0000c088:    0000c12f    /...    DCD    49455
        0x0000c08c:    0000c12f    /...    DCD    49455
        0x0000c090:    0000c12f    /...    DCD    49455
        0x0000c094:    0000c12f    /...    DCD    49455
        0x0000c098:    0000c12f    /...    DCD    49455
        0x0000c09c:    0000c12f    /...    DCD    49455
        0x0000c0a0:    0000c12f    /...    DCD    49455
        0x0000c0a4:    0000c12f    /...    DCD    49455
        0x0000c0a8:    0000c12f    /...    DCD    49455
        0x0000c0ac:    0000c12f    /...    DCD    49455
        0x0000c0b0:    0000c12f    /...    DCD    49455
        0x0000c0b4:    0000c12f    /...    DCD    49455
        0x0000c0b8:    0000c12f    /...    DCD    49455
        0x0000c0bc:    0000c12f    /...    DCD    49455
        0x0000c0c0:    0000c12f    /...    DCD    49455
        0x0000c0c4:    0000c12f    /...    DCD    49455
    __Patchable
        0x0000c0c8:    00000000    ....    DCD    0
        0x0000c0cc:    00000000    ....    DCD    0
        0x0000c0d0:    00000000    ....    DCD    0
        0x0000c0d4:    00000000    ....    DCD    0
        0x0000c0d8:    00000000    ....    DCD    0
        0x0000c0dc:    00000000    ....    DCD    0
        0x0000c0e0:    00000000    ....    DCD    0
        0x0000c0e4:    00000000    ....    DCD    0
        0x0000c0e8:    00000000    ....    DCD    0
        0x0000c0ec:    00000000    ....    DCD    0
        0x0000c0f0:    00000000    ....    DCD    0
        0x0000c0f4:    00000000    ....    DCD    0
        0x0000c0f8:    00000000    ....    DCD    0
        0x0000c0fc:    00000000    ....    DCD    0
    $t
    $v0
    Reset_Handler
        0x0000c100:    f64e5088    N..P    MOV      r0,#0xed88
        0x0000c104:    f2ce0000    ....    MOVT     r0,#0xe000
        0x0000c108:    6801        .h      LDR      r1,[r0,#0]
        0x0000c10a:    f4410170    A.p.    ORR      r1,r1,#0xf00000
        0x0000c10e:    6001        .`      STR      r1,[r0,#0]
        0x0000c110:    f3bf8f4f    ..O.    DSB      
        0x0000c114:    f3bf8f6f    ..o.    ISB      
        0x0000c118:    4805        .H      LDR      r0,[pc,#20] ; [0xc130] = 0xc135
        0x0000c11a:    4700        .G      BX       r0
    HardFault_Handler
        0x0000c11c:    e7fe        ..      B        HardFault_Handler ; 0xc11c
    NMI_Handler
        0x0000c11e:    e7fe        ..      B        NMI_Handler ; 0xc11e
    MemManage_Handler
        0x0000c120:    e7fe        ..      B        MemManage_Handler ; 0xc120
    BusFault_Handler
        0x0000c122:    e7fe        ..      B        BusFault_Handler ; 0xc122
    UsageFault_Handler
        0x0000c124:    e7fe        ..      B        UsageFault_Handler ; 0xc124
    SVC_Handler
        0x0000c126:    e7fe        ..      B        SVC_Handler ; 0xc126
    DebugMon_Handler
        0x0000c128:    e7fe        ..      B        DebugMon_Handler ; 0xc128
    PendSV_Handler
        0x0000c12a:    e7fe        ..      B        PendSV_Handler ; 0xc12a
    SysTick_Handler
        0x0000c12c:    e7fe        ..      B        SysTick_Handler ; 0xc12c
    am_adc_isr
    am_ble_isr
    am_brownout_isr
    am_clkgen_isr
    am_ctimer_isr
    am_iomaster0_isr
    am_iomaster1_isr
    am_iomaster2_isr
    am_iomaster3_isr
    am_iomaster4_isr
    am_iomaster5_isr
    am_ioslave_acc_isr
    am_ioslave_ios_isr
    am_mspi0_isr
    am_mspi1_isr
    am_mspi2_isr
    am_pdm0_isr
    am_rtc_isr
    am_scard_isr
    am_software0_isr
    am_stimer_cmpr0_isr
    am_stimer_cmpr1_isr
    am_stimer_cmpr2_isr
    am_stimer_cmpr3_isr
    am_stimer_cmpr4_isr
    am_stimer_cmpr5_isr
    am_stimer_cmpr6_isr
    am_stimer_cmpr7_isr
    am_stimer_isr
    am_uart0_isr
    am_uart1_isr
    am_uart_isr
    am_vcomp_isr
    am_watchdog_isr
        0x0000c12e:    e7fe        ..      B        am_adc_isr ; 0xc12e
    $d
        0x0000c130:    0000c135    5...    DCD    49461
    $t
    !!!main
    __main
        0x0000c134:    f000f802    ....    BL       __scatterload ; 0xc13c
        0x0000c138:    f000f83c    ..<.    BL       __rt_entry ; 0xc1b4
    !!!scatter
    __scatterload
    __scatterload_rt2
    __scatterload_rt2_thumb_only
        0x0000c13c:    a00a        ..      ADR      r0,{pc}+0x2c ; 0xc168
        0x0000c13e:    e8900c00    ....    LDM      r0,{r10,r11}
        0x0000c142:    4482        .D      ADD      r10,r10,r0
        0x0000c144:    4483        .D      ADD      r11,r11,r0
        0x0000c146:    f1aa0701    ....    SUB      r7,r10,#1
    __scatterload_null
        0x0000c14a:    45da        .E      CMP      r10,r11
        0x0000c14c:    d101        ..      BNE      0xc152 ; __scatterload_null + 8
        0x0000c14e:    f000f831    ..1.    BL       __rt_entry ; 0xc1b4
        0x0000c152:    f2af0e09    ....    ADR      lr,{pc}-7 ; 0xc14b
        0x0000c156:    e8ba000f    ....    LDM      r10!,{r0-r3}
        0x0000c15a:    f0130f01    ....    TST      r3,#1
        0x0000c15e:    bf18        ..      IT       NE
        0x0000c160:    1afb        ..      SUBNE    r3,r7,r3
        0x0000c162:    f0430301    C...    ORR      r3,r3,#1
        0x0000c166:    4718        .G      BX       r3
    $d
        0x0000c168:    000044a4    .D..    DCD    17572
        0x0000c16c:    000044d4    .D..    DCD    17620
    $t
    !!handler_copy
    __scatterload_copy
        0x0000c170:    3a10        .:      SUBS     r2,r2,#0x10
        0x0000c172:    bf24        $.      ITT      CS
        0x0000c174:    c878        x.      LDMCS    r0!,{r3-r6}
        0x0000c176:    c178        x.      STMCS    r1!,{r3-r6}
        0x0000c178:    d8fa        ..      BHI      __scatterload_copy ; 0xc170
        0x0000c17a:    0752        R.      LSLS     r2,r2,#29
        0x0000c17c:    bf24        $.      ITT      CS
        0x0000c17e:    c830        0.      LDMCS    r0!,{r4,r5}
        0x0000c180:    c130        0.      STMCS    r1!,{r4,r5}
        0x0000c182:    bf44        D.      ITT      MI
        0x0000c184:    6804        .h      LDRMI    r4,[r0,#0]
        0x0000c186:    600c        .`      STRMI    r4,[r1,#0]
        0x0000c188:    4770        pG      BX       lr
        0x0000c18a:    0000        ..      MOVS     r0,r0
    !!handler_zi
    __scatterload_zeroinit
        0x0000c18c:    2300        .#      MOVS     r3,#0
        0x0000c18e:    2400        .$      MOVS     r4,#0
        0x0000c190:    2500        .%      MOVS     r5,#0
        0x0000c192:    2600        .&      MOVS     r6,#0
        0x0000c194:    3a10        .:      SUBS     r2,r2,#0x10
        0x0000c196:    bf28        (.      IT       CS
        0x0000c198:    c178        x.      STMCS    r1!,{r3-r6}
        0x0000c19a:    d8fb        ..      BHI      0xc194 ; __scatterload_zeroinit + 8
        0x0000c19c:    0752        R.      LSLS     r2,r2,#29
        0x0000c19e:    bf28        (.      IT       CS
        0x0000c1a0:    c130        0.      STMCS    r1!,{r4,r5}
        0x0000c1a2:    bf48        H.      IT       MI
        0x0000c1a4:    600b        .`      STRMI    r3,[r1,#0]
        0x0000c1a6:    4770        pG      BX       lr
    .ARM.Collect$$libinit$$00000000
    __rt_lib_init
        0x0000c1a8:    b51f        ..      PUSH     {r0-r4,lr}
    .ARM.Collect$$libinit$$00000001
    __rt_lib_init_fp_1
        0x0000c1aa:    f003ff36    ..6.    BL       _fp_init ; 0x1001a
    .ARM.Collect$$libinit$$00000004
    .ARM.Collect$$libinit$$00000006
    .ARM.Collect$$libinit$$0000000C
    .ARM.Collect$$libinit$$0000000E
    .ARM.Collect$$libinit$$00000010
    .ARM.Collect$$libinit$$00000013
    .ARM.Collect$$libinit$$00000015
    .ARM.Collect$$libinit$$00000017
    .ARM.Collect$$libinit$$00000019
    .ARM.Collect$$libinit$$0000001B
    .ARM.Collect$$libinit$$0000001D
    .ARM.Collect$$libinit$$0000001F
    .ARM.Collect$$libinit$$00000021
    .ARM.Collect$$libinit$$00000023
    .ARM.Collect$$libinit$$00000025
    .ARM.Collect$$libinit$$00000027
    .ARM.Collect$$libinit$$0000002E
    .ARM.Collect$$libinit$$00000030
    .ARM.Collect$$libinit$$00000032
    .ARM.Collect$$libinit$$00000034
    .ARM.Collect$$libinit$$00000035
    __rt_lib_init_alloca_1
    __rt_lib_init_argv_1
    __rt_lib_init_atexit_1
    __rt_lib_init_clock_1
    __rt_lib_init_cpp_1
    __rt_lib_init_exceptions_1
    __rt_lib_init_fp_trap_1
    __rt_lib_init_getenv_1
    __rt_lib_init_heap_1
    __rt_lib_init_lc_collate_1
    __rt_lib_init_lc_ctype_1
    __rt_lib_init_lc_monetary_1
    __rt_lib_init_lc_numeric_1
    __rt_lib_init_lc_time_1
    __rt_lib_init_preinit_1
    __rt_lib_init_rand_1
    __rt_lib_init_relocate_pie_1
    __rt_lib_init_return
    __rt_lib_init_signal_1
    __rt_lib_init_stdio_1
    __rt_lib_init_user_alloc_1
        0x0000c1ae:    bd1f        ..      POP      {r0-r4,pc}
    .ARM.Collect$$libshutdown$$00000000
    __rt_lib_shutdown
        0x0000c1b0:    b510        ..      PUSH     {r4,lr}
    .ARM.Collect$$libshutdown$$00000002
    .ARM.Collect$$libshutdown$$00000004
    .ARM.Collect$$libshutdown$$00000007
    .ARM.Collect$$libshutdown$$0000000A
    .ARM.Collect$$libshutdown$$0000000C
    .ARM.Collect$$libshutdown$$0000000F
    .ARM.Collect$$libshutdown$$00000010
    __rt_lib_shutdown_cpp_1
    __rt_lib_shutdown_fp_trap_1
    __rt_lib_shutdown_heap_1
    __rt_lib_shutdown_return
    __rt_lib_shutdown_signal_1
    __rt_lib_shutdown_stdio_1
    __rt_lib_shutdown_user_alloc_1
        0x0000c1b2:    bd10        ..      POP      {r4,pc}
    .ARM.Collect$$rtentry$$00000000
    .ARM.Collect$$rtentry$$00000002
    .ARM.Collect$$rtentry$$00000004
    __rt_entry
    __rt_entry_presh_1
    __rt_entry_sh
        0x0000c1b4:    f000f81d    ....    BL       __user_setup_stackheap ; 0xc1f2
        0x0000c1b8:    4611        .F      MOV      r1,r2
    .ARM.Collect$$rtentry$$00000009
    .ARM.Collect$$rtentry$$0000000A
    __rt_entry_li
    __rt_entry_postsh_1
        0x0000c1ba:    f7fffff5    ....    BL       __rt_lib_init ; 0xc1a8
    .ARM.Collect$$rtentry$$0000000C
    .ARM.Collect$$rtentry$$0000000D
    __rt_entry_main
    __rt_entry_postli_1
        0x0000c1be:    f003fb07    ....    BL       main ; 0xf7d0
        0x0000c1c2:    f000f83b    ..;.    BL       exit ; 0xc23c
    .ARM.Collect$$rtexit$$00000000
    __rt_exit
        0x0000c1c6:    b403        ..      PUSH     {r0,r1}
    .ARM.Collect$$rtexit$$00000002
    .ARM.Collect$$rtexit$$00000003
    __rt_exit_ls
    __rt_exit_prels_1
        0x0000c1c8:    f7fffff2    ....    BL       __rt_lib_shutdown ; 0xc1b0
    .ARM.Collect$$rtexit$$00000004
    __rt_exit_exit
        0x0000c1cc:    bc03        ..      POP      {r0,r1}
        0x0000c1ce:    f000f843    ..C.    BL       _sys_exit ; 0xc258
        0x0000c1d2:    0000        ..      MOVS     r0,r0
    .text
    $v0
    __user_initial_stackheap
        0x0000c1d4:    4802        .H      LDR      r0,[pc,#8] ; [0xc1e0] = 0x100150c0
        0x0000c1d6:    4903        .I      LDR      r1,[pc,#12] ; [0xc1e4] = 0x10011000
        0x0000c1d8:    4a01        .J      LDR      r2,[pc,#4] ; [0xc1e0] = 0x100150c0
        0x0000c1da:    4b03        .K      LDR      r3,[pc,#12] ; [0xc1e8] = 0x10010000
        0x0000c1dc:    4770        pG      BX       lr
    $d
        0x0000c1de:    0000        ..      DCW    0
        0x0000c1e0:    100150c0    .P..    DCD    268521664
        0x0000c1e4:    10011000    ....    DCD    268505088
        0x0000c1e8:    10010000    ....    DCD    268500992
    $t
    .text
    __use_two_region_memory
        0x0000c1ec:    4770        pG      BX       lr
    __rt_heap_escrow$2region
        0x0000c1ee:    4770        pG      BX       lr
    __rt_heap_expand$2region
        0x0000c1f0:    4770        pG      BX       lr
    .text
    __user_setup_stackheap
        0x0000c1f2:    4675        uF      MOV      r5,lr
        0x0000c1f4:    f000f82c    ..,.    BL       __user_libspace ; 0xc250
        0x0000c1f8:    46ae        .F      MOV      lr,r5
        0x0000c1fa:    0005        ..      MOVS     r5,r0
        0x0000c1fc:    4669        iF      MOV      r1,sp
        0x0000c1fe:    4653        SF      MOV      r3,r10
        0x0000c200:    f0200007     ...    BIC      r0,r0,#7
        0x0000c204:    4685        .F      MOV      sp,r0
        0x0000c206:    b018        ..      ADD      sp,sp,#0x60
        0x0000c208:    b520         .      PUSH     {r5,lr}
        0x0000c20a:    f7ffffe3    ....    BL       __user_initial_stackheap ; 0xc1d4
        0x0000c20e:    e8bd4020    .. @    POP      {r5,lr}
        0x0000c212:    f04f0600    O...    MOV      r6,#0
        0x0000c216:    f04f0700    O...    MOV      r7,#0
        0x0000c21a:    f04f0800    O...    MOV      r8,#0
        0x0000c21e:    f04f0b00    O...    MOV      r11,#0
        0x0000c222:    46ac        .F      MOV      r12,r5
        0x0000c224:    e8ac09c0    ....    STM      r12!,{r6-r8,r11}
        0x0000c228:    e8ac09c0    ....    STM      r12!,{r6-r8,r11}
        0x0000c22c:    e8ac09c0    ....    STM      r12!,{r6-r8,r11}
        0x0000c230:    e8ac09c0    ....    STM      r12!,{r6-r8,r11}
        0x0000c234:    f0210107    !...    BIC      r1,r1,#7
        0x0000c238:    468d        .F      MOV      sp,r1
        0x0000c23a:    4770        pG      BX       lr
    .text
    exit
        0x0000c23c:    b510        ..      PUSH     {r4,lr}
        0x0000c23e:    4604        .F      MOV      r4,r0
        0x0000c240:    f3af8000    ....    NOP.W    
        0x0000c244:    4620         F      MOV      r0,r4
        0x0000c246:    e8bd4010    ...@    POP      {r4,lr}
        0x0000c24a:    f7ffbfbc    ....    B.W      __rt_exit ; 0xc1c6
        0x0000c24e:    0000        ..      MOVS     r0,r0
    .text
    __user_libspace
    __user_perproc_libspace
    __user_perthread_libspace
        0x0000c250:    4800        .H      LDR      r0,[pc,#0] ; [0xc254] = 0x10011050
        0x0000c252:    4770        pG      BX       lr
    $d
        0x0000c254:    10011050    P...    DCD    268505168
    $t
    .text
    _sys_exit
        0x0000c258:    4901        .I      LDR      r1,[pc,#4] ; [0xc260] = 0x20026
        0x0000c25a:    2018        .       MOVS     r0,#0x18
        0x0000c25c:    beab        ..      BKPT     #0xab
        0x0000c25e:    e7fe        ..      B        0xc25e ; _sys_exit + 6
    $d
        0x0000c260:    00020026    &...    DCD    131110
    $t
    .text
    __I$use$semihosting
    __use_no_semihosting_swi
        0x0000c264:    4770        pG      BX       lr
    .text
    __semihosting_library_function
        0x0000c266:    0000        ..      MOVS     r0,r0
    $t.8
    AM_HAL_GPIO_MASKBIT
        0x0000c268:    b082        ..      SUB      sp,sp,#8
        0x0000c26a:    9001        ..      STR      r0,[sp,#4]
        0x0000c26c:    9100        ..      STR      r1,[sp,#0]
        0x0000c26e:    9a00        ..      LDR      r2,[sp,#0]
        0x0000c270:    f002011f    ....    AND      r1,r2,#0x1f
        0x0000c274:    2001        .       MOVS     r0,#1
        0x0000c276:    4088        .@      LSLS     r0,r0,r1
        0x0000c278:    9901        ..      LDR      r1,[sp,#4]
        0x0000c27a:    0952        R.      LSRS     r2,r2,#5
        0x0000c27c:    f8410022    A.".    STR      r0,[r1,r2,LSL #2]
        0x0000c280:    9801        ..      LDR      r0,[sp,#4]
        0x0000c282:    b002        ..      ADD      sp,sp,#8
        0x0000c284:    4770        pG      BX       lr
        0x0000c286:    0000        ..      MOVS     r0,r0
    __NVIC_EnableIRQ
        0x0000c288:    b081        ..      SUB      sp,sp,#4
        0x0000c28a:    f88d0003    ....    STRB     r0,[sp,#3]
        0x0000c28e:    f99d0003    ....    LDRSB    r0,[sp,#3]
        0x0000c292:    2800        .(      CMP      r0,#0
        0x0000c294:    d40e        ..      BMI      0xc2b4 ; __NVIC_EnableIRQ + 44
        0x0000c296:    e7ff        ..      B        0xc298 ; __NVIC_EnableIRQ + 16
        0x0000c298:    f99d1003    ....    LDRSB    r1,[sp,#3]
        0x0000c29c:    f001021f    ....    AND      r2,r1,#0x1f
        0x0000c2a0:    2001        .       MOVS     r0,#1
        0x0000c2a2:    4090        .@      LSLS     r0,r0,r2
        0x0000c2a4:    094a        J.      LSRS     r2,r1,#5
        0x0000c2a6:    f24e1100    N...    MOVW     r1,#0xe100
        0x0000c2aa:    f2ce0100    ....    MOVT     r1,#0xe000
        0x0000c2ae:    f8410022    A.".    STR      r0,[r1,r2,LSL #2]
        0x0000c2b2:    e7ff        ..      B        0xc2b4 ; __NVIC_EnableIRQ + 44
        0x0000c2b4:    b001        ..      ADD      sp,sp,#4
        0x0000c2b6:    4770        pG      BX       lr
    am_bsp_iom_pins_enable
        0x0000c2b8:    b5b0        ..      PUSH     {r4,r5,r7,lr}
        0x0000c2ba:    2805        .(      CMP      r0,#5
        0x0000c2bc:    d900        ..      BLS      0xc2c0 ; am_bsp_iom_pins_enable + 8
        0x0000c2be:    bdb0        ..      POP      {r4,r5,r7,pc}
        0x0000c2c0:    ea410280    A...    ORR      r2,r1,r0,LSL #2
        0x0000c2c4:    2a15        .*      CMP      r2,#0x15
        0x0000c2c6:    bf88        ..      IT       HI
        0x0000c2c8:    bdb0        ..      POPHI    {r4,r5,r7,pc}
        0x0000c2ca:    f24025c8    @..%    MOVW     r5,#0x2c8
        0x0000c2ce:    f24021c4    @..!    MOVW     r1,#0x2c4
        0x0000c2d2:    2406        .$      MOVS     r4,#6
        0x0000c2d4:    f2c00501    ....    MOVT     r5,#1
        0x0000c2d8:    2005        .       MOVS     r0,#5
        0x0000c2da:    f2c00101    ....    MOVT     r1,#1
        0x0000c2de:    e8dff012    ....    TBH      [pc,r2,LSL #1]
    $d.9
        0x0000c2e2:    0019        ..      DCW    25
        0x0000c2e4:    001700fb    ....    DCD    1507579
        0x0000c2e8:    00350017    ..5.    DCD    3473431
        0x0000c2ec:    00170051    Q...    DCD    1507409
        0x0000c2f0:    005d0017    ..].    DCD    6094871
        0x0000c2f4:    00170079    y...    DCD    1507449
        0x0000c2f8:    00850017    ....    DCD    8716311
        0x0000c2fc:    001700a1    ....    DCD    1507489
        0x0000c300:    00ad0017    ....    DCD    11337751
        0x0000c304:    001700c9    ....    DCD    1507529
        0x0000c308:    00d50017    ....    DCD    13959191
        0x0000c30c:    bf0000f1    ....    DCD    3204448497
    $t.10
        0x0000c310:    e7d5        ..      B        0xc2be ; am_bsp_iom_pins_enable + 6
        0x0000c312:    bf00        ..      NOP      
        0x0000c314:    f24020c0    @..     MOVW     r0,#0x2c0
        0x0000c318:    f2c00001    ....    MOVT     r0,#1
        0x0000c31c:    6801        .h      LDR      r1,[r0,#0]
        0x0000c31e:    2005        .       MOVS     r0,#5
        0x0000c320:    f000ff72    ..r.    BL       am_hal_gpio_pinconfig ; 0xd208
        0x0000c324:    f24020b8    @..     MOVW     r0,#0x2b8
        0x0000c328:    f2c00001    ....    MOVT     r0,#1
        0x0000c32c:    6801        .h      LDR      r1,[r0,#0]
        0x0000c32e:    2006        .       MOVS     r0,#6
        0x0000c330:    f000ff6a    ..j.    BL       am_hal_gpio_pinconfig ; 0xd208
        0x0000c334:    f24025b4    @..%    MOVW     r5,#0x2b4
        0x0000c338:    f24021bc    @..!    MOVW     r1,#0x2bc
        0x0000c33c:    240b        .$      MOVS     r4,#0xb
        0x0000c33e:    f2c00501    ....    MOVT     r5,#1
        0x0000c342:    2007        .       MOVS     r0,#7
        0x0000c344:    f2c00101    ....    MOVT     r1,#1
        0x0000c348:    e0c6        ..      B        0xc4d8 ; am_bsp_iom_pins_enable + 544
        0x0000c34a:    bf00        ..      NOP      
        0x0000c34c:    f24020d8    @..     MOVW     r0,#0x2d8
        0x0000c350:    f2c00001    ....    MOVT     r0,#1
        0x0000c354:    6801        .h      LDR      r1,[r0,#0]
        0x0000c356:    2008        .       MOVS     r0,#8
        0x0000c358:    f000ff56    ..V.    BL       am_hal_gpio_pinconfig ; 0xd208
        0x0000c35c:    f24020d0    @..     MOVW     r0,#0x2d0
        0x0000c360:    f2c00001    ....    MOVT     r0,#1
        0x0000c364:    6801        .h      LDR      r1,[r0,#0]
        0x0000c366:    2009        .       MOVS     r0,#9
        0x0000c368:    f000ff4e    ..N.    BL       am_hal_gpio_pinconfig ; 0xd208
        0x0000c36c:    f24025cc    @..%    MOVW     r5,#0x2cc
        0x0000c370:    f24021d4    @..!    MOVW     r1,#0x2d4
        0x0000c374:    2422        "$      MOVS     r4,#0x22
        0x0000c376:    f2c00501    ....    MOVT     r5,#1
        0x0000c37a:    200a        .       MOVS     r0,#0xa
        0x0000c37c:    f2c00101    ....    MOVT     r1,#1
        0x0000c380:    e0aa        ..      B        0xc4d8 ; am_bsp_iom_pins_enable + 544
        0x0000c382:    bf00        ..      NOP      
        0x0000c384:    f24025e0    @..%    MOVW     r5,#0x2e0
        0x0000c388:    f24021dc    @..!    MOVW     r1,#0x2dc
        0x0000c38c:    2409        .$      MOVS     r4,#9
        0x0000c38e:    f2c00501    ....    MOVT     r5,#1
        0x0000c392:    2008        .       MOVS     r0,#8
        0x0000c394:    f2c00101    ....    MOVT     r1,#1
        0x0000c398:    e09e        ..      B        0xc4d8 ; am_bsp_iom_pins_enable + 544
        0x0000c39a:    bf00        ..      NOP      
        0x0000c39c:    f24020a8    @..     MOVW     r0,#0x2a8
        0x0000c3a0:    f2c00001    ....    MOVT     r0,#1
        0x0000c3a4:    6801        .h      LDR      r1,[r0,#0]
        0x0000c3a6:    201b        .       MOVS     r0,#0x1b
        0x0000c3a8:    f000ff2e    ....    BL       am_hal_gpio_pinconfig ; 0xd208
        0x0000c3ac:    f24020a0    @..     MOVW     r0,#0x2a0
        0x0000c3b0:    f2c00001    ....    MOVT     r0,#1
        0x0000c3b4:    6801        .h      LDR      r1,[r0,#0]
        0x0000c3b6:    2019        .       MOVS     r0,#0x19
        0x0000c3b8:    f000ff26    ..&.    BL       am_hal_gpio_pinconfig ; 0xd208
        0x0000c3bc:    f24025ac    @..%    MOVW     r5,#0x2ac
        0x0000c3c0:    f24021a4    @..!    MOVW     r1,#0x2a4
        0x0000c3c4:    240f        .$      MOVS     r4,#0xf
        0x0000c3c6:    f2c00501    ....    MOVT     r5,#1
        0x0000c3ca:    201c        .       MOVS     r0,#0x1c
        0x0000c3cc:    f2c00101    ....    MOVT     r1,#1
        0x0000c3d0:    e082        ..      B        0xc4d8 ; am_bsp_iom_pins_enable + 544
        0x0000c3d2:    bf00        ..      NOP      
        0x0000c3d4:    f24025e8    @..%    MOVW     r5,#0x2e8
        0x0000c3d8:    f24021e4    @..!    MOVW     r1,#0x2e4
        0x0000c3dc:    2419        .$      MOVS     r4,#0x19
        0x0000c3de:    f2c00501    ....    MOVT     r5,#1
        0x0000c3e2:    201b        .       MOVS     r0,#0x1b
        0x0000c3e4:    f2c00101    ....    MOVT     r1,#1
        0x0000c3e8:    e076        v.      B        0xc4d8 ; am_bsp_iom_pins_enable + 544
        0x0000c3ea:    bf00        ..      NOP      
        0x0000c3ec:    f24020f8    @..     MOVW     r0,#0x2f8
        0x0000c3f0:    f2c00001    ....    MOVT     r0,#1
        0x0000c3f4:    6801        .h      LDR      r1,[r0,#0]
        0x0000c3f6:    202a        *       MOVS     r0,#0x2a
        0x0000c3f8:    f000ff06    ....    BL       am_hal_gpio_pinconfig ; 0xd208
        0x0000c3fc:    f24020f0    @..     MOVW     r0,#0x2f0
        0x0000c400:    f2c00001    ....    MOVT     r0,#1
        0x0000c404:    6801        .h      LDR      r1,[r0,#0]
        0x0000c406:    202b        +       MOVS     r0,#0x2b
        0x0000c408:    f000fefe    ....    BL       am_hal_gpio_pinconfig ; 0xd208
        0x0000c40c:    f24025ec    @..%    MOVW     r5,#0x2ec
        0x0000c410:    f24021f4    @..!    MOVW     r1,#0x2f4
        0x0000c414:    241d        .$      MOVS     r4,#0x1d
        0x0000c416:    f2c00501    ....    MOVT     r5,#1
        0x0000c41a:    2026        &       MOVS     r0,#0x26
        0x0000c41c:    f2c00101    ....    MOVT     r1,#1
        0x0000c420:    e05a        Z.      B        0xc4d8 ; am_bsp_iom_pins_enable + 544
        0x0000c422:    bf00        ..      NOP      
        0x0000c424:    f2403500    @..5    MOVW     r5,#0x300
        0x0000c428:    f24021fc    @..!    MOVW     r1,#0x2fc
        0x0000c42c:    242b        +$      MOVS     r4,#0x2b
        0x0000c42e:    f2c00501    ....    MOVT     r5,#1
        0x0000c432:    202a        *       MOVS     r0,#0x2a
        0x0000c434:    f2c00101    ....    MOVT     r1,#1
        0x0000c438:    e04e        N.      B        0xc4d8 ; am_bsp_iom_pins_enable + 544
        0x0000c43a:    bf00        ..      NOP      
        0x0000c43c:    f2403010    @..0    MOVW     r0,#0x310
        0x0000c440:    f2c00001    ....    MOVT     r0,#1
        0x0000c444:    6801        .h      LDR      r1,[r0,#0]
        0x0000c446:    2027        '       MOVS     r0,#0x27
        0x0000c448:    f000fede    ....    BL       am_hal_gpio_pinconfig ; 0xd208
        0x0000c44c:    f2403008    @..0    MOVW     r0,#0x308
        0x0000c450:    f2c00001    ....    MOVT     r0,#1
        0x0000c454:    6801        .h      LDR      r1,[r0,#0]
        0x0000c456:    2028        (       MOVS     r0,#0x28
        0x0000c458:    f000fed6    ....    BL       am_hal_gpio_pinconfig ; 0xd208
        0x0000c45c:    f2403504    @..5    MOVW     r5,#0x304
        0x0000c460:    f240310c    @..1    MOVW     r1,#0x30c
        0x0000c464:    240d        .$      MOVS     r4,#0xd
        0x0000c466:    f2c00501    ....    MOVT     r5,#1
        0x0000c46a:    202c        ,       MOVS     r0,#0x2c
        0x0000c46c:    f2c00101    ....    MOVT     r1,#1
        0x0000c470:    e032        2.      B        0xc4d8 ; am_bsp_iom_pins_enable + 544
        0x0000c472:    bf00        ..      NOP      
        0x0000c474:    f2403518    @..5    MOVW     r5,#0x318
        0x0000c478:    f2403114    @..1    MOVW     r1,#0x314
        0x0000c47c:    2428        ($      MOVS     r4,#0x28
        0x0000c47e:    f2c00501    ....    MOVT     r5,#1
        0x0000c482:    2027        '       MOVS     r0,#0x27
        0x0000c484:    f2c00101    ....    MOVT     r1,#1
        0x0000c488:    e026        &.      B        0xc4d8 ; am_bsp_iom_pins_enable + 544
        0x0000c48a:    bf00        ..      NOP      
        0x0000c48c:    f2403028    @.(0    MOVW     r0,#0x328
        0x0000c490:    f2c00001    ....    MOVT     r0,#1
        0x0000c494:    6801        .h      LDR      r1,[r0,#0]
        0x0000c496:    2030        0       MOVS     r0,#0x30
        0x0000c498:    f000feb6    ....    BL       am_hal_gpio_pinconfig ; 0xd208
        0x0000c49c:    f2403020    @. 0    MOVW     r0,#0x320
        0x0000c4a0:    f2c00001    ....    MOVT     r0,#1
        0x0000c4a4:    6801        .h      LDR      r1,[r0,#0]
        0x0000c4a6:    2031        1       MOVS     r0,#0x31
        0x0000c4a8:    f000feae    ....    BL       am_hal_gpio_pinconfig ; 0xd208
        0x0000c4ac:    f240351c    @..5    MOVW     r5,#0x31c
        0x0000c4b0:    f2403124    @.$1    MOVW     r1,#0x324
        0x0000c4b4:    2410        .$      MOVS     r4,#0x10
        0x0000c4b6:    f2c00501    ....    MOVT     r5,#1
        0x0000c4ba:    202f        /       MOVS     r0,#0x2f
        0x0000c4bc:    f2c00101    ....    MOVT     r1,#1
        0x0000c4c0:    e00a        ..      B        0xc4d8 ; am_bsp_iom_pins_enable + 544
        0x0000c4c2:    bf00        ..      NOP      
        0x0000c4c4:    f2403530    @.05    MOVW     r5,#0x330
        0x0000c4c8:    f240312c    @.,1    MOVW     r1,#0x32c
        0x0000c4cc:    2431        1$      MOVS     r4,#0x31
        0x0000c4ce:    f2c00501    ....    MOVT     r5,#1
        0x0000c4d2:    2030        0       MOVS     r0,#0x30
        0x0000c4d4:    f2c00101    ....    MOVT     r1,#1
        0x0000c4d8:    6809        .h      LDR      r1,[r1,#0]
        0x0000c4da:    f000fe95    ....    BL       am_hal_gpio_pinconfig ; 0xd208
        0x0000c4de:    6829        )h      LDR      r1,[r5,#0]
        0x0000c4e0:    4620         F      MOV      r0,r4
        0x0000c4e2:    e8bd40b0    ...@    POP      {r4,r5,r7,lr}
        0x0000c4e6:    f000be8f    ....    B.W      am_hal_gpio_pinconfig ; 0xd208
        0x0000c4ea:    0000        ..      MOVS     r0,r0
    am_bsp_itm_printf_enable
        0x0000c4ec:    b580        ..      PUSH     {r7,lr}
        0x0000c4ee:    b086        ..      SUB      sp,sp,#0x18
        0x0000c4f0:    f24100b0    A...    MOV      r0,#0x10b0
        0x0000c4f4:    f2c10001    ....    MOVT     r0,#0x1001
        0x0000c4f8:    2101        .!      MOVS     r1,#1
        0x0000c4fa:    6001        .`      STR      r1,[r0,#0]
        0x0000c4fc:    f001fd74    ..t.    BL       am_hal_itm_enable ; 0xdfe8
        0x0000c500:    f2442040    D.@     MOV      r0,#0x4240
        0x0000c504:    f2c0000f    ....    MOVT     r0,#0xf
        0x0000c508:    9001        ..      STR      r0,[sp,#4]
        0x0000c50a:    a801        ..      ADD      r0,sp,#4
        0x0000c50c:    f002f8e4    ....    BL       am_hal_tpiu_enable ; 0xe6d8
        0x0000c510:    f2403034    @.40    MOVW     r0,#0x334
        0x0000c514:    f2c00001    ....    MOVT     r0,#1
        0x0000c518:    6801        .h      LDR      r1,[r0,#0]
        0x0000c51a:    2029        )       MOVS     r0,#0x29
        0x0000c51c:    f000fe74    ..t.    BL       am_hal_gpio_pinconfig ; 0xd208
        0x0000c520:    f24e0041    N.A.    MOV      r0,#0xe041
        0x0000c524:    f2c00000    ....    MOVT     r0,#0
        0x0000c528:    f002f968    ..h.    BL       am_util_stdio_printf_init ; 0xe7fc
        0x0000c52c:    b006        ..      ADD      sp,sp,#0x18
        0x0000c52e:    bd80        ..      POP      {r7,pc}
    am_bsp_low_power_init
        0x0000c530:    b570        p.      PUSH     {r4-r6,lr}
        0x0000c532:    f001fe21    ..!.    BL       am_hal_pwrctrl_low_power_init ; 0xe178
        0x0000c536:    f002f86f    ..o.    BL       am_hal_rtc_osc_disable ; 0xe618
        0x0000c53a:    f2403038    @.80    MOVW     r0,#0x338
        0x0000c53e:    f2410600    A...    MOVW     r6,#0x1000
        0x0000c542:    f2c00001    ....    MOVT     r0,#1
        0x0000c546:    f2c10601    ....    MOVT     r6,#0x1001
        0x0000c54a:    6804        .h      LDR      r4,[r0,#0]
        0x0000c54c:    6835        5h      LDR      r5,[r6,#0]
        0x0000c54e:    4621        !F      MOV      r1,r4
        0x0000c550:    4628        (F      MOV      r0,r5
        0x0000c552:    f000fe59    ..Y.    BL       am_hal_gpio_pinconfig ; 0xd208
        0x0000c556:    4628        (F      MOV      r0,r5
        0x0000c558:    2103        .!      MOVS     r1,#3
        0x0000c55a:    f000ff8b    ....    BL       am_hal_gpio_state_write ; 0xd474
        0x0000c55e:    4628        (F      MOV      r0,r5
        0x0000c560:    2100        .!      MOVS     r1,#0
        0x0000c562:    f000ff87    ....    BL       am_hal_gpio_state_write ; 0xd474
        0x0000c566:    68b5        .h      LDR      r5,[r6,#8]
        0x0000c568:    4621        !F      MOV      r1,r4
        0x0000c56a:    4628        (F      MOV      r0,r5
        0x0000c56c:    f000fe4c    ..L.    BL       am_hal_gpio_pinconfig ; 0xd208
        0x0000c570:    4628        (F      MOV      r0,r5
        0x0000c572:    2103        .!      MOVS     r1,#3
        0x0000c574:    f000ff7e    ..~.    BL       am_hal_gpio_state_write ; 0xd474
        0x0000c578:    4628        (F      MOV      r0,r5
        0x0000c57a:    2100        .!      MOVS     r1,#0
        0x0000c57c:    f000ff7a    ..z.    BL       am_hal_gpio_state_write ; 0xd474
        0x0000c580:    6935        5i      LDR      r5,[r6,#0x10]
        0x0000c582:    4621        !F      MOV      r1,r4
        0x0000c584:    4628        (F      MOV      r0,r5
        0x0000c586:    f000fe3f    ..?.    BL       am_hal_gpio_pinconfig ; 0xd208
        0x0000c58a:    4628        (F      MOV      r0,r5
        0x0000c58c:    2103        .!      MOVS     r1,#3
        0x0000c58e:    f000ff71    ..q.    BL       am_hal_gpio_state_write ; 0xd474
        0x0000c592:    4628        (F      MOV      r0,r5
        0x0000c594:    2100        .!      MOVS     r1,#0
        0x0000c596:    f000ff6d    ..m.    BL       am_hal_gpio_state_write ; 0xd474
        0x0000c59a:    69b5        .i      LDR      r5,[r6,#0x18]
        0x0000c59c:    4621        !F      MOV      r1,r4
        0x0000c59e:    4628        (F      MOV      r0,r5
        0x0000c5a0:    f000fe32    ..2.    BL       am_hal_gpio_pinconfig ; 0xd208
        0x0000c5a4:    4628        (F      MOV      r0,r5
        0x0000c5a6:    2103        .!      MOVS     r1,#3
        0x0000c5a8:    f000ff64    ..d.    BL       am_hal_gpio_state_write ; 0xd474
        0x0000c5ac:    4628        (F      MOV      r0,r5
        0x0000c5ae:    2100        .!      MOVS     r1,#0
        0x0000c5b0:    f000ff60    ..`.    BL       am_hal_gpio_state_write ; 0xd474
        0x0000c5b4:    6a35        5j      LDR      r5,[r6,#0x20]
        0x0000c5b6:    4621        !F      MOV      r1,r4
        0x0000c5b8:    4628        (F      MOV      r0,r5
        0x0000c5ba:    f000fe25    ..%.    BL       am_hal_gpio_pinconfig ; 0xd208
        0x0000c5be:    4628        (F      MOV      r0,r5
        0x0000c5c0:    2103        .!      MOVS     r1,#3
        0x0000c5c2:    f000ff57    ..W.    BL       am_hal_gpio_state_write ; 0xd474
        0x0000c5c6:    4628        (F      MOV      r0,r5
        0x0000c5c8:    2100        .!      MOVS     r1,#0
        0x0000c5ca:    e8bd4070    ..p@    POP      {r4-r6,lr}
        0x0000c5ce:    f000bf51    ..Q.    B.W      am_hal_gpio_state_write ; 0xd474
        0x0000c5d2:    0000        ..      MOVS     r0,r0
    am_gpio_isr
        0x0000c5d4:    b580        ..      PUSH     {r7,lr}
        0x0000c5d6:    b084        ..      SUB      sp,sp,#0x10
        0x0000c5d8:    a801        ..      ADD      r0,sp,#4
        0x0000c5da:    9000        ..      STR      r0,[sp,#0]
        0x0000c5dc:    2000        .       MOVS     r0,#0
        0x0000c5de:    9003        ..      STR      r0,[sp,#0xc]
        0x0000c5e0:    9002        ..      STR      r0,[sp,#8]
        0x0000c5e2:    9001        ..      STR      r0,[sp,#4]
        0x0000c5e4:    9900        ..      LDR      r1,[sp,#0]
        0x0000c5e6:    f000fdd7    ....    BL       am_hal_gpio_interrupt_status_get ; 0xd198
        0x0000c5ea:    9800        ..      LDR      r0,[sp,#0]
        0x0000c5ec:    f000fcf4    ....    BL       am_hal_gpio_interrupt_clear ; 0xcfd8
        0x0000c5f0:    9800        ..      LDR      r0,[sp,#0]
        0x0000c5f2:    f000fd51    ..Q.    BL       am_hal_gpio_interrupt_service ; 0xd098
        0x0000c5f6:    b004        ..      ADD      sp,sp,#0x10
        0x0000c5f8:    bd80        ..      POP      {r7,pc}
        0x0000c5fa:    0000        ..      MOVS     r0,r0
    am_hal_burst_ldo_charge
        0x0000c5fc:    b510        ..      PUSH     {r4,lr}
        0x0000c5fe:    f6430038    C.8.    MOV      r0,#0x3838
        0x0000c602:    f2c50002    ....    MOVT     r0,#0x5002
        0x0000c606:    6800        .h      LDR      r0,[r0,#0]
        0x0000c608:    0700        ..      LSLS     r0,r0,#28
        0x0000c60a:    bf48        H.      IT       MI
        0x0000c60c:    bd10        ..      POPMI    {r4,pc}
        0x0000c60e:    2464        d$      MOVS     r4,#0x64
        0x0000c610:    f2c40402    ....    MOVT     r4,#0x4002
        0x0000c614:    f8540c04    T...    LDR      r0,[r4,#-4]
        0x0000c618:    f0200080     ...    BIC      r0,r0,#0x80
        0x0000c61c:    f8440c04    D...    STR      r0,[r4,#-4]
        0x0000c620:    f8540c04    T...    LDR      r0,[r4,#-4]
        0x0000c624:    f0200020     . .    BIC      r0,r0,#0x20
        0x0000c628:    f8440c04    D...    STR      r0,[r4,#-4]
        0x0000c62c:    f8540c04    T...    LDR      r0,[r4,#-4]
        0x0000c630:    f0400040    @.@.    ORR      r0,r0,#0x40
        0x0000c634:    f8440c04    D...    STR      r0,[r4,#-4]
        0x0000c638:    f8540c04    T...    LDR      r0,[r4,#-4]
        0x0000c63c:    f4407080    @..p    ORR      r0,r0,#0x100
        0x0000c640:    f8440c04    D...    STR      r0,[r4,#-4]
        0x0000c644:    f2471000    G...    MOVW     r0,#0x7100
        0x0000c648:    f2c00002    ....    MOVT     r0,#2
        0x0000c64c:    f000fc38    ..8.    BL       am_hal_flash_delay ; 0xcec0
        0x0000c650:    6820         h      LDR      r0,[r4,#0]
        0x0000c652:    f0400008    @...    ORR      r0,r0,#8
        0x0000c656:    6020         `      STR      r0,[r4,#0]
        0x0000c658:    6820         h      LDR      r0,[r4,#0]
        0x0000c65a:    f0400001    @...    ORR      r0,r0,#1
        0x0000c65e:    6020         `      STR      r0,[r4,#0]
        0x0000c660:    6820         h      LDR      r0,[r4,#0]
        0x0000c662:    f0400004    @...    ORR      r0,r0,#4
        0x0000c666:    6020         `      STR      r0,[r4,#0]
        0x0000c668:    6820         h      LDR      r0,[r4,#0]
        0x0000c66a:    f0200002     ...    BIC      r0,r0,#2
        0x0000c66e:    6020         `      STR      r0,[r4,#0]
        0x0000c670:    6820         h      LDR      r0,[r4,#0]
        0x0000c672:    f0400010    @...    ORR      r0,r0,#0x10
        0x0000c676:    6020         `      STR      r0,[r4,#0]
        0x0000c678:    2020                MOVS     r0,#0x20
        0x0000c67a:    f000fc21    ..!.    BL       am_hal_flash_delay ; 0xcec0
        0x0000c67e:    6820         h      LDR      r0,[r4,#0]
        0x0000c680:    f0400002    @...    ORR      r0,r0,#2
        0x0000c684:    6020         `      STR      r0,[r4,#0]
        0x0000c686:    f44f40fa    O..@    MOV      r0,#0x7d00
        0x0000c68a:    f000fc19    ....    BL       am_hal_flash_delay ; 0xcec0
        0x0000c68e:    6820         h      LDR      r0,[r4,#0]
        0x0000c690:    f0200001     ...    BIC      r0,r0,#1
        0x0000c694:    6020         `      STR      r0,[r4,#0]
        0x0000c696:    6820         h      LDR      r0,[r4,#0]
        0x0000c698:    f0200004     ...    BIC      r0,r0,#4
        0x0000c69c:    6020         `      STR      r0,[r4,#0]
        0x0000c69e:    6820         h      LDR      r0,[r4,#0]
        0x0000c6a0:    f0200002     ...    BIC      r0,r0,#2
        0x0000c6a4:    6020         `      STR      r0,[r4,#0]
        0x0000c6a6:    f8540c04    T...    LDR      r0,[r4,#-4]
        0x0000c6aa:    f0200040     .@.    BIC      r0,r0,#0x40
        0x0000c6ae:    f8440c04    D...    STR      r0,[r4,#-4]
        0x0000c6b2:    f8540c04    T...    LDR      r0,[r4,#-4]
        0x0000c6b6:    f4207080     ..p    BIC      r0,r0,#0x100
        0x0000c6ba:    f8440c04    D...    STR      r0,[r4,#-4]
        0x0000c6be:    bd10        ..      POP      {r4,pc}
    am_hal_burst_ldo_patch_check
        0x0000c6c0:    f6430038    C.8.    MOV      r0,#0x3838
        0x0000c6c4:    f2c50002    ....    MOVT     r0,#0x5002
        0x0000c6c8:    6800        .h      LDR      r0,[r0,#0]
        0x0000c6ca:    2101        .!      MOVS     r1,#1
        0x0000c6cc:    f0000008    ....    AND      r0,r0,#8
        0x0000c6d0:    ea8100d0    ....    EOR      r0,r1,r0,LSR #3
        0x0000c6d4:    4770        pG      BX       lr
        0x0000c6d6:    0000        ..      MOVS     r0,r0
    am_hal_burst_mode_disable
        0x0000c6d8:    b570        p.      PUSH     {r4-r6,lr}
        0x0000c6da:    b082        ..      SUB      sp,sp,#8
        0x0000c6dc:    f244655c    D.\e    MOV      r5,#0x465c
        0x0000c6e0:    f2c10501    ....    MOVT     r5,#0x1001
        0x0000c6e4:    7829        )x      LDRB     r1,[r5,#0]
        0x0000c6e6:    4604        .F      MOV      r4,r0
        0x0000c6e8:    b311        ..      CBZ      r1,0xc730 ; am_hal_burst_mode_disable + 88
        0x0000c6ea:    f2440534    D.4.    MOV      r5,#0x4034
        0x0000c6ee:    f2c40500    ....    MOVT     r5,#0x4000
        0x0000c6f2:    f000ff19    ....    BL       am_hal_interrupt_master_disable ; 0xd528
        0x0000c6f6:    9001        ..      STR      r0,[sp,#4]
        0x0000c6f8:    4628        (F      MOV      r0,r5
        0x0000c6fa:    2100        .!      MOVS     r1,#0
        0x0000c6fc:    f000fc56    ..V.    BL       am_hal_flash_store_ui32 ; 0xcfac
        0x0000c700:    9801        ..      LDR      r0,[sp,#4]
        0x0000c702:    f000ff19    ....    BL       am_hal_interrupt_master_set ; 0xd538
        0x0000c706:    f2410028    A.(.    MOV      r0,#0x1028
        0x0000c70a:    f2c40002    ....    MOVT     r0,#0x4002
        0x0000c70e:    6801        .h      LDR      r1,[r0,#0]
        0x0000c710:    2601        .&      MOVS     r6,#1
        0x0000c712:    f0214100    !..A    BIC      r1,r1,#0x80000000
        0x0000c716:    6001        .`      STR      r1,[r0,#0]
        0x0000c718:    f2427010    B..p    MOV      r0,#0x2710
        0x0000c71c:    4629        )F      MOV      r1,r5
        0x0000c71e:    2204        ."      MOVS     r2,#4
        0x0000c720:    2300        .#      MOVS     r3,#0
        0x0000c722:    9600        ..      STR      r6,[sp,#0]
        0x0000c724:    f000fbe2    ....    BL       am_hal_flash_delay_status_check ; 0xceec
        0x0000c728:    b160        `.      CBZ      r0,0xc744 ; am_hal_burst_mode_disable + 108
        0x0000c72a:    7026        &p      STRB     r6,[r4,#0]
        0x0000c72c:    b002        ..      ADD      sp,sp,#8
        0x0000c72e:    bd70        p.      POP      {r4-r6,pc}
        0x0000c730:    b184        ..      CBZ      r4,0xc754 ; am_hal_burst_mode_disable + 124
        0x0000c732:    2001        .       MOVS     r0,#1
        0x0000c734:    7028        (p      STRB     r0,[r5,#0]
        0x0000c736:    4620         F      MOV      r0,r4
        0x0000c738:    f7ffffce    ....    BL       am_hal_burst_mode_disable ; 0xc6d8
        0x0000c73c:    2100        .!      MOVS     r1,#0
        0x0000c73e:    7029        )p      STRB     r1,[r5,#0]
        0x0000c740:    e009        ..      B        0xc756 ; am_hal_burst_mode_disable + 126
        0x0000c742:    bf00        ..      NOP      
        0x0000c744:    6828        (h      LDR      r0,[r5,#0]
        0x0000c746:    ea260090    &...    BIC      r0,r6,r0,LSR #2
        0x0000c74a:    7020         p      STRB     r0,[r4,#0]
        0x0000c74c:    2000        .       MOVS     r0,#0
        0x0000c74e:    b002        ..      ADD      sp,sp,#8
        0x0000c750:    bd70        p.      POP      {r4-r6,pc}
        0x0000c752:    bf00        ..      NOP      
        0x0000c754:    2002        .       MOVS     r0,#2
        0x0000c756:    f6430138    C.8.    MOV      r1,#0x3838
        0x0000c75a:    f2c50102    ....    MOVT     r1,#0x5002
        0x0000c75e:    6809        .h      LDR      r1,[r1,#0]
        0x0000c760:    0709        ..      LSLS     r1,r1,#28
        0x0000c762:    d4f4        ..      BMI      0xc74e ; am_hal_burst_mode_disable + 118
        0x0000c764:    2164        d!      MOVS     r1,#0x64
        0x0000c766:    f2c40102    ....    MOVT     r1,#0x4002
        0x0000c76a:    680a        .h      LDR      r2,[r1,#0]
        0x0000c76c:    f0220204    "...    BIC      r2,r2,#4
        0x0000c770:    600a        .`      STR      r2,[r1,#0]
        0x0000c772:    680a        .h      LDR      r2,[r1,#0]
        0x0000c774:    f0220202    "...    BIC      r2,r2,#2
        0x0000c778:    600a        .`      STR      r2,[r1,#0]
        0x0000c77a:    f8d12fc0    .../    LDR      r2,[r1,#0xfc0]
        0x0000c77e:    f0220280    "...    BIC      r2,r2,#0x80
        0x0000c782:    f8c12fc0    .../    STR      r2,[r1,#0xfc0]
        0x0000c786:    b002        ..      ADD      sp,sp,#8
        0x0000c788:    bd70        p.      POP      {r4-r6,pc}
        0x0000c78a:    0000        ..      MOVS     r0,r0
    am_hal_burst_mode_enable
        0x0000c78c:    b570        p.      PUSH     {r4-r6,lr}
        0x0000c78e:    b082        ..      SUB      sp,sp,#8
        0x0000c790:    f24101b8    A...    MOV      r1,#0x10b8
        0x0000c794:    f2c10101    ....    MOVT     r1,#0x1001
        0x0000c798:    784a        Jx      LDRB     r2,[r1,#1]
        0x0000c79a:    4604        .F      MOV      r4,r0
        0x0000c79c:    b1b2        ..      CBZ      r2,0xc7cc ; am_hal_burst_mode_enable + 64
        0x0000c79e:    7808        .x      LDRB     r0,[r1,#0]
        0x0000c7a0:    b1d0        ..      CBZ      r0,0xc7d8 ; am_hal_burst_mode_enable + 76
        0x0000c7a2:    f2440534    D.4.    MOV      r5,#0x4034
        0x0000c7a6:    f2c40500    ....    MOVT     r5,#0x4000
        0x0000c7aa:    6828        (h      LDR      r0,[r5,#0]
        0x0000c7ac:    2601        .&      MOVS     r6,#1
        0x0000c7ae:    f0400001    @...    ORR      r0,r0,#1
        0x0000c7b2:    6028        (`      STR      r0,[r5,#0]
        0x0000c7b4:    f2427010    B..p    MOV      r0,#0x2710
        0x0000c7b8:    4629        )F      MOV      r1,r5
        0x0000c7ba:    2204        ."      MOVS     r2,#4
        0x0000c7bc:    2304        .#      MOVS     r3,#4
        0x0000c7be:    9600        ..      STR      r6,[sp,#0]
        0x0000c7c0:    f000fb94    ....    BL       am_hal_flash_delay_status_check ; 0xceec
        0x0000c7c4:    b170        p.      CBZ      r0,0xc7e4 ; am_hal_burst_mode_enable + 88
        0x0000c7c6:    7026        &p      STRB     r6,[r4,#0]
        0x0000c7c8:    b002        ..      ADD      sp,sp,#8
        0x0000c7ca:    bd70        p.      POP      {r4-r6,pc}
        0x0000c7cc:    4620         F      MOV      r0,r4
        0x0000c7ce:    b002        ..      ADD      sp,sp,#8
        0x0000c7d0:    e8bd4070    ..p@    POP      {r4-r6,lr}
        0x0000c7d4:    f000b816    ....    B.W      am_hal_burst_mode_enable_w_manual_sequence ; 0xc804
        0x0000c7d8:    2001        .       MOVS     r0,#1
        0x0000c7da:    7020         p      STRB     r0,[r4,#0]
        0x0000c7dc:    2007        .       MOVS     r0,#7
        0x0000c7de:    b002        ..      ADD      sp,sp,#8
        0x0000c7e0:    bd70        p.      POP      {r4-r6,pc}
        0x0000c7e2:    bf00        ..      NOP      
        0x0000c7e4:    6828        (h      LDR      r0,[r5,#0]
        0x0000c7e6:    0780        ..      LSLS     r0,r0,#30
        0x0000c7e8:    d404        ..      BMI      0xc7f4 ; am_hal_burst_mode_enable + 104
        0x0000c7ea:    2001        .       MOVS     r0,#1
        0x0000c7ec:    7020         p      STRB     r0,[r4,#0]
        0x0000c7ee:    b002        ..      ADD      sp,sp,#8
        0x0000c7f0:    bd70        p.      POP      {r4-r6,pc}
        0x0000c7f2:    bf00        ..      NOP      
        0x0000c7f4:    6828        (h      LDR      r0,[r5,#0]
        0x0000c7f6:    2101        .!      MOVS     r1,#1
        0x0000c7f8:    ea210090    !...    BIC      r0,r1,r0,LSR #2
        0x0000c7fc:    7020         p      STRB     r0,[r4,#0]
        0x0000c7fe:    2000        .       MOVS     r0,#0
        0x0000c800:    b002        ..      ADD      sp,sp,#8
        0x0000c802:    bd70        p.      POP      {r4-r6,pc}
    am_hal_burst_mode_enable_w_manual_sequence
        0x0000c804:    e92d43f0    -..C    PUSH     {r4-r9,lr}
        0x0000c808:    b083        ..      SUB      sp,sp,#0xc
        0x0000c80a:    f24108b8    A...    MOV      r8,#0x10b8
        0x0000c80e:    f2c10801    ....    MOVT     r8,#0x1001
        0x0000c812:    f8981000    ....    LDRB     r1,[r8,#0]
        0x0000c816:    4604        .F      MOV      r4,r0
        0x0000c818:    2900        .)      CMP      r1,#0
        0x0000c81a:    d04d        M.      BEQ      0xc8b8 ; am_hal_burst_mode_enable_w_manual_sequence + 180
        0x0000c81c:    f6430038    C.8.    MOV      r0,#0x3838
        0x0000c820:    f2c50002    ....    MOVT     r0,#0x5002
        0x0000c824:    6800        .h      LDR      r0,[r0,#0]
        0x0000c826:    0700        ..      LSLS     r0,r0,#28
        0x0000c828:    d44e        N.      BMI      0xc8c8 ; am_hal_burst_mode_enable_w_manual_sequence + 196
        0x0000c82a:    2760        `'      MOVS     r7,#0x60
        0x0000c82c:    f2c40702    ....    MOVT     r7,#0x4002
        0x0000c830:    f000fe7a    ..z.    BL       am_hal_interrupt_master_disable ; 0xd528
        0x0000c834:    9002        ..      STR      r0,[sp,#8]
        0x0000c836:    f001fe93    ....    BL       am_hal_pwrctrl_wa_vddf_restore ; 0xe560
        0x0000c83a:    6838        8h      LDR      r0,[r7,#0]
        0x0000c83c:    f2410524    A.$.    MOV      r5,#0x1024
        0x0000c840:    f0400080    @...    ORR      r0,r0,#0x80
        0x0000c844:    6038        8`      STR      r0,[r7,#0]
        0x0000c846:    6838        8h      LDR      r0,[r7,#0]
        0x0000c848:    f2c40502    ....    MOVT     r5,#0x4002
        0x0000c84c:    f0400040    @.@.    ORR      r0,r0,#0x40
        0x0000c850:    6038        8`      STR      r0,[r7,#0]
        0x0000c852:    f8550c20    U. .    LDR      r0,[r5,#-0x20]
        0x0000c856:    6839        9h      LDR      r1,[r7,#0]
        0x0000c858:    0840        @.      LSRS     r0,r0,#1
        0x0000c85a:    f3601145    `.E.    BFI      r1,r0,#5,#1
        0x0000c85e:    6039        9`      STR      r1,[r7,#0]
        0x0000c860:    6838        8h      LDR      r0,[r7,#0]
        0x0000c862:    f4407080    @..p    ORR      r0,r0,#0x100
        0x0000c866:    6038        8`      STR      r0,[r7,#0]
        0x0000c868:    20a0        .       MOVS     r0,#0xa0
        0x0000c86a:    f000fb29    ..).    BL       am_hal_flash_delay ; 0xcec0
        0x0000c86e:    6838        8h      LDR      r0,[r7,#0]
        0x0000c870:    f0400020    @. .    ORR      r0,r0,#0x20
        0x0000c874:    6038        8`      STR      r0,[r7,#0]
        0x0000c876:    6828        (h      LDR      r0,[r5,#0]
        0x0000c878:    f0400080    @...    ORR      r0,r0,#0x80
        0x0000c87c:    6028        (`      STR      r0,[r5,#0]
        0x0000c87e:    f8d70fa0    ....    LDR      r0,[r7,#0xfa0]
        0x0000c882:    f0400001    @...    ORR      r0,r0,#1
        0x0000c886:    f8c70fa0    ....    STR      r0,[r7,#0xfa0]
        0x0000c88a:    6879        yh      LDR      r1,[r7,#4]
        0x0000c88c:    6878        xh      LDR      r0,[r7,#4]
        0x0000c88e:    06c9        ..      LSLS     r1,r1,#27
        0x0000c890:    d430        0.      BMI      0xc8f4 ; am_hal_burst_mode_enable_w_manual_sequence + 240
        0x0000c892:    f0400008    @...    ORR      r0,r0,#8
        0x0000c896:    6078        x`      STR      r0,[r7,#4]
        0x0000c898:    6878        xh      LDR      r0,[r7,#4]
        0x0000c89a:    f0400001    @...    ORR      r0,r0,#1
        0x0000c89e:    6078        x`      STR      r0,[r7,#4]
        0x0000c8a0:    6878        xh      LDR      r0,[r7,#4]
        0x0000c8a2:    f0400004    @...    ORR      r0,r0,#4
        0x0000c8a6:    6078        x`      STR      r0,[r7,#4]
        0x0000c8a8:    6878        xh      LDR      r0,[r7,#4]
        0x0000c8aa:    f0200002     ...    BIC      r0,r0,#2
        0x0000c8ae:    6078        x`      STR      r0,[r7,#4]
        0x0000c8b0:    6878        xh      LDR      r0,[r7,#4]
        0x0000c8b2:    f0400010    @...    ORR      r0,r0,#0x10
        0x0000c8b6:    e01f        ..      B        0xc8f8 ; am_hal_burst_mode_enable_w_manual_sequence + 244
        0x0000c8b8:    2001        .       MOVS     r0,#1
        0x0000c8ba:    7020         p      STRB     r0,[r4,#0]
        0x0000c8bc:    2507        .%      MOVS     r5,#7
        0x0000c8be:    4628        (F      MOV      r0,r5
        0x0000c8c0:    b003        ..      ADD      sp,sp,#0xc
        0x0000c8c2:    e8bd83f0    ....    POP      {r4-r9,pc}
        0x0000c8c6:    bf00        ..      NOP      
        0x0000c8c8:    f2440634    D.4.    MOV      r6,#0x4034
        0x0000c8cc:    2701        .'      MOVS     r7,#1
        0x0000c8ce:    f2c40600    ....    MOVT     r6,#0x4000
        0x0000c8d2:    f8887001    ...p    STRB     r7,[r8,#1]
        0x0000c8d6:    6830        0h      LDR      r0,[r6,#0]
        0x0000c8d8:    4631        1F      MOV      r1,r6
        0x0000c8da:    f0400001    @...    ORR      r0,r0,#1
        0x0000c8de:    6030        0`      STR      r0,[r6,#0]
        0x0000c8e0:    f2427010    B..p    MOV      r0,#0x2710
        0x0000c8e4:    2204        ."      MOVS     r2,#4
        0x0000c8e6:    2304        .#      MOVS     r3,#4
        0x0000c8e8:    9700        ..      STR      r7,[sp,#0]
        0x0000c8ea:    f000faff    ....    BL       am_hal_flash_delay_status_check ; 0xceec
        0x0000c8ee:    b348        H.      CBZ      r0,0xc944 ; am_hal_burst_mode_enable_w_manual_sequence + 320
        0x0000c8f0:    4605        .F      MOV      r5,r0
        0x0000c8f2:    e03b        ;.      B        0xc96c ; am_hal_burst_mode_enable_w_manual_sequence + 360
        0x0000c8f4:    f0400004    @...    ORR      r0,r0,#4
        0x0000c8f8:    6078        x`      STR      r0,[r7,#4]
        0x0000c8fa:    2020                MOVS     r0,#0x20
        0x0000c8fc:    f000fae0    ....    BL       am_hal_flash_delay ; 0xcec0
        0x0000c900:    6878        xh      LDR      r0,[r7,#4]
        0x0000c902:    f0400002    @...    ORR      r0,r0,#2
        0x0000c906:    6078        x`      STR      r0,[r7,#4]
        0x0000c908:    2010        .       MOVS     r0,#0x10
        0x0000c90a:    f000fad9    ....    BL       am_hal_flash_delay ; 0xcec0
        0x0000c90e:    f8980000    ....    LDRB     r0,[r8,#0]
        0x0000c912:    2601        .&      MOVS     r6,#1
        0x0000c914:    f8886001    ...`    STRB     r6,[r8,#1]
        0x0000c918:    b1d0        ..      CBZ      r0,0xc950 ; am_hal_burst_mode_enable_w_manual_sequence + 332
        0x0000c91a:    f2440934    D.4.    MOV      r9,#0x4034
        0x0000c91e:    f2c40900    ....    MOVT     r9,#0x4000
        0x0000c922:    f8d90000    ....    LDR      r0,[r9,#0]
        0x0000c926:    4649        IF      MOV      r1,r9
        0x0000c928:    f0400001    @...    ORR      r0,r0,#1
        0x0000c92c:    f8c90000    ....    STR      r0,[r9,#0]
        0x0000c930:    f2427010    B..p    MOV      r0,#0x2710
        0x0000c934:    2204        ."      MOVS     r2,#4
        0x0000c936:    2304        .#      MOVS     r3,#4
        0x0000c938:    9600        ..      STR      r6,[sp,#0]
        0x0000c93a:    f000fad7    ....    BL       am_hal_flash_delay_status_check ; 0xceec
        0x0000c93e:    b148        H.      CBZ      r0,0xc954 ; am_hal_burst_mode_enable_w_manual_sequence + 336
        0x0000c940:    4605        .F      MOV      r5,r0
        0x0000c942:    e020         .      B        0xc986 ; am_hal_burst_mode_enable_w_manual_sequence + 386
        0x0000c944:    6830        0h      LDR      r0,[r6,#0]
        0x0000c946:    2701        .'      MOVS     r7,#1
        0x0000c948:    0780        ..      LSLS     r0,r0,#30
        0x0000c94a:    d40b        ..      BMI      0xc964 ; am_hal_burst_mode_enable_w_manual_sequence + 352
        0x0000c94c:    2501        .%      MOVS     r5,#1
        0x0000c94e:    e00d        ..      B        0xc96c ; am_hal_burst_mode_enable_w_manual_sequence + 360
        0x0000c950:    2507        .%      MOVS     r5,#7
        0x0000c952:    e018        ..      B        0xc986 ; am_hal_burst_mode_enable_w_manual_sequence + 386
        0x0000c954:    f8d90000    ....    LDR      r0,[r9,#0]
        0x0000c958:    2601        .&      MOVS     r6,#1
        0x0000c95a:    0780        ..      LSLS     r0,r0,#30
        0x0000c95c:    d40e        ..      BMI      0xc97c ; am_hal_burst_mode_enable_w_manual_sequence + 376
        0x0000c95e:    2501        .%      MOVS     r5,#1
        0x0000c960:    e011        ..      B        0xc986 ; am_hal_burst_mode_enable_w_manual_sequence + 386
        0x0000c962:    bf00        ..      NOP      
        0x0000c964:    6830        0h      LDR      r0,[r6,#0]
        0x0000c966:    2500        .%      MOVS     r5,#0
        0x0000c968:    ea270790    '...    BIC      r7,r7,r0,LSR #2
        0x0000c96c:    2000        .       MOVS     r0,#0
        0x0000c96e:    7027        'p      STRB     r7,[r4,#0]
        0x0000c970:    f8880001    ....    STRB     r0,[r8,#1]
        0x0000c974:    4628        (F      MOV      r0,r5
        0x0000c976:    b003        ..      ADD      sp,sp,#0xc
        0x0000c978:    e8bd83f0    ....    POP      {r4-r9,pc}
        0x0000c97c:    f8d90000    ....    LDR      r0,[r9,#0]
        0x0000c980:    2500        .%      MOVS     r5,#0
        0x0000c982:    ea260690    &...    BIC      r6,r6,r0,LSR #2
        0x0000c986:    2000        .       MOVS     r0,#0
        0x0000c988:    7026        &p      STRB     r6,[r4,#0]
        0x0000c98a:    f8880001    ....    STRB     r0,[r8,#1]
        0x0000c98e:    f44f70c8    O..p    MOV      r0,#0x190
        0x0000c992:    f000fa95    ....    BL       am_hal_flash_delay ; 0xcec0
        0x0000c996:    6838        8h      LDR      r0,[r7,#0]
        0x0000c998:    f4207080     ..p    BIC      r0,r0,#0x100
        0x0000c99c:    6038        8`      STR      r0,[r7,#0]
        0x0000c99e:    6838        8h      LDR      r0,[r7,#0]
        0x0000c9a0:    f0200080     ...    BIC      r0,r0,#0x80
        0x0000c9a4:    6038        8`      STR      r0,[r7,#0]
        0x0000c9a6:    6838        8h      LDR      r0,[r7,#0]
        0x0000c9a8:    f0200040     .@.    BIC      r0,r0,#0x40
        0x0000c9ac:    6038        8`      STR      r0,[r7,#0]
        0x0000c9ae:    6838        8h      LDR      r0,[r7,#0]
        0x0000c9b0:    f0200020     . .    BIC      r0,r0,#0x20
        0x0000c9b4:    6038        8`      STR      r0,[r7,#0]
        0x0000c9b6:    6878        xh      LDR      r0,[r7,#4]
        0x0000c9b8:    07c0        ..      LSLS     r0,r0,#31
        0x0000c9ba:    d003        ..      BEQ      0xc9c4 ; am_hal_burst_mode_enable_w_manual_sequence + 448
        0x0000c9bc:    6878        xh      LDR      r0,[r7,#4]
        0x0000c9be:    f0200001     ...    BIC      r0,r0,#1
        0x0000c9c2:    6078        x`      STR      r0,[r7,#4]
        0x0000c9c4:    f001fd68    ..h.    BL       am_hal_pwrctrl_wa_vddf_boost ; 0xe498
        0x0000c9c8:    9802        ..      LDR      r0,[sp,#8]
        0x0000c9ca:    f000fdb5    ....    BL       am_hal_interrupt_master_set ; 0xd538
        0x0000c9ce:    4628        (F      MOV      r0,r5
        0x0000c9d0:    b003        ..      ADD      sp,sp,#0xc
        0x0000c9d2:    e8bd83f0    ....    POP      {r4-r9,pc}
        0x0000c9d6:    0000        ..      MOVS     r0,r0
    am_hal_cachectrl_config
        0x0000c9d8:    b5b0        ..      PUSH     {r4,r5,r7,lr}
        0x0000c9da:    b082        ..      SUB      sp,sp,#8
        0x0000c9dc:    4604        .F      MOV      r4,r0
        0x0000c9de:    f000fda3    ....    BL       am_hal_interrupt_master_disable ; 0xd528
        0x0000c9e2:    f2480500    H...    MOVW     r5,#0x8000
        0x0000c9e6:    9001        ..      STR      r0,[sp,#4]
        0x0000c9e8:    f2c40501    ....    MOVT     r5,#0x4001
        0x0000c9ec:    6828        (h      LDR      r0,[r5,#0]
        0x0000c9ee:    f4207040     .@p    BIC      r0,r0,#0x300
        0x0000c9f2:    6028        (`      STR      r0,[r5,#0]
        0x0000c9f4:    9801        ..      LDR      r0,[sp,#4]
        0x0000c9f6:    f000fd9f    ....    BL       am_hal_interrupt_master_set ; 0xd538
        0x0000c9fa:    78a1        .x      LDRB     r1,[r4,#2]
        0x0000c9fc:    7820         x      LDRB     r0,[r4,#0]
        0x0000c9fe:    7862        bx      LDRB     r2,[r4,#1]
        0x0000ca00:    0049        I.      LSLS     r1,r1,#1
        0x0000ca02:    b2c9        ..      UXTB     r1,r1
        0x0000ca04:    f0020203    ....    AND      r2,r2,#3
        0x0000ca08:    f3601107    `...    BFI      r1,r0,#4,#4
        0x0000ca0c:    ea412002    A..     ORR      r0,r1,r2,LSL #8
        0x0000ca10:    f4401080    @...    ORR      r0,r0,#0x100000
        0x0000ca14:    f4406180    @..a    ORR      r1,r0,#0x400
        0x0000ca18:    2000        .       MOVS     r0,#0
        0x0000ca1a:    6029        )`      STR      r1,[r5,#0]
        0x0000ca1c:    b002        ..      ADD      sp,sp,#8
        0x0000ca1e:    bdb0        ..      POP      {r4,r5,r7,pc}
    am_hal_cachectrl_control
        0x0000ca20:    b510        ..      PUSH     {r4,lr}
        0x0000ca22:    b082        ..      SUB      sp,sp,#8
        0x0000ca24:    1e42        B.      SUBS     r2,r0,#1
        0x0000ca26:    2a10        .*      CMP      r2,#0x10
        0x0000ca28:    f20080a0    ....    BHI.W    0xcb6c ; am_hal_cachectrl_control + 332
        0x0000ca2c:    e8dff002    ....    TBB      [pc,r2]
    $d.4
        0x0000ca30:    18140aa3    ....    DCD    403966627
        0x0000ca34:    24201e1c    .. $    DCD    606084636
        0x0000ca38:    58483628    (6HX    DCD    1481127464
        0x0000ca3c:    8a827a62    bz..    DCD    2323806818
        0x0000ca40:    bf000094    ....    DCD    3204448404
    $t.5
        0x0000ca44:    f2480000    H...    MOVW     r0,#0x8000
        0x0000ca48:    f2c40001    ....    MOVT     r0,#0x4001
        0x0000ca4c:    6800        .h      LDR      r0,[r0,#0]
        0x0000ca4e:    01c0        ..      LSLS     r0,r0,#7
        0x0000ca50:    f1008090    ....    BMI.W    0xcb74 ; am_hal_cachectrl_control + 340
        0x0000ca54:    2407        .$      MOVS     r4,#7
        0x0000ca56:    e061        a.      B        0xcb1c ; am_hal_cachectrl_control + 252
        0x0000ca58:    f44f6088    O..`    MOV      r0,#0x440
        0x0000ca5c:    e08b        ..      B        0xcb76 ; am_hal_cachectrl_control + 342
        0x0000ca5e:    bf00        ..      NOP      
        0x0000ca60:    f44f7008    O..p    MOV      r0,#0x220
        0x0000ca64:    e087        ..      B        0xcb76 ; am_hal_cachectrl_control + 342
        0x0000ca66:    bf00        ..      NOP      
        0x0000ca68:    2040        @       MOVS     r0,#0x40
        0x0000ca6a:    e084        ..      B        0xcb76 ; am_hal_cachectrl_control + 342
        0x0000ca6c:    2020                MOVS     r0,#0x20
        0x0000ca6e:    e082        ..      B        0xcb76 ; am_hal_cachectrl_control + 342
        0x0000ca70:    f44f6080    O..`    MOV      r0,#0x400
        0x0000ca74:    e07f        ..      B        0xcb76 ; am_hal_cachectrl_control + 342
        0x0000ca76:    bf00        ..      NOP      
        0x0000ca78:    f44f7000    O..p    MOV      r0,#0x200
        0x0000ca7c:    e07b        {.      B        0xcb76 ; am_hal_cachectrl_control + 342
        0x0000ca7e:    bf00        ..      NOP      
        0x0000ca80:    f000fd52    ..R.    BL       am_hal_interrupt_master_disable ; 0xd528
        0x0000ca84:    9001        ..      STR      r0,[sp,#4]
        0x0000ca86:    f2480000    H...    MOVW     r0,#0x8000
        0x0000ca8a:    f2c40001    ....    MOVT     r0,#0x4001
        0x0000ca8e:    6801        .h      LDR      r1,[r0,#0]
        0x0000ca90:    f0417180    A..q    ORR      r1,r1,#0x1000000
        0x0000ca94:    6001        .`      STR      r1,[r0,#0]
        0x0000ca96:    9801        ..      LDR      r0,[sp,#4]
        0x0000ca98:    e00c        ..      B        0xcab4 ; am_hal_cachectrl_control + 148
        0x0000ca9a:    bf00        ..      NOP      
        0x0000ca9c:    f000fd44    ..D.    BL       am_hal_interrupt_master_disable ; 0xd528
        0x0000caa0:    9000        ..      STR      r0,[sp,#0]
        0x0000caa2:    f2480000    H...    MOVW     r0,#0x8000
        0x0000caa6:    f2c40001    ....    MOVT     r0,#0x4001
        0x0000caaa:    6801        .h      LDR      r1,[r0,#0]
        0x0000caac:    f0217180    !..q    BIC      r1,r1,#0x1000000
        0x0000cab0:    6001        .`      STR      r1,[r0,#0]
        0x0000cab2:    9800        ..      LDR      r0,[sp,#0]
        0x0000cab4:    f000fd40    ..@.    BL       am_hal_interrupt_master_set ; 0xd538
        0x0000cab8:    2400        .$      MOVS     r4,#0
        0x0000caba:    4620         F      MOV      r0,r4
        0x0000cabc:    b002        ..      ADD      sp,sp,#8
        0x0000cabe:    bd10        ..      POP      {r4,pc}
        0x0000cac0:    2000        .       MOVS     r0,#0
        0x0000cac2:    f002ffff    ....    BL       set_LPMMODE ; 0xfac4
        0x0000cac6:    2800        .(      CMP      r0,#0
        0x0000cac8:    d042        B.      BEQ      0xcb50 ; am_hal_cachectrl_control + 304
        0x0000caca:    2007        .       MOVS     r0,#7
        0x0000cacc:    f003f8b0    ....    BL       set_SEDELAY ; 0xfc30
        0x0000cad0:    2800        .(      CMP      r0,#0
        0x0000cad2:    d03d        =.      BEQ      0xcb50 ; am_hal_cachectrl_control + 304
        0x0000cad4:    2003        .       MOVS     r0,#3
        0x0000cad6:    f003f853    ..S.    BL       set_RDWAIT ; 0xfb80
        0x0000cada:    2800        .(      CMP      r0,#0
        0x0000cadc:    d1ec        ..      BNE      0xcab8 ; am_hal_cachectrl_control + 152
        0x0000cade:    e037        7.      B        0xcb50 ; am_hal_cachectrl_control + 304
        0x0000cae0:    2001        .       MOVS     r0,#1
        0x0000cae2:    2401        .$      MOVS     r4,#1
        0x0000cae4:    f002ffee    ....    BL       set_LPMMODE ; 0xfac4
        0x0000cae8:    b1c0        ..      CBZ      r0,0xcb1c ; am_hal_cachectrl_control + 252
        0x0000caea:    2005        .       MOVS     r0,#5
        0x0000caec:    f003f8a0    ....    BL       set_SEDELAY ; 0xfc30
        0x0000caf0:    b948        H.      CBNZ     r0,0xcb06 ; am_hal_cachectrl_control + 230
        0x0000caf2:    e02d        -.      B        0xcb50 ; am_hal_cachectrl_control + 304
        0x0000caf4:    2001        .       MOVS     r0,#1
        0x0000caf6:    2401        .$      MOVS     r4,#1
        0x0000caf8:    f002ffe4    ....    BL       set_LPMMODE ; 0xfac4
        0x0000cafc:    b170        p.      CBZ      r0,0xcb1c ; am_hal_cachectrl_control + 252
        0x0000cafe:    2006        .       MOVS     r0,#6
        0x0000cb00:    f003f896    ....    BL       set_SEDELAY ; 0xfc30
        0x0000cb04:    b320         .      CBZ      r0,0xcb50 ; am_hal_cachectrl_control + 304
        0x0000cb06:    2001        .       MOVS     r0,#1
        0x0000cb08:    2401        .$      MOVS     r4,#1
        0x0000cb0a:    f003f839    ..9.    BL       set_RDWAIT ; 0xfb80
        0x0000cb0e:    2800        .(      CMP      r0,#0
        0x0000cb10:    bf18        ..      IT       NE
        0x0000cb12:    2400        .$      MOVNE    r4,#0
        0x0000cb14:    4620         F      MOV      r0,r4
        0x0000cb16:    b002        ..      ADD      sp,sp,#8
        0x0000cb18:    bd10        ..      POP      {r4,pc}
        0x0000cb1a:    bf00        ..      NOP      
        0x0000cb1c:    4620         F      MOV      r0,r4
        0x0000cb1e:    b002        ..      ADD      sp,sp,#8
        0x0000cb20:    bd10        ..      POP      {r4,pc}
        0x0000cb22:    bf00        ..      NOP      
        0x0000cb24:    b311        ..      CBZ      r1,0xcb6c ; am_hal_cachectrl_control + 332
        0x0000cb26:    6808        .h      LDR      r0,[r1,#0]
        0x0000cb28:    f002ffcc    ....    BL       set_LPMMODE ; 0xfac4
        0x0000cb2c:    2800        .(      CMP      r0,#0
        0x0000cb2e:    d1c3        ..      BNE      0xcab8 ; am_hal_cachectrl_control + 152
        0x0000cb30:    e00e        ..      B        0xcb50 ; am_hal_cachectrl_control + 304
        0x0000cb32:    bf00        ..      NOP      
        0x0000cb34:    b1d1        ..      CBZ      r1,0xcb6c ; am_hal_cachectrl_control + 332
        0x0000cb36:    6808        .h      LDR      r0,[r1,#0]
        0x0000cb38:    f003f87a    ..z.    BL       set_SEDELAY ; 0xfc30
        0x0000cb3c:    2800        .(      CMP      r0,#0
        0x0000cb3e:    d1bb        ..      BNE      0xcab8 ; am_hal_cachectrl_control + 152
        0x0000cb40:    e006        ..      B        0xcb50 ; am_hal_cachectrl_control + 304
        0x0000cb42:    bf00        ..      NOP      
        0x0000cb44:    b191        ..      CBZ      r1,0xcb6c ; am_hal_cachectrl_control + 332
        0x0000cb46:    6808        .h      LDR      r0,[r1,#0]
        0x0000cb48:    f003f81a    ....    BL       set_RDWAIT ; 0xfb80
        0x0000cb4c:    2800        .(      CMP      r0,#0
        0x0000cb4e:    d1b3        ..      BNE      0xcab8 ; am_hal_cachectrl_control + 152
        0x0000cb50:    2401        .$      MOVS     r4,#1
        0x0000cb52:    4620         F      MOV      r0,r4
        0x0000cb54:    b002        ..      ADD      sp,sp,#8
        0x0000cb56:    bd10        ..      POP      {r4,pc}
        0x0000cb58:    b141        A.      CBZ      r1,0xcb6c ; am_hal_cachectrl_control + 332
        0x0000cb5a:    6848        Hh      LDR      r0,[r1,#4]
        0x0000cb5c:    220f        ."      MOVS     r2,#0xf
        0x0000cb5e:    f6cf0200    ....    MOVT     r2,#0xf800
        0x0000cb62:    4210        .B      TST      r0,r2
        0x0000cb64:    d102        ..      BNE      0xcb6c ; am_hal_cachectrl_control + 332
        0x0000cb66:    688b        .h      LDR      r3,[r1,#8]
        0x0000cb68:    4213        .B      TST      r3,r2
        0x0000cb6a:    d00d        ..      BEQ      0xcb88 ; am_hal_cachectrl_control + 360
        0x0000cb6c:    2406        .$      MOVS     r4,#6
        0x0000cb6e:    4620         F      MOV      r0,r4
        0x0000cb70:    b002        ..      ADD      sp,sp,#8
        0x0000cb72:    bd10        ..      POP      {r4,pc}
        0x0000cb74:    2002        .       MOVS     r0,#2
        0x0000cb76:    f2480100    H...    MOVW     r1,#0x8000
        0x0000cb7a:    f2c40101    ....    MOVT     r1,#0x4001
        0x0000cb7e:    2400        .$      MOVS     r4,#0
        0x0000cb80:    6088        .`      STR      r0,[r1,#8]
        0x0000cb82:    4620         F      MOV      r0,r4
        0x0000cb84:    b002        ..      ADD      sp,sp,#8
        0x0000cb86:    bd10        ..      POP      {r4,pc}
        0x0000cb88:    780a        .x      LDRB     r2,[r1,#0]
        0x0000cb8a:    2a01        .*      CMP      r2,#1
        0x0000cb8c:    d016        ..      BEQ      0xcbbc ; am_hal_cachectrl_control + 412
        0x0000cb8e:    2a00        .*      CMP      r2,#0
        0x0000cb90:    d1ec        ..      BNE      0xcb6c ; am_hal_cachectrl_control + 332
        0x0000cb92:    f2480200    H...    MOVW     r2,#0x8000
        0x0000cb96:    f2c40201    ....    MOVT     r2,#0x4001
        0x0000cb9a:    6110        .a      STR      r0,[r2,#0x10]
        0x0000cb9c:    6888        .h      LDR      r0,[r1,#8]
        0x0000cb9e:    2400        .$      MOVS     r4,#0
        0x0000cba0:    6150        Pa      STR      r0,[r2,#0x14]
        0x0000cba2:    7848        Hx      LDRB     r0,[r1,#1]
        0x0000cba4:    6811        .h      LDR      r1,[r2,#0]
        0x0000cba6:    f000003f    ..?.    AND      r0,r0,#0x3f
        0x0000cbaa:    f0210104    !...    BIC      r1,r1,#4
        0x0000cbae:    ea410080    A...    ORR      r0,r1,r0,LSL #2
        0x0000cbb2:    6010        .`      STR      r0,[r2,#0]
        0x0000cbb4:    4620         F      MOV      r0,r4
        0x0000cbb6:    b002        ..      ADD      sp,sp,#8
        0x0000cbb8:    bd10        ..      POP      {r4,pc}
        0x0000cbba:    bf00        ..      NOP      
        0x0000cbbc:    f2480200    H...    MOVW     r2,#0x8000
        0x0000cbc0:    f2c40201    ....    MOVT     r2,#0x4001
        0x0000cbc4:    6190        .a      STR      r0,[r2,#0x18]
        0x0000cbc6:    6888        .h      LDR      r0,[r1,#8]
        0x0000cbc8:    2400        .$      MOVS     r4,#0
        0x0000cbca:    61d0        .a      STR      r0,[r2,#0x1c]
        0x0000cbcc:    7848        Hx      LDRB     r0,[r1,#1]
        0x0000cbce:    6811        .h      LDR      r1,[r2,#0]
        0x0000cbd0:    f000001f    ....    AND      r0,r0,#0x1f
        0x0000cbd4:    f0210108    !...    BIC      r1,r1,#8
        0x0000cbd8:    ea4100c0    A...    ORR      r0,r1,r0,LSL #3
        0x0000cbdc:    6010        .`      STR      r0,[r2,#0]
        0x0000cbde:    4620         F      MOV      r0,r4
        0x0000cbe0:    b002        ..      ADD      sp,sp,#8
        0x0000cbe2:    bd10        ..      POP      {r4,pc}
    am_hal_cachectrl_enable
        0x0000cbe4:    f2480100    H...    MOVW     r1,#0x8000
        0x0000cbe8:    f2c40101    ....    MOVT     r1,#0x4001
        0x0000cbec:    6808        .h      LDR      r0,[r1,#0]
        0x0000cbee:    f0400201    @...    ORR      r2,r0,#1
        0x0000cbf2:    2000        .       MOVS     r0,#0
        0x0000cbf4:    600a        .`      STR      r2,[r1,#0]
        0x0000cbf6:    4770        pG      BX       lr
    am_hal_clkgen_control
        0x0000cbf8:    b510        ..      PUSH     {r4,lr}
        0x0000cbfa:    f2412278    A.x"    MOV      r2,#0x1278
        0x0000cbfe:    f2c10201    ....    MOVT     r2,#0x1001
        0x0000cc02:    6813        .h      LDR      r3,[r2,#0]
        0x0000cc04:    460c        .F      MOV      r4,r1
        0x0000cc06:    b92b        +.      CBNZ     r3,0xcc14 ; am_hal_clkgen_control + 28
        0x0000cc08:    f24f0100    O...    MOVW     r1,#0xf000
        0x0000cc0c:    f6c471ff    ...q    MOVT     r1,#0x4fff
        0x0000cc10:    6809        .h      LDR      r1,[r1,#0]
        0x0000cc12:    6011        .`      STR      r1,[r2,#0]
        0x0000cc14:    2809        .(      CMP      r0,#9
        0x0000cc16:    d811        ..      BHI      0xcc3c ; am_hal_clkgen_control + 68
        0x0000cc18:    e8dff000    ....    TBB      [pc,r0]
    $d.1
        0x0000cc1c:    261c1206    ...&    DCD    639373830
        0x0000cc20:    62584c42    BLXb    DCD    1649953858
        0x0000cc24:    bf00866c    l...    DCD    3204482668
    $t.2
        0x0000cc28:    f244010c    D...    MOV      r1,#0x400c
        0x0000cc2c:    f2c40100    ....    MOVT     r1,#0x4000
        0x0000cc30:    2047        G       MOVS     r0,#0x47
        0x0000cc32:    6088        .`      STR      r0,[r1,#8]
        0x0000cc34:    2000        .       MOVS     r0,#0
        0x0000cc36:    60c8        .`      STR      r0,[r1,#0xc]
        0x0000cc38:    6088        .`      STR      r0,[r1,#8]
        0x0000cc3a:    bd10        ..      POP      {r4,pc}
        0x0000cc3c:    2006        .       MOVS     r0,#6
        0x0000cc3e:    bd10        ..      POP      {r4,pc}
        0x0000cc40:    f244000c    D...    MOV      r0,#0x400c
        0x0000cc44:    f2c40000    ....    MOVT     r0,#0x4000
        0x0000cc48:    6801        .h      LDR      r1,[r0,#0]
        0x0000cc4a:    f0210101    !...    BIC      r1,r1,#1
        0x0000cc4e:    6001        .`      STR      r1,[r0,#0]
        0x0000cc50:    2000        .       MOVS     r0,#0
        0x0000cc52:    bd10        ..      POP      {r4,pc}
        0x0000cc54:    f244000c    D...    MOV      r0,#0x400c
        0x0000cc58:    f2c40000    ....    MOVT     r0,#0x4000
        0x0000cc5c:    6801        .h      LDR      r1,[r0,#0]
        0x0000cc5e:    f0210102    !...    BIC      r1,r1,#2
        0x0000cc62:    6001        .`      STR      r1,[r0,#0]
        0x0000cc64:    2000        .       MOVS     r0,#0
        0x0000cc66:    bd10        ..      POP      {r4,pc}
        0x0000cc68:    f2401020    @. .    MOVW     r0,#0x120
        0x0000cc6c:    f64f61ec    O..a    MOV      r1,#0xfeec
        0x0000cc70:    f2c40002    ....    MOVT     r0,#0x4002
        0x0000cc74:    f6cf71ff    ...q    MOVT     r1,#0xffff
        0x0000cc78:    5841        AX      LDR      r1,[r0,r1]
        0x0000cc7a:    b2c9        ..      UXTB     r1,r1
        0x0000cc7c:    2921        !)      CMP      r1,#0x21
        0x0000cc7e:    d304        ..      BCC      0xcc8a ; am_hal_clkgen_control + 146
        0x0000cc80:    6801        .h      LDR      r1,[r0,#0]
        0x0000cc82:    2201        ."      MOVS     r2,#1
        0x0000cc84:    f3622109    b..!    BFI      r1,r2,#8,#2
        0x0000cc88:    6001        .`      STR      r1,[r0,#0]
        0x0000cc8a:    f244000c    D...    MOV      r0,#0x400c
        0x0000cc8e:    f2c40000    ....    MOVT     r0,#0x4000
        0x0000cc92:    6801        .h      LDR      r1,[r0,#0]
        0x0000cc94:    f0410101    A...    ORR      r1,r1,#1
        0x0000cc98:    6001        .`      STR      r1,[r0,#0]
        0x0000cc9a:    2000        .       MOVS     r0,#0
        0x0000cc9c:    bd10        ..      POP      {r4,pc}
        0x0000cc9e:    bf00        ..      NOP      
        0x0000cca0:    f244000c    D...    MOV      r0,#0x400c
        0x0000cca4:    f2c40000    ....    MOVT     r0,#0x4000
        0x0000cca8:    6801        .h      LDR      r1,[r0,#0]
        0x0000ccaa:    f0410102    A...    ORR      r1,r1,#2
        0x0000ccae:    6001        .`      STR      r1,[r0,#0]
        0x0000ccb0:    2000        .       MOVS     r0,#0
        0x0000ccb2:    bd10        ..      POP      {r4,pc}
        0x0000ccb4:    f244010c    D...    MOV      r1,#0x400c
        0x0000ccb8:    f2c40100    ....    MOVT     r1,#0x4000
        0x0000ccbc:    2047        G       MOVS     r0,#0x47
        0x0000ccbe:    6088        .`      STR      r0,[r1,#8]
        0x0000ccc0:    2001        .       MOVS     r0,#1
        0x0000ccc2:    60c8        .`      STR      r0,[r1,#0xc]
        0x0000ccc4:    2000        .       MOVS     r0,#0
        0x0000ccc6:    6088        .`      STR      r0,[r1,#8]
        0x0000ccc8:    bd10        ..      POP      {r4,pc}
        0x0000ccca:    bf00        ..      NOP      
        0x0000cccc:    f244000c    D...    MOV      r0,#0x400c
        0x0000ccd0:    f2c40000    ....    MOVT     r0,#0x4000
        0x0000ccd4:    6801        .h      LDR      r1,[r0,#0]
        0x0000ccd6:    f0210180    !...    BIC      r1,r1,#0x80
        0x0000ccda:    6001        .`      STR      r1,[r0,#0]
        0x0000ccdc:    2000        .       MOVS     r0,#0
        0x0000ccde:    bd10        ..      POP      {r4,pc}
        0x0000cce0:    f244000c    D...    MOV      r0,#0x400c
        0x0000cce4:    f2c40000    ....    MOVT     r0,#0x4000
        0x0000cce8:    6801        .h      LDR      r1,[r0,#0]
        0x0000ccea:    f0410180    A...    ORR      r1,r1,#0x80
        0x0000ccee:    6001        .`      STR      r1,[r0,#0]
        0x0000ccf0:    2000        .       MOVS     r0,#0
        0x0000ccf2:    bd10        ..      POP      {r4,pc}
        0x0000ccf4:    f2401020    @. .    MOVW     r0,#0x120
        0x0000ccf8:    f64f61ec    O..a    MOV      r1,#0xfeec
        0x0000ccfc:    f2c40002    ....    MOVT     r0,#0x4002
        0x0000cd00:    f6cf71ff    ...q    MOVT     r1,#0xffff
        0x0000cd04:    5841        AX      LDR      r1,[r0,r1]
        0x0000cd06:    b2c9        ..      UXTB     r1,r1
        0x0000cd08:    2921        !)      CMP      r1,#0x21
        0x0000cd0a:    d307        ..      BCC      0xcd1c ; am_hal_clkgen_control + 292
        0x0000cd0c:    6801        .h      LDR      r1,[r0,#0]
        0x0000cd0e:    f4417140    A.@q    ORR      r1,r1,#0x300
        0x0000cd12:    6001        .`      STR      r1,[r0,#0]
        0x0000cd14:    f44f507a    O.zP    MOV      r0,#0x3e80
        0x0000cd18:    f000f8d2    ....    BL       am_hal_flash_delay ; 0xcec0
        0x0000cd1c:    b174        t.      CBZ      r4,0xcd3c ; am_hal_clkgen_control + 324
        0x0000cd1e:    6820         h      LDR      r0,[r4,#0]
        0x0000cd20:    f0400001    @...    ORR      r0,r0,#1
        0x0000cd24:    e00e        ..      B        0xcd44 ; am_hal_clkgen_control + 332
        0x0000cd26:    bf00        ..      NOP      
        0x0000cd28:    f244000c    D...    MOV      r0,#0x400c
        0x0000cd2c:    f2c40000    ....    MOVT     r0,#0x4000
        0x0000cd30:    6941        Ai      LDR      r1,[r0,#0x14]
        0x0000cd32:    f0210101    !...    BIC      r1,r1,#1
        0x0000cd36:    6141        Aa      STR      r1,[r0,#0x14]
        0x0000cd38:    2000        .       MOVS     r0,#0
        0x0000cd3a:    bd10        ..      POP      {r4,pc}
        0x0000cd3c:    f64b0001    K...    MOV      r0,#0xb801
        0x0000cd40:    f2c00025    ..%.    MOVT     r0,#0x25
        0x0000cd44:    f244010c    D...    MOV      r1,#0x400c
        0x0000cd48:    f2c40100    ....    MOVT     r1,#0x4000
        0x0000cd4c:    6148        Ha      STR      r0,[r1,#0x14]
        0x0000cd4e:    2000        .       MOVS     r0,#0
        0x0000cd50:    bd10        ..      POP      {r4,pc}
        0x0000cd52:    0000        ..      MOVS     r0,r0
    am_hal_clkgen_status_get
        0x0000cd54:    2800        .(      CMP      r0,#0
        0x0000cd56:    bf04        ..      ITT      EQ
        0x0000cd58:    2006        .       MOVEQ    r0,#6
        0x0000cd5a:    4770        pG      BXEQ     lr
        0x0000cd5c:    f2440118    D...    MOV      r1,#0x4018
        0x0000cd60:    f2c40100    ....    MOVT     r1,#0x4000
        0x0000cd64:    680a        .h      LDR      r2,[r1,#0]
        0x0000cd66:    07d2        ..      LSLS     r2,r2,#31
        0x0000cd68:    f2436200    C..b    MOVW     r2,#0x3600
        0x0000cd6c:    f2c0126e    ..n.    MOVT     r2,#0x16e
        0x0000cd70:    bf04        ..      ITT      EQ
        0x0000cd72:    f6464200    F..B    MOVWEQ   r2,#0x6c00
        0x0000cd76:    f2c022dc    ..."    MOVTEQ   r2,#0x2dc
        0x0000cd7a:    6002        .`      STR      r2,[r0,#0]
        0x0000cd7c:    6849        Ih      LDR      r1,[r1,#4]
        0x0000cd7e:    f0010201    ....    AND      r2,r1,#1
        0x0000cd82:    f3c10140    ..@.    UBFX     r1,r1,#1,#1
        0x0000cd86:    6042        B`      STR      r2,[r0,#4]
        0x0000cd88:    7201        .r      STRB     r1,[r0,#8]
        0x0000cd8a:    2000        .       MOVS     r0,#0
        0x0000cd8c:    4770        pG      BX       lr
        0x0000cd8e:    0000        ..      MOVS     r0,r0
    am_hal_cmdq_disable
        0x0000cd90:    b1c0        ..      CBZ      r0,0xcdc4 ; am_hal_cmdq_disable + 52
        0x0000cd92:    6801        .h      LDR      r1,[r0,#0]
        0x0000cd94:    f64c53cd    L..S    MOV      r3,#0xcdcd
        0x0000cd98:    f021427e    !.~B    BIC      r2,r1,#0xfe000000
        0x0000cd9c:    f2c013cd    ....    MOVT     r3,#0x1cd
        0x0000cda0:    429a        .B      CMP      r2,r3
        0x0000cda2:    d10f        ..      BNE      0xcdc4 ; am_hal_cmdq_disable + 52
        0x0000cda4:    0189        ..      LSLS     r1,r1,#6
        0x0000cda6:    bf5c        \.      ITT      PL
        0x0000cda8:    2000        .       MOVPL    r0,#0
        0x0000cdaa:    4770        pG      BXPL     lr
        0x0000cdac:    6a41        Aj      LDR      r1,[r0,#0x24]
        0x0000cdae:    6809        .h      LDR      r1,[r1,#0]
        0x0000cdb0:    680a        .h      LDR      r2,[r1,#0]
        0x0000cdb2:    f0220201    "...    BIC      r2,r2,#1
        0x0000cdb6:    600a        .`      STR      r2,[r1,#0]
        0x0000cdb8:    6801        .h      LDR      r1,[r0,#0]
        0x0000cdba:    f0217100    !..q    BIC      r1,r1,#0x2000000
        0x0000cdbe:    6001        .`      STR      r1,[r0,#0]
        0x0000cdc0:    2000        .       MOVS     r0,#0
        0x0000cdc2:    4770        pG      BX       lr
        0x0000cdc4:    2002        .       MOVS     r0,#2
        0x0000cdc6:    4770        pG      BX       lr
    am_hal_cmdq_enable
        0x0000cdc8:    b1c0        ..      CBZ      r0,0xcdfc ; am_hal_cmdq_enable + 52
        0x0000cdca:    6801        .h      LDR      r1,[r0,#0]
        0x0000cdcc:    f64c53cd    L..S    MOV      r3,#0xcdcd
        0x0000cdd0:    f021427e    !.~B    BIC      r2,r1,#0xfe000000
        0x0000cdd4:    f2c013cd    ....    MOVT     r3,#0x1cd
        0x0000cdd8:    429a        .B      CMP      r2,r3
        0x0000cdda:    d10f        ..      BNE      0xcdfc ; am_hal_cmdq_enable + 52
        0x0000cddc:    0189        ..      LSLS     r1,r1,#6
        0x0000cdde:    bf44        D.      ITT      MI
        0x0000cde0:    2000        .       MOVMI    r0,#0
        0x0000cde2:    4770        pG      BXMI     lr
        0x0000cde4:    6a41        Aj      LDR      r1,[r0,#0x24]
        0x0000cde6:    6809        .h      LDR      r1,[r1,#0]
        0x0000cde8:    680a        .h      LDR      r2,[r1,#0]
        0x0000cdea:    f0420201    B...    ORR      r2,r2,#1
        0x0000cdee:    600a        .`      STR      r2,[r1,#0]
        0x0000cdf0:    6801        .h      LDR      r1,[r0,#0]
        0x0000cdf2:    f0417100    A..q    ORR      r1,r1,#0x2000000
        0x0000cdf6:    6001        .`      STR      r1,[r0,#0]
        0x0000cdf8:    2000        .       MOVS     r0,#0
        0x0000cdfa:    4770        pG      BX       lr
        0x0000cdfc:    2002        .       MOVS     r0,#2
        0x0000cdfe:    4770        pG      BX       lr
    am_hal_cmdq_init
        0x0000ce00:    e92d41f0    -..A    PUSH     {r4-r8,lr}
        0x0000ce04:    2809        .(      CMP      r0,#9
        0x0000ce06:    bf84        ..      ITT      HI
        0x0000ce08:    2005        .       MOVHI    r0,#5
        0x0000ce0a:    e8bd81f0    ....    POPHI    {r4-r8,pc}
        0x0000ce0e:    b171        q.      CBZ      r1,0xce2e ; am_hal_cmdq_init + 46
        0x0000ce10:    4603        .F      MOV      r3,r0
        0x0000ce12:    2a00        .*      CMP      r2,#0
        0x0000ce14:    f04f0006    O...    MOV      r0,#6
        0x0000ce18:    d04f        O.      BEQ      0xceba ; am_hal_cmdq_init + 186
        0x0000ce1a:    f8d1e004    ....    LDR      lr,[r1,#4]
        0x0000ce1e:    f1be0f00    ....    CMP      lr,#0
        0x0000ce22:    bf08        ..      IT       EQ
        0x0000ce24:    e8bd81f0    ....    POPEQ    {r4-r8,pc}
        0x0000ce28:    6808        .h      LDR      r0,[r1,#0]
        0x0000ce2a:    2802        .(      CMP      r0,#2
        0x0000ce2c:    d202        ..      BCS      0xce34 ; am_hal_cmdq_init + 52
        0x0000ce2e:    2006        .       MOVS     r0,#6
        0x0000ce30:    e8bd81f0    ....    POP      {r4-r8,pc}
        0x0000ce34:    f2410cc0    A...    MOVW     r12,#0x10c0
        0x0000ce38:    252c        ,%      MOVS     r5,#0x2c
        0x0000ce3a:    f2c10c01    ....    MOVT     r12,#0x1001
        0x0000ce3e:    fb03f405    ....    MUL      r4,r3,r5
        0x0000ce42:    f85c4004    \..@    LDR      r4,[r12,r4]
        0x0000ce46:    01e6        ..      LSLS     r6,r4,#7
        0x0000ce48:    bf44        D.      ITT      MI
        0x0000ce4a:    2007        .       MOVMI    r0,#7
        0x0000ce4c:    e8bd81f0    ....    POPMI    {r4-r8,pc}
        0x0000ce50:    f2401810    @...    MOVW     r8,#0x110
        0x0000ce54:    fb13cc05    ....    SMLABB   r12,r3,r5,r12
        0x0000ce58:    00c5        ..      LSLS     r5,r0,#3
        0x0000ce5a:    eb0e06c0    ....    ADD      r6,lr,r0,LSL #3
        0x0000ce5e:    f64c50cd    L..P    MOV      r0,#0xcdcd
        0x0000ce62:    eb030383    ....    ADD      r3,r3,r3,LSL #2
        0x0000ce66:    f2c00801    ....    MOVT     r8,#1
        0x0000ce6a:    f2c010cd    ....    MOVT     r0,#0x1cd
        0x0000ce6e:    eb0807c3    ....    ADD      r7,r8,r3,LSL #3
        0x0000ce72:    f3600419    `...    BFI      r4,r0,#0,#26
        0x0000ce76:    e9cce601    ....    STRD     lr,r6,[r12,#4]
        0x0000ce7a:    e9cce505    ....    STRD     lr,r5,[r12,#0x14]
        0x0000ce7e:    e9d76502    ...e    LDRD     r6,r5,[r7,#8]
        0x0000ce82:    f8cc4000    ...@    STR      r4,[r12,#0]
        0x0000ce86:    2000        .       MOVS     r0,#0
        0x0000ce88:    693c        <i      LDR      r4,[r7,#0x10]
        0x0000ce8a:    f8cc7024    ..$p    STR      r7,[r12,#0x24]
        0x0000ce8e:    e9ccee03    ....    STRD     lr,lr,[r12,#0xc]
        0x0000ce92:    e9cc0007    ....    STRD     r0,r0,[r12,#0x1c]
        0x0000ce96:    6030        0`      STR      r0,[r6,#0]
        0x0000ce98:    6028        (`      STR      r0,[r5,#0]
        0x0000ce9a:    697e        ~i      LDR      r6,[r7,#0x14]
        0x0000ce9c:    6825        %h      LDR      r5,[r4,#0]
        0x0000ce9e:    687f        .h      LDR      r7,[r7,#4]
        0x0000cea0:    432e        .C      ORRS     r6,r6,r5
        0x0000cea2:    6026        &`      STR      r6,[r4,#0]
        0x0000cea4:    684e        Nh      LDR      r6,[r1,#4]
        0x0000cea6:    f8583033    X.30    LDR      r3,[r8,r3,LSL #3]
        0x0000ceaa:    603e        >`      STR      r6,[r7,#0]
        0x0000ceac:    7a09        .z      LDRB     r1,[r1,#8]
        0x0000ceae:    2702        .'      MOVS     r7,#2
        0x0000ceb0:    ea070141    ..A.    AND      r1,r7,r1,LSL #1
        0x0000ceb4:    6019        .`      STR      r1,[r3,#0]
        0x0000ceb6:    f8c2c000    ....    STR      r12,[r2,#0]
        0x0000ceba:    e8bd81f0    ....    POP      {r4-r8,pc}
        0x0000cebe:    0000        ..      MOVS     r0,r0
    am_hal_flash_delay
        0x0000cec0:    f2440134    D.4.    MOV      r1,#0x4034
        0x0000cec4:    f2c40100    ....    MOVT     r1,#0x4000
        0x0000cec8:    680a        .h      LDR      r2,[r1,#0]
        0x0000ceca:    f3c20180    ....    UBFX     r1,r2,#2,#1
        0x0000cece:    4088        .@      LSLS     r0,r0,r1
        0x0000ced0:    210e        .!      MOVS     r1,#0xe
        0x0000ced2:    f0120f04    ....    TST      r2,#4
        0x0000ced6:    bf08        ..      IT       EQ
        0x0000ced8:    210b        .!      MOVEQ    r1,#0xb
        0x0000ceda:    4281        .B      CMP      r1,r0
        0x0000cedc:    bf28        (.      IT       CS
        0x0000cede:    4770        pG      BXCS     lr
        0x0000cee0:    1a40        @.      SUBS     r0,r0,r1
        0x0000cee2:    219d        .!      MOVS     r1,#0x9d
        0x0000cee4:    f6c00100    ....    MOVT     r1,#0x800
        0x0000cee8:    4708        .G      BX       r1
        0x0000ceea:    0000        ..      MOVS     r0,r0
    am_hal_flash_delay_status_check
        0x0000ceec:    e92d47f0    -..G    PUSH     {r4-r10,lr}
        0x0000cef0:    460e        .F      MOV      r6,r1
        0x0000cef2:    4615        .F      MOV      r5,r2
        0x0000cef4:    9908        ..      LDR      r1,[sp,#0x20]
        0x0000cef6:    6832        2h      LDR      r2,[r6,#0]
        0x0000cef8:    461c        .F      MOV      r4,r3
        0x0000cefa:    2900        .)      CMP      r1,#0
        0x0000cefc:    ea020105    ....    AND      r1,r2,r5
        0x0000cf00:    d024        $.      BEQ      0xcf4c ; am_hal_flash_delay_status_check + 96
        0x0000cf02:    42a1        .B      CMP      r1,r4
        0x0000cf04:    d047        G.      BEQ      0xcf96 ; am_hal_flash_delay_status_check + 170
        0x0000cf06:    f2440834    D.4.    MOV      r8,#0x4034
        0x0000cf0a:    f2400a9d    @...    MOVW     r10,#0x9d
        0x0000cf0e:    f2c40800    ....    MOVT     r8,#0x4000
        0x0000cf12:    1c47        G.      ADDS     r7,r0,#1
        0x0000cf14:    f04f0910    O...    MOV      r9,#0x10
        0x0000cf18:    f6c00a00    ....    MOVT     r10,#0x800
        0x0000cf1c:    3f01        .?      SUBS     r7,#1
        0x0000cf1e:    d03d        =.      BEQ      0xcf9c ; am_hal_flash_delay_status_check + 176
        0x0000cf20:    f8d80000    ....    LDR      r0,[r8,#0]
        0x0000cf24:    f3c00180    ....    UBFX     r1,r0,#2,#1
        0x0000cf28:    f0100f04    ....    TST      r0,#4
        0x0000cf2c:    f06f000d    o...    MVN      r0,#0xd
        0x0000cf30:    bf08        ..      IT       EQ
        0x0000cf32:    f06f000a    o...    MVNEQ    r0,#0xa
        0x0000cf36:    fa09f101    ....    LSL      r1,r9,r1
        0x0000cf3a:    4408        .D      ADD      r0,r0,r1
        0x0000cf3c:    47d0        .G      BLX      r10
        0x0000cf3e:    6830        0h      LDR      r0,[r6,#0]
        0x0000cf40:    4028        (@      ANDS     r0,r0,r5
        0x0000cf42:    42a0        .B      CMP      r0,r4
        0x0000cf44:    d1ea        ..      BNE      0xcf1c ; am_hal_flash_delay_status_check + 48
        0x0000cf46:    2000        .       MOVS     r0,#0
        0x0000cf48:    e8bd87f0    ....    POP      {r4-r10,pc}
        0x0000cf4c:    42a1        .B      CMP      r1,r4
        0x0000cf4e:    bf1c        ..      ITT      NE
        0x0000cf50:    2000        .       MOVNE    r0,#0
        0x0000cf52:    e8bd87f0    ....    POPNE    {r4-r10,pc}
        0x0000cf56:    f2440834    D.4.    MOV      r8,#0x4034
        0x0000cf5a:    f2400a9d    @...    MOVW     r10,#0x9d
        0x0000cf5e:    f2c40800    ....    MOVT     r8,#0x4000
        0x0000cf62:    1c47        G.      ADDS     r7,r0,#1
        0x0000cf64:    f04f0910    O...    MOV      r9,#0x10
        0x0000cf68:    f6c00a00    ....    MOVT     r10,#0x800
        0x0000cf6c:    3f01        .?      SUBS     r7,#1
        0x0000cf6e:    d015        ..      BEQ      0xcf9c ; am_hal_flash_delay_status_check + 176
        0x0000cf70:    f8d80000    ....    LDR      r0,[r8,#0]
        0x0000cf74:    f3c00180    ....    UBFX     r1,r0,#2,#1
        0x0000cf78:    f0100f04    ....    TST      r0,#4
        0x0000cf7c:    f06f000d    o...    MVN      r0,#0xd
        0x0000cf80:    bf08        ..      IT       EQ
        0x0000cf82:    f06f000a    o...    MVNEQ    r0,#0xa
        0x0000cf86:    fa09f101    ....    LSL      r1,r9,r1
        0x0000cf8a:    4408        .D      ADD      r0,r0,r1
        0x0000cf8c:    47d0        .G      BLX      r10
        0x0000cf8e:    6830        0h      LDR      r0,[r6,#0]
        0x0000cf90:    4028        (@      ANDS     r0,r0,r5
        0x0000cf92:    42a0        .B      CMP      r0,r4
        0x0000cf94:    d0ea        ..      BEQ      0xcf6c ; am_hal_flash_delay_status_check + 128
        0x0000cf96:    2000        .       MOVS     r0,#0
        0x0000cf98:    e8bd87f0    ....    POP      {r4-r10,pc}
        0x0000cf9c:    2004        .       MOVS     r0,#4
        0x0000cf9e:    e8bd87f0    ....    POP      {r4-r10,pc}
        0x0000cfa2:    0000        ..      MOVS     r0,r0
    am_hal_flash_load_ui32
        0x0000cfa4:    2175        u!      MOVS     r1,#0x75
        0x0000cfa6:    f6c00100    ....    MOVT     r1,#0x800
        0x0000cfaa:    4708        .G      BX       r1
    am_hal_flash_store_ui32
        0x0000cfac:    b580        ..      PUSH     {r7,lr}
        0x0000cfae:    b084        ..      SUB      sp,sp,#0x10
        0x0000cfb0:    f2447270    D.pr    MOV      r2,#0x4770
        0x0000cfb4:    f6cb7200    ...r    MOVT     r2,#0xbf00
        0x0000cfb8:    9203        ..      STR      r2,[sp,#0xc]
        0x0000cfba:    f6460200    F...    MOVW     r2,#0x6800
        0x0000cfbe:    f6cb7200    ...r    MOVT     r2,#0xbf00
        0x0000cfc2:    9202        ..      STR      r2,[sp,#8]
        0x0000cfc4:    f2460201    F...    MOV      r2,#0x6001
        0x0000cfc8:    f6cb7200    ...r    MOVT     r2,#0xbf00
        0x0000cfcc:    9201        ..      STR      r2,[sp,#4]
        0x0000cfce:    aa01        ..      ADD      r2,sp,#4
        0x0000cfd0:    3201        .2      ADDS     r2,#1
        0x0000cfd2:    4790        .G      BLX      r2
        0x0000cfd4:    b004        ..      ADD      sp,sp,#0x10
        0x0000cfd6:    bd80        ..      POP      {r7,pc}
    am_hal_gpio_interrupt_clear
        0x0000cfd8:    b510        ..      PUSH     {r4,lr}
        0x0000cfda:    b082        ..      SUB      sp,sp,#8
        0x0000cfdc:    b1f0        ..      CBZ      r0,0xd01c ; am_hal_gpio_interrupt_clear + 68
        0x0000cfde:    4604        .F      MOV      r4,r0
        0x0000cfe0:    6880        .h      LDR      r0,[r0,#8]
        0x0000cfe2:    2100        .!      MOVS     r1,#0
        0x0000cfe4:    ebb12f90    .../    CMP      r1,r0,LSR #10
        0x0000cfe8:    d11c        ..      BNE      0xd024 ; am_hal_gpio_interrupt_clear + 76
        0x0000cfea:    f000fa9d    ....    BL       am_hal_interrupt_master_disable ; 0xd528
        0x0000cfee:    f2402108    @..!    MOVW     r1,#0x208
        0x0000cff2:    9001        ..      STR      r0,[sp,#4]
        0x0000cff4:    f2c40101    ....    MOVT     r1,#0x4001
        0x0000cff8:    6820         h      LDR      r0,[r4,#0]
        0x0000cffa:    680a        .h      LDR      r2,[r1,#0]
        0x0000cffc:    4310        .C      ORRS     r0,r0,r2
        0x0000cffe:    6008        .`      STR      r0,[r1,#0]
        0x0000d000:    6860        `h      LDR      r0,[r4,#4]
        0x0000d002:    6a0a        .j      LDR      r2,[r1,#0x20]
        0x0000d004:    4310        .C      ORRS     r0,r0,r2
        0x0000d006:    6208        .b      STR      r0,[r1,#0x20]
        0x0000d008:    68a0        .h      LDR      r0,[r4,#8]
        0x0000d00a:    6c0a        .l      LDR      r2,[r1,#0x40]
        0x0000d00c:    4310        .C      ORRS     r0,r0,r2
        0x0000d00e:    6408        .d      STR      r0,[r1,#0x40]
        0x0000d010:    9801        ..      LDR      r0,[sp,#4]
        0x0000d012:    f000fa91    ....    BL       am_hal_interrupt_master_set ; 0xd538
        0x0000d016:    2000        .       MOVS     r0,#0
        0x0000d018:    b002        ..      ADD      sp,sp,#8
        0x0000d01a:    bd10        ..      POP      {r4,pc}
        0x0000d01c:    2006        .       MOVS     r0,#6
        0x0000d01e:    b002        ..      ADD      sp,sp,#8
        0x0000d020:    bd10        ..      POP      {r4,pc}
        0x0000d022:    bf00        ..      NOP      
        0x0000d024:    2005        .       MOVS     r0,#5
        0x0000d026:    b002        ..      ADD      sp,sp,#8
        0x0000d028:    bd10        ..      POP      {r4,pc}
        0x0000d02a:    0000        ..      MOVS     r0,r0
    am_hal_gpio_interrupt_enable
        0x0000d02c:    b510        ..      PUSH     {r4,lr}
        0x0000d02e:    b082        ..      SUB      sp,sp,#8
        0x0000d030:    4604        .F      MOV      r4,r0
        0x0000d032:    6880        .h      LDR      r0,[r0,#8]
        0x0000d034:    2100        .!      MOVS     r1,#0
        0x0000d036:    ebb12f90    .../    CMP      r1,r0,LSR #10
        0x0000d03a:    d119        ..      BNE      0xd070 ; am_hal_gpio_interrupt_enable + 68
        0x0000d03c:    f000fa74    ..t.    BL       am_hal_interrupt_master_disable ; 0xd528
        0x0000d040:    f2402100    @..!    MOVW     r1,#0x200
        0x0000d044:    9001        ..      STR      r0,[sp,#4]
        0x0000d046:    f2c40101    ....    MOVT     r1,#0x4001
        0x0000d04a:    6820         h      LDR      r0,[r4,#0]
        0x0000d04c:    680a        .h      LDR      r2,[r1,#0]
        0x0000d04e:    4310        .C      ORRS     r0,r0,r2
        0x0000d050:    6008        .`      STR      r0,[r1,#0]
        0x0000d052:    6860        `h      LDR      r0,[r4,#4]
        0x0000d054:    6a0a        .j      LDR      r2,[r1,#0x20]
        0x0000d056:    4310        .C      ORRS     r0,r0,r2
        0x0000d058:    6208        .b      STR      r0,[r1,#0x20]
        0x0000d05a:    68a0        .h      LDR      r0,[r4,#8]
        0x0000d05c:    6c0a        .l      LDR      r2,[r1,#0x40]
        0x0000d05e:    4310        .C      ORRS     r0,r0,r2
        0x0000d060:    6408        .d      STR      r0,[r1,#0x40]
        0x0000d062:    9801        ..      LDR      r0,[sp,#4]
        0x0000d064:    f000fa68    ..h.    BL       am_hal_interrupt_master_set ; 0xd538
        0x0000d068:    2000        .       MOVS     r0,#0
        0x0000d06a:    b002        ..      ADD      sp,sp,#8
        0x0000d06c:    bd10        ..      POP      {r4,pc}
        0x0000d06e:    bf00        ..      NOP      
        0x0000d070:    2005        .       MOVS     r0,#5
        0x0000d072:    b002        ..      ADD      sp,sp,#8
        0x0000d074:    bd10        ..      POP      {r4,pc}
        0x0000d076:    0000        ..      MOVS     r0,r0
    am_hal_gpio_interrupt_register
        0x0000d078:    2849        I(      CMP      r0,#0x49
        0x0000d07a:    bf84        ..      ITT      HI
        0x0000d07c:    2005        .       MOVHI    r0,#5
        0x0000d07e:    4770        pG      BXHI     lr
        0x0000d080:    2900        .)      CMP      r1,#0
        0x0000d082:    bf0f        ..      ITEEE    EQ
        0x0000d084:    2006        .       MOVEQ    r0,#6
        0x0000d086:    f6447294    D..r    MOVNE    r2,#0x4f94
        0x0000d08a:    f2c10201    ....    MOVTNE   r2,#0x1001
        0x0000d08e:    f8421020    B. .    STRNE    r1,[r2,r0,LSL #2]
        0x0000d092:    bf18        ..      IT       NE
        0x0000d094:    2000        .       MOVNE    r0,#0
        0x0000d096:    4770        pG      BX       lr
    am_hal_gpio_interrupt_service
        0x0000d098:    e92d47f0    -..G    PUSH     {r4-r10,lr}
        0x0000d09c:    2800        .(      CMP      r0,#0
        0x0000d09e:    d077        w.      BEQ      0xd190 ; am_hal_gpio_interrupt_service + 248
        0x0000d0a0:    4681        .F      MOV      r9,r0
        0x0000d0a2:    6880        .h      LDR      r0,[r0,#8]
        0x0000d0a4:    2100        .!      MOVS     r1,#0
        0x0000d0a6:    ebb12f90    .../    CMP      r1,r0,LSR #10
        0x0000d0aa:    bf1c        ..      ITT      NE
        0x0000d0ac:    2005        .       MOVNE    r0,#5
        0x0000d0ae:    e8bd87f0    ....    POPNE    {r4-r10,pc}
        0x0000d0b2:    f8d97000    ...p    LDR      r7,[r9,#0]
        0x0000d0b6:    f6447694    D..v    MOV      r6,#0x4f94
        0x0000d0ba:    f644686c    D.lh    MOV      r8,#0x4e6c
        0x0000d0be:    f2c10601    ....    MOVT     r6,#0x1001
        0x0000d0c2:    f2c10801    ....    MOVT     r8,#0x1001
        0x0000d0c6:    f04f0400    O...    MOV      r4,#0
        0x0000d0ca:    b1ef        ..      CBZ      r7,0xd108 ; am_hal_gpio_interrupt_service + 112
        0x0000d0cc:    f04f4a00    O..J    MOV      r10,#0x80000000
        0x0000d0d0:    e005        ..      B        0xd0de ; am_hal_gpio_interrupt_service + 70
        0x0000d0d2:    bf00        ..      NOP      
        0x0000d0d4:    2407        .$      MOVS     r4,#7
        0x0000d0d6:    fa2af005    *...    LSR      r0,r10,r5
        0x0000d0da:    4387        .C      BICS     r7,r7,r0
        0x0000d0dc:    b1a7        ..      CBZ      r7,0xd108 ; am_hal_gpio_interrupt_service + 112
        0x0000d0de:    4278        xB      RSBS     r0,r7,#0
        0x0000d0e0:    4038        8@      ANDS     r0,r0,r7
        0x0000d0e2:    fab0f580    ....    CLZ      r5,r0
        0x0000d0e6:    f1c5001f    ....    RSB      r0,r5,#0x1f
        0x0000d0ea:    f8561020    V. .    LDR      r1,[r6,r0,LSL #2]
        0x0000d0ee:    2900        .)      CMP      r1,#0
        0x0000d0f0:    d0f0        ..      BEQ      0xd0d4 ; am_hal_gpio_interrupt_service + 60
        0x0000d0f2:    07ca        ..      LSLS     r2,r1,#31
        0x0000d0f4:    d106        ..      BNE      0xd104 ; am_hal_gpio_interrupt_service + 108
        0x0000d0f6:    f8580020    X. .    LDR      r0,[r8,r0,LSL #2]
        0x0000d0fa:    f0410101    A...    ORR      r1,r1,#1
        0x0000d0fe:    4788        .G      BLX      r1
        0x0000d100:    e7e9        ..      B        0xd0d6 ; am_hal_gpio_interrupt_service + 62
        0x0000d102:    bf00        ..      NOP      
        0x0000d104:    4788        .G      BLX      r1
        0x0000d106:    e7e6        ..      B        0xd0d6 ; am_hal_gpio_interrupt_service + 62
        0x0000d108:    f8d97004    ...p    LDR      r7,[r9,#4]
        0x0000d10c:    b1e7        ..      CBZ      r7,0xd148 ; am_hal_gpio_interrupt_service + 176
        0x0000d10e:    f04f4a00    O..J    MOV      r10,#0x80000000
        0x0000d112:    e004        ..      B        0xd11e ; am_hal_gpio_interrupt_service + 134
        0x0000d114:    2407        .$      MOVS     r4,#7
        0x0000d116:    fa2af005    *...    LSR      r0,r10,r5
        0x0000d11a:    4387        .C      BICS     r7,r7,r0
        0x0000d11c:    b1a7        ..      CBZ      r7,0xd148 ; am_hal_gpio_interrupt_service + 176
        0x0000d11e:    4278        xB      RSBS     r0,r7,#0
        0x0000d120:    4038        8@      ANDS     r0,r0,r7
        0x0000d122:    fab0f580    ....    CLZ      r5,r0
        0x0000d126:    f085003f    ..?.    EOR      r0,r5,#0x3f
        0x0000d12a:    f8561020    V. .    LDR      r1,[r6,r0,LSL #2]
        0x0000d12e:    2900        .)      CMP      r1,#0
        0x0000d130:    d0f0        ..      BEQ      0xd114 ; am_hal_gpio_interrupt_service + 124
        0x0000d132:    07ca        ..      LSLS     r2,r1,#31
        0x0000d134:    d106        ..      BNE      0xd144 ; am_hal_gpio_interrupt_service + 172
        0x0000d136:    f8580020    X. .    LDR      r0,[r8,r0,LSL #2]
        0x0000d13a:    f0410101    A...    ORR      r1,r1,#1
        0x0000d13e:    4788        .G      BLX      r1
        0x0000d140:    e7e9        ..      B        0xd116 ; am_hal_gpio_interrupt_service + 126
        0x0000d142:    bf00        ..      NOP      
        0x0000d144:    4788        .G      BLX      r1
        0x0000d146:    e7e6        ..      B        0xd116 ; am_hal_gpio_interrupt_service + 126
        0x0000d148:    f8d95008    ...P    LDR      r5,[r9,#8]
        0x0000d14c:    b1e5        ..      CBZ      r5,0xd188 ; am_hal_gpio_interrupt_service + 240
        0x0000d14e:    f04f4900    O..I    MOV      r9,#0x80000000
        0x0000d152:    e004        ..      B        0xd15e ; am_hal_gpio_interrupt_service + 198
        0x0000d154:    2407        .$      MOVS     r4,#7
        0x0000d156:    fa29f007    )...    LSR      r0,r9,r7
        0x0000d15a:    4385        .C      BICS     r5,r5,r0
        0x0000d15c:    b1a5        ..      CBZ      r5,0xd188 ; am_hal_gpio_interrupt_service + 240
        0x0000d15e:    4268        hB      RSBS     r0,r5,#0
        0x0000d160:    4028        (@      ANDS     r0,r0,r5
        0x0000d162:    fab0f780    ....    CLZ      r7,r0
        0x0000d166:    f1c7005f    .._.    RSB      r0,r7,#0x5f
        0x0000d16a:    f8561020    V. .    LDR      r1,[r6,r0,LSL #2]
        0x0000d16e:    2900        .)      CMP      r1,#0
        0x0000d170:    d0f0        ..      BEQ      0xd154 ; am_hal_gpio_interrupt_service + 188
        0x0000d172:    07ca        ..      LSLS     r2,r1,#31
        0x0000d174:    d106        ..      BNE      0xd184 ; am_hal_gpio_interrupt_service + 236
        0x0000d176:    f8580020    X. .    LDR      r0,[r8,r0,LSL #2]
        0x0000d17a:    f0410101    A...    ORR      r1,r1,#1
        0x0000d17e:    4788        .G      BLX      r1
        0x0000d180:    e7e9        ..      B        0xd156 ; am_hal_gpio_interrupt_service + 190
        0x0000d182:    bf00        ..      NOP      
        0x0000d184:    4788        .G      BLX      r1
        0x0000d186:    e7e6        ..      B        0xd156 ; am_hal_gpio_interrupt_service + 190
        0x0000d188:    4620         F      MOV      r0,r4
        0x0000d18a:    e8bd87f0    ....    POP      {r4-r10,pc}
        0x0000d18e:    bf00        ..      NOP      
        0x0000d190:    2006        .       MOVS     r0,#6
        0x0000d192:    e8bd87f0    ....    POP      {r4-r10,pc}
        0x0000d196:    0000        ..      MOVS     r0,r0
    am_hal_gpio_interrupt_status_get
        0x0000d198:    b570        p.      PUSH     {r4-r6,lr}
        0x0000d19a:    b084        ..      SUB      sp,sp,#0x10
        0x0000d19c:    b361        a.      CBZ      r1,0xd1f8 ; am_hal_gpio_interrupt_status_get + 96
        0x0000d19e:    4605        .F      MOV      r5,r0
        0x0000d1a0:    6888        .h      LDR      r0,[r1,#8]
        0x0000d1a2:    460c        .F      MOV      r4,r1
        0x0000d1a4:    2100        .!      MOVS     r1,#0
        0x0000d1a6:    ebb12f90    .../    CMP      r1,r0,LSR #10
        0x0000d1aa:    d129        ).      BNE      0xd200 ; am_hal_gpio_interrupt_status_get + 104
        0x0000d1ac:    f2402600    @..&    MOVW     r6,#0x200
        0x0000d1b0:    f04f30ff    O..0    MOV      r0,#0xffffffff
        0x0000d1b4:    f2c40601    ....    MOVT     r6,#0x4001
        0x0000d1b8:    9003        ..      STR      r0,[sp,#0xc]
        0x0000d1ba:    9002        ..      STR      r0,[sp,#8]
        0x0000d1bc:    9001        ..      STR      r0,[sp,#4]
        0x0000d1be:    f000f9b3    ....    BL       am_hal_interrupt_master_disable ; 0xd528
        0x0000d1c2:    9000        ..      STR      r0,[sp,#0]
        0x0000d1c4:    b12d        -.      CBZ      r5,0xd1d2 ; am_hal_gpio_interrupt_status_get + 58
        0x0000d1c6:    6830        0h      LDR      r0,[r6,#0]
        0x0000d1c8:    9003        ..      STR      r0,[sp,#0xc]
        0x0000d1ca:    6a30        0j      LDR      r0,[r6,#0x20]
        0x0000d1cc:    9002        ..      STR      r0,[sp,#8]
        0x0000d1ce:    6c30        0l      LDR      r0,[r6,#0x40]
        0x0000d1d0:    9001        ..      STR      r0,[sp,#4]
        0x0000d1d2:    6870        ph      LDR      r0,[r6,#4]
        0x0000d1d4:    9903        ..      LDR      r1,[sp,#0xc]
        0x0000d1d6:    4008        .@      ANDS     r0,r0,r1
        0x0000d1d8:    6020         `      STR      r0,[r4,#0]
        0x0000d1da:    6a70        pj      LDR      r0,[r6,#0x24]
        0x0000d1dc:    9902        ..      LDR      r1,[sp,#8]
        0x0000d1de:    4008        .@      ANDS     r0,r0,r1
        0x0000d1e0:    6060        ``      STR      r0,[r4,#4]
        0x0000d1e2:    6c70        pl      LDR      r0,[r6,#0x44]
        0x0000d1e4:    9901        ..      LDR      r1,[sp,#4]
        0x0000d1e6:    4008        .@      ANDS     r0,r0,r1
        0x0000d1e8:    60a0        .`      STR      r0,[r4,#8]
        0x0000d1ea:    9800        ..      LDR      r0,[sp,#0]
        0x0000d1ec:    f000f9a4    ....    BL       am_hal_interrupt_master_set ; 0xd538
        0x0000d1f0:    2000        .       MOVS     r0,#0
        0x0000d1f2:    b004        ..      ADD      sp,sp,#0x10
        0x0000d1f4:    bd70        p.      POP      {r4-r6,pc}
        0x0000d1f6:    bf00        ..      NOP      
        0x0000d1f8:    2006        .       MOVS     r0,#6
        0x0000d1fa:    b004        ..      ADD      sp,sp,#0x10
        0x0000d1fc:    bd70        p.      POP      {r4-r6,pc}
        0x0000d1fe:    bf00        ..      NOP      
        0x0000d200:    2005        .       MOVS     r0,#5
        0x0000d202:    b004        ..      ADD      sp,sp,#0x10
        0x0000d204:    bd70        p.      POP      {r4-r6,pc}
        0x0000d206:    0000        ..      MOVS     r0,r0
    am_hal_gpio_pinconfig
        0x0000d208:    e92d4ff0    -..O    PUSH     {r4-r11,lr}
        0x0000d20c:    b087        ..      SUB      sp,sp,#0x1c
        0x0000d20e:    2849        I(      CMP      r0,#0x49
        0x0000d210:    d904        ..      BLS      0xd21c ; am_hal_gpio_pinconfig + 20
        0x0000d212:    2506        .%      MOVS     r5,#6
        0x0000d214:    4628        (F      MOV      r0,r5
        0x0000d216:    b007        ..      ADD      sp,sp,#0x1c
        0x0000d218:    e8bd8ff0    ....    POP      {r4-r11,pc}
        0x0000d21c:    f2401202    @...    MOVW     r2,#0x102
        0x0000d220:    f0010307    ....    AND      r3,r1,#7
        0x0000d224:    f3c11742    ..B.    UBFX     r7,r1,#5,#3
        0x0000d228:    4604        .F      MOV      r4,r0
        0x0000d22a:    f6c00200    ....    MOVT     r2,#0x800
        0x0000d22e:    ea4f00c3    O...    LSL      r0,r3,#3
        0x0000d232:    b1ff        ..      CBZ      r7,0xd274 ; am_hal_gpio_pinconfig + 108
        0x0000d234:    f1a10640    ..@.    SUB      r6,r1,#0x40
        0x0000d238:    b276        v.      SXTB     r6,r6
        0x0000d23a:    2e00        ..      CMP      r6,#0
        0x0000d23c:    f0400001    @...    ORR      r0,r0,#1
        0x0000d240:    d40a        ..      BMI      0xd258 ; am_hal_gpio_pinconfig + 80
        0x0000d242:    f240363c    @.<6    MOVW     r6,#0x33c
        0x0000d246:    f2c00601    ....    MOVT     r6,#1
        0x0000d24a:    5d36        6]      LDRB     r6,[r6,r4]
        0x0000d24c:    07f6        ..      LSLS     r6,r6,#31
        0x0000d24e:    d021        !.      BEQ      0xd294 ; am_hal_gpio_pinconfig + 140
        0x0000d250:    ea401087    @...    ORR      r0,r0,r7,LSL #6
        0x0000d254:    3880        .8      SUBS     r0,r0,#0x80
        0x0000d256:    e00d        ..      B        0xd274 ; am_hal_gpio_pinconfig + 108
        0x0000d258:    2f06        ./      CMP      r7,#6
        0x0000d25a:    d107        ..      BNE      0xd26c ; am_hal_gpio_pinconfig + 100
        0x0000d25c:    2c14        .,      CMP      r4,#0x14
        0x0000d25e:    d009        ..      BEQ      0xd274 ; am_hal_gpio_pinconfig + 108
        0x0000d260:    1e55        U.      SUBS     r5,r2,#1
        0x0000d262:    4628        (F      MOV      r0,r5
        0x0000d264:    b007        ..      ADD      sp,sp,#0x1c
        0x0000d266:    e8bd8ff0    ....    POP      {r4-r11,pc}
        0x0000d26a:    bf00        ..      NOP      
        0x0000d26c:    2c14        .,      CMP      r4,#0x14
        0x0000d26e:    bf08        ..      IT       EQ
        0x0000d270:    2f01        ./      CMPEQ    r7,#1
        0x0000d272:    d00f        ..      BEQ      0xd294 ; am_hal_gpio_pinconfig + 140
        0x0000d274:    f3c107c1    ....    UBFX     r7,r1,#3,#2
        0x0000d278:    b1cf        ..      CBZ      r7,0xd2ae ; am_hal_gpio_pinconfig + 166
        0x0000d27a:    2f02        ./      CMP      r7,#2
        0x0000d27c:    d010        ..      BEQ      0xd2a0 ; am_hal_gpio_pinconfig + 152
        0x0000d27e:    2f01        ./      CMP      r7,#1
        0x0000d280:    f0408076    @.v.    BNE.W    0xd370 ; am_hal_gpio_pinconfig + 360
        0x0000d284:    2c24        $,      CMP      r4,#0x24
        0x0000d286:    d002        ..      BEQ      0xd28e ; am_hal_gpio_pinconfig + 134
        0x0000d288:    2c03        .,      CMP      r4,#3
        0x0000d28a:    4615        .F      MOV      r5,r2
        0x0000d28c:    d1c2        ..      BNE      0xd214 ; am_hal_gpio_pinconfig + 12
        0x0000d28e:    f0400040    @.@.    ORR      r0,r0,#0x40
        0x0000d292:    e00c        ..      B        0xd2ae ; am_hal_gpio_pinconfig + 166
        0x0000d294:    1e95        ..      SUBS     r5,r2,#2
        0x0000d296:    4628        (F      MOV      r0,r5
        0x0000d298:    b007        ..      ADD      sp,sp,#0x1c
        0x0000d29a:    e8bd8ff0    ....    POP      {r4-r11,pc}
        0x0000d29e:    bf00        ..      NOP      
        0x0000d2a0:    2c29        ),      CMP      r4,#0x29
        0x0000d2a2:    d002        ..      BEQ      0xd2aa ; am_hal_gpio_pinconfig + 162
        0x0000d2a4:    2c25        %,      CMP      r4,#0x25
        0x0000d2a6:    4615        .F      MOV      r5,r2
        0x0000d2a8:    d1b4        ..      BNE      0xd214 ; am_hal_gpio_pinconfig + 12
        0x0000d2aa:    f0400080    @...    ORR      r0,r0,#0x80
        0x0000d2ae:    f2403786    @..7    MOV      r7,#0x386
        0x0000d2b2:    f2c00701    ....    MOVT     r7,#1
        0x0000d2b6:    5d3f        ?]      LDRB     r7,[r7,r4]
        0x0000d2b8:    40df        .@      LSRS     r7,r7,r3
        0x0000d2ba:    07ff        ..      LSLS     r7,r7,#31
        0x0000d2bc:    f24047f8    @..G    MOVW     r7,#0x4f8
        0x0000d2c0:    f2c00701    ....    MOVT     r7,#1
        0x0000d2c4:    5d3f        ?]      LDRB     r7,[r7,r4]
        0x0000d2c6:    bf18        ..      IT       NE
        0x0000d2c8:    f0400002    @...    ORRNE    r0,r0,#2
        0x0000d2cc:    429f        .B      CMP      r7,r3
        0x0000d2ce:    d11f        ..      BNE      0xd310 ; am_hal_gpio_pinconfig + 264
        0x0000d2d0:    0c0b        ..      LSRS     r3,r1,#16
        0x0000d2d2:    f003070d    ....    AND      r7,r3,#0xd
        0x0000d2d6:    2f0d        ./      CMP      r7,#0xd
        0x0000d2d8:    f1020501    ....    ADD      r5,r2,#1
        0x0000d2dc:    d09a        ..      BEQ      0xd214 ; am_hal_gpio_pinconfig + 12
        0x0000d2de:    07df        ..      LSLS     r7,r3,#31
        0x0000d2e0:    d104        ..      BNE      0xd2ec ; am_hal_gpio_pinconfig + 228
        0x0000d2e2:    f003070e    ....    AND      r7,r3,#0xe
        0x0000d2e6:    2f04        ./      CMP      r7,#4
        0x0000d2e8:    f63faf94    ?...    BHI.W    0xd214 ; am_hal_gpio_pinconfig + 12
        0x0000d2ec:    f2403cd0    @..<    MOVW     r12,#0x3d0
        0x0000d2f0:    f0030630    ..0.    AND      r6,r3,#0x30
        0x0000d2f4:    f2c00c01    ....    MOVT     r12,#1
        0x0000d2f8:    f3c30542    ..B.    UBFX     r5,r3,#1,#3
        0x0000d2fc:    f36316c7    c...    BFI      r6,r3,#7,#1
        0x0000d300:    f81c7024    ..$p    LDRB     r7,[r12,r4,LSL #2]
        0x0000d304:    1973        s.      ADDS     r3,r6,r5
        0x0000d306:    42bb        .B      CMP      r3,r7
        0x0000d308:    f0408094    @...    BNE.W    0xd434 ; am_hal_gpio_pinconfig + 556
        0x0000d30c:    2200        ."      MOVS     r2,#0
        0x0000d30e:    e0a3        ..      B        0xd458 ; am_hal_gpio_pinconfig + 592
        0x0000d310:    2202        ."      MOVS     r2,#2
        0x0000d312:    ea0222d1    ..."    AND      r2,r2,r1,LSR #11
        0x0000d316:    f3c12307    ...#    UBFX     r3,r1,#8,#8
        0x0000d31a:    4310        .C      ORRS     r0,r0,r2
        0x0000d31c:    2208        ."      MOVS     r2,#8
        0x0000d31e:    f3c30781    ....    UBFX     r7,r3,#2,#2
        0x0000d322:    ea022291    ..."    AND      r2,r2,r1,LSR #10
        0x0000d326:    ea420247    B.G.    ORR      r2,r2,r7,LSL #1
        0x0000d32a:    3f01        .?      SUBS     r7,#1
        0x0000d32c:    1ece        ..      SUBS     r6,r1,#3
        0x0000d32e:    fab7f787    ....    CLZ      r7,r7
        0x0000d332:    fab6f686    ....    CLZ      r6,r6
        0x0000d336:    097f        ..      LSRS     r7,r7,#5
        0x0000d338:    0976        v.      LSRS     r6,r6,#5
        0x0000d33a:    f0030360    ..`.    AND      r3,r3,#0x60
        0x0000d33e:    2b40        @+      CMP      r3,#0x40
        0x0000d340:    ea470306    G...    ORR      r3,r7,r6
        0x0000d344:    9301        ..      STR      r3,[sp,#4]
        0x0000d346:    bf07        ..      ITTEE    EQ
        0x0000d348:    f3c133c0    ...3    UBFXEQ   r3,r1,#15,#1
        0x0000d34c:    ea420c03    B...    ORREQ    r12,r2,r3
        0x0000d350:    f3c13380    ...3    UBFXNE   r3,r1,#14,#1
        0x0000d354:    eb020c03    ....    ADDNE    r12,r2,r3
        0x0000d358:    0a09        ..      LSRS     r1,r1,#8
        0x0000d35a:    f0010103    ....    AND      r1,r1,#3
        0x0000d35e:    e8dff001    ....    TBB      [pc,r1]
    $d.2
        0x0000d362:    0310        ..      DCW    784
        0x0000d364:    bf000d0f    ....    DCD    3204451599
    $t.3
        0x0000d368:    f0400004    @...    ORR      r0,r0,#4
        0x0000d36c:    2100        .!      MOVS     r1,#0
        0x0000d36e:    e008        ..      B        0xd382 ; am_hal_gpio_pinconfig + 378
        0x0000d370:    4615        .F      MOV      r5,r2
        0x0000d372:    4628        (F      MOV      r0,r5
        0x0000d374:    b007        ..      ADD      sp,sp,#0x1c
        0x0000d376:    e8bd8ff0    ....    POP      {r4-r11,pc}
        0x0000d37a:    bf00        ..      NOP      
        0x0000d37c:    f0400004    @...    ORR      r0,r0,#4
        0x0000d380:    2101        .!      MOVS     r1,#1
        0x0000d382:    f06f0303    o...    MVN      r3,#3
        0x0000d386:    ea030254    ..T.    AND      r2,r3,r4,LSR #1
        0x0000d38a:    231c        .#      MOVS     r3,#0x1c
        0x0000d38c:    ea030384    ....    AND      r3,r3,r4,LSL #2
        0x0000d390:    260f        .&      MOVS     r6,#0xf
        0x0000d392:    409e        .@      LSLS     r6,r6,r3
        0x0000d394:    9205        ..      STR      r2,[sp,#0x14]
        0x0000d396:    2218        ."      MOVS     r2,#0x18
        0x0000d398:    43f6        .C      MVNS     r6,r6
        0x0000d39a:    ea0202c4    ....    AND      r2,r2,r4,LSL #3
        0x0000d39e:    9604        ..      STR      r6,[sp,#0x10]
        0x0000d3a0:    26ff        .&      MOVS     r6,#0xff
        0x0000d3a2:    4096        .@      LSLS     r6,r6,r2
        0x0000d3a4:    f2400a74    @.t.    MOVW     r10,#0x74
        0x0000d3a8:    ea6f0806    o...    MVN      r8,r6
        0x0000d3ac:    fa00f602    ....    LSL      r6,r0,r2
        0x0000d3b0:    fa01f002    ....    LSL      r0,r1,r2
        0x0000d3b4:    f2c40a01    ....    MOVT     r10,#0x4001
        0x0000d3b8:    9003        ..      STR      r0,[sp,#0xc]
        0x0000d3ba:    fa0cf003    ....    LSL      r0,r12,r3
        0x0000d3be:    f1aa0928    ..(.    SUB      r9,r10,#0x28
        0x0000d3c2:    f0240703    $...    BIC      r7,r4,#3
        0x0000d3c6:    f1aa0574    ..t.    SUB      r5,r10,#0x74
        0x0000d3ca:    f10a0b84    ....    ADD      r11,r10,#0x84
        0x0000d3ce:    9002        ..      STR      r0,[sp,#8]
        0x0000d3d0:    f000f8aa    ....    BL       am_hal_interrupt_master_disable ; 0xd528
        0x0000d3d4:    9901        ..      LDR      r1,[sp,#4]
        0x0000d3d6:    9006        ..      STR      r0,[sp,#0x18]
        0x0000d3d8:    b149        I.      CBZ      r1,0xd3ee ; am_hal_gpio_pinconfig + 486
        0x0000d3da:    f004001f    ....    AND      r0,r4,#0x1f
        0x0000d3de:    2101        .!      MOVS     r1,#1
        0x0000d3e0:    fa01f000    ....    LSL      r0,r1,r0
        0x0000d3e4:    f3c41141    ..A.    UBFX     r1,r4,#5,#2
        0x0000d3e8:    eb0a0181    ....    ADD      r1,r10,r1,LSL #2
        0x0000d3ec:    6548        He      STR      r0,[r1,#0x54]
        0x0000d3ee:    2073        s       MOVS     r0,#0x73
        0x0000d3f0:    f8ca0000    ....    STR      r0,[r10,#0]
        0x0000d3f4:    5978        xY      LDR      r0,[r7,r5]
        0x0000d3f6:    ea000008    ....    AND      r0,r0,r8
        0x0000d3fa:    4330        0C      ORRS     r0,r0,r6
        0x0000d3fc:    5178        xQ      STR      r0,[r7,r5]
        0x0000d3fe:    9905        ..      LDR      r1,[sp,#0x14]
        0x0000d400:    2500        .%      MOVS     r5,#0
        0x0000d402:    f8510009    Q...    LDR      r0,[r1,r9]
        0x0000d406:    9b04        ..      LDR      r3,[sp,#0x10]
        0x0000d408:    4018        .@      ANDS     r0,r0,r3
        0x0000d40a:    9b02        ..      LDR      r3,[sp,#8]
        0x0000d40c:    4318        .C      ORRS     r0,r0,r3
        0x0000d40e:    f8410009    A...    STR      r0,[r1,r9]
        0x0000d412:    f857000b    W...    LDR      r0,[r7,r11]
        0x0000d416:    9903        ..      LDR      r1,[sp,#0xc]
        0x0000d418:    ea000008    ....    AND      r0,r0,r8
        0x0000d41c:    4308        .C      ORRS     r0,r0,r1
        0x0000d41e:    f847000b    G...    STR      r0,[r7,r11]
        0x0000d422:    f8ca5000    ...P    STR      r5,[r10,#0]
        0x0000d426:    9806        ..      LDR      r0,[sp,#0x18]
        0x0000d428:    f000f886    ....    BL       am_hal_interrupt_master_set ; 0xd538
        0x0000d42c:    4628        (F      MOV      r0,r5
        0x0000d42e:    b007        ..      ADD      sp,sp,#0x1c
        0x0000d430:    e8bd8ff0    ....    POP      {r4-r11,pc}
        0x0000d434:    eb0c0784    ....    ADD      r7,r12,r4,LSL #2
        0x0000d438:    787e        ~x      LDRB     r6,[r7,#1]
        0x0000d43a:    42b3        .B      CMP      r3,r6
        0x0000d43c:    d102        ..      BNE      0xd444 ; am_hal_gpio_pinconfig + 572
        0x0000d43e:    2202        ."      MOVS     r2,#2
        0x0000d440:    e00a        ..      B        0xd458 ; am_hal_gpio_pinconfig + 592
        0x0000d442:    bf00        ..      NOP      
        0x0000d444:    78be        .x      LDRB     r6,[r7,#2]
        0x0000d446:    42b3        .B      CMP      r3,r6
        0x0000d448:    d102        ..      BNE      0xd450 ; am_hal_gpio_pinconfig + 584
        0x0000d44a:    2204        ."      MOVS     r2,#4
        0x0000d44c:    e004        ..      B        0xd458 ; am_hal_gpio_pinconfig + 592
        0x0000d44e:    bf00        ..      NOP      
        0x0000d450:    78ff        .x      LDRB     r7,[r7,#3]
        0x0000d452:    42bb        .B      CMP      r3,r7
        0x0000d454:    d108        ..      BNE      0xd468 ; am_hal_gpio_pinconfig + 608
        0x0000d456:    2206        ."      MOVS     r2,#6
        0x0000d458:    2308        .#      MOVS     r3,#8
        0x0000d45a:    ea0343d1    ...C    AND      r3,r3,r1,LSR #19
        0x0000d45e:    eb020c03    ....    ADD      r12,r2,r3
        0x0000d462:    2200        ."      MOVS     r2,#0
        0x0000d464:    9201        ..      STR      r2,[sp,#4]
        0x0000d466:    e777        w.      B        0xd358 ; am_hal_gpio_pinconfig + 336
        0x0000d468:    1c95        ..      ADDS     r5,r2,#2
        0x0000d46a:    4628        (F      MOV      r0,r5
        0x0000d46c:    b007        ..      ADD      sp,sp,#0x1c
        0x0000d46e:    e8bd8ff0    ....    POP      {r4-r11,pc}
        0x0000d472:    0000        ..      MOVS     r0,r0
    am_hal_gpio_state_write
        0x0000d474:    b5b0        ..      PUSH     {r4,r5,r7,lr}
        0x0000d476:    b082        ..      SUB      sp,sp,#8
        0x0000d478:    2849        I(      CMP      r0,#0x49
        0x0000d47a:    d903        ..      BLS      0xd484 ; am_hal_gpio_state_write + 16
        0x0000d47c:    2405        .$      MOVS     r4,#5
        0x0000d47e:    4620         F      MOV      r0,r4
        0x0000d480:    b002        ..      ADD      sp,sp,#8
        0x0000d482:    bdb0        ..      POP      {r4,r5,r7,pc}
        0x0000d484:    460d        .F      MOV      r5,r1
        0x0000d486:    2905        .)      CMP      r1,#5
        0x0000d488:    d904        ..      BLS      0xd494 ; am_hal_gpio_state_write + 32
        0x0000d48a:    2406        .$      MOVS     r4,#6
        0x0000d48c:    4620         F      MOV      r0,r4
        0x0000d48e:    b002        ..      ADD      sp,sp,#8
        0x0000d490:    bdb0        ..      POP      {r4,r5,r7,pc}
        0x0000d492:    bf00        ..      NOP      
        0x0000d494:    4604        .F      MOV      r4,r0
        0x0000d496:    f000f847    ..G.    BL       am_hal_interrupt_master_disable ; 0xd528
        0x0000d49a:    2d05        .-      CMP      r5,#5
        0x0000d49c:    9001        ..      STR      r0,[sp,#4]
        0x0000d49e:    d841        A.      BHI      0xd524 ; am_hal_gpio_state_write + 176
        0x0000d4a0:    f004001f    ....    AND      r0,r4,#0x1f
        0x0000d4a4:    2101        .!      MOVS     r1,#1
        0x0000d4a6:    fa01f000    ....    LSL      r0,r1,r0
        0x0000d4aa:    210c        .!      MOVS     r1,#0xc
        0x0000d4ac:    ea0101d4    ....    AND      r1,r1,r4,LSR #3
        0x0000d4b0:    e8dff005    ....    TBB      [pc,r5]
    $d.7
        0x0000d4b4:    1e140c04    ....    DCD    504630276
        0x0000d4b8:    bf002a22    "*..    DCD    3204459042
    $t.8
        0x0000d4bc:    22c8        ."      MOVS     r2,#0xc8
        0x0000d4be:    f2c40201    ....    MOVT     r2,#0x4001
        0x0000d4c2:    4411        .D      ADD      r1,r1,r2
        0x0000d4c4:    f8410c24    A.$.    STR      r0,[r1,#-0x24]
        0x0000d4c8:    e024        $.      B        0xd514 ; am_hal_gpio_state_write + 160
        0x0000d4ca:    bf00        ..      NOP      
        0x0000d4cc:    22c8        ."      MOVS     r2,#0xc8
        0x0000d4ce:    f2c40201    ....    MOVT     r2,#0x4001
        0x0000d4d2:    4411        .D      ADD      r1,r1,r2
        0x0000d4d4:    f8410c30    A.0.    STR      r0,[r1,#-0x30]
        0x0000d4d8:    e01c        ..      B        0xd514 ; am_hal_gpio_state_write + 160
        0x0000d4da:    bf00        ..      NOP      
        0x0000d4dc:    22c8        ."      MOVS     r2,#0xc8
        0x0000d4de:    f2c40201    ....    MOVT     r2,#0x4001
        0x0000d4e2:    4411        .D      ADD      r1,r1,r2
        0x0000d4e4:    f8512c3c    Q.<,    LDR      r2,[r1,#-0x3c]
        0x0000d4e8:    4050        P@      EORS     r0,r0,r2
        0x0000d4ea:    f8410c3c    A.<.    STR      r0,[r1,#-0x3c]
        0x0000d4ee:    e011        ..      B        0xd514 ; am_hal_gpio_state_write + 160
        0x0000d4f0:    22c8        ."      MOVS     r2,#0xc8
        0x0000d4f2:    f2c40201    ....    MOVT     r2,#0x4001
        0x0000d4f6:    e00c        ..      B        0xd512 ; am_hal_gpio_state_write + 158
        0x0000d4f8:    22c8        ."      MOVS     r2,#0xc8
        0x0000d4fa:    f2c40201    ....    MOVT     r2,#0x4001
        0x0000d4fe:    4411        .D      ADD      r1,r1,r2
        0x0000d500:    f8410c0c    A...    STR      r0,[r1,#-0xc]
        0x0000d504:    e006        ..      B        0xd514 ; am_hal_gpio_state_write + 160
        0x0000d506:    bf00        ..      NOP      
        0x0000d508:    22c8        ."      MOVS     r2,#0xc8
        0x0000d50a:    f2c40201    ....    MOVT     r2,#0x4001
        0x0000d50e:    588b        .X      LDR      r3,[r1,r2]
        0x0000d510:    4058        X@      EORS     r0,r0,r3
        0x0000d512:    5088        .P      STR      r0,[r1,r2]
        0x0000d514:    2400        .$      MOVS     r4,#0
        0x0000d516:    9801        ..      LDR      r0,[sp,#4]
        0x0000d518:    f000f80e    ....    BL       am_hal_interrupt_master_set ; 0xd538
        0x0000d51c:    4620         F      MOV      r0,r4
        0x0000d51e:    b002        ..      ADD      sp,sp,#8
        0x0000d520:    bdb0        ..      POP      {r4,r5,r7,pc}
        0x0000d522:    bf00        ..      NOP      
        0x0000d524:    2406        .$      MOVS     r4,#6
        0x0000d526:    e7f6        ..      B        0xd516 ; am_hal_gpio_state_write + 162
    am_hal_interrupt_master_disable
        0x0000d528:    f3ef8010    ....    MRS      r0,PRIMASK
        0x0000d52c:    b672        r.      CPSID    i
        0x0000d52e:    4770        pG      BX       lr
    am_hal_interrupt_master_enable
        0x0000d530:    f3ef8010    ....    MRS      r0,PRIMASK
        0x0000d534:    b662        b.      CPSIE    i
        0x0000d536:    4770        pG      BX       lr
    am_hal_interrupt_master_set
        0x0000d538:    f3808810    ....    MSR      PRIMASK,r0
        0x0000d53c:    4770        pG      BX       lr
        0x0000d53e:    0000        ..      MOVS     r0,r0
    am_hal_iom_CQEnable
        0x0000d540:    6a41        Aj      LDR      r1,[r0,#0x24]
        0x0000d542:    b119        ..      CBZ      r1,0xd54c ; am_hal_iom_CQEnable + 12
        0x0000d544:    f8d00828    ..(.    LDR      r0,[r0,#0x828]
        0x0000d548:    f7ffbc3e    ..>.    B.W      am_hal_cmdq_enable ; 0xcdc8
        0x0000d54c:    6841        Ah      LDR      r1,[r0,#4]
        0x0000d54e:    f2442398    D..#    MOV      r3,#0x4298
        0x0000d552:    030a        ..      LSLS     r2,r1,#12
        0x0000d554:    f2c50300    ....    MOVT     r3,#0x5000
        0x0000d558:    589a        .X      LDR      r2,[r3,r2]
        0x0000d55a:    eb033101    ...1    ADD      r1,r3,r1,LSL #12
        0x0000d55e:    e9c21200    ....    STRD     r1,r2,[r2,#0]
        0x0000d562:    f8d00828    ..(.    LDR      r0,[r0,#0x828]
        0x0000d566:    f7ffbc2f    ../.    B.W      am_hal_cmdq_enable ; 0xcdc8
        0x0000d56a:    0000        ..      MOVS     r0,r0
    am_hal_iom_blocking_transfer
        0x0000d56c:    e92d4ff0    -..O    PUSH     {r4-r11,lr}
        0x0000d570:    b08b        ..      SUB      sp,sp,#0x2c
        0x0000d572:    b1a8        ..      CBZ      r0,0xd5a0 ; am_hal_iom_blocking_transfer + 52
        0x0000d574:    4604        .F      MOV      r4,r0
        0x0000d576:    6800        .h      LDR      r0,[r0,#0]
        0x0000d578:    460e        .F      MOV      r6,r1
        0x0000d57a:    f2434156    C.VA    MOV      r1,#0x3456
        0x0000d57e:    f020407e     .~@    BIC      r0,r0,#0xfe000000
        0x0000d582:    f2c01112    ....    MOVT     r1,#0x112
        0x0000d586:    4288        .B      CMP      r0,r1
        0x0000d588:    d10a        ..      BNE      0xd5a0 ; am_hal_iom_blocking_transfer + 52
        0x0000d58a:    b316        ..      CBZ      r6,0xd5d2 ; am_hal_iom_blocking_transfer + 102
        0x0000d58c:    f8969010    ....    LDRB     r9,[r6,#0x10]
        0x0000d590:    f1b90f01    ....    CMP      r9,#1
        0x0000d594:    d90a        ..      BLS      0xd5ac ; am_hal_iom_blocking_transfer + 64
        0x0000d596:    2707        .'      MOVS     r7,#7
        0x0000d598:    4638        8F      MOV      r0,r7
        0x0000d59a:    b00b        ..      ADD      sp,sp,#0x2c
        0x0000d59c:    e8bd8ff0    ....    POP      {r4-r11,pc}
        0x0000d5a0:    2702        .'      MOVS     r7,#2
        0x0000d5a2:    4638        8F      MOV      r0,r7
        0x0000d5a4:    b00b        ..      ADD      sp,sp,#0x2c
        0x0000d5a6:    e8bd8ff0    ....    POP      {r4-r11,pc}
        0x0000d5aa:    bf00        ..      NOP      
        0x0000d5ac:    68f5        .h      LDR      r5,[r6,#0xc]
        0x0000d5ae:    2d00        .-      CMP      r5,#0
        0x0000d5b0:    bf04        ..      ITT      EQ
        0x0000d5b2:    f04f0900    O...    MOVEQ    r9,#0
        0x0000d5b6:    f8869010    ....    STRBEQ   r9,[r6,#0x10]
        0x0000d5ba:    f8d6a004    ....    LDR      r10,[r6,#4]
        0x0000d5be:    f1ba0f03    ....    CMP      r10,#3
        0x0000d5c2:    d806        ..      BHI      0xd5d2 ; am_hal_iom_blocking_transfer + 102
        0x0000d5c4:    f8d68008    ....    LDR      r8,[r6,#8]
        0x0000d5c8:    ea4f00ca    O...    LSL      r0,r10,#3
        0x0000d5cc:    fa38f000    8...    LSRS     r0,r8,r0
        0x0000d5d0:    d004        ..      BEQ      0xd5dc ; am_hal_iom_blocking_transfer + 112
        0x0000d5d2:    2706        .'      MOVS     r7,#6
        0x0000d5d4:    4638        8F      MOV      r0,r7
        0x0000d5d6:    b00b        ..      ADD      sp,sp,#0x2c
        0x0000d5d8:    e8bd8ff0    ....    POP      {r4-r11,pc}
        0x0000d5dc:    2d00        .-      CMP      r5,#0
        0x0000d5de:    bf18        ..      IT       NE
        0x0000d5e0:    f1b90f00    ....    CMPNE    r9,#0
        0x0000d5e4:    d108        ..      BNE      0xd5f8 ; am_hal_iom_blocking_transfer + 140
        0x0000d5e6:    2d00        .-      CMP      r5,#0
        0x0000d5e8:    bf18        ..      IT       NE
        0x0000d5ea:    f1b90f01    ....    CMPNE    r9,#1
        0x0000d5ee:    d006        ..      BEQ      0xd5fe ; am_hal_iom_blocking_transfer + 146
        0x0000d5f0:    6970        pi      LDR      r0,[r6,#0x14]
        0x0000d5f2:    b920         .      CBNZ     r0,0xd5fe ; am_hal_iom_blocking_transfer + 146
        0x0000d5f4:    e7ed        ..      B        0xd5d2 ; am_hal_iom_blocking_transfer + 102
        0x0000d5f6:    bf00        ..      NOP      
        0x0000d5f8:    69b0        .i      LDR      r0,[r6,#0x18]
        0x0000d5fa:    2800        .(      CMP      r0,#0
        0x0000d5fc:    d0e9        ..      BEQ      0xd5d2 ; am_hal_iom_blocking_transfer + 102
        0x0000d5fe:    7a20         z      LDRB     r0,[r4,#8]
        0x0000d600:    b130        0.      CBZ      r0,0xd610 ; am_hal_iom_blocking_transfer + 164
        0x0000d602:    2801        .(      CMP      r0,#1
        0x0000d604:    d10c        ..      BNE      0xd620 ; am_hal_iom_blocking_transfer + 180
        0x0000d606:    f5b57f00    ....    CMP      r5,#0x200
        0x0000d60a:    d909        ..      BLS      0xd620 ; am_hal_iom_blocking_transfer + 180
        0x0000d60c:    e7e1        ..      B        0xd5d2 ; am_hal_iom_blocking_transfer + 102
        0x0000d60e:    bf00        ..      NOP      
        0x0000d610:    6830        0h      LDR      r0,[r6,#0]
        0x0000d612:    2706        .'      MOVS     r7,#6
        0x0000d614:    2803        .(      CMP      r0,#3
        0x0000d616:    d8bf        ..      BHI      0xd598 ; am_hal_iom_blocking_transfer + 44
        0x0000d618:    2000        .       MOVS     r0,#0
        0x0000d61a:    ebb03f15    ...?    CMP      r0,r5,LSR #12
        0x0000d61e:    d1bb        ..      BNE      0xd598 ; am_hal_iom_blocking_transfer + 44
        0x0000d620:    f894082c    ..,.    LDRB     r0,[r4,#0x82c]
        0x0000d624:    2802        .(      CMP      r0,#2
        0x0000d626:    d105        ..      BNE      0xd634 ; am_hal_iom_blocking_transfer + 200
        0x0000d628:    2707        .'      MOVS     r7,#7
        0x0000d62a:    4638        8F      MOV      r0,r7
        0x0000d62c:    b00b        ..      ADD      sp,sp,#0x2c
        0x0000d62e:    e8bd8ff0    ....    POP      {r4-r11,pc}
        0x0000d632:    bf00        ..      NOP      
        0x0000d634:    6860        `h      LDR      r0,[r4,#4]
        0x0000d636:    f1b90f00    ....    CMP      r9,#0
        0x0000d63a:    900a        ..      STR      r0,[sp,#0x28]
        0x0000d63c:    7f30        0.      LDRB     r0,[r6,#0x1c]
        0x0000d63e:    f1040124    ..$.    ADD      r1,r4,#0x24
        0x0000d642:    9008        ..      STR      r0,[sp,#0x20]
        0x0000d644:    f04f0018    O...    MOV      r0,#0x18
        0x0000d648:    bf08        ..      IT       EQ
        0x0000d64a:    2014        .       MOVEQ    r0,#0x14
        0x0000d64c:    5830        0X      LDR      r0,[r6,r0]
        0x0000d64e:    f04f0b01    O...    MOV      r11,#1
        0x0000d652:    9009        ..      STR      r0,[sp,#0x24]
        0x0000d654:    f8d40860    ..`.    LDR      r0,[r4,#0x860]
        0x0000d658:    f04f32ff    O..2    MOV      r2,#0xffffffff
        0x0000d65c:    2300        .#      MOVS     r3,#0
        0x0000d65e:    f8cdb000    ....    STR      r11,[sp,#0]
        0x0000d662:    f7fffc43    ..C.    BL       am_hal_flash_delay_status_check ; 0xceec
        0x0000d666:    4607        .F      MOV      r7,r0
        0x0000d668:    2800        .(      CMP      r0,#0
        0x0000d66a:    d195        ..      BNE      0xd598 ; am_hal_iom_blocking_transfer + 44
        0x0000d66c:    f24421b4    D..!    MOV      r1,#0x42b4
        0x0000d670:    9a0a        ..      LDR      r2,[sp,#0x28]
        0x0000d672:    f8d40860    ..`.    LDR      r0,[r4,#0x860]
        0x0000d676:    f2c50100    ....    MOVT     r1,#0x5000
        0x0000d67a:    eb013102    ...1    ADD      r1,r1,r2,LSL #12
        0x0000d67e:    2206        ."      MOVS     r2,#6
        0x0000d680:    2304        .#      MOVS     r3,#4
        0x0000d682:    9106        ..      STR      r1,[sp,#0x18]
        0x0000d684:    f8cdb000    ....    STR      r11,[sp,#0]
        0x0000d688:    f7fffc30    ..0.    BL       am_hal_flash_delay_status_check ; 0xceec
        0x0000d68c:    4607        .F      MOV      r7,r0
        0x0000d68e:    2800        .(      CMP      r0,#0
        0x0000d690:    f47faf82    ....    BNE.W    0xd598 ; am_hal_iom_blocking_transfer + 44
        0x0000d694:    f2440000    D...    MOVW     r0,#0x4000
        0x0000d698:    990a        ..      LDR      r1,[sp,#0x28]
        0x0000d69a:    f2c50000    ....    MOVT     r0,#0x5000
        0x0000d69e:    eb003b01    ...;    ADD      r11,r0,r1,LSL #12
        0x0000d6a2:    2000        .       MOVS     r0,#0
        0x0000d6a4:    f8db2200    ..."    LDR      r2,[r11,#0x200]
        0x0000d6a8:    f8cb0200    ....    STR      r0,[r11,#0x200]
        0x0000d6ac:    f8db1280    ....    LDR      r1,[r11,#0x280]
        0x0000d6b0:    f0210101    !...    BIC      r1,r1,#1
        0x0000d6b4:    f8cb1280    ....    STR      r1,[r11,#0x280]
        0x0000d6b8:    f04f31ff    O..1    MOV      r1,#0xffffffff
        0x0000d6bc:    f8cb1208    ....    STR      r1,[r11,#0x208]
        0x0000d6c0:    6831        1h      LDR      r1,[r6,#0]
        0x0000d6c2:    f8cb1404    ....    STR      r1,[r11,#0x404]
        0x0000d6c6:    7a21        !z      LDRB     r1,[r4,#8]
        0x0000d6c8:    b919        ..      CBNZ     r1,0xd6d2 ; am_hal_iom_blocking_transfer + 358
        0x0000d6ca:    6830        0h      LDR      r0,[r6,#0]
        0x0000d6cc:    4420         D      ADD      r0,r0,r4
        0x0000d6ce:    f89008a0    ....    LDRB     r0,[r0,#0x8a0]
        0x0000d6d2:    f8cb021c    ....    STR      r0,[r11,#0x21c]
        0x0000d6d6:    7a20         z      LDRB     r0,[r4,#8]
        0x0000d6d8:    9205        ..      STR      r2,[sp,#0x14]
        0x0000d6da:    b108        ..      CBZ      r0,0xd6e0 ; am_hal_iom_blocking_transfer + 372
        0x0000d6dc:    2000        .       MOVS     r0,#0
        0x0000d6de:    e004        ..      B        0xd6ea ; am_hal_iom_blocking_transfer + 382
        0x0000d6e0:    6830        0h      LDR      r0,[r6,#0]
        0x0000d6e2:    f44f1140    O.@.    MOV      r1,#0x300000
        0x0000d6e6:    ea015000    ...P    AND      r0,r1,r0,LSL #20
        0x0000d6ea:    f64f7100    O..q    MOVW     r1,#0xff00
        0x0000d6ee:    f2c0010f    ....    MOVT     r1,#0xf
        0x0000d6f2:    ea012105    ...!    AND      r1,r1,r5,LSL #8
        0x0000d6f6:    2201        ."      MOVS     r2,#1
        0x0000d6f8:    f1b90f01    ....    CMP      r9,#1
        0x0000d6fc:    bf08        ..      IT       EQ
        0x0000d6fe:    2202        ."      MOVEQ    r2,#2
        0x0000d700:    9b08        ..      LDR      r3,[sp,#0x20]
        0x0000d702:    f00a0703    ....    AND      r7,r10,#3
        0x0000d706:    4411        .D      ADD      r1,r1,r2
        0x0000d708:    ea411147    A.G.    ORR      r1,r1,r7,LSL #5
        0x0000d70c:    f3c8220f    ..."    UBFX     r2,r8,#8,#16
        0x0000d710:    f0030301    ....    AND      r3,r3,#1
        0x0000d714:    ea416108    A..a    ORR      r1,r1,r8,LSL #24
        0x0000d718:    f8cb2220    .. "    STR      r2,[r11,#0x220]
        0x0000d71c:    ea4111c3    A...    ORR      r1,r1,r3,LSL #7
        0x0000d720:    f8d6a00c    ....    LDR      r10,[r6,#0xc]
        0x0000d724:    f1b90f01    ....    CMP      r9,#1
        0x0000d728:    ea400001    @...    ORR      r0,r0,r1
        0x0000d72c:    f04080b0    @...    BNE.W    0xd890 ; am_hal_iom_blocking_transfer + 804
        0x0000d730:    f1ba0f00    ....    CMP      r10,#0
        0x0000d734:    f8cb0218    ....    STR      r0,[r11,#0x218]
        0x0000d738:    f00081d0    ....    BEQ.W    0xdadc ; am_hal_iom_blocking_transfer + 1392
        0x0000d73c:    2200        ."      MOVS     r2,#0
        0x0000d73e:    f8db0100    ....    LDR      r0,[r11,#0x100]
        0x0000d742:    f3c04107    ...A    UBFX     r1,r0,#16,#8
        0x0000d746:    2903        .)      CMP      r1,#3
        0x0000d748:    d81e        ..      BHI      0xd788 ; am_hal_iom_blocking_transfer + 540
        0x0000d74a:    2600        .&      MOVS     r6,#0
        0x0000d74c:    2500        .%      MOVS     r5,#0
        0x0000d74e:    458a        .E      CMP      r10,r1
        0x0000d750:    f24a111f    J...    MOV      r1,#0xa11f
        0x0000d754:    f04f0000    O...    MOV      r0,#0
        0x0000d758:    f2c00107    ....    MOVT     r1,#7
        0x0000d75c:    bf88        ..      IT       HI
        0x0000d75e:    2001        .       MOVHI    r0,#1
        0x0000d760:    428d        .B      CMP      r5,r1
        0x0000d762:    f20081bc    ....    BHI.W    0xdade ; am_hal_iom_blocking_transfer + 1394
        0x0000d766:    4010        .@      ANDS     r0,r0,r2
        0x0000d768:    f04081b9    @...    BNE.W    0xdade ; am_hal_iom_blocking_transfer + 1394
        0x0000d76c:    2010        .       MOVS     r0,#0x10
        0x0000d76e:    3501        .5      ADDS     r5,#1
        0x0000d770:    f7fffba6    ....    BL       am_hal_flash_delay ; 0xcec0
        0x0000d774:    f8db0204    ....    LDR      r0,[r11,#0x204]
        0x0000d778:    f8db1100    ....    LDR      r1,[r11,#0x100]
        0x0000d77c:    f0000201    ....    AND      r2,r0,#1
        0x0000d780:    f3c14107    ...A    UBFX     r1,r1,#16,#8
        0x0000d784:    2904        .)      CMP      r1,#4
        0x0000d786:    d3e2        ..      BCC      0xd74e ; am_hal_iom_blocking_transfer + 482
        0x0000d788:    f1aa0010    ....    SUB      r0,r10,#0x10
        0x0000d78c:    9003        ..      STR      r0,[sp,#0xc]
        0x0000d78e:    f1aa000c    ....    SUB      r0,r10,#0xc
        0x0000d792:    9004        ..      STR      r0,[sp,#0x10]
        0x0000d794:    f1aa0008    ....    SUB      r0,r10,#8
        0x0000d798:    9007        ..      STR      r0,[sp,#0x1c]
        0x0000d79a:    f1aa0004    ....    SUB      r0,r10,#4
        0x0000d79e:    9202        ..      STR      r2,[sp,#8]
        0x0000d7a0:    9008        ..      STR      r0,[sp,#0x20]
        0x0000d7a2:    f06f0707    o...    MVN      r7,#7
        0x0000d7a6:    2500        .%      MOVS     r5,#0
        0x0000d7a8:    f06f020b    o...    MVN      r2,#0xb
        0x0000d7ac:    f06f0003    o...    MVN      r0,#3
        0x0000d7b0:    f04f0e00    O...    MOV      lr,#0
        0x0000d7b4:    46d0        .F      MOV      r8,r10
        0x0000d7b6:    900a        ..      STR      r0,[sp,#0x28]
        0x0000d7b8:    eb0a0305    ....    ADD      r3,r10,r5
        0x0000d7bc:    f8db9108    ....    LDR      r9,[r11,#0x108]
        0x0000d7c0:    2b03        .+      CMP      r3,#3
        0x0000d7c2:    f24080bf    @...    BLS.W    0xd944 ; am_hal_iom_blocking_transfer + 984
        0x0000d7c6:    1948        H.      ADDS     r0,r1,r5
        0x0000d7c8:    9b09        ..      LDR      r3,[sp,#0x24]
        0x0000d7ca:    f0200003     ...    BIC      r0,r0,#3
        0x0000d7ce:    eb030c0e    ....    ADD      r12,r3,lr
        0x0000d7d2:    f843900e    C...    STR      r9,[r3,lr]
        0x0000d7d6:    2804        .(      CMP      r0,#4
        0x0000d7d8:    f1a80304    ....    SUB      r3,r8,#4
        0x0000d7dc:    d046        F.      BEQ      0xd86c ; am_hal_iom_blocking_transfer + 768
        0x0000d7de:    9e08        ..      LDR      r6,[sp,#0x20]
        0x0000d7e0:    4576        vE      CMP      r6,lr
        0x0000d7e2:    d043        C.      BEQ      0xd86c ; am_hal_iom_blocking_transfer + 768
        0x0000d7e4:    9e0a        ..      LDR      r6,[sp,#0x28]
        0x0000d7e6:    f8db9108    ....    LDR      r9,[r11,#0x108]
        0x0000d7ea:    4456        VD      ADD      r6,r6,r10
        0x0000d7ec:    2e04        ..      CMP      r6,#4
        0x0000d7ee:    f0c080ad    ....    BCC.W    0xd94c ; am_hal_iom_blocking_transfer + 992
        0x0000d7f2:    2808        .(      CMP      r0,#8
        0x0000d7f4:    f1a80308    ....    SUB      r3,r8,#8
        0x0000d7f8:    f8cc9004    ....    STR      r9,[r12,#4]
        0x0000d7fc:    d03a        :.      BEQ      0xd874 ; am_hal_iom_blocking_transfer + 776
        0x0000d7fe:    9e07        ..      LDR      r6,[sp,#0x1c]
        0x0000d800:    4576        vE      CMP      r6,lr
        0x0000d802:    d037        7.      BEQ      0xd874 ; am_hal_iom_blocking_transfer + 776
        0x0000d804:    eb0a0607    ....    ADD      r6,r10,r7
        0x0000d808:    f8db9108    ....    LDR      r9,[r11,#0x108]
        0x0000d80c:    2e04        ..      CMP      r6,#4
        0x0000d80e:    f0c080a1    ....    BCC.W    0xd954 ; am_hal_iom_blocking_transfer + 1000
        0x0000d812:    280c        .(      CMP      r0,#0xc
        0x0000d814:    f1a8030c    ....    SUB      r3,r8,#0xc
        0x0000d818:    f8cc9008    ....    STR      r9,[r12,#8]
        0x0000d81c:    d02e        ..      BEQ      0xd87c ; am_hal_iom_blocking_transfer + 784
        0x0000d81e:    9804        ..      LDR      r0,[sp,#0x10]
        0x0000d820:    4570        pE      CMP      r0,lr
        0x0000d822:    d02b        +.      BEQ      0xd87c ; am_hal_iom_blocking_transfer + 784
        0x0000d824:    eb0a0002    ....    ADD      r0,r10,r2
        0x0000d828:    f8db9108    ....    LDR      r9,[r11,#0x108]
        0x0000d82c:    2804        .(      CMP      r0,#4
        0x0000d82e:    f0c08095    ....    BCC.W    0xd95c ; am_hal_iom_blocking_transfer + 1008
        0x0000d832:    19c8        ..      ADDS     r0,r1,r7
        0x0000d834:    f1a00308    ....    SUB      r3,r0,#8
        0x0000d838:    f10e0010    ....    ADD      r0,lr,#0x10
        0x0000d83c:    2b04        .+      CMP      r3,#4
        0x0000d83e:    f1a50510    ....    SUB      r5,r5,#0x10
        0x0000d842:    f8cc900c    ....    STR      r9,[r12,#0xc]
        0x0000d846:    d30a        ..      BCC      0xd85e ; am_hal_iom_blocking_transfer + 754
        0x0000d848:    9b0a        ..      LDR      r3,[sp,#0x28]
        0x0000d84a:    f1a80810    ....    SUB      r8,r8,#0x10
        0x0000d84e:    3b10        .;      SUBS     r3,r3,#0x10
        0x0000d850:    930a        ..      STR      r3,[sp,#0x28]
        0x0000d852:    9b03        ..      LDR      r3,[sp,#0xc]
        0x0000d854:    3f10        .?      SUBS     r7,r7,#0x10
        0x0000d856:    3a10        .:      SUBS     r2,r2,#0x10
        0x0000d858:    4573        sE      CMP      r3,lr
        0x0000d85a:    4686        .F      MOV      lr,r0
        0x0000d85c:    d1ac        ..      BNE      0xd7b8 ; am_hal_iom_blocking_transfer + 588
        0x0000d85e:    9909        ..      LDR      r1,[sp,#0x24]
        0x0000d860:    eb0a0305    ....    ADD      r3,r10,r5
        0x0000d864:    4401        .D      ADD      r1,r1,r0
        0x0000d866:    9109        ..      STR      r1,[sp,#0x24]
        0x0000d868:    e00b        ..      B        0xd882 ; am_hal_iom_blocking_transfer + 790
        0x0000d86a:    bf00        ..      NOP      
        0x0000d86c:    f10c0004    ....    ADD      r0,r12,#4
        0x0000d870:    e006        ..      B        0xd880 ; am_hal_iom_blocking_transfer + 788
        0x0000d872:    bf00        ..      NOP      
        0x0000d874:    f10c0008    ....    ADD      r0,r12,#8
        0x0000d878:    e002        ..      B        0xd880 ; am_hal_iom_blocking_transfer + 788
        0x0000d87a:    bf00        ..      NOP      
        0x0000d87c:    f10c000c    ....    ADD      r0,r12,#0xc
        0x0000d880:    9009        ..      STR      r0,[sp,#0x24]
        0x0000d882:    9a02        ..      LDR      r2,[sp,#8]
        0x0000d884:    2601        .&      MOVS     r6,#1
        0x0000d886:    2b00        .+      CMP      r3,#0
        0x0000d888:    469a        .F      MOV      r10,r3
        0x0000d88a:    f47faf58    ..X.    BNE      0xd73e ; am_hal_iom_blocking_transfer + 466
        0x0000d88e:    e126        &.      B        0xdade ; am_hal_iom_blocking_transfer + 1394
        0x0000d890:    f8db1100    ....    LDR      r1,[r11,#0x100]
        0x0000d894:    9d09        ..      LDR      r5,[sp,#0x24]
        0x0000d896:    f3c12107    ...!    UBFX     r1,r1,#8,#8
        0x0000d89a:    2904        .)      CMP      r1,#4
        0x0000d89c:    d346        F.      BCC      0xd92c ; am_hal_iom_blocking_transfer + 960
        0x0000d89e:    f1ba0f00    ....    CMP      r10,#0
        0x0000d8a2:    d043        C.      BEQ      0xd92c ; am_hal_iom_blocking_transfer + 960
        0x0000d8a4:    682f        /h      LDR      r7,[r5,#0]
        0x0000d8a6:    f1ba0f03    ....    CMP      r10,#3
        0x0000d8aa:    f04f0900    O...    MOV      r9,#0
        0x0000d8ae:    f0210203    !...    BIC      r2,r1,#3
        0x0000d8b2:    f1aa0304    ....    SUB      r3,r10,#4
        0x0000d8b6:    bf88        ..      IT       HI
        0x0000d8b8:    4699        .F      MOVHI    r9,r3
        0x0000d8ba:    2a04        .*      CMP      r2,#4
        0x0000d8bc:    f8cb710c    ...q    STR      r7,[r11,#0x10c]
        0x0000d8c0:    bf18        ..      IT       NE
        0x0000d8c2:    f1b90f00    ....    CMPNE    r9,#0
        0x0000d8c6:    d035        5.      BEQ      0xd934 ; am_hal_iom_blocking_transfer + 968
        0x0000d8c8:    686e        nh      LDR      r6,[r5,#4]
        0x0000d8ca:    2b03        .+      CMP      r3,#3
        0x0000d8cc:    f04f0900    O...    MOV      r9,#0
        0x0000d8d0:    f1a30704    ....    SUB      r7,r3,#4
        0x0000d8d4:    bf88        ..      IT       HI
        0x0000d8d6:    46b9        .F      MOVHI    r9,r7
        0x0000d8d8:    2a08        .*      CMP      r2,#8
        0x0000d8da:    f8cb610c    ...a    STR      r6,[r11,#0x10c]
        0x0000d8de:    bf18        ..      IT       NE
        0x0000d8e0:    f1b90f00    ....    CMPNE    r9,#0
        0x0000d8e4:    d02a        *.      BEQ      0xd93c ; am_hal_iom_blocking_transfer + 976
        0x0000d8e6:    68ae        .h      LDR      r6,[r5,#8]
        0x0000d8e8:    2f03        ./      CMP      r7,#3
        0x0000d8ea:    f04f0900    O...    MOV      r9,#0
        0x0000d8ee:    f1a70304    ....    SUB      r3,r7,#4
        0x0000d8f2:    bf88        ..      IT       HI
        0x0000d8f4:    4699        .F      MOVHI    r9,r3
        0x0000d8f6:    2a0c        .*      CMP      r2,#0xc
        0x0000d8f8:    f8cb610c    ...a    STR      r6,[r11,#0x10c]
        0x0000d8fc:    bf18        ..      IT       NE
        0x0000d8fe:    f1b90f00    ....    CMPNE    r9,#0
        0x0000d902:    d053        S.      BEQ      0xd9ac ; am_hal_iom_blocking_transfer + 1088
        0x0000d904:    68ea        .h      LDR      r2,[r5,#0xc]
        0x0000d906:    3910        .9      SUBS     r1,r1,#0x10
        0x0000d908:    2b03        .+      CMP      r3,#3
        0x0000d90a:    f04f0900    O...    MOV      r9,#0
        0x0000d90e:    f8cb210c    ...!    STR      r2,[r11,#0x10c]
        0x0000d912:    f1a30a04    ....    SUB      r10,r3,#4
        0x0000d916:    bf88        ..      IT       HI
        0x0000d918:    46d1        .F      MOVHI    r9,r10
        0x0000d91a:    2904        .)      CMP      r1,#4
        0x0000d91c:    f1050810    ....    ADD      r8,r5,#0x10
        0x0000d920:    d346        F.      BCC      0xd9b0 ; am_hal_iom_blocking_transfer + 1092
        0x0000d922:    f1b90f00    ....    CMP      r9,#0
        0x0000d926:    4645        EF      MOV      r5,r8
        0x0000d928:    d1bc        ..      BNE      0xd8a4 ; am_hal_iom_blocking_transfer + 824
        0x0000d92a:    e041        A.      B        0xd9b0 ; am_hal_iom_blocking_transfer + 1092
        0x0000d92c:    46d1        .F      MOV      r9,r10
        0x0000d92e:    46a8        .F      MOV      r8,r5
        0x0000d930:    e03e        >.      B        0xd9b0 ; am_hal_iom_blocking_transfer + 1092
        0x0000d932:    bf00        ..      NOP      
        0x0000d934:    f1050804    ....    ADD      r8,r5,#4
        0x0000d938:    e03a        :.      B        0xd9b0 ; am_hal_iom_blocking_transfer + 1092
        0x0000d93a:    bf00        ..      NOP      
        0x0000d93c:    f1050808    ....    ADD      r8,r5,#8
        0x0000d940:    e036        6.      B        0xd9b0 ; am_hal_iom_blocking_transfer + 1092
        0x0000d942:    bf00        ..      NOP      
        0x0000d944:    9809        ..      LDR      r0,[sp,#0x24]
        0x0000d946:    4470        pD      ADD      r0,r0,lr
        0x0000d948:    e00a        ..      B        0xd960 ; am_hal_iom_blocking_transfer + 1012
        0x0000d94a:    bf00        ..      NOP      
        0x0000d94c:    f10c0004    ....    ADD      r0,r12,#4
        0x0000d950:    e006        ..      B        0xd960 ; am_hal_iom_blocking_transfer + 1012
        0x0000d952:    bf00        ..      NOP      
        0x0000d954:    f10c0008    ....    ADD      r0,r12,#8
        0x0000d958:    e002        ..      B        0xd960 ; am_hal_iom_blocking_transfer + 1012
        0x0000d95a:    bf00        ..      NOP      
        0x0000d95c:    f10c000c    ....    ADD      r0,r12,#0xc
        0x0000d960:    f1a30201    ....    SUB      r2,r3,#1
        0x0000d964:    b143        C.      CBZ      r3,0xd978 ; am_hal_iom_blocking_transfer + 1036
        0x0000d966:    4607        .F      MOV      r7,r0
        0x0000d968:    f8079b01    ....    STRB     r9,[r7],#1
        0x0000d96c:    2b01        .+      CMP      r3,#1
        0x0000d96e:    ea4f2119    O..!    LSR      r1,r9,#8
        0x0000d972:    d103        ..      BNE      0xd97c ; am_hal_iom_blocking_transfer + 1040
        0x0000d974:    4638        8F      MOV      r0,r7
        0x0000d976:    e00b        ..      B        0xd990 ; am_hal_iom_blocking_transfer + 1060
        0x0000d978:    4649        IF      MOV      r1,r9
        0x0000d97a:    e009        ..      B        0xd990 ; am_hal_iom_blocking_transfer + 1060
        0x0000d97c:    7041        Ap      STRB     r1,[r0,#1]
        0x0000d97e:    ea4f4119    O..A    LSR      r1,r9,#16
        0x0000d982:    2b02        .+      CMP      r3,#2
        0x0000d984:    bf0f        ..      ITEEE    EQ
        0x0000d986:    3002        .0      ADDEQ    r0,#2
        0x0000d988:    7081        .p      STRBNE   r1,[r0,#2]
        0x0000d98a:    3003        .0      ADDNE    r0,#3
        0x0000d98c:    ea4f6119    O..a    LSRNE    r1,r9,#24
        0x0000d990:    2a03        .*      CMP      r2,#3
        0x0000d992:    f0c080a3    ....    BCC.W    0xdadc ; am_hal_iom_blocking_transfer + 1392
        0x0000d996:    f06f0203    o...    MVN      r2,#3
        0x0000d99a:    1883        ..      ADDS     r3,r0,r2
        0x0000d99c:    3204        .2      ADDS     r2,#4
        0x0000d99e:    6059        Y`      STR      r1,[r3,#4]
        0x0000d9a0:    1d11        ..      ADDS     r1,r2,#4
        0x0000d9a2:    f04f0100    O...    MOV      r1,#0
        0x0000d9a6:    d1f8        ..      BNE      0xd99a ; am_hal_iom_blocking_transfer + 1070
        0x0000d9a8:    e098        ..      B        0xdadc ; am_hal_iom_blocking_transfer + 1392
        0x0000d9aa:    bf00        ..      NOP      
        0x0000d9ac:    f105080c    ....    ADD      r8,r5,#0xc
        0x0000d9b0:    f1b90f00    ....    CMP      r9,#0
        0x0000d9b4:    f8cb0218    ....    STR      r0,[r11,#0x218]
        0x0000d9b8:    f0008090    ....    BEQ.W    0xdadc ; am_hal_iom_blocking_transfer + 1392
        0x0000d9bc:    f8db0100    ....    LDR      r0,[r11,#0x100]
        0x0000d9c0:    f3c02007    ...     UBFX     r0,r0,#8,#8
        0x0000d9c4:    2803        .(      CMP      r0,#3
        0x0000d9c6:    d816        ..      BHI      0xd9f6 ; am_hal_iom_blocking_transfer + 1162
        0x0000d9c8:    2700        .'      MOVS     r7,#0
        0x0000d9ca:    f8db0204    ....    LDR      r0,[r11,#0x204]
        0x0000d9ce:    2600        .&      MOVS     r6,#0
        0x0000d9d0:    07c0        ..      LSLS     r0,r0,#31
        0x0000d9d2:    f0408084    @...    BNE.W    0xdade ; am_hal_iom_blocking_transfer + 1394
        0x0000d9d6:    f24a101f    J...    MOV      r0,#0xa11f
        0x0000d9da:    f2c00007    ....    MOVT     r0,#7
        0x0000d9de:    4287        .B      CMP      r7,r0
        0x0000d9e0:    d87d        }.      BHI      0xdade ; am_hal_iom_blocking_transfer + 1394
        0x0000d9e2:    2010        .       MOVS     r0,#0x10
        0x0000d9e4:    3701        .7      ADDS     r7,#1
        0x0000d9e6:    f7fffa6b    ..k.    BL       am_hal_flash_delay ; 0xcec0
        0x0000d9ea:    f8db0100    ....    LDR      r0,[r11,#0x100]
        0x0000d9ee:    f3c02007    ...     UBFX     r0,r0,#8,#8
        0x0000d9f2:    2804        .(      CMP      r0,#4
        0x0000d9f4:    d3e9        ..      BCC      0xd9ca ; am_hal_iom_blocking_transfer + 1118
        0x0000d9f6:    f1a90104    ....    SUB      r1,r9,#4
        0x0000d9fa:    910a        ..      STR      r1,[sp,#0x28]
        0x0000d9fc:    f1a00110    ....    SUB      r1,r0,#0x10
        0x0000da00:    9108        ..      STR      r1,[sp,#0x20]
        0x0000da02:    f1a90110    ....    SUB      r1,r9,#0x10
        0x0000da06:    9107        ..      STR      r1,[sp,#0x1c]
        0x0000da08:    f1a9010c    ....    SUB      r1,r9,#0xc
        0x0000da0c:    f1a90e08    ....    SUB      lr,r9,#8
        0x0000da10:    2300        .#      MOVS     r3,#0
        0x0000da12:    464e        NF      MOV      r6,r9
        0x0000da14:    9109        ..      STR      r1,[sp,#0x24]
        0x0000da16:    18c7        ..      ADDS     r7,r0,r3
        0x0000da18:    eb090103    ....    ADD      r1,r9,r3
        0x0000da1c:    9a0a        ..      LDR      r2,[sp,#0x28]
        0x0000da1e:    f8d85000    ...P    LDR      r5,[r8,#0]
        0x0000da22:    2903        .)      CMP      r1,#3
        0x0000da24:    f04f0100    O...    MOV      r1,#0
        0x0000da28:    f0270703    '...    BIC      r7,r7,#3
        0x0000da2c:    441a        .D      ADD      r2,r2,r3
        0x0000da2e:    bf88        ..      IT       HI
        0x0000da30:    4611        .F      MOVHI    r1,r2
        0x0000da32:    2f04        ./      CMP      r7,#4
        0x0000da34:    f8cb510c    ...Q    STR      r5,[r11,#0x10c]
        0x0000da38:    bf18        ..      IT       NE
        0x0000da3a:    2900        .)      CMPNE    r1,#0
        0x0000da3c:    d03a        :.      BEQ      0xdab4 ; am_hal_iom_blocking_transfer + 1352
        0x0000da3e:    f8d85004    ...P    LDR      r5,[r8,#4]
        0x0000da42:    2a03        .*      CMP      r2,#3
        0x0000da44:    f04f0100    O...    MOV      r1,#0
        0x0000da48:    eb0e0a03    ....    ADD      r10,lr,r3
        0x0000da4c:    bf88        ..      IT       HI
        0x0000da4e:    4651        QF      MOVHI    r1,r10
        0x0000da50:    2f08        ./      CMP      r7,#8
        0x0000da52:    f8cb510c    ...Q    STR      r5,[r11,#0x10c]
        0x0000da56:    bf18        ..      IT       NE
        0x0000da58:    2900        .)      CMPNE    r1,#0
        0x0000da5a:    d031        1.      BEQ      0xdac0 ; am_hal_iom_blocking_transfer + 1364
        0x0000da5c:    9909        ..      LDR      r1,[sp,#0x24]
        0x0000da5e:    f8d82008    ...     LDR      r2,[r8,#8]
        0x0000da62:    eb010c03    ....    ADD      r12,r1,r3
        0x0000da66:    f1ba0f03    ....    CMP      r10,#3
        0x0000da6a:    f04f0100    O...    MOV      r1,#0
        0x0000da6e:    bf88        ..      IT       HI
        0x0000da70:    4661        aF      MOVHI    r1,r12
        0x0000da72:    2f0c        ./      CMP      r7,#0xc
        0x0000da74:    f8cb210c    ...!    STR      r2,[r11,#0x10c]
        0x0000da78:    bf18        ..      IT       NE
        0x0000da7a:    2900        .)      CMPNE    r1,#0
        0x0000da7c:    d026        &.      BEQ      0xdacc ; am_hal_iom_blocking_transfer + 1376
        0x0000da7e:    f8d8100c    ....    LDR      r1,[r8,#0xc]
        0x0000da82:    f1bc0f03    ....    CMP      r12,#3
        0x0000da86:    f8cb110c    ....    STR      r1,[r11,#0x10c]
        0x0000da8a:    9908        ..      LDR      r1,[sp,#0x20]
        0x0000da8c:    f1080710    ....    ADD      r7,r8,#0x10
        0x0000da90:    eb010203    ....    ADD      r2,r1,r3
        0x0000da94:    f04f0100    O...    MOV      r1,#0
        0x0000da98:    9d07        ..      LDR      r5,[sp,#0x1c]
        0x0000da9a:    bf88        ..      IT       HI
        0x0000da9c:    18e9        ..      ADDHI    r1,r5,r3
        0x0000da9e:    2a04        .*      CMP      r2,#4
        0x0000daa0:    f1a30310    ....    SUB      r3,r3,#0x10
        0x0000daa4:    d303        ..      BCC      0xdaae ; am_hal_iom_blocking_transfer + 1346
        0x0000daa6:    3e10        .>      SUBS     r6,r6,#0x10
        0x0000daa8:    2900        .)      CMP      r1,#0
        0x0000daaa:    46b8        .F      MOV      r8,r7
        0x0000daac:    d1b3        ..      BNE      0xda16 ; am_hal_iom_blocking_transfer + 1194
        0x0000daae:    4499        .D      ADD      r9,r9,r3
        0x0000dab0:    e010        ..      B        0xdad4 ; am_hal_iom_blocking_transfer + 1384
        0x0000dab2:    bf00        ..      NOP      
        0x0000dab4:    f1a60904    ....    SUB      r9,r6,#4
        0x0000dab8:    f1080704    ....    ADD      r7,r8,#4
        0x0000dabc:    e00a        ..      B        0xdad4 ; am_hal_iom_blocking_transfer + 1384
        0x0000dabe:    bf00        ..      NOP      
        0x0000dac0:    f1a60908    ....    SUB      r9,r6,#8
        0x0000dac4:    f1080708    ....    ADD      r7,r8,#8
        0x0000dac8:    e004        ..      B        0xdad4 ; am_hal_iom_blocking_transfer + 1384
        0x0000daca:    bf00        ..      NOP      
        0x0000dacc:    f1a6090c    ....    SUB      r9,r6,#0xc
        0x0000dad0:    f108070c    ....    ADD      r7,r8,#0xc
        0x0000dad4:    2900        .)      CMP      r1,#0
        0x0000dad6:    46b8        .F      MOV      r8,r7
        0x0000dad8:    f47faf70    ..p.    BNE      0xd9bc ; am_hal_iom_blocking_transfer + 1104
        0x0000dadc:    2601        .&      MOVS     r6,#1
        0x0000dade:    f24a101f    J...    MOV      r0,#0xa11f
        0x0000dae2:    f2c00007    ....    MOVT     r0,#7
        0x0000dae6:    9906        ..      LDR      r1,[sp,#0x18]
        0x0000dae8:    3001        .0      ADDS     r0,#1
        0x0000daea:    2701        .'      MOVS     r7,#1
        0x0000daec:    2206        ."      MOVS     r2,#6
        0x0000daee:    2304        .#      MOVS     r3,#4
        0x0000daf0:    9700        ..      STR      r7,[sp,#0]
        0x0000daf2:    f7fff9fb    ....    BL       am_hal_flash_delay_status_check ; 0xceec
        0x0000daf6:    4607        .F      MOV      r7,r0
        0x0000daf8:    b9d8        ..      CBNZ     r0,0xdb32 ; am_hal_iom_blocking_transfer + 1478
        0x0000dafa:    f8db0204    ....    LDR      r0,[r11,#0x204]
        0x0000dafe:    f0100f6c    ..l.    TST      r0,#0x6c
        0x0000db02:    d003        ..      BEQ      0xdb0c ; am_hal_iom_blocking_transfer + 1440
        0x0000db04:    f04f6700    O..g    MOV      r7,#0x8000000
        0x0000db08:    e013        ..      B        0xdb32 ; am_hal_iom_blocking_transfer + 1478
        0x0000db0a:    bf00        ..      NOP      
        0x0000db0c:    2701        .'      MOVS     r7,#1
        0x0000db0e:    0581        ..      LSLS     r1,r0,#22
        0x0000db10:    f6c00700    ....    MOVT     r7,#0x800
        0x0000db14:    d40d        ..      BMI      0xdb32 ; am_hal_iom_blocking_transfer + 1478
        0x0000db16:    06c1        ..      LSLS     r1,r0,#27
        0x0000db18:    d408        ..      BMI      0xdb2c ; am_hal_iom_blocking_transfer + 1472
        0x0000db1a:    f4004090    ...@    AND      r0,r0,#0x4800
        0x0000db1e:    fab0f080    ....    CLZ      r0,r0
        0x0000db22:    0940        @.      LSRS     r0,r0,#5
        0x0000db24:    4206        .B      TST      r6,r0
        0x0000db26:    d003        ..      BEQ      0xdb30 ; am_hal_iom_blocking_transfer + 1476
        0x0000db28:    2700        .'      MOVS     r7,#0
        0x0000db2a:    e007        ..      B        0xdb3c ; am_hal_iom_blocking_transfer + 1488
        0x0000db2c:    3701        .7      ADDS     r7,#1
        0x0000db2e:    e000        ..      B        0xdb32 ; am_hal_iom_blocking_transfer + 1478
        0x0000db30:    2701        .'      MOVS     r7,#1
        0x0000db32:    f8db1204    ....    LDR      r1,[r11,#0x204]
        0x0000db36:    4620         F      MOV      r0,r4
        0x0000db38:    f001fbb4    ....    BL       internal_iom_reset_on_error ; 0xf2a4
        0x0000db3c:    f04f30ff    O..0    MOV      r0,#0xffffffff
        0x0000db40:    f8cb0208    ....    STR      r0,[r11,#0x208]
        0x0000db44:    9805        ..      LDR      r0,[sp,#0x14]
        0x0000db46:    f8cb0200    ....    STR      r0,[r11,#0x200]
        0x0000db4a:    4638        8F      MOV      r0,r7
        0x0000db4c:    b00b        ..      ADD      sp,sp,#0x2c
        0x0000db4e:    e8bd8ff0    ....    POP      {r4-r11,pc}
        0x0000db52:    0000        ..      MOVS     r0,r0
    am_hal_iom_configure
        0x0000db54:    b5f0        ..      PUSH     {r4-r7,lr}
        0x0000db56:    b081        ..      SUB      sp,sp,#4
        0x0000db58:    b190        ..      CBZ      r0,0xdb80 ; am_hal_iom_configure + 44
        0x0000db5a:    460d        .F      MOV      r5,r1
        0x0000db5c:    6801        .h      LDR      r1,[r0,#0]
        0x0000db5e:    f2434256    C.VB    MOV      r2,#0x3456
        0x0000db62:    4604        .F      MOV      r4,r0
        0x0000db64:    f021407e    !.~@    BIC      r0,r1,#0xfe000000
        0x0000db68:    f2c01212    ....    MOVT     r2,#0x112
        0x0000db6c:    4290        .B      CMP      r0,r2
        0x0000db6e:    d107        ..      BNE      0xdb80 ; am_hal_iom_configure + 44
        0x0000db70:    b115        ..      CBZ      r5,0xdb78 ; am_hal_iom_configure + 36
        0x0000db72:    6860        `h      LDR      r0,[r4,#4]
        0x0000db74:    2805        .(      CMP      r0,#5
        0x0000db76:    d907        ..      BLS      0xdb88 ; am_hal_iom_configure + 52
        0x0000db78:    2006        .       MOVS     r0,#6
        0x0000db7a:    b001        ..      ADD      sp,sp,#4
        0x0000db7c:    bdf0        ..      POP      {r4-r7,pc}
        0x0000db7e:    bf00        ..      NOP      
        0x0000db80:    2002        .       MOVS     r0,#2
        0x0000db82:    b001        ..      ADD      sp,sp,#4
        0x0000db84:    bdf0        ..      POP      {r4-r7,pc}
        0x0000db86:    bf00        ..      NOP      
        0x0000db88:    0189        ..      LSLS     r1,r1,#6
        0x0000db8a:    d42b        +.      BMI      0xdbe4 ; am_hal_iom_configure + 144
        0x0000db8c:    68e9        .h      LDR      r1,[r5,#0xc]
        0x0000db8e:    f1b15f80    ..._    CMP      r1,#0x10000000
        0x0000db92:    d304        ..      BCC      0xdb9e ; am_hal_iom_configure + 74
        0x0000db94:    2200        ."      MOVS     r2,#0
        0x0000db96:    f2c10201    ....    MOVT     r2,#0x1001
        0x0000db9a:    4291        .B      CMP      r1,r2
        0x0000db9c:    d326        &.      BCC      0xdbec ; am_hal_iom_configure + 152
        0x0000db9e:    7829        )x      LDRB     r1,[r5,#0]
        0x0000dba0:    7221        !r      STRB     r1,[r4,#8]
        0x0000dba2:    f2440100    D...    MOVW     r1,#0x4000
        0x0000dba6:    f2c50100    ....    MOVT     r1,#0x5000
        0x0000dbaa:    eb013600    ...6    ADD      r6,r1,r0,LSL #12
        0x0000dbae:    f2410010    A...    MOV      r0,#0x1010
        0x0000dbb2:    f8c60104    ....    STR      r0,[r6,#0x104]
        0x0000dbb6:    7828        (x      LDRB     r0,[r5,#0]
        0x0000dbb8:    2801        .(      CMP      r0,#1
        0x0000dbba:    d01b        ..      BEQ      0xdbf4 ; am_hal_iom_configure + 160
        0x0000dbbc:    b9b0        ..      CBNZ     r0,0xdbec ; am_hal_iom_configure + 152
        0x0000dbbe:    7a2f        /z      LDRB     r7,[r5,#8]
        0x0000dbc0:    2f03        ./      CMP      r7,#3
        0x0000dbc2:    d8d9        ..      BHI      0xdb78 ; am_hal_iom_configure + 36
        0x0000dbc4:    6868        hh      LDR      r0,[r5,#4]
        0x0000dbc6:    f6464100    F..A    MOVW     r1,#0x6c00
        0x0000dbca:    f2c021dc    ...!    MOVT     r1,#0x2dc
        0x0000dbce:    4288        .B      CMP      r0,r1
        0x0000dbd0:    d8d2        ..      BHI      0xdb78 ; am_hal_iom_configure + 36
        0x0000dbd2:    0879        y.      LSRS     r1,r7,#1
        0x0000dbd4:    f001fc66    ..f.    BL       iom_get_interface_clock_cfg ; 0xf4a4
        0x0000dbd8:    f8c67300    ...s    STR      r7,[r6,#0x300]
        0x0000dbdc:    f0400001    @...    ORR      r0,r0,#1
        0x0000dbe0:    e03e        >.      B        0xdc60 ; am_hal_iom_configure + 268
        0x0000dbe2:    bf00        ..      NOP      
        0x0000dbe4:    2007        .       MOVS     r0,#7
        0x0000dbe6:    b001        ..      ADD      sp,sp,#4
        0x0000dbe8:    bdf0        ..      POP      {r4-r7,pc}
        0x0000dbea:    bf00        ..      NOP      
        0x0000dbec:    2005        .       MOVS     r0,#5
        0x0000dbee:    b001        ..      ADD      sp,sp,#4
        0x0000dbf0:    bdf0        ..      POP      {r4-r7,pc}
        0x0000dbf2:    bf00        ..      NOP      
        0x0000dbf4:    6868        hh      LDR      r0,[r5,#4]
        0x0000dbf6:    f2442140    D.@!    MOV      r1,#0x4240
        0x0000dbfa:    f2c0010f    ....    MOVT     r1,#0xf
        0x0000dbfe:    4288        .B      CMP      r0,r1
        0x0000dc00:    d016        ..      BEQ      0xdc30 ; am_hal_iom_configure + 220
        0x0000dc02:    f6412180    A..!    MOVW     r1,#0x1a80
        0x0000dc06:    f2c00106    ....    MOVT     r1,#6
        0x0000dc0a:    4288        .B      CMP      r0,r1
        0x0000dc0c:    d01c        ..      BEQ      0xdc48 ; am_hal_iom_configure + 244
        0x0000dc0e:    f24861a0    H..a    MOV      r1,#0x86a0
        0x0000dc12:    f2c00101    ....    MOVT     r1,#1
        0x0000dc16:    4288        .B      CMP      r0,r1
        0x0000dc18:    d1ae        ..      BNE      0xdb78 ; am_hal_iom_configure + 36
        0x0000dc1a:    f24f0070    O.p.    MOV      r0,#0xf070
        0x0000dc1e:    f2c00003    ....    MOVT     r0,#3
        0x0000dc22:    f8c60400    ....    STR      r0,[r6,#0x400]
        0x0000dc26:    f2412001    A..     MOV      r0,#0x1201
        0x0000dc2a:    f2c7703b    ..;p    MOVT     r0,#0x773b
        0x0000dc2e:    e017        ..      B        0xdc60 ; am_hal_iom_configure + 268
        0x0000dc30:    f2430040    C.@.    MOVW     r0,#0x3040
        0x0000dc34:    f2c00021    ..!.    MOVT     r0,#0x21
        0x0000dc38:    f8c60400    ....    STR      r0,[r6,#0x400]
        0x0000dc3c:    f2413001    A..0    MOV      r0,#0x1301
        0x0000dc40:    f2c06003    ...`    MOVT     r0,#0x603
        0x0000dc44:    e00c        ..      B        0xdc60 ; am_hal_iom_configure + 268
        0x0000dc46:    bf00        ..      NOP      
        0x0000dc48:    f24f0070    O.p.    MOV      r0,#0xf070
        0x0000dc4c:    f2c00003    ....    MOVT     r0,#3
        0x0000dc50:    f5007000    ...p    ADD      r0,r0,#0x200
        0x0000dc54:    f8c60400    ....    STR      r0,[r6,#0x400]
        0x0000dc58:    f2412001    A..     MOV      r0,#0x1201
        0x0000dc5c:    f6c1500e    ...P    MOVT     r0,#0x1d0e
        0x0000dc60:    f8c60210    ....    STR      r0,[r6,#0x210]
        0x0000dc64:    6928        (i      LDR      r0,[r5,#0x10]
        0x0000dc66:    f06f011f    o...    MVN      r1,#0x1f
        0x0000dc6a:    f64a22ab    J.."    MOV      r2,#0xaaab
        0x0000dc6e:    eb010180    ....    ADD      r1,r1,r0,LSL #2
        0x0000dc72:    f6ca22aa    ..."    MOVT     r2,#0xaaaa
        0x0000dc76:    fba12302    ...#    UMULL    r2,r3,r1,r2
        0x0000dc7a:    686a        jh      LDR      r2,[r5,#4]
        0x0000dc7c:    f6464700    F..G    MOVW     r7,#0x6c00
        0x0000dc80:    f2c027dc    ...'    MOVT     r7,#0x2dc
        0x0000dc84:    fbb7f2f2    ....    UDIV     r2,r7,r2
        0x0000dc88:    f44f777a    O.zw    MOV      r7,#0x3e8
        0x0000dc8c:    f8c47860    ..`x    STR      r7,[r4,#0x860]
        0x0000dc90:    68ef        .h      LDR      r7,[r5,#0xc]
        0x0000dc92:    f8c42864    ..d(    STR      r2,[r4,#0x864]
        0x0000dc96:    e9c47003    ...p    STRD     r7,r0,[r4,#0xc]
        0x0000dc9a:    0998        ..      LSRS     r0,r3,#6
        0x0000dc9c:    f246025f    F._.    MOV      r2,#0x605f
        0x0000dca0:    4291        .B      CMP      r1,r2
        0x0000dca2:    bf88        ..      IT       HI
        0x0000dca4:    f44f7080    O..p    MOVHI    r0,#0x100
        0x0000dca8:    f8c40858    ..X.    STR      r0,[r4,#0x858]
        0x0000dcac:    2000        .       MOVS     r0,#0
        0x0000dcae:    f8c408a0    ....    STR      r0,[r4,#0x8a0]
        0x0000dcb2:    b001        ..      ADD      sp,sp,#4
        0x0000dcb4:    bdf0        ..      POP      {r4-r7,pc}
        0x0000dcb6:    0000        ..      MOVS     r0,r0
    am_hal_iom_enable
        0x0000dcb8:    b5f0        ..      PUSH     {r4-r7,lr}
        0x0000dcba:    b083        ..      SUB      sp,sp,#0xc
        0x0000dcbc:    2800        .(      CMP      r0,#0
        0x0000dcbe:    d05b        [.      BEQ      0xdd78 ; am_hal_iom_enable + 192
        0x0000dcc0:    4604        .F      MOV      r4,r0
        0x0000dcc2:    6800        .h      LDR      r0,[r0,#0]
        0x0000dcc4:    f2434256    C.VB    MOV      r2,#0x3456
        0x0000dcc8:    f020417e     .~A    BIC      r1,r0,#0xfe000000
        0x0000dccc:    f2c01212    ....    MOVT     r2,#0x112
        0x0000dcd0:    4291        .B      CMP      r1,r2
        0x0000dcd2:    d151        Q.      BNE      0xdd78 ; am_hal_iom_enable + 192
        0x0000dcd4:    0180        ..      LSLS     r0,r0,#6
        0x0000dcd6:    d45e        ^.      BMI      0xdd96 ; am_hal_iom_enable + 222
        0x0000dcd8:    f2440500    D...    MOVW     r5,#0x4000
        0x0000dcdc:    6861        ah      LDR      r1,[r4,#4]
        0x0000dcde:    f2c50500    ....    MOVT     r5,#0x5000
        0x0000dce2:    eb053101    ...1    ADD      r1,r5,r1,LSL #12
        0x0000dce6:    7a20         z      LDRB     r0,[r4,#8]
        0x0000dce8:    f8d12214    ..."    LDR      r2,[r1,#0x214]
        0x0000dcec:    2800        .(      CMP      r0,#0
        0x0000dcee:    f3c20242    ..B.    UBFX     r2,r2,#1,#3
        0x0000dcf2:    f04f0310    O...    MOV      r3,#0x10
        0x0000dcf6:    bf18        ..      IT       NE
        0x0000dcf8:    2001        .       MOVNE    r0,#1
        0x0000dcfa:    4282        .B      CMP      r2,r0
        0x0000dcfc:    bf08        ..      IT       EQ
        0x0000dcfe:    2301        .#      MOVEQ    r3,#1
        0x0000dd00:    f8c13214    ...2    STR      r3,[r1,#0x214]
        0x0000dd04:    68e0        .h      LDR      r0,[r4,#0xc]
        0x0000dd06:    2800        .(      CMP      r0,#0
        0x0000dd08:    d041        A.      BEQ      0xdd8e ; am_hal_iom_enable + 214
        0x0000dd0a:    2100        .!      MOVS     r1,#0
        0x0000dd0c:    6261        ab      STR      r1,[r4,#0x24]
        0x0000dd0e:    6860        `h      LDR      r0,[r4,#4]
        0x0000dd10:    2240        @"      MOVS     r2,#0x40
        0x0000dd12:    eb053000    ...0    ADD      r0,r5,r0,LSL #12
        0x0000dd16:    f2c00280    ....    MOVT     r2,#0x80
        0x0000dd1a:    61e1        .a      STR      r1,[r4,#0x1c]
        0x0000dd1c:    f8c022a4    ..."    STR      r2,[r0,#0x2a4]
        0x0000dd20:    f8c41854    ..T.    STR      r1,[r4,#0x854]
        0x0000dd24:    f884183c    ..<.    STRB     r1,[r4,#0x83c]
        0x0000dd28:    e9d43603    ...6    LDRD     r3,r6,[r4,#0xc]
        0x0000dd2c:    f8c41838    ..8.    STR      r1,[r4,#0x838]
        0x0000dd30:    f8c41840    ..@.    STR      r1,[r4,#0x840]
        0x0000dd34:    f8c41844    ..D.    STR      r1,[r4,#0x844]
        0x0000dd38:    f8c41830    ..0.    STR      r1,[r4,#0x830]
        0x0000dd3c:    f8c41828    ..(.    STR      r1,[r4,#0x828]
        0x0000dd40:    6221        !b      STR      r1,[r4,#0x20]
        0x0000dd42:    f8c4185c    ..\.    STR      r1,[r4,#0x85c]
        0x0000dd46:    0871        q.      LSRS     r1,r6,#1
        0x0000dd48:    7920         y      LDRB     r0,[r4,#4]
        0x0000dd4a:    9100        ..      STR      r1,[sp,#0]
        0x0000dd4c:    2101        .!      MOVS     r1,#1
        0x0000dd4e:    f44f7780    O..w    MOV      r7,#0x100
        0x0000dd52:    f6040228    ..(.    ADD      r2,r4,#0x828
        0x0000dd56:    f88d1008    ....    STRB     r1,[sp,#8]
        0x0000dd5a:    4669        iF      MOV      r1,sp
        0x0000dd5c:    f8a4782c    ..,x    STRH     r7,[r4,#0x82c]
        0x0000dd60:    9301        ..      STR      r3,[sp,#4]
        0x0000dd62:    f7fff84d    ..M.    BL       am_hal_cmdq_init ; 0xce00
        0x0000dd66:    b158        X.      CBZ      r0,0xdd80 ; am_hal_iom_enable + 200
        0x0000dd68:    6861        ah      LDR      r1,[r4,#4]
        0x0000dd6a:    2202        ."      MOVS     r2,#2
        0x0000dd6c:    eb053101    ...1    ADD      r1,r5,r1,LSL #12
        0x0000dd70:    f8c12240    ..@"    STR      r2,[r1,#0x240]
        0x0000dd74:    b003        ..      ADD      sp,sp,#0xc
        0x0000dd76:    bdf0        ..      POP      {r4-r7,pc}
        0x0000dd78:    2002        .       MOVS     r0,#2
        0x0000dd7a:    b003        ..      ADD      sp,sp,#0xc
        0x0000dd7c:    bdf0        ..      POP      {r4-r7,pc}
        0x0000dd7e:    bf00        ..      NOP      
        0x0000dd80:    6860        `h      LDR      r0,[r4,#4]
        0x0000dd82:    2102        .!      MOVS     r1,#2
        0x0000dd84:    eb053000    ...0    ADD      r0,r5,r0,LSL #12
        0x0000dd88:    6227        'b      STR      r7,[r4,#0x20]
        0x0000dd8a:    f8c01240    ..@.    STR      r1,[r0,#0x240]
        0x0000dd8e:    6820         h      LDR      r0,[r4,#0]
        0x0000dd90:    f0407000    @..p    ORR      r0,r0,#0x2000000
        0x0000dd94:    6020         `      STR      r0,[r4,#0]
        0x0000dd96:    2000        .       MOVS     r0,#0
        0x0000dd98:    b003        ..      ADD      sp,sp,#0xc
        0x0000dd9a:    bdf0        ..      POP      {r4-r7,pc}
    am_hal_iom_initialize
        0x0000dd9c:    b580        ..      PUSH     {r7,lr}
        0x0000dd9e:    2805        .(      CMP      r0,#5
        0x0000dda0:    bf84        ..      ITT      HI
        0x0000dda2:    2005        .       MOVHI    r0,#5
        0x0000dda4:    bd80        ..      POPHI    {r7,pc}
        0x0000dda6:    b1d9        ..      CBZ      r1,0xdde0 ; am_hal_iom_initialize + 68
        0x0000dda8:    f2412c80    A..,    MOVW     r12,#0x1280
        0x0000ddac:    f6400ea4    @...    MOV      lr,#0x8a4
        0x0000ddb0:    f2c10c01    ....    MOVT     r12,#0x1001
        0x0000ddb4:    fb00f20e    ....    MUL      r2,r0,lr
        0x0000ddb8:    f85c2002    \..     LDR      r2,[r12,r2]
        0x0000ddbc:    01d3        ..      LSLS     r3,r2,#7
        0x0000ddbe:    bf44        D.      ITT      MI
        0x0000ddc0:    2007        .       MOVMI    r0,#7
        0x0000ddc2:    bd80        ..      POPMI    {r7,pc}
        0x0000ddc4:    f2434356    C.VC    MOV      r3,#0x3456
        0x0000ddc8:    fb00cc0e    ....    MLA      r12,r0,lr,r12
        0x0000ddcc:    f2c01312    ....    MOVT     r3,#0x112
        0x0000ddd0:    f3630219    c...    BFI      r2,r3,#0,#26
        0x0000ddd4:    e9cc2000    ...     STRD     r2,r0,[r12,#0]
        0x0000ddd8:    2000        .       MOVS     r0,#0
        0x0000ddda:    f8c1c000    ....    STR      r12,[r1,#0]
        0x0000ddde:    bd80        ..      POP      {r7,pc}
        0x0000dde0:    2006        .       MOVS     r0,#6
        0x0000dde2:    bd80        ..      POP      {r7,pc}
    am_hal_iom_power_ctrl
        0x0000dde4:    b5b0        ..      PUSH     {r4,r5,r7,lr}
        0x0000dde6:    2800        .(      CMP      r0,#0
        0x0000dde8:    d064        d.      BEQ      0xdeb4 ; am_hal_iom_power_ctrl + 208
        0x0000ddea:    4604        .F      MOV      r4,r0
        0x0000ddec:    6800        .h      LDR      r0,[r0,#0]
        0x0000ddee:    f2434356    C.VC    MOV      r3,#0x3456
        0x0000ddf2:    4615        .F      MOV      r5,r2
        0x0000ddf4:    f020427e     .~B    BIC      r2,r0,#0xfe000000
        0x0000ddf8:    f2c01312    ....    MOVT     r3,#0x112
        0x0000ddfc:    429a        .B      CMP      r2,r3
        0x0000ddfe:    d159        Y.      BNE      0xdeb4 ; am_hal_iom_power_ctrl + 208
        0x0000de00:    1e4a        J.      SUBS     r2,r1,#1
        0x0000de02:    2a02        .*      CMP      r2,#2
        0x0000de04:    d258        X.      BCS      0xdeb8 ; am_hal_iom_power_ctrl + 212
        0x0000de06:    0180        ..      LSLS     r0,r0,#6
        0x0000de08:    f10080d8    ....    BMI.W    0xdfbc ; am_hal_iom_power_ctrl + 472
        0x0000de0c:    2d00        .-      CMP      r5,#0
        0x0000de0e:    d045        E.      BEQ      0xde9c ; am_hal_iom_power_ctrl + 184
        0x0000de10:    6860        `h      LDR      r0,[r4,#4]
        0x0000de12:    f2440100    D...    MOVW     r1,#0x4000
        0x0000de16:    f2c50100    ....    MOVT     r1,#0x5000
        0x0000de1a:    eb013000    ...0    ADD      r0,r1,r0,LSL #12
        0x0000de1e:    f8d01104    ....    LDR      r1,[r0,#0x104]
        0x0000de22:    f8c4186c    ..l.    STR      r1,[r4,#0x86c]
        0x0000de26:    f8d01210    ....    LDR      r1,[r0,#0x210]
        0x0000de2a:    f8c41874    ..t.    STR      r1,[r4,#0x874]
        0x0000de2e:    f8d01214    ....    LDR      r1,[r0,#0x214]
        0x0000de32:    f8c41878    ..x.    STR      r1,[r4,#0x878]
        0x0000de36:    f8d01294    ....    LDR      r1,[r0,#0x294]
        0x0000de3a:    f8c4187c    ..|.    STR      r1,[r4,#0x87c]
        0x0000de3e:    f8d01298    ....    LDR      r1,[r0,#0x298]
        0x0000de42:    f8c41880    ....    STR      r1,[r4,#0x880]
        0x0000de46:    f8d012a0    ....    LDR      r1,[r0,#0x2a0]
        0x0000de4a:    f8c41884    ....    STR      r1,[r4,#0x884]
        0x0000de4e:    f8d012a8    ....    LDR      r1,[r0,#0x2a8]
        0x0000de52:    f8c41888    ....    STR      r1,[r4,#0x888]
        0x0000de56:    f8d012ac    ....    LDR      r1,[r0,#0x2ac]
        0x0000de5a:    f8c4188c    ....    STR      r1,[r4,#0x88c]
        0x0000de5e:    f8d012b0    ....    LDR      r1,[r0,#0x2b0]
        0x0000de62:    f8c41890    ....    STR      r1,[r4,#0x890]
        0x0000de66:    f8d01300    ....    LDR      r1,[r0,#0x300]
        0x0000de6a:    f8c41894    ....    STR      r1,[r4,#0x894]
        0x0000de6e:    f8d01400    ....    LDR      r1,[r0,#0x400]
        0x0000de72:    f8c41898    ....    STR      r1,[r4,#0x898]
        0x0000de76:    f8d01200    ....    LDR      r1,[r0,#0x200]
        0x0000de7a:    f8c4189c    ....    STR      r1,[r4,#0x89c]
        0x0000de7e:    f8d01240    ..@.    LDR      r1,[r0,#0x240]
        0x0000de82:    f8c41870    ..p.    STR      r1,[r4,#0x870]
        0x0000de86:    f8d00294    ....    LDR      r0,[r0,#0x294]
        0x0000de8a:    07c0        ..      LSLS     r0,r0,#31
        0x0000de8c:    d003        ..      BEQ      0xde96 ; am_hal_iom_power_ctrl + 178
        0x0000de8e:    f8d40828    ..(.    LDR      r0,[r4,#0x828]
        0x0000de92:    f7feff7d    ..}.    BL       am_hal_cmdq_disable ; 0xcd90
        0x0000de96:    2001        .       MOVS     r0,#1
        0x0000de98:    f8840868    ..h.    STRB     r0,[r4,#0x868]
        0x0000de9c:    7920         y      LDRB     r0,[r4,#4]
        0x0000de9e:    3002        .0      ADDS     r0,#2
        0x0000dea0:    b2c0        ..      UXTB     r0,r0
        0x0000dea2:    f000fa69    ..i.    BL       am_hal_pwrctrl_periph_disable ; 0xe378
        0x0000dea6:    2800        .(      CMP      r0,#0
        0x0000dea8:    bf1c        ..      ITT      NE
        0x0000deaa:    2009        .       MOVNE    r0,#9
        0x0000deac:    bdb0        ..      POPNE    {r4,r5,r7,pc}
        0x0000deae:    2000        .       MOVS     r0,#0
        0x0000deb0:    bdb0        ..      POP      {r4,r5,r7,pc}
        0x0000deb2:    bf00        ..      NOP      
        0x0000deb4:    2002        .       MOVS     r0,#2
        0x0000deb6:    bdb0        ..      POP      {r4,r5,r7,pc}
        0x0000deb8:    2900        .)      CMP      r1,#0
        0x0000deba:    bf1c        ..      ITT      NE
        0x0000debc:    2006        .       MOVNE    r0,#6
        0x0000debe:    bdb0        ..      POPNE    {r4,r5,r7,pc}
        0x0000dec0:    b125        %.      CBZ      r5,0xdecc ; am_hal_iom_power_ctrl + 232
        0x0000dec2:    f8940868    ..h.    LDRB     r0,[r4,#0x868]
        0x0000dec6:    2800        .(      CMP      r0,#0
        0x0000dec8:    f000808c    ....    BEQ.W    0xdfe4 ; am_hal_iom_power_ctrl + 512
        0x0000decc:    7920         y      LDRB     r0,[r4,#4]
        0x0000dece:    3002        .0      ADDS     r0,#2
        0x0000ded0:    b2c0        ..      UXTB     r0,r0
        0x0000ded2:    f000faa5    ....    BL       am_hal_pwrctrl_periph_enable ; 0xe420
        0x0000ded6:    2800        .(      CMP      r0,#0
        0x0000ded8:    bf1c        ..      ITT      NE
        0x0000deda:    2009        .       MOVNE    r0,#9
        0x0000dedc:    bdb0        ..      POPNE    {r4,r5,r7,pc}
        0x0000dede:    2d00        .-      CMP      r5,#0
        0x0000dee0:    d0e5        ..      BEQ      0xdeae ; am_hal_iom_power_ctrl + 202
        0x0000dee2:    6862        bh      LDR      r2,[r4,#4]
        0x0000dee4:    f2440000    D...    MOVW     r0,#0x4000
        0x0000dee8:    f8d4186c    ..l.    LDR      r1,[r4,#0x86c]
        0x0000deec:    f2c50000    ....    MOVT     r0,#0x5000
        0x0000def0:    eb003202    ...2    ADD      r2,r0,r2,LSL #12
        0x0000def4:    f8c21104    ....    STR      r1,[r2,#0x104]
        0x0000def8:    6861        ah      LDR      r1,[r4,#4]
        0x0000defa:    f8d42874    ..t(    LDR      r2,[r4,#0x874]
        0x0000defe:    eb003101    ...1    ADD      r1,r0,r1,LSL #12
        0x0000df02:    f8c12210    ..."    STR      r2,[r1,#0x210]
        0x0000df06:    6861        ah      LDR      r1,[r4,#4]
        0x0000df08:    f8d42878    ..x(    LDR      r2,[r4,#0x878]
        0x0000df0c:    eb003101    ...1    ADD      r1,r0,r1,LSL #12
        0x0000df10:    f8c12214    ..."    STR      r2,[r1,#0x214]
        0x0000df14:    6861        ah      LDR      r1,[r4,#4]
        0x0000df16:    f8d42880    ...(    LDR      r2,[r4,#0x880]
        0x0000df1a:    eb003101    ...1    ADD      r1,r0,r1,LSL #12
        0x0000df1e:    f8c12298    ..."    STR      r2,[r1,#0x298]
        0x0000df22:    6861        ah      LDR      r1,[r4,#4]
        0x0000df24:    f8d42888    ...(    LDR      r2,[r4,#0x888]
        0x0000df28:    eb003101    ...1    ADD      r1,r0,r1,LSL #12
        0x0000df2c:    f8c122a8    ..."    STR      r2,[r1,#0x2a8]
        0x0000df30:    6861        ah      LDR      r1,[r4,#4]
        0x0000df32:    f8d4288c    ...(    LDR      r2,[r4,#0x88c]
        0x0000df36:    eb003101    ...1    ADD      r1,r0,r1,LSL #12
        0x0000df3a:    f8c122ac    ..."    STR      r2,[r1,#0x2ac]
        0x0000df3e:    6861        ah      LDR      r1,[r4,#4]
        0x0000df40:    f8d42890    ...(    LDR      r2,[r4,#0x890]
        0x0000df44:    eb003101    ...1    ADD      r1,r0,r1,LSL #12
        0x0000df48:    f8c122b0    ..."    STR      r2,[r1,#0x2b0]
        0x0000df4c:    6861        ah      LDR      r1,[r4,#4]
        0x0000df4e:    f8d42894    ...(    LDR      r2,[r4,#0x894]
        0x0000df52:    eb003101    ...1    ADD      r1,r0,r1,LSL #12
        0x0000df56:    f8c12300    ...#    STR      r2,[r1,#0x300]
        0x0000df5a:    6861        ah      LDR      r1,[r4,#4]
        0x0000df5c:    f8d42898    ...(    LDR      r2,[r4,#0x898]
        0x0000df60:    eb003101    ...1    ADD      r1,r0,r1,LSL #12
        0x0000df64:    f8c12400    ...$    STR      r2,[r1,#0x400]
        0x0000df68:    6861        ah      LDR      r1,[r4,#4]
        0x0000df6a:    f8d4289c    ...(    LDR      r2,[r4,#0x89c]
        0x0000df6e:    eb003101    ...1    ADD      r1,r0,r1,LSL #12
        0x0000df72:    f8c12200    ..."    STR      r2,[r1,#0x200]
        0x0000df76:    6861        ah      LDR      r1,[r4,#4]
        0x0000df78:    f8d42870    ..p(    LDR      r2,[r4,#0x870]
        0x0000df7c:    eb003101    ...1    ADD      r1,r0,r1,LSL #12
        0x0000df80:    f8c12240    ..@"    STR      r2,[r1,#0x240]
        0x0000df84:    6861        ah      LDR      r1,[r4,#4]
        0x0000df86:    f8942884    ...(    LDRB     r2,[r4,#0x884]
        0x0000df8a:    eb003101    ...1    ADD      r1,r0,r1,LSL #12
        0x0000df8e:    f8c122a4    ..."    STR      r2,[r1,#0x2a4]
        0x0000df92:    f8d4187c    ..|.    LDR      r1,[r4,#0x87c]
        0x0000df96:    6862        bh      LDR      r2,[r4,#4]
        0x0000df98:    f0210101    !...    BIC      r1,r1,#1
        0x0000df9c:    eb003002    ...0    ADD      r0,r0,r2,LSL #12
        0x0000dfa0:    f8c01294    ....    STR      r1,[r0,#0x294]
        0x0000dfa4:    f894087c    ..|.    LDRB     r0,[r4,#0x87c]
        0x0000dfa8:    07c0        ..      LSLS     r0,r0,#31
        0x0000dfaa:    d002        ..      BEQ      0xdfb2 ; am_hal_iom_power_ctrl + 462
        0x0000dfac:    4620         F      MOV      r0,r4
        0x0000dfae:    f7fffac7    ....    BL       am_hal_iom_CQEnable ; 0xd540
        0x0000dfb2:    2000        .       MOVS     r0,#0
        0x0000dfb4:    f8840868    ..h.    STRB     r0,[r4,#0x868]
        0x0000dfb8:    2000        .       MOVS     r0,#0
        0x0000dfba:    bdb0        ..      POP      {r4,r5,r7,pc}
        0x0000dfbc:    6860        `h      LDR      r0,[r4,#4]
        0x0000dfbe:    f2440100    D...    MOVW     r1,#0x4000
        0x0000dfc2:    f2c50100    ....    MOVT     r1,#0x5000
        0x0000dfc6:    eb013000    ...0    ADD      r0,r1,r0,LSL #12
        0x0000dfca:    f8d002b4    ....    LDR      r0,[r0,#0x2b4]
        0x0000dfce:    f0000006    ....    AND      r0,r0,#6
        0x0000dfd2:    2804        .(      CMP      r0,#4
        0x0000dfd4:    d103        ..      BNE      0xdfde ; am_hal_iom_power_ctrl + 506
        0x0000dfd6:    6a60        `j      LDR      r0,[r4,#0x24]
        0x0000dfd8:    2800        .(      CMP      r0,#0
        0x0000dfda:    f43faf17    ?...    BEQ      0xde0c ; am_hal_iom_power_ctrl + 40
        0x0000dfde:    2003        .       MOVS     r0,#3
        0x0000dfe0:    bdb0        ..      POP      {r4,r5,r7,pc}
        0x0000dfe2:    bf00        ..      NOP      
        0x0000dfe4:    2007        .       MOVS     r0,#7
        0x0000dfe6:    bdb0        ..      POP      {r4,r5,r7,pc}
    am_hal_itm_enable
        0x0000dfe8:    f64e50fc    N..P    MOV      r0,#0xedfc
        0x0000dfec:    f2ce0000    ....    MOVT     r0,#0xe000
        0x0000dff0:    6801        .h      LDR      r1,[r0,#0]
        0x0000dff2:    f0417180    A..q    ORR      r1,r1,#0x1000000
        0x0000dff6:    6001        .`      STR      r1,[r0,#0]
        0x0000dff8:    6801        .h      LDR      r1,[r0,#0]
        0x0000dffa:    01c9        ..      LSLS     r1,r1,#7
        0x0000dffc:    d409        ..      BMI      0xe012 ; am_hal_itm_enable + 42
        0x0000dffe:    6801        .h      LDR      r1,[r0,#0]
        0x0000e000:    01c9        ..      LSLS     r1,r1,#7
        0x0000e002:    bf5c        \.      ITT      PL
        0x0000e004:    6801        .h      LDRPL    r1,[r0,#0]
        0x0000e006:    ea5f11c1    _...    LSLSPL   r1,r1,#7
        0x0000e00a:    d402        ..      BMI      0xe012 ; am_hal_itm_enable + 42
        0x0000e00c:    6801        .h      LDR      r1,[r0,#0]
        0x0000e00e:    01c9        ..      LSLS     r1,r1,#7
        0x0000e010:    d5f2        ..      BPL      0xdff8 ; am_hal_itm_enable + 16
        0x0000e012:    f6406000    @..`    MOVW     r0,#0xe00
        0x0000e016:    f64c6155    L.Ua    MOV      r1,#0xce55
        0x0000e01a:    f2ce0000    ....    MOVT     r0,#0xe000
        0x0000e01e:    f2cc51ac    ...Q    MOVT     r1,#0xc5ac
        0x0000e022:    f8c011b0    ....    STR      r1,[r0,#0x1b0]
        0x0000e026:    210f        .!      MOVS     r1,#0xf
        0x0000e028:    6401        .d      STR      r1,[r0,#0x40]
        0x0000e02a:    f04f31ff    O..1    MOV      r1,#0xffffffff
        0x0000e02e:    6001        .`      STR      r1,[r0,#0]
        0x0000e030:    f2405111    @..Q    MOV      r1,#0x511
        0x0000e034:    f2c00115    ....    MOVT     r1,#0x15
        0x0000e038:    f8c01080    ....    STR      r1,[r0,#0x80]
        0x0000e03c:    4770        pG      BX       lr
        0x0000e03e:    0000        ..      MOVS     r0,r0
    am_hal_itm_print
        0x0000e040:    b510        ..      PUSH     {r4,lr}
        0x0000e042:    f04f31ff    O..1    MOV      r1,#0xffffffff
        0x0000e046:    bf00        ..      NOP      
        0x0000e048:    1842        B.      ADDS     r2,r0,r1
        0x0000e04a:    7853        Sx      LDRB     r3,[r2,#1]
        0x0000e04c:    b143        C.      CBZ      r3,0xe060 ; am_hal_itm_print + 32
        0x0000e04e:    7893        .x      LDRB     r3,[r2,#2]
        0x0000e050:    b153        S.      CBZ      r3,0xe068 ; am_hal_itm_print + 40
        0x0000e052:    78d3        .x      LDRB     r3,[r2,#3]
        0x0000e054:    b333        3.      CBZ      r3,0xe0a4 ; am_hal_itm_print + 100
        0x0000e056:    7912        .y      LDRB     r2,[r2,#4]
        0x0000e058:    3104        .1      ADDS     r1,#4
        0x0000e05a:    2a00        .*      CMP      r2,#0
        0x0000e05c:    d1f4        ..      BNE      0xe048 ; am_hal_itm_print + 8
        0x0000e05e:    e004        ..      B        0xe06a ; am_hal_itm_print + 42
        0x0000e060:    3101        .1      ADDS     r1,#1
        0x0000e062:    b919        ..      CBNZ     r1,0xe06c ; am_hal_itm_print + 44
        0x0000e064:    e021        !.      B        0xe0aa ; am_hal_itm_print + 106
        0x0000e066:    bf00        ..      NOP      
        0x0000e068:    3102        .1      ADDS     r1,#2
        0x0000e06a:    b1f1        ..      CBZ      r1,0xe0aa ; am_hal_itm_print + 106
        0x0000e06c:    f0110e03    ....    ANDS     lr,r1,#3
        0x0000e070:    f1a10c01    ....    SUB      r12,r1,#1
        0x0000e074:    d040        @.      BEQ      0xe0f8 ; am_hal_itm_print + 184
        0x0000e076:    7802        .x      LDRB     r2,[r0,#0]
        0x0000e078:    f04f4360    O.`C    MOV      r3,#0xe0000000
        0x0000e07c:    681c        .h      LDR      r4,[r3,#0]
        0x0000e07e:    b934        4.      CBNZ     r4,0xe08e ; am_hal_itm_print + 78
        0x0000e080:    681c        .h      LDR      r4,[r3,#0]
        0x0000e082:    b924        $.      CBNZ     r4,0xe08e ; am_hal_itm_print + 78
        0x0000e084:    681c        .h      LDR      r4,[r3,#0]
        0x0000e086:    b914        ..      CBNZ     r4,0xe08e ; am_hal_itm_print + 78
        0x0000e088:    681c        .h      LDR      r4,[r3,#0]
        0x0000e08a:    2c00        .,      CMP      r4,#0
        0x0000e08c:    d0f6        ..      BEQ      0xe07c ; am_hal_itm_print + 60
        0x0000e08e:    1c44        D.      ADDS     r4,r0,#1
        0x0000e090:    f04f4360    O.`C    MOV      r3,#0xe0000000
        0x0000e094:    f1be0f01    ....    CMP      lr,#1
        0x0000e098:    701a        .p      STRB     r2,[r3,#0]
        0x0000e09a:    d107        ..      BNE      0xe0ac ; am_hal_itm_print + 108
        0x0000e09c:    4661        aF      MOV      r1,r12
        0x0000e09e:    4620         F      MOV      r0,r4
        0x0000e0a0:    e02a        *.      B        0xe0f8 ; am_hal_itm_print + 184
        0x0000e0a2:    bf00        ..      NOP      
        0x0000e0a4:    3103        .1      ADDS     r1,#3
        0x0000e0a6:    2900        .)      CMP      r1,#0
        0x0000e0a8:    d1e0        ..      BNE      0xe06c ; am_hal_itm_print + 44
        0x0000e0aa:    bd10        ..      POP      {r4,pc}
        0x0000e0ac:    7822        "x      LDRB     r2,[r4,#0]
        0x0000e0ae:    bf00        ..      NOP      
        0x0000e0b0:    681c        .h      LDR      r4,[r3,#0]
        0x0000e0b2:    b934        4.      CBNZ     r4,0xe0c2 ; am_hal_itm_print + 130
        0x0000e0b4:    681c        .h      LDR      r4,[r3,#0]
        0x0000e0b6:    b924        $.      CBNZ     r4,0xe0c2 ; am_hal_itm_print + 130
        0x0000e0b8:    681c        .h      LDR      r4,[r3,#0]
        0x0000e0ba:    b914        ..      CBNZ     r4,0xe0c2 ; am_hal_itm_print + 130
        0x0000e0bc:    681c        .h      LDR      r4,[r3,#0]
        0x0000e0be:    2c00        .,      CMP      r4,#0
        0x0000e0c0:    d0f6        ..      BEQ      0xe0b0 ; am_hal_itm_print + 112
        0x0000e0c2:    1c84        ..      ADDS     r4,r0,#2
        0x0000e0c4:    f04f4360    O.`C    MOV      r3,#0xe0000000
        0x0000e0c8:    f1be0f02    ....    CMP      lr,#2
        0x0000e0cc:    701a        .p      STRB     r2,[r3,#0]
        0x0000e0ce:    d103        ..      BNE      0xe0d8 ; am_hal_itm_print + 152
        0x0000e0d0:    3902        .9      SUBS     r1,#2
        0x0000e0d2:    4620         F      MOV      r0,r4
        0x0000e0d4:    e010        ..      B        0xe0f8 ; am_hal_itm_print + 184
        0x0000e0d6:    bf00        ..      NOP      
        0x0000e0d8:    7822        "x      LDRB     r2,[r4,#0]
        0x0000e0da:    bf00        ..      NOP      
        0x0000e0dc:    681c        .h      LDR      r4,[r3,#0]
        0x0000e0de:    b934        4.      CBNZ     r4,0xe0ee ; am_hal_itm_print + 174
        0x0000e0e0:    681c        .h      LDR      r4,[r3,#0]
        0x0000e0e2:    b924        $.      CBNZ     r4,0xe0ee ; am_hal_itm_print + 174
        0x0000e0e4:    681c        .h      LDR      r4,[r3,#0]
        0x0000e0e6:    b914        ..      CBNZ     r4,0xe0ee ; am_hal_itm_print + 174
        0x0000e0e8:    681c        .h      LDR      r4,[r3,#0]
        0x0000e0ea:    2c00        .,      CMP      r4,#0
        0x0000e0ec:    d0f6        ..      BEQ      0xe0dc ; am_hal_itm_print + 156
        0x0000e0ee:    3003        .0      ADDS     r0,#3
        0x0000e0f0:    f04f4360    O.`C    MOV      r3,#0xe0000000
        0x0000e0f4:    3903        .9      SUBS     r1,#3
        0x0000e0f6:    701a        .p      STRB     r2,[r3,#0]
        0x0000e0f8:    f1bc0f03    ....    CMP      r12,#3
        0x0000e0fc:    bf38        8.      IT       CC
        0x0000e0fe:    bd10        ..      POPCC    {r4,pc}
        0x0000e100:    f04f4260    O.`B    MOV      r2,#0xe0000000
        0x0000e104:    e004        ..      B        0xe110 ; am_hal_itm_print + 208
        0x0000e106:    bf00        ..      NOP      
        0x0000e108:    3004        .0      ADDS     r0,#4
        0x0000e10a:    3904        .9      SUBS     r1,#4
        0x0000e10c:    7013        .p      STRB     r3,[r2,#0]
        0x0000e10e:    d0cc        ..      BEQ      0xe0aa ; am_hal_itm_print + 106
        0x0000e110:    7803        .x      LDRB     r3,[r0,#0]
        0x0000e112:    bf00        ..      NOP      
        0x0000e114:    6814        .h      LDR      r4,[r2,#0]
        0x0000e116:    b934        4.      CBNZ     r4,0xe126 ; am_hal_itm_print + 230
        0x0000e118:    6814        .h      LDR      r4,[r2,#0]
        0x0000e11a:    b924        $.      CBNZ     r4,0xe126 ; am_hal_itm_print + 230
        0x0000e11c:    6814        .h      LDR      r4,[r2,#0]
        0x0000e11e:    b914        ..      CBNZ     r4,0xe126 ; am_hal_itm_print + 230
        0x0000e120:    6814        .h      LDR      r4,[r2,#0]
        0x0000e122:    2c00        .,      CMP      r4,#0
        0x0000e124:    d0f6        ..      BEQ      0xe114 ; am_hal_itm_print + 212
        0x0000e126:    7013        .p      STRB     r3,[r2,#0]
        0x0000e128:    7843        Cx      LDRB     r3,[r0,#1]
        0x0000e12a:    bf00        ..      NOP      
        0x0000e12c:    6814        .h      LDR      r4,[r2,#0]
        0x0000e12e:    b934        4.      CBNZ     r4,0xe13e ; am_hal_itm_print + 254
        0x0000e130:    6814        .h      LDR      r4,[r2,#0]
        0x0000e132:    b924        $.      CBNZ     r4,0xe13e ; am_hal_itm_print + 254
        0x0000e134:    6814        .h      LDR      r4,[r2,#0]
        0x0000e136:    b914        ..      CBNZ     r4,0xe13e ; am_hal_itm_print + 254
        0x0000e138:    6814        .h      LDR      r4,[r2,#0]
        0x0000e13a:    2c00        .,      CMP      r4,#0
        0x0000e13c:    d0f6        ..      BEQ      0xe12c ; am_hal_itm_print + 236
        0x0000e13e:    7013        .p      STRB     r3,[r2,#0]
        0x0000e140:    7883        .x      LDRB     r3,[r0,#2]
        0x0000e142:    bf00        ..      NOP      
        0x0000e144:    6814        .h      LDR      r4,[r2,#0]
        0x0000e146:    b934        4.      CBNZ     r4,0xe156 ; am_hal_itm_print + 278
        0x0000e148:    6814        .h      LDR      r4,[r2,#0]
        0x0000e14a:    b924        $.      CBNZ     r4,0xe156 ; am_hal_itm_print + 278
        0x0000e14c:    6814        .h      LDR      r4,[r2,#0]
        0x0000e14e:    b914        ..      CBNZ     r4,0xe156 ; am_hal_itm_print + 278
        0x0000e150:    6814        .h      LDR      r4,[r2,#0]
        0x0000e152:    2c00        .,      CMP      r4,#0
        0x0000e154:    d0f6        ..      BEQ      0xe144 ; am_hal_itm_print + 260
        0x0000e156:    7013        .p      STRB     r3,[r2,#0]
        0x0000e158:    78c3        .x      LDRB     r3,[r0,#3]
        0x0000e15a:    bf00        ..      NOP      
        0x0000e15c:    6814        .h      LDR      r4,[r2,#0]
        0x0000e15e:    2c00        .,      CMP      r4,#0
        0x0000e160:    d1d2        ..      BNE      0xe108 ; am_hal_itm_print + 200
        0x0000e162:    6814        .h      LDR      r4,[r2,#0]
        0x0000e164:    2c00        .,      CMP      r4,#0
        0x0000e166:    d1cf        ..      BNE      0xe108 ; am_hal_itm_print + 200
        0x0000e168:    6814        .h      LDR      r4,[r2,#0]
        0x0000e16a:    2c00        .,      CMP      r4,#0
        0x0000e16c:    d1cc        ..      BNE      0xe108 ; am_hal_itm_print + 200
        0x0000e16e:    6814        .h      LDR      r4,[r2,#0]
        0x0000e170:    2c00        .,      CMP      r4,#0
        0x0000e172:    d0f3        ..      BEQ      0xe15c ; am_hal_itm_print + 284
        0x0000e174:    e7c8        ..      B        0xe108 ; am_hal_itm_print + 200
        0x0000e176:    0000        ..      MOVS     r0,r0
    am_hal_pwrctrl_low_power_init
        0x0000e178:    b570        p.      PUSH     {r4-r6,lr}
        0x0000e17a:    b082        ..      SUB      sp,sp,#8
        0x0000e17c:    f2412078    A.x     MOV      r0,#0x1278
        0x0000e180:    f2c10001    ....    MOVT     r0,#0x1001
        0x0000e184:    6801        .h      LDR      r1,[r0,#0]
        0x0000e186:    b929        ).      CBNZ     r1,0xe194 ; am_hal_pwrctrl_low_power_init + 28
        0x0000e188:    f24f0100    O...    MOVW     r1,#0xf000
        0x0000e18c:    f6c471ff    ...q    MOVT     r1,#0x4fff
        0x0000e190:    6809        .h      LDR      r1,[r1,#0]
        0x0000e192:    6001        .`      STR      r1,[r0,#0]
        0x0000e194:    f2403450    @.P4    MOVW     r4,#0x350
        0x0000e198:    f64f45bc    O..E    MOV      r5,#0xfcbc
        0x0000e19c:    f2c40402    ....    MOVT     r4,#0x4002
        0x0000e1a0:    f6cf75ff    ...u    MOVT     r5,#0xffff
        0x0000e1a4:    5960        `Y      LDR      r0,[r4,r5]
        0x0000e1a6:    b2c0        ..      UXTB     r0,r0
        0x0000e1a8:    2821        !(      CMP      r0,#0x21
        0x0000e1aa:    d30a        ..      BCC      0xe1c2 ; am_hal_pwrctrl_low_power_init + 74
        0x0000e1ac:    f24100ba    A...    MOV      r0,#0x10ba
        0x0000e1b0:    f2c10001    ....    MOVT     r0,#0x1001
        0x0000e1b4:    7801        .x      LDRB     r1,[r0,#0]
        0x0000e1b6:    2900        .)      CMP      r1,#0
        0x0000e1b8:    d04e        N.      BEQ      0xe258 ; am_hal_pwrctrl_low_power_init + 224
        0x0000e1ba:    7841        Ax      LDRB     r1,[r0,#1]
        0x0000e1bc:    2900        .)      CMP      r1,#0
        0x0000e1be:    f000808e    ....    BEQ.W    0xe2de ; am_hal_pwrctrl_low_power_init + 358
        0x0000e1c2:    5960        `Y      LDR      r0,[r4,r5]
        0x0000e1c4:    f00000fe    ....    AND      r0,r0,#0xfe
        0x0000e1c8:    2812        .(      CMP      r0,#0x12
        0x0000e1ca:    d303        ..      BCC      0xe1d4 ; am_hal_pwrctrl_low_power_init + 92
        0x0000e1cc:    68e0        .h      LDR      r0,[r4,#0xc]
        0x0000e1ce:    f0207080     ..p    BIC      r0,r0,#0x1000000
        0x0000e1d2:    60e0        .`      STR      r0,[r4,#0xc]
        0x0000e1d4:    f2410600    A...    MOVW     r6,#0x1000
        0x0000e1d8:    200c        .       MOVS     r0,#0xc
        0x0000e1da:    2100        .!      MOVS     r1,#0
        0x0000e1dc:    f2c40602    ....    MOVT     r6,#0x4002
        0x0000e1e0:    f7fefc1e    ....    BL       am_hal_cachectrl_control ; 0xca20
        0x0000e1e4:    69b0        .i      LDR      r0,[r6,#0x18]
        0x0000e1e6:    05c0        ..      LSLS     r0,r0,#23
        0x0000e1e8:    f10080c0    ....    BMI.W    0xe36c ; am_hal_pwrctrl_low_power_init + 500
        0x0000e1ec:    5960        `Y      LDR      r0,[r4,r5]
        0x0000e1ee:    f00000fe    ....    AND      r0,r0,#0xfe
        0x0000e1f2:    2812        .(      CMP      r0,#0x12
        0x0000e1f4:    d317        ..      BCC      0xe226 ; am_hal_pwrctrl_low_power_init + 174
        0x0000e1f6:    f7fff997    ....    BL       am_hal_interrupt_master_disable ; 0xd528
        0x0000e1fa:    9001        ..      STR      r0,[sp,#4]
        0x0000e1fc:    69a0        .i      LDR      r0,[r4,#0x18]
        0x0000e1fe:    2119        .!      MOVS     r1,#0x19
        0x0000e200:    f361108b    a...    BFI      r0,r1,#6,#6
        0x0000e204:    61a0        .a      STR      r0,[r4,#0x18]
        0x0000e206:    69a0        .i      LDR      r0,[r4,#0x18]
        0x0000e208:    210c        .!      MOVS     r1,#0xc
        0x0000e20a:    f3610005    a...    BFI      r0,r1,#0,#6
        0x0000e20e:    61a0        .a      STR      r0,[r4,#0x18]
        0x0000e210:    f244003c    D.<.    MOV      r0,#0x403c
        0x0000e214:    f2c40000    ....    MOVT     r0,#0x4000
        0x0000e218:    6801        .h      LDR      r1,[r0,#0]
        0x0000e21a:    f4210180    !...    BIC      r1,r1,#0x400000
        0x0000e21e:    6001        .`      STR      r1,[r0,#0]
        0x0000e220:    9801        ..      LDR      r0,[sp,#4]
        0x0000e222:    f7fff989    ....    BL       am_hal_interrupt_master_set ; 0xd538
        0x0000e226:    f64f40c8    O..@    MOV      r0,#0xfcc8
        0x0000e22a:    f6cf70ff    ...p    MOVT     r0,#0xffff
        0x0000e22e:    5822        "X      LDR      r2,[r4,r0]
        0x0000e230:    f5a4714e    ..Nq    SUB      r1,r4,#0x338
        0x0000e234:    f0420201    B...    ORR      r2,r2,#1
        0x0000e238:    5022        "P      STR      r2,[r4,r0]
        0x0000e23a:    2501        .%      MOVS     r5,#1
        0x0000e23c:    f2427010    B..p    MOV      r0,#0x2710
        0x0000e240:    2207        ."      MOVS     r2,#7
        0x0000e242:    2307        .#      MOVS     r3,#7
        0x0000e244:    9500        ..      STR      r5,[sp,#0]
        0x0000e246:    f7fefe51    ..Q.    BL       am_hal_flash_delay_status_check ; 0xceec
        0x0000e24a:    2800        .(      CMP      r0,#0
        0x0000e24c:    f0008086    ....    BEQ.W    0xe35c ; am_hal_pwrctrl_low_power_init + 484
        0x0000e250:    2004        .       MOVS     r0,#4
        0x0000e252:    b002        ..      ADD      sp,sp,#8
        0x0000e254:    bd70        p.      POP      {r4-r6,pc}
        0x0000e256:    bf00        ..      NOP      
        0x0000e258:    2101        .!      MOVS     r1,#1
        0x0000e25a:    7001        .p      STRB     r1,[r0,#0]
        0x0000e25c:    6821        !h      LDR      r1,[r4,#0]
        0x0000e25e:    6823        #h      LDR      r3,[r4,#0]
        0x0000e260:    f3c15185    ...Q    UBFX     r1,r1,#22,#6
        0x0000e264:    390c        .9      SUBS     r1,r1,#0xc
        0x0000e266:    f04f0200    O...    MOV      r2,#0
        0x0000e26a:    bf38        8.      IT       CC
        0x0000e26c:    4611        .F      MOVCC    r1,r2
        0x0000e26e:    f023637c    #.|c    BIC      r3,r3,#0xfc00000
        0x0000e272:    ea435181    C..Q    ORR      r1,r3,r1,LSL #22
        0x0000e276:    6021        !`      STR      r1,[r4,#0]
        0x0000e278:    6821        !h      LDR      r1,[r4,#0]
        0x0000e27a:    6823        #h      LDR      r3,[r4,#0]
        0x0000e27c:    f3c12185    ...!    UBFX     r1,r1,#10,#6
        0x0000e280:    390d        .9      SUBS     r1,r1,#0xd
        0x0000e282:    bf38        8.      IT       CC
        0x0000e284:    4611        .F      MOVCC    r1,r2
        0x0000e286:    f423427c    #.|B    BIC      r2,r3,#0xfc00
        0x0000e28a:    ea422181    B..!    ORR      r1,r2,r1,LSL #10
        0x0000e28e:    6021        !`      STR      r1,[r4,#0]
        0x0000e290:    6861        ah      LDR      r1,[r4,#4]
        0x0000e292:    2208        ."      MOVS     r2,#8
        0x0000e294:    f3625117    b..Q    BFI      r1,r2,#20,#4
        0x0000e298:    6061        a`      STR      r1,[r4,#4]
        0x0000e29a:    6861        ah      LDR      r1,[r4,#4]
        0x0000e29c:    2305        .#      MOVS     r3,#5
        0x0000e29e:    f3634113    c..A    BFI      r1,r3,#16,#4
        0x0000e2a2:    6061        a`      STR      r1,[r4,#4]
        0x0000e2a4:    68e1        .h      LDR      r1,[r4,#0xc]
        0x0000e2a6:    f3620103    b...    BFI      r1,r2,#0,#4
        0x0000e2aa:    60e1        .`      STR      r1,[r4,#0xc]
        0x0000e2ac:    68a1        .h      LDR      r1,[r4,#8]
        0x0000e2ae:    2206        ."      MOVS     r2,#6
        0x0000e2b0:    f36261de    b..a    BFI      r1,r2,#27,#4
        0x0000e2b4:    60a1        .`      STR      r1,[r4,#8]
        0x0000e2b6:    68e1        .h      LDR      r1,[r4,#0xc]
        0x0000e2b8:    f4410100    A...    ORR      r1,r1,#0x800000
        0x0000e2bc:    60e1        .`      STR      r1,[r4,#0xc]
        0x0000e2be:    68e1        .h      LDR      r1,[r4,#0xc]
        0x0000e2c0:    f0217180    !..q    BIC      r1,r1,#0x1000000
        0x0000e2c4:    60e1        .`      STR      r1,[r4,#0xc]
        0x0000e2c6:    6861        ah      LDR      r1,[r4,#4]
        0x0000e2c8:    f0415140    A.@Q    ORR      r1,r1,#0x30000000
        0x0000e2cc:    6061        a`      STR      r1,[r4,#4]
        0x0000e2ce:    6861        ah      LDR      r1,[r4,#4]
        0x0000e2d0:    f041011f    A...    ORR      r1,r1,#0x1f
        0x0000e2d4:    6061        a`      STR      r1,[r4,#4]
        0x0000e2d6:    7841        Ax      LDRB     r1,[r0,#1]
        0x0000e2d8:    2900        .)      CMP      r1,#0
        0x0000e2da:    f47faf72    ..r.    BNE      0xe1c2 ; am_hal_pwrctrl_low_power_init + 74
        0x0000e2de:    2101        .!      MOVS     r1,#1
        0x0000e2e0:    7041        Ap      STRB     r1,[r0,#1]
        0x0000e2e2:    f6430038    C.8.    MOV      r0,#0x3838
        0x0000e2e6:    f2c50002    ....    MOVT     r0,#0x5002
        0x0000e2ea:    4601        .F      MOV      r1,r0
        0x0000e2ec:    f8512b38    Q.8+    LDR      r2,[r1],#0x38
        0x0000e2f0:    f0120208    ....    ANDS     r2,r2,#8
        0x0000e2f4:    f5a47232    ..2r    SUB      r2,r4,#0x2c8
        0x0000e2f8:    bf08        ..      IT       EQ
        0x0000e2fa:    f1000234    ..4.    ADDEQ    r2,r0,#0x34
        0x0000e2fe:    6810        .h      LDR      r0,[r2,#0]
        0x0000e300:    f64f5238    O.8R    MOV      r2,#0xfd38
        0x0000e304:    f6cf72ff    ...r    MOVT     r2,#0xffff
        0x0000e308:    bf18        ..      IT       NE
        0x0000e30a:    4621        !F      MOVNE    r1,r4
        0x0000e30c:    58a3        .X      LDR      r3,[r4,r2]
        0x0000e30e:    f000003f    ..?.    AND      r0,r0,#0x3f
        0x0000e312:    f023033f    #.?.    BIC      r3,r3,#0x3f
        0x0000e316:    283c        <(      CMP      r0,#0x3c
        0x0000e318:    bf28        (.      IT       CS
        0x0000e31a:    203c        <       MOVCS    r0,#0x3c
        0x0000e31c:    50a3        .P      STR      r3,[r4,r2]
        0x0000e31e:    58a3        .X      LDR      r3,[r4,r2]
        0x0000e320:    3003        .0      ADDS     r0,#3
        0x0000e322:    4318        .C      ORRS     r0,r0,r3
        0x0000e324:    50a0        .P      STR      r0,[r4,r2]
        0x0000e326:    6808        .h      LDR      r0,[r1,#0]
        0x0000e328:    6821        !h      LDR      r1,[r4,#0]
        0x0000e32a:    f3c04005    ...@    UBFX     r0,r0,#16,#6
        0x0000e32e:    f421117c    !.|.    BIC      r1,r1,#0x3f0000
        0x0000e332:    283a        :(      CMP      r0,#0x3a
        0x0000e334:    bf28        (.      IT       CS
        0x0000e336:    203a        :       MOVCS    r0,#0x3a
        0x0000e338:    6021        !`      STR      r1,[r4,#0]
        0x0000e33a:    f44f21a0    O..!    MOV      r1,#0x50000
        0x0000e33e:    eb014000    ...@    ADD      r0,r1,r0,LSL #16
        0x0000e342:    6821        !h      LDR      r1,[r4,#0]
        0x0000e344:    f400107c    ..|.    AND      r0,r0,#0x3f0000
        0x0000e348:    4308        .C      ORRS     r0,r0,r1
        0x0000e34a:    6020         `      STR      r0,[r4,#0]
        0x0000e34c:    5960        `Y      LDR      r0,[r4,r5]
        0x0000e34e:    f00000fe    ....    AND      r0,r0,#0xfe
        0x0000e352:    2812        .(      CMP      r0,#0x12
        0x0000e354:    f4bfaf3a    ..:.    BCS      0xe1cc ; am_hal_pwrctrl_low_power_init + 84
        0x0000e358:    e73c        <.      B        0xe1d4 ; am_hal_pwrctrl_low_power_init + 92
        0x0000e35a:    bf00        ..      NOP      
        0x0000e35c:    6830        0h      LDR      r0,[r6,#0]
        0x0000e35e:    f0400001    @...    ORR      r0,r0,#1
        0x0000e362:    6030        0`      STR      r0,[r6,#0]
        0x0000e364:    6a70        pj      LDR      r0,[r6,#0x24]
        0x0000e366:    f0400040    @.@.    ORR      r0,r0,#0x40
        0x0000e36a:    6270        pb      STR      r0,[r6,#0x24]
        0x0000e36c:    f7fef946    ..F.    BL       am_hal_burst_ldo_charge ; 0xc5fc
        0x0000e370:    2000        .       MOVS     r0,#0
        0x0000e372:    b002        ..      ADD      sp,sp,#8
        0x0000e374:    bd70        p.      POP      {r4-r6,pc}
        0x0000e376:    0000        ..      MOVS     r0,r0
    am_hal_pwrctrl_periph_disable
        0x0000e378:    b570        p.      PUSH     {r4-r6,lr}
        0x0000e37a:    b082        ..      SUB      sp,sp,#8
        0x0000e37c:    f2410508    A...    MOV      r5,#0x1008
        0x0000e380:    4604        .F      MOV      r4,r0
        0x0000e382:    f2c40502    ....    MOVT     r5,#0x4002
        0x0000e386:    f7fff8cf    ....    BL       am_hal_interrupt_master_disable ; 0xd528
        0x0000e38a:    f2400244    @.D.    MOVW     r2,#0x44
        0x0000e38e:    9001        ..      STR      r0,[sp,#4]
        0x0000e390:    eb040144    ..D.    ADD      r1,r4,r4,LSL #1
        0x0000e394:    f2c00201    ....    MOVT     r2,#1
        0x0000e398:    f8524021    R.!@    LDR      r4,[r2,r1,LSL #2]
        0x0000e39c:    6828        (h      LDR      r0,[r5,#0]
        0x0000e39e:    eb020681    ....    ADD      r6,r2,r1,LSL #2
        0x0000e3a2:    43a0        .C      BICS     r0,r0,r4
        0x0000e3a4:    6028        (`      STR      r0,[r5,#0]
        0x0000e3a6:    9801        ..      LDR      r0,[sp,#4]
        0x0000e3a8:    f7fff8c6    ....    BL       am_hal_interrupt_master_set ; 0xd538
        0x0000e3ac:    20a0        .       MOVS     r0,#0xa0
        0x0000e3ae:    f7fefd87    ....    BL       am_hal_flash_delay ; 0xcec0
        0x0000e3b2:    6928        (i      LDR      r0,[r5,#0x10]
        0x0000e3b4:    6876        vh      LDR      r6,[r6,#4]
        0x0000e3b6:    4206        .B      TST      r6,r0
        0x0000e3b8:    d003        ..      BEQ      0xe3c2 ; am_hal_pwrctrl_periph_disable + 74
        0x0000e3ba:    20a0        .       MOVS     r0,#0xa0
        0x0000e3bc:    f7fefd80    ....    BL       am_hal_flash_delay ; 0xcec0
        0x0000e3c0:    6928        (i      LDR      r0,[r5,#0x10]
        0x0000e3c2:    6928        (i      LDR      r0,[r5,#0x10]
        0x0000e3c4:    4206        .B      TST      r6,r0
        0x0000e3c6:    d00f        ..      BEQ      0xe3e8 ; am_hal_pwrctrl_periph_disable + 112
        0x0000e3c8:    6829        )h      LDR      r1,[r5,#0]
        0x0000e3ca:    2e0f        ..      CMP      r6,#0xf
        0x0000e3cc:    f04f0001    O...    MOV      r0,#1
        0x0000e3d0:    dc0e        ..      BGT      0xe3f0 ; am_hal_pwrctrl_periph_disable + 120
        0x0000e3d2:    2e04        ..      CMP      r6,#4
        0x0000e3d4:    d01a        ..      BEQ      0xe40c ; am_hal_pwrctrl_periph_disable + 148
        0x0000e3d6:    2e08        ..      CMP      r6,#8
        0x0000e3d8:    d115        ..      BNE      0xe406 ; am_hal_pwrctrl_periph_disable + 142
        0x0000e3da:    f0110f0e    ....    TST      r1,#0xe
        0x0000e3de:    d10e        ..      BNE      0xe3fe ; am_hal_pwrctrl_periph_disable + 134
        0x0000e3e0:    2001        .       MOVS     r0,#1
        0x0000e3e2:    b002        ..      ADD      sp,sp,#8
        0x0000e3e4:    bd70        p.      POP      {r4-r6,pc}
        0x0000e3e6:    bf00        ..      NOP      
        0x0000e3e8:    2000        .       MOVS     r0,#0
        0x0000e3ea:    b002        ..      ADD      sp,sp,#8
        0x0000e3ec:    bd70        p.      POP      {r4-r6,pc}
        0x0000e3ee:    bf00        ..      NOP      
        0x0000e3f0:    2e10        ..      CMP      r6,#0x10
        0x0000e3f2:    d011        ..      BEQ      0xe418 ; am_hal_pwrctrl_periph_disable + 160
        0x0000e3f4:    2e40        @.      CMP      r6,#0x40
        0x0000e3f6:    d106        ..      BNE      0xe406 ; am_hal_pwrctrl_periph_disable + 142
        0x0000e3f8:    f4115f60    ..`_    TST      r1,#0x3800
        0x0000e3fc:    d0f0        ..      BEQ      0xe3e0 ; am_hal_pwrctrl_periph_disable + 104
        0x0000e3fe:    ea110004    ....    ANDS     r0,r1,r4
        0x0000e402:    bf18        ..      IT       NE
        0x0000e404:    2001        .       MOVNE    r0,#1
        0x0000e406:    b002        ..      ADD      sp,sp,#8
        0x0000e408:    bd70        p.      POP      {r4-r6,pc}
        0x0000e40a:    bf00        ..      NOP      
        0x0000e40c:    f2405081    @..P    MOV      r0,#0x581
        0x0000e410:    4201        .B      TST      r1,r0
        0x0000e412:    d1f4        ..      BNE      0xe3fe ; am_hal_pwrctrl_periph_disable + 134
        0x0000e414:    e7e4        ..      B        0xe3e0 ; am_hal_pwrctrl_periph_disable + 104
        0x0000e416:    bf00        ..      NOP      
        0x0000e418:    f0110f70    ..p.    TST      r1,#0x70
        0x0000e41c:    d1ef        ..      BNE      0xe3fe ; am_hal_pwrctrl_periph_disable + 134
        0x0000e41e:    e7df        ..      B        0xe3e0 ; am_hal_pwrctrl_periph_disable + 104
    am_hal_pwrctrl_periph_enable
        0x0000e420:    b570        p.      PUSH     {r4-r6,lr}
        0x0000e422:    b082        ..      SUB      sp,sp,#8
        0x0000e424:    f2410508    A...    MOV      r5,#0x1008
        0x0000e428:    4604        .F      MOV      r4,r0
        0x0000e42a:    f2c40502    ....    MOVT     r5,#0x4002
        0x0000e42e:    f7fff87b    ..{.    BL       am_hal_interrupt_master_disable ; 0xd528
        0x0000e432:    f2400244    @.D.    MOVW     r2,#0x44
        0x0000e436:    9001        ..      STR      r0,[sp,#4]
        0x0000e438:    eb040144    ..D.    ADD      r1,r4,r4,LSL #1
        0x0000e43c:    f2c00201    ....    MOVT     r2,#1
        0x0000e440:    f8524021    R.!@    LDR      r4,[r2,r1,LSL #2]
        0x0000e444:    6828        (h      LDR      r0,[r5,#0]
        0x0000e446:    eb020681    ....    ADD      r6,r2,r1,LSL #2
        0x0000e44a:    4320         C      ORRS     r0,r0,r4
        0x0000e44c:    6028        (`      STR      r0,[r5,#0]
        0x0000e44e:    9801        ..      LDR      r0,[sp,#4]
        0x0000e450:    f7fff872    ..r.    BL       am_hal_interrupt_master_set ; 0xd538
        0x0000e454:    20a0        .       MOVS     r0,#0xa0
        0x0000e456:    f7fefd33    ..3.    BL       am_hal_flash_delay ; 0xcec0
        0x0000e45a:    6928        (i      LDR      r0,[r5,#0x10]
        0x0000e45c:    6876        vh      LDR      r6,[r6,#4]
        0x0000e45e:    4206        .B      TST      r6,r0
        0x0000e460:    d006        ..      BEQ      0xe470 ; am_hal_pwrctrl_periph_enable + 80
        0x0000e462:    6928        (i      LDR      r0,[r5,#0x10]
        0x0000e464:    4206        .B      TST      r6,r0
        0x0000e466:    d00a        ..      BEQ      0xe47e ; am_hal_pwrctrl_periph_enable + 94
        0x0000e468:    2000        .       MOVS     r0,#0
        0x0000e46a:    b002        ..      ADD      sp,sp,#8
        0x0000e46c:    bd70        p.      POP      {r4-r6,pc}
        0x0000e46e:    bf00        ..      NOP      
        0x0000e470:    20a0        .       MOVS     r0,#0xa0
        0x0000e472:    f7fefd25    ..%.    BL       am_hal_flash_delay ; 0xcec0
        0x0000e476:    6928        (i      LDR      r0,[r5,#0x10]
        0x0000e478:    6928        (i      LDR      r0,[r5,#0x10]
        0x0000e47a:    4206        .B      TST      r6,r0
        0x0000e47c:    d1f4        ..      BNE      0xe468 ; am_hal_pwrctrl_periph_enable + 72
        0x0000e47e:    f7fff853    ..S.    BL       am_hal_interrupt_master_disable ; 0xd528
        0x0000e482:    9000        ..      STR      r0,[sp,#0]
        0x0000e484:    6828        (h      LDR      r0,[r5,#0]
        0x0000e486:    43a0        .C      BICS     r0,r0,r4
        0x0000e488:    6028        (`      STR      r0,[r5,#0]
        0x0000e48a:    9800        ..      LDR      r0,[sp,#0]
        0x0000e48c:    f7fff854    ..T.    BL       am_hal_interrupt_master_set ; 0xd538
        0x0000e490:    2001        .       MOVS     r0,#1
        0x0000e492:    b002        ..      ADD      sp,sp,#8
        0x0000e494:    bd70        p.      POP      {r4-r6,pc}
        0x0000e496:    0000        ..      MOVS     r0,r0
    am_hal_pwrctrl_wa_vddf_boost
        0x0000e498:    b510        ..      PUSH     {r4,lr}
        0x0000e49a:    b084        ..      SUB      sp,sp,#0x10
        0x0000e49c:    f7fff844    ..D.    BL       am_hal_interrupt_master_disable ; 0xd528
        0x0000e4a0:    9001        ..      STR      r0,[sp,#4]
        0x0000e4a2:    f2410024    A.$.    MOV      r0,#0x1024
        0x0000e4a6:    f2c40002    ....    MOVT     r0,#0x4002
        0x0000e4aa:    6804        .h      LDR      r4,[r0,#0]
        0x0000e4ac:    f7fef908    ....    BL       am_hal_burst_ldo_patch_check ; 0xc6c0
        0x0000e4b0:    07e1        ..      LSLS     r1,r4,#31
        0x0000e4b2:    d111        ..      BNE      0xe4d8 ; am_hal_pwrctrl_wa_vddf_boost + 64
        0x0000e4b4:    2800        .(      CMP      r0,#0
        0x0000e4b6:    d049        I.      BEQ      0xe54c ; am_hal_pwrctrl_wa_vddf_boost + 180
        0x0000e4b8:    f7fff836    ..6.    BL       am_hal_interrupt_master_disable ; 0xd528
        0x0000e4bc:    9003        ..      STR      r0,[sp,#0xc]
        0x0000e4be:    f7fef8ff    ....    BL       am_hal_burst_ldo_patch_check ; 0xc6c0
        0x0000e4c2:    b1c8        ..      CBZ      r0,0xe4f8 ; am_hal_pwrctrl_wa_vddf_boost + 96
        0x0000e4c4:    f643006c    C.l.    MOV      r0,#0x386c
        0x0000e4c8:    f2c50002    ....    MOVT     r0,#0x5002
        0x0000e4cc:    6800        .h      LDR      r0,[r0,#0]
        0x0000e4ce:    f000003f    ..?.    AND      r0,r0,#0x3f
        0x0000e4d2:    3003        .0      ADDS     r0,#3
        0x0000e4d4:    e011        ..      B        0xe4fa ; am_hal_pwrctrl_wa_vddf_boost + 98
        0x0000e4d6:    bf00        ..      NOP      
        0x0000e4d8:    b3c0        ..      CBZ      r0,0xe54c ; am_hal_pwrctrl_wa_vddf_boost + 180
        0x0000e4da:    f7fff825    ..%.    BL       am_hal_interrupt_master_disable ; 0xd528
        0x0000e4de:    9002        ..      STR      r0,[sp,#8]
        0x0000e4e0:    f7fef8ee    ....    BL       am_hal_burst_ldo_patch_check ; 0xc6c0
        0x0000e4e4:    b1e0        ..      CBZ      r0,0xe520 ; am_hal_pwrctrl_wa_vddf_boost + 136
        0x0000e4e6:    f643006c    C.l.    MOV      r0,#0x386c
        0x0000e4ea:    f2c50002    ....    MOVT     r0,#0x5002
        0x0000e4ee:    6840        @h      LDR      r0,[r0,#4]
        0x0000e4f0:    f3c04005    ...@    UBFX     r0,r0,#16,#6
        0x0000e4f4:    3005        .0      ADDS     r0,#5
        0x0000e4f6:    e014        ..      B        0xe522 ; am_hal_pwrctrl_wa_vddf_boost + 138
        0x0000e4f8:    2003        .       MOVS     r0,#3
        0x0000e4fa:    2188        .!      MOVS     r1,#0x88
        0x0000e4fc:    f2c40102    ....    MOVT     r1,#0x4002
        0x0000e500:    680a        .h      LDR      r2,[r1,#0]
        0x0000e502:    283f        ?(      CMP      r0,#0x3f
        0x0000e504:    bf28        (.      IT       CS
        0x0000e506:    203f        ?       MOVCS    r0,#0x3f
        0x0000e508:    f022023f    ".?.    BIC      r2,r2,#0x3f
        0x0000e50c:    4310        .C      ORRS     r0,r0,r2
        0x0000e50e:    6008        .`      STR      r0,[r1,#0]
        0x0000e510:    f44f70a0    O..p    MOV      r0,#0x140
        0x0000e514:    f7fefcd4    ....    BL       am_hal_flash_delay ; 0xcec0
        0x0000e518:    9803        ..      LDR      r0,[sp,#0xc]
        0x0000e51a:    f7fff80d    ....    BL       am_hal_interrupt_master_set ; 0xd538
        0x0000e51e:    e015        ..      B        0xe54c ; am_hal_pwrctrl_wa_vddf_boost + 180
        0x0000e520:    2005        .       MOVS     r0,#5
        0x0000e522:    2188        .!      MOVS     r1,#0x88
        0x0000e524:    f2c40102    ....    MOVT     r1,#0x4002
        0x0000e528:    f8d122c8    ..."    LDR      r2,[r1,#0x2c8]
        0x0000e52c:    283f        ?(      CMP      r0,#0x3f
        0x0000e52e:    bf28        (.      IT       CS
        0x0000e530:    203f        ?       MOVCS    r0,#0x3f
        0x0000e532:    f422127c    ".|.    BIC      r2,r2,#0x3f0000
        0x0000e536:    ea424000    B..@    ORR      r0,r2,r0,LSL #16
        0x0000e53a:    f8c102c8    ....    STR      r0,[r1,#0x2c8]
        0x0000e53e:    f44f70a0    O..p    MOV      r0,#0x140
        0x0000e542:    f7fefcbd    ....    BL       am_hal_flash_delay ; 0xcec0
        0x0000e546:    9802        ..      LDR      r0,[sp,#8]
        0x0000e548:    f7fefff6    ....    BL       am_hal_interrupt_master_set ; 0xd538
        0x0000e54c:    f44f70a0    O..p    MOV      r0,#0x140
        0x0000e550:    f7fefcb6    ....    BL       am_hal_flash_delay ; 0xcec0
        0x0000e554:    9801        ..      LDR      r0,[sp,#4]
        0x0000e556:    b004        ..      ADD      sp,sp,#0x10
        0x0000e558:    e8bd4010    ...@    POP      {r4,lr}
        0x0000e55c:    f7febfec    ....    B        am_hal_interrupt_master_set ; 0xd538
    am_hal_pwrctrl_wa_vddf_restore
        0x0000e560:    b510        ..      PUSH     {r4,lr}
        0x0000e562:    b084        ..      SUB      sp,sp,#0x10
        0x0000e564:    f7feffe0    ....    BL       am_hal_interrupt_master_disable ; 0xd528
        0x0000e568:    9001        ..      STR      r0,[sp,#4]
        0x0000e56a:    f2410024    A.$.    MOV      r0,#0x1024
        0x0000e56e:    f2c40002    ....    MOVT     r0,#0x4002
        0x0000e572:    6804        .h      LDR      r4,[r0,#0]
        0x0000e574:    f7fef8a4    ....    BL       am_hal_burst_ldo_patch_check ; 0xc6c0
        0x0000e578:    07e1        ..      LSLS     r1,r4,#31
        0x0000e57a:    d10f        ..      BNE      0xe59c ; am_hal_pwrctrl_wa_vddf_restore + 60
        0x0000e57c:    2800        .(      CMP      r0,#0
        0x0000e57e:    d041        A.      BEQ      0xe604 ; am_hal_pwrctrl_wa_vddf_restore + 164
        0x0000e580:    f7feffd2    ....    BL       am_hal_interrupt_master_disable ; 0xd528
        0x0000e584:    9003        ..      STR      r0,[sp,#0xc]
        0x0000e586:    f7fef89b    ....    BL       am_hal_burst_ldo_patch_check ; 0xc6c0
        0x0000e58a:    b1b8        ..      CBZ      r0,0xe5bc ; am_hal_pwrctrl_wa_vddf_restore + 92
        0x0000e58c:    f643006c    C.l.    MOV      r0,#0x386c
        0x0000e590:    f2c50002    ....    MOVT     r0,#0x5002
        0x0000e594:    6800        .h      LDR      r0,[r0,#0]
        0x0000e596:    f000003f    ..?.    AND      r0,r0,#0x3f
        0x0000e59a:    e010        ..      B        0xe5be ; am_hal_pwrctrl_wa_vddf_restore + 94
        0x0000e59c:    b390        ..      CBZ      r0,0xe604 ; am_hal_pwrctrl_wa_vddf_restore + 164
        0x0000e59e:    f7feffc3    ....    BL       am_hal_interrupt_master_disable ; 0xd528
        0x0000e5a2:    9002        ..      STR      r0,[sp,#8]
        0x0000e5a4:    f7fef88c    ....    BL       am_hal_burst_ldo_patch_check ; 0xc6c0
        0x0000e5a8:    b1d0        ..      CBZ      r0,0xe5e0 ; am_hal_pwrctrl_wa_vddf_restore + 128
        0x0000e5aa:    f643006c    C.l.    MOV      r0,#0x386c
        0x0000e5ae:    f2c50002    ....    MOVT     r0,#0x5002
        0x0000e5b2:    6840        @h      LDR      r0,[r0,#4]
        0x0000e5b4:    f400107c    ..|.    AND      r0,r0,#0x3f0000
        0x0000e5b8:    e013        ..      B        0xe5e2 ; am_hal_pwrctrl_wa_vddf_restore + 130
        0x0000e5ba:    bf00        ..      NOP      
        0x0000e5bc:    2000        .       MOVS     r0,#0
        0x0000e5be:    2188        .!      MOVS     r1,#0x88
        0x0000e5c0:    f2c40102    ....    MOVT     r1,#0x4002
        0x0000e5c4:    680a        .h      LDR      r2,[r1,#0]
        0x0000e5c6:    f022023f    ".?.    BIC      r2,r2,#0x3f
        0x0000e5ca:    4410        .D      ADD      r0,r0,r2
        0x0000e5cc:    6008        .`      STR      r0,[r1,#0]
        0x0000e5ce:    f44f70a0    O..p    MOV      r0,#0x140
        0x0000e5d2:    f7fefc75    ..u.    BL       am_hal_flash_delay ; 0xcec0
        0x0000e5d6:    9803        ..      LDR      r0,[sp,#0xc]
        0x0000e5d8:    f7feffae    ....    BL       am_hal_interrupt_master_set ; 0xd538
        0x0000e5dc:    e012        ..      B        0xe604 ; am_hal_pwrctrl_wa_vddf_restore + 164
        0x0000e5de:    bf00        ..      NOP      
        0x0000e5e0:    2000        .       MOVS     r0,#0
        0x0000e5e2:    2188        .!      MOVS     r1,#0x88
        0x0000e5e4:    f2c40102    ....    MOVT     r1,#0x4002
        0x0000e5e8:    f8d122c8    ..."    LDR      r2,[r1,#0x2c8]
        0x0000e5ec:    f422127c    ".|.    BIC      r2,r2,#0x3f0000
        0x0000e5f0:    4310        .C      ORRS     r0,r0,r2
        0x0000e5f2:    f8c102c8    ....    STR      r0,[r1,#0x2c8]
        0x0000e5f6:    f44f70a0    O..p    MOV      r0,#0x140
        0x0000e5fa:    f7fefc61    ..a.    BL       am_hal_flash_delay ; 0xcec0
        0x0000e5fe:    9802        ..      LDR      r0,[sp,#8]
        0x0000e600:    f7feff9a    ....    BL       am_hal_interrupt_master_set ; 0xd538
        0x0000e604:    f44f70a0    O..p    MOV      r0,#0x140
        0x0000e608:    f7fefc5a    ..Z.    BL       am_hal_flash_delay ; 0xcec0
        0x0000e60c:    9801        ..      LDR      r0,[sp,#4]
        0x0000e60e:    b004        ..      ADD      sp,sp,#0x10
        0x0000e610:    e8bd4010    ...@    POP      {r4,lr}
        0x0000e614:    f7febf90    ....    B        am_hal_interrupt_master_set ; 0xd538
    am_hal_rtc_osc_disable
        0x0000e618:    f2442050    D.P     MOV      r0,#0x4250
        0x0000e61c:    f2c40000    ....    MOVT     r0,#0x4000
        0x0000e620:    6801        .h      LDR      r1,[r0,#0]
        0x0000e622:    f0410110    A...    ORR      r1,r1,#0x10
        0x0000e626:    6001        .`      STR      r1,[r0,#0]
        0x0000e628:    4770        pG      BX       lr
        0x0000e62a:    0000        ..      MOVS     r0,r0
    am_hal_sysctrl_sleep
        0x0000e62c:    b5b0        ..      PUSH     {r4,r5,r7,lr}
        0x0000e62e:    b082        ..      SUB      sp,sp,#8
        0x0000e630:    4604        .F      MOV      r4,r0
        0x0000e632:    f7feff79    ..y.    BL       am_hal_interrupt_master_disable ; 0xd528
        0x0000e636:    9000        ..      STR      r0,[sp,#0]
        0x0000e638:    f2446058    D.X`    MOV      r0,#0x4658
        0x0000e63c:    f2c10001    ....    MOVT     r0,#0x1001
        0x0000e640:    6801        .h      LDR      r1,[r0,#0]
        0x0000e642:    3101        .1      ADDS     r1,#1
        0x0000e644:    6001        .`      STR      r1,[r0,#0]
        0x0000e646:    f2440034    D.4.    MOV      r0,#0x4034
        0x0000e64a:    f2c40000    ....    MOVT     r0,#0x4000
        0x0000e64e:    6800        .h      LDR      r0,[r0,#0]
        0x0000e650:    f0100504    ....    ANDS     r5,r0,#4
        0x0000e654:    d00a        ..      BEQ      0xe66c ; am_hal_sysctrl_sleep + 64
        0x0000e656:    f10d0007    ....    ADD      r0,sp,#7
        0x0000e65a:    f7fef83d    ..=.    BL       am_hal_burst_mode_disable ; 0xc6d8
        0x0000e65e:    bb08        ..      CBNZ     r0,0xe6a4 ; am_hal_sysctrl_sleep + 120
        0x0000e660:    f89d0007    ....    LDRB     r0,[sp,#7]
        0x0000e664:    2801        .(      CMP      r0,#1
        0x0000e666:    d11d        ..      BNE      0xe6a4 ; am_hal_sysctrl_sleep + 120
        0x0000e668:    f7ffff7a    ..z.    BL       am_hal_pwrctrl_wa_vddf_restore ; 0xe560
        0x0000e66c:    f64e5010    N..P    MOV      r0,#0xed10
        0x0000e670:    f2ce0000    ....    MOVT     r0,#0xe000
        0x0000e674:    b1c4        ..      CBZ      r4,0xe6a8 ; am_hal_sysctrl_sleep + 124
        0x0000e676:    f2402150    @.P!    MOVW     r1,#0x250
        0x0000e67a:    f2c40102    ....    MOVT     r1,#0x4002
        0x0000e67e:    6809        .h      LDR      r1,[r1,#0]
        0x0000e680:    07c9        ..      LSLS     r1,r1,#31
        0x0000e682:    d111        ..      BNE      0xe6a8 ; am_hal_sysctrl_sleep + 124
        0x0000e684:    f2412178    A.x!    MOV      r1,#0x1278
        0x0000e688:    f2c10101    ....    MOVT     r1,#0x1001
        0x0000e68c:    680a        .h      LDR      r2,[r1,#0]
        0x0000e68e:    b92a        *.      CBNZ     r2,0xe69c ; am_hal_sysctrl_sleep + 112
        0x0000e690:    f24f0200    O...    MOVW     r2,#0xf000
        0x0000e694:    f6c472ff    ...r    MOVT     r2,#0x4fff
        0x0000e698:    6812        .h      LDR      r2,[r2,#0]
        0x0000e69a:    600a        .`      STR      r2,[r1,#0]
        0x0000e69c:    6801        .h      LDR      r1,[r0,#0]
        0x0000e69e:    f0410104    A...    ORR      r1,r1,#4
        0x0000e6a2:    e004        ..      B        0xe6ae ; am_hal_sysctrl_sleep + 130
        0x0000e6a4:    e7fe        ..      B        0xe6a4 ; am_hal_sysctrl_sleep + 120
        0x0000e6a6:    bf00        ..      NOP      
        0x0000e6a8:    6801        .h      LDR      r1,[r0,#0]
        0x0000e6aa:    f0210104    !...    BIC      r1,r1,#4
        0x0000e6ae:    6001        .`      STR      r1,[r0,#0]
        0x0000e6b0:    2000        .       MOVS     r0,#0
        0x0000e6b2:    f3bf8f4f    ..O.    DSB      
        0x0000e6b6:    f6c570ff    ...p    MOVT     r0,#0x5fff
        0x0000e6ba:    6800        .h      LDR      r0,[r0,#0]
        0x0000e6bc:    bf30        0.      WFI      
        0x0000e6be:    f3bf8f6f    ..o.    ISB      
        0x0000e6c2:    b11d        ..      CBZ      r5,0xe6cc ; am_hal_sysctrl_sleep + 160
        0x0000e6c4:    f10d0007    ....    ADD      r0,sp,#7
        0x0000e6c8:    f7fef860    ..`.    BL       am_hal_burst_mode_enable ; 0xc78c
        0x0000e6cc:    9800        ..      LDR      r0,[sp,#0]
        0x0000e6ce:    f7feff33    ..3.    BL       am_hal_interrupt_master_set ; 0xd538
        0x0000e6d2:    b002        ..      ADD      sp,sp,#8
        0x0000e6d4:    bdb0        ..      POP      {r4,r5,r7,pc}
        0x0000e6d6:    0000        ..      MOVS     r0,r0
    am_hal_tpiu_enable
        0x0000e6d8:    b570        p.      PUSH     {r4-r6,lr}
        0x0000e6da:    b084        ..      SUB      sp,sp,#0x10
        0x0000e6dc:    6806        .h      LDR      r6,[r0,#0]
        0x0000e6de:    f6407400    @..t    MOVW     r4,#0xf00
        0x0000e6e2:    2504        .%      MOVS     r5,#4
        0x0000e6e4:    f2ce0404    ....    MOVT     r4,#0xe004
        0x0000e6e8:    f2ce0504    ....    MOVT     r5,#0xe004
        0x0000e6ec:    2200        ."      MOVS     r2,#0
        0x0000e6ee:    f8c52300    ...#    STR      r2,[r5,#0x300]
        0x0000e6f2:    b1de        ..      CBZ      r6,0xe72c ; am_hal_tpiu_enable + 84
        0x0000e6f4:    2001        .       MOVS     r0,#1
        0x0000e6f6:    6028        (`      STR      r0,[r5,#0]
        0x0000e6f8:    a801        ..      ADD      r0,sp,#4
        0x0000e6fa:    f7fefb2b    ..+.    BL       am_hal_clkgen_status_get ; 0xcd54
        0x0000e6fe:    9801        ..      LDR      r0,[sp,#4]
        0x0000e700:    1c41        A.      ADDS     r1,r0,#1
        0x0000e702:    d021        !.      BEQ      0xe748 ; am_hal_tpiu_enable + 112
        0x0000e704:    f647317f    G..1    MOV      r1,#0x7b7f
        0x0000e708:    f6cf71e1    ...q    MOVT     r1,#0xffe1
        0x0000e70c:    1872        r.      ADDS     r2,r6,r1
        0x0000e70e:    f5014161    ..aA    ADD      r1,r1,#0xe100
        0x0000e712:    08c0        ..      LSRS     r0,r0,#3
        0x0000e714:    428a        .B      CMP      r2,r1
        0x0000e716:    bf3c        <.      ITT      CC
        0x0000e718:    f2442640    D.@&    MOVCC    r6,#0x4240
        0x0000e71c:    f2c0060f    ....    MOVTCC   r6,#0xf
        0x0000e720:    fbb0f0f6    ....    UDIV     r0,r0,r6
        0x0000e724:    3801        .8      SUBS     r0,#1
        0x0000e726:    b280        ..      UXTH     r0,r0
        0x0000e728:    e00f        ..      B        0xe74a ; am_hal_tpiu_enable + 114
        0x0000e72a:    bf00        ..      NOP      
        0x0000e72c:    e9d01301    ....    LDRD     r1,r3,[r0,#4]
        0x0000e730:    e9d00603    ....    LDRD     r0,r6,[r0,#0xc]
        0x0000e734:    60ee        .`      STR      r6,[r5,#0xc]
        0x0000e736:    f8c530ec    ...0    STR      r3,[r5,#0xec]
        0x0000e73a:    3801        .8      SUBS     r0,#1
        0x0000e73c:    2301        .#      MOVS     r3,#1
        0x0000e73e:    fa03f000    ....    LSL      r0,r3,r0
        0x0000e742:    6028        (`      STR      r0,[r5,#0]
        0x0000e744:    6022        "`      STR      r2,[r4,#0]
        0x0000e746:    e008        ..      B        0xe75a ; am_hal_tpiu_enable + 130
        0x0000e748:    2005        .       MOVS     r0,#5
        0x0000e74a:    60e8        .`      STR      r0,[r5,#0xc]
        0x0000e74c:    2002        .       MOVS     r0,#2
        0x0000e74e:    f8c500ec    ....    STR      r0,[r5,#0xec]
        0x0000e752:    2000        .       MOVS     r0,#0
        0x0000e754:    6020         `      STR      r0,[r4,#0]
        0x0000e756:    f2402101    @..!    MOV      r1,#0x201
        0x0000e75a:    f2402050    @.P     MOVW     r0,#0x250
        0x0000e75e:    f2c40002    ....    MOVT     r0,#0x4002
        0x0000e762:    6001        .`      STR      r1,[r0,#0]
        0x0000e764:    f44f7048    O.Hp    MOV      r0,#0x320
        0x0000e768:    f7fefbaa    ....    BL       am_hal_flash_delay ; 0xcec0
        0x0000e76c:    b004        ..      ADD      sp,sp,#0x10
        0x0000e76e:    bd70        p.      POP      {r4-r6,pc}
    am_util_delay_ms
        0x0000e770:    b580        ..      PUSH     {r7,lr}
        0x0000e772:    b086        ..      SUB      sp,sp,#0x18
        0x0000e774:    9005        ..      STR      r0,[sp,#0x14]
        0x0000e776:    4668        hF      MOV      r0,sp
        0x0000e778:    f7fefaec    ....    BL       am_hal_clkgen_status_get ; 0xcd54
        0x0000e77c:    9800        ..      LDR      r0,[sp,#0]
        0x0000e77e:    9003        ..      STR      r0,[sp,#0xc]
        0x0000e780:    9805        ..      LDR      r0,[sp,#0x14]
        0x0000e782:    9903        ..      LDR      r1,[sp,#0xc]
        0x0000e784:    f64112f1    A...    MOV      r2,#0x19f1
        0x0000e788:    f2c05276    ..vR    MOVT     r2,#0x576
        0x0000e78c:    fba12102    ...!    UMULL    r2,r1,r1,r2
        0x0000e790:    0989        ..      LSRS     r1,r1,#6
        0x0000e792:    4348        HC      MULS     r0,r1,r0
        0x0000e794:    9004        ..      STR      r0,[sp,#0x10]
        0x0000e796:    9804        ..      LDR      r0,[sp,#0x10]
        0x0000e798:    f7fefb92    ....    BL       am_hal_flash_delay ; 0xcec0
        0x0000e79c:    b006        ..      ADD      sp,sp,#0x18
        0x0000e79e:    bd80        ..      POP      {r7,pc}
    am_util_stdio_printf
        0x0000e7a0:    b083        ..      SUB      sp,sp,#0xc
        0x0000e7a2:    b580        ..      PUSH     {r7,lr}
        0x0000e7a4:    b085        ..      SUB      sp,sp,#0x14
        0x0000e7a6:    9309        ..      STR      r3,[sp,#0x24]
        0x0000e7a8:    9208        ..      STR      r2,[sp,#0x20]
        0x0000e7aa:    9107        ..      STR      r1,[sp,#0x1c]
        0x0000e7ac:    9003        ..      STR      r0,[sp,#0xc]
        0x0000e7ae:    f2446060    D.``    MOV      r0,#0x4660
        0x0000e7b2:    f2c10001    ....    MOVT     r0,#0x1001
        0x0000e7b6:    6800        .h      LDR      r0,[r0,#0]
        0x0000e7b8:    b918        ..      CBNZ     r0,0xe7c2 ; am_util_stdio_printf + 34
        0x0000e7ba:    e7ff        ..      B        0xe7bc ; am_util_stdio_printf + 28
        0x0000e7bc:    2000        .       MOVS     r0,#0
        0x0000e7be:    9004        ..      STR      r0,[sp,#0x10]
        0x0000e7c0:    e016        ..      B        0xe7f0 ; am_util_stdio_printf + 80
        0x0000e7c2:    a807        ..      ADD      r0,sp,#0x1c
        0x0000e7c4:    9001        ..      STR      r0,[sp,#4]
        0x0000e7c6:    9903        ..      LDR      r1,[sp,#0xc]
        0x0000e7c8:    9a01        ..      LDR      r2,[sp,#4]
        0x0000e7ca:    f2446064    D.d`    MOV      r0,#0x4664
        0x0000e7ce:    f2c10001    ....    MOVT     r0,#0x1001
        0x0000e7d2:    9000        ..      STR      r0,[sp,#0]
        0x0000e7d4:    f000f824    ..$.    BL       am_util_stdio_vsprintf ; 0xe820
        0x0000e7d8:    4601        .F      MOV      r1,r0
        0x0000e7da:    9800        ..      LDR      r0,[sp,#0]
        0x0000e7dc:    9102        ..      STR      r1,[sp,#8]
        0x0000e7de:    f2446160    D.`a    MOV      r1,#0x4660
        0x0000e7e2:    f2c10101    ....    MOVT     r1,#0x1001
        0x0000e7e6:    6809        .h      LDR      r1,[r1,#0]
        0x0000e7e8:    4788        .G      BLX      r1
        0x0000e7ea:    9802        ..      LDR      r0,[sp,#8]
        0x0000e7ec:    9004        ..      STR      r0,[sp,#0x10]
        0x0000e7ee:    e7ff        ..      B        0xe7f0 ; am_util_stdio_printf + 80
        0x0000e7f0:    9804        ..      LDR      r0,[sp,#0x10]
        0x0000e7f2:    b005        ..      ADD      sp,sp,#0x14
        0x0000e7f4:    e8bd4080    ...@    POP      {r7,lr}
        0x0000e7f8:    b003        ..      ADD      sp,sp,#0xc
        0x0000e7fa:    4770        pG      BX       lr
    am_util_stdio_printf_init
        0x0000e7fc:    b081        ..      SUB      sp,sp,#4
        0x0000e7fe:    9000        ..      STR      r0,[sp,#0]
        0x0000e800:    9800        ..      LDR      r0,[sp,#0]
        0x0000e802:    f2446160    D.`a    MOV      r1,#0x4660
        0x0000e806:    f2c10101    ....    MOVT     r1,#0x1001
        0x0000e80a:    6008        .`      STR      r0,[r1,#0]
        0x0000e80c:    b001        ..      ADD      sp,sp,#4
        0x0000e80e:    4770        pG      BX       lr
    am_util_stdio_terminal_clear
        0x0000e810:    b580        ..      PUSH     {r7,lr}
        0x0000e812:    f24050f6    @..P    MOV      r0,#0x5f6
        0x0000e816:    f2c00001    ....    MOVT     r0,#1
        0x0000e81a:    f7ffffc1    ....    BL       am_util_stdio_printf ; 0xe7a0
        0x0000e81e:    bd80        ..      POP      {r7,pc}
    am_util_stdio_vsprintf
        0x0000e820:    b580        ..      PUSH     {r7,lr}
        0x0000e822:    b09e        ..      SUB      sp,sp,#0x78
        0x0000e824:    921d        ..      STR      r2,[sp,#0x74]
        0x0000e826:    901c        ..      STR      r0,[sp,#0x70]
        0x0000e828:    911b        ..      STR      r1,[sp,#0x6c]
        0x0000e82a:    2000        .       MOVS     r0,#0
        0x0000e82c:    9014        ..      STR      r0,[sp,#0x50]
        0x0000e82e:    900e        ..      STR      r0,[sp,#0x38]
        0x0000e830:    e7ff        ..      B        0xe832 ; am_util_stdio_vsprintf + 18
        0x0000e832:    981b        ..      LDR      r0,[sp,#0x6c]
        0x0000e834:    7800        .x      LDRB     r0,[r0,#0]
        0x0000e836:    2800        .(      CMP      r0,#0
        0x0000e838:    f0008312    ....    BEQ.W    0xee60 ; am_util_stdio_vsprintf + 1600
        0x0000e83c:    e7ff        ..      B        0xe83e ; am_util_stdio_vsprintf + 30
        0x0000e83e:    2006        .       MOVS     r0,#6
        0x0000e840:    9011        ..      STR      r0,[sp,#0x44]
        0x0000e842:    981b        ..      LDR      r0,[sp,#0x6c]
        0x0000e844:    7800        .x      LDRB     r0,[r0,#0]
        0x0000e846:    2825        %(      CMP      r0,#0x25
        0x0000e848:    d027        '.      BEQ      0xe89a ; am_util_stdio_vsprintf + 122
        0x0000e84a:    e7ff        ..      B        0xe84c ; am_util_stdio_vsprintf + 44
        0x0000e84c:    981c        ..      LDR      r0,[sp,#0x70]
        0x0000e84e:    b1e8        ..      CBZ      r0,0xe88c ; am_util_stdio_vsprintf + 108
        0x0000e850:    e7ff        ..      B        0xe852 ; am_util_stdio_vsprintf + 50
        0x0000e852:    981b        ..      LDR      r0,[sp,#0x6c]
        0x0000e854:    7800        .x      LDRB     r0,[r0,#0]
        0x0000e856:    280a        .(      CMP      r0,#0xa
        0x0000e858:    d111        ..      BNE      0xe87e ; am_util_stdio_vsprintf + 94
        0x0000e85a:    e7ff        ..      B        0xe85c ; am_util_stdio_vsprintf + 60
        0x0000e85c:    f244605d    D.]`    MOV      r0,#0x465d
        0x0000e860:    f2c10001    ....    MOVT     r0,#0x1001
        0x0000e864:    7800        .x      LDRB     r0,[r0,#0]
        0x0000e866:    07c0        ..      LSLS     r0,r0,#31
        0x0000e868:    b148        H.      CBZ      r0,0xe87e ; am_util_stdio_vsprintf + 94
        0x0000e86a:    e7ff        ..      B        0xe86c ; am_util_stdio_vsprintf + 76
        0x0000e86c:    991c        ..      LDR      r1,[sp,#0x70]
        0x0000e86e:    1c48        H.      ADDS     r0,r1,#1
        0x0000e870:    901c        ..      STR      r0,[sp,#0x70]
        0x0000e872:    200d        .       MOVS     r0,#0xd
        0x0000e874:    7008        .p      STRB     r0,[r1,#0]
        0x0000e876:    9814        ..      LDR      r0,[sp,#0x50]
        0x0000e878:    3001        .0      ADDS     r0,#1
        0x0000e87a:    9014        ..      STR      r0,[sp,#0x50]
        0x0000e87c:    e7ff        ..      B        0xe87e ; am_util_stdio_vsprintf + 94
        0x0000e87e:    981b        ..      LDR      r0,[sp,#0x6c]
        0x0000e880:    7800        .x      LDRB     r0,[r0,#0]
        0x0000e882:    991c        ..      LDR      r1,[sp,#0x70]
        0x0000e884:    1c4a        J.      ADDS     r2,r1,#1
        0x0000e886:    921c        ..      STR      r2,[sp,#0x70]
        0x0000e888:    7008        .p      STRB     r0,[r1,#0]
        0x0000e88a:    e7ff        ..      B        0xe88c ; am_util_stdio_vsprintf + 108
        0x0000e88c:    981b        ..      LDR      r0,[sp,#0x6c]
        0x0000e88e:    3001        .0      ADDS     r0,#1
        0x0000e890:    901b        ..      STR      r0,[sp,#0x6c]
        0x0000e892:    9814        ..      LDR      r0,[sp,#0x50]
        0x0000e894:    3001        .0      ADDS     r0,#1
        0x0000e896:    9014        ..      STR      r0,[sp,#0x50]
        0x0000e898:    e7cb        ..      B        0xe832 ; am_util_stdio_vsprintf + 18
        0x0000e89a:    981b        ..      LDR      r0,[sp,#0x6c]
        0x0000e89c:    3001        .0      ADDS     r0,#1
        0x0000e89e:    901b        ..      STR      r0,[sp,#0x6c]
        0x0000e8a0:    2000        .       MOVS     r0,#0
        0x0000e8a2:    f88d0040    ..@.    STRB     r0,[sp,#0x40]
        0x0000e8a6:    f88d0041    ..A.    STRB     r0,[sp,#0x41]
        0x0000e8aa:    2020                MOVS     r0,#0x20
        0x0000e8ac:    f88d0042    ..B.    STRB     r0,[sp,#0x42]
        0x0000e8b0:    981b        ..      LDR      r0,[sp,#0x6c]
        0x0000e8b2:    7800        .x      LDRB     r0,[r0,#0]
        0x0000e8b4:    2830        0(      CMP      r0,#0x30
        0x0000e8b6:    d107        ..      BNE      0xe8c8 ; am_util_stdio_vsprintf + 168
        0x0000e8b8:    e7ff        ..      B        0xe8ba ; am_util_stdio_vsprintf + 154
        0x0000e8ba:    2030        0       MOVS     r0,#0x30
        0x0000e8bc:    f88d0042    ..B.    STRB     r0,[sp,#0x42]
        0x0000e8c0:    981b        ..      LDR      r0,[sp,#0x6c]
        0x0000e8c2:    3001        .0      ADDS     r0,#1
        0x0000e8c4:    901b        ..      STR      r0,[sp,#0x6c]
        0x0000e8c6:    e7ff        ..      B        0xe8c8 ; am_util_stdio_vsprintf + 168
        0x0000e8c8:    981b        ..      LDR      r0,[sp,#0x6c]
        0x0000e8ca:    a915        ..      ADD      r1,sp,#0x54
        0x0000e8cc:    f000faea    ....    BL       decstr_to_int ; 0xeea4
        0x0000e8d0:    9013        ..      STR      r0,[sp,#0x4c]
        0x0000e8d2:    9915        ..      LDR      r1,[sp,#0x54]
        0x0000e8d4:    981b        ..      LDR      r0,[sp,#0x6c]
        0x0000e8d6:    4408        .D      ADD      r0,r0,r1
        0x0000e8d8:    901b        ..      STR      r0,[sp,#0x6c]
        0x0000e8da:    981b        ..      LDR      r0,[sp,#0x6c]
        0x0000e8dc:    7800        .x      LDRB     r0,[r0,#0]
        0x0000e8de:    2873        s(      CMP      r0,#0x73
        0x0000e8e0:    d009        ..      BEQ      0xe8f6 ; am_util_stdio_vsprintf + 214
        0x0000e8e2:    e7ff        ..      B        0xe8e4 ; am_util_stdio_vsprintf + 196
        0x0000e8e4:    9813        ..      LDR      r0,[sp,#0x4c]
        0x0000e8e6:    f1b03fff    ...?    CMP      r0,#0xffffffff
        0x0000e8ea:    dc04        ..      BGT      0xe8f6 ; am_util_stdio_vsprintf + 214
        0x0000e8ec:    e7ff        ..      B        0xe8ee ; am_util_stdio_vsprintf + 206
        0x0000e8ee:    9813        ..      LDR      r0,[sp,#0x4c]
        0x0000e8f0:    4240        @B      RSBS     r0,r0,#0
        0x0000e8f2:    9013        ..      STR      r0,[sp,#0x4c]
        0x0000e8f4:    e7ff        ..      B        0xe8f6 ; am_util_stdio_vsprintf + 214
        0x0000e8f6:    981b        ..      LDR      r0,[sp,#0x6c]
        0x0000e8f8:    7800        .x      LDRB     r0,[r0,#0]
        0x0000e8fa:    282e        .(      CMP      r0,#0x2e
        0x0000e8fc:    d10d        ..      BNE      0xe91a ; am_util_stdio_vsprintf + 250
        0x0000e8fe:    e7ff        ..      B        0xe900 ; am_util_stdio_vsprintf + 224
        0x0000e900:    981b        ..      LDR      r0,[sp,#0x6c]
        0x0000e902:    3001        .0      ADDS     r0,#1
        0x0000e904:    901b        ..      STR      r0,[sp,#0x6c]
        0x0000e906:    981b        ..      LDR      r0,[sp,#0x6c]
        0x0000e908:    a915        ..      ADD      r1,sp,#0x54
        0x0000e90a:    f000facb    ....    BL       decstr_to_int ; 0xeea4
        0x0000e90e:    9011        ..      STR      r0,[sp,#0x44]
        0x0000e910:    9915        ..      LDR      r1,[sp,#0x54]
        0x0000e912:    981b        ..      LDR      r0,[sp,#0x6c]
        0x0000e914:    4408        .D      ADD      r0,r0,r1
        0x0000e916:    901b        ..      STR      r0,[sp,#0x6c]
        0x0000e918:    e7ff        ..      B        0xe91a ; am_util_stdio_vsprintf + 250
        0x0000e91a:    981b        ..      LDR      r0,[sp,#0x6c]
        0x0000e91c:    7800        .x      LDRB     r0,[r0,#0]
        0x0000e91e:    286c        l(      CMP      r0,#0x6c
        0x0000e920:    d110        ..      BNE      0xe944 ; am_util_stdio_vsprintf + 292
        0x0000e922:    e7ff        ..      B        0xe924 ; am_util_stdio_vsprintf + 260
        0x0000e924:    981b        ..      LDR      r0,[sp,#0x6c]
        0x0000e926:    3001        .0      ADDS     r0,#1
        0x0000e928:    901b        ..      STR      r0,[sp,#0x6c]
        0x0000e92a:    981b        ..      LDR      r0,[sp,#0x6c]
        0x0000e92c:    7800        .x      LDRB     r0,[r0,#0]
        0x0000e92e:    286c        l(      CMP      r0,#0x6c
        0x0000e930:    d107        ..      BNE      0xe942 ; am_util_stdio_vsprintf + 290
        0x0000e932:    e7ff        ..      B        0xe934 ; am_util_stdio_vsprintf + 276
        0x0000e934:    981b        ..      LDR      r0,[sp,#0x6c]
        0x0000e936:    3001        .0      ADDS     r0,#1
        0x0000e938:    901b        ..      STR      r0,[sp,#0x6c]
        0x0000e93a:    2001        .       MOVS     r0,#1
        0x0000e93c:    f88d0040    ..@.    STRB     r0,[sp,#0x40]
        0x0000e940:    e7ff        ..      B        0xe942 ; am_util_stdio_vsprintf + 290
        0x0000e942:    e7ff        ..      B        0xe944 ; am_util_stdio_vsprintf + 292
        0x0000e944:    981b        ..      LDR      r0,[sp,#0x6c]
        0x0000e946:    7800        .x      LDRB     r0,[r0,#0]
        0x0000e948:    3846        F8      SUBS     r0,r0,#0x46
        0x0000e94a:    4601        .F      MOV      r1,r0
        0x0000e94c:    910b        ..      STR      r1,[sp,#0x2c]
        0x0000e94e:    2832        2(      CMP      r0,#0x32
        0x0000e950:    f2008273    ..s.    BHI.W    0xee3a ; am_util_stdio_vsprintf + 1562
        0x0000e954:    990b        ..      LDR      r1,[sp,#0x2c]
        0x0000e956:    e8dff011    ....    TBH      [pc,r1,LSL #1]
    $d.4
        0x0000e95a:    0224        $.      DCW    548
        0x0000e95c:    02700270    p.p.    DCD    40895088
        0x0000e960:    02700270    p.p.    DCD    40895088
        0x0000e964:    02700270    p.p.    DCD    40895088
        0x0000e968:    02700270    p.p.    DCD    40895088
        0x0000e96c:    02700270    p.p.    DCD    40895088
        0x0000e970:    02700270    p.p.    DCD    40895088
        0x0000e974:    02700270    p.p.    DCD    40895088
        0x0000e978:    02700270    p.p.    DCD    40895088
        0x0000e97c:    00bf0270    p...    DCD    12518000
        0x0000e980:    02700270    p.p.    DCD    40895088
        0x0000e984:    02700270    p.p.    DCD    40895088
        0x0000e988:    02700270    p.p.    DCD    40895088
        0x0000e98c:    02700270    p.p.    DCD    40895088
        0x0000e990:    02700270    p.p.    DCD    40895088
        0x0000e994:    016f0033    3.o.    DCD    24051763
        0x0000e998:    02240270    p.$.    DCD    35914352
        0x0000e99c:    02700270    p.p.    DCD    40895088
        0x0000e9a0:    0270016f    o.p.    DCD    40894831
        0x0000e9a4:    02700270    p.p.    DCD    40895088
        0x0000e9a8:    02700270    p.p.    DCD    40895088
        0x0000e9ac:    02700270    p.p.    DCD    40895088
        0x0000e9b0:    02700270    p.p.    DCD    40895088
        0x0000e9b4:    02700047    G.p.    DCD    40894535
        0x0000e9b8:    02700119    ..p.    DCD    40894745
        0x0000e9bc:    00bb0270    p...    DCD    12255856
    $t.5
        0x0000e9c0:    981d        ..      LDR      r0,[sp,#0x74]
        0x0000e9c2:    1d01        ..      ADDS     r1,r0,#4
        0x0000e9c4:    911d        ..      STR      r1,[sp,#0x74]
        0x0000e9c6:    6800        .h      LDR      r0,[r0,#0]
        0x0000e9c8:    f88d0043    ..C.    STRB     r0,[sp,#0x43]
        0x0000e9cc:    981c        ..      LDR      r0,[sp,#0x70]
        0x0000e9ce:    b138        8.      CBZ      r0,0xe9e0 ; am_util_stdio_vsprintf + 448
        0x0000e9d0:    e7ff        ..      B        0xe9d2 ; am_util_stdio_vsprintf + 434
        0x0000e9d2:    f89d0043    ..C.    LDRB     r0,[sp,#0x43]
        0x0000e9d6:    991c        ..      LDR      r1,[sp,#0x70]
        0x0000e9d8:    1c4a        J.      ADDS     r2,r1,#1
        0x0000e9da:    921c        ..      STR      r2,[sp,#0x70]
        0x0000e9dc:    7008        .p      STRB     r0,[r1,#0]
        0x0000e9de:    e7ff        ..      B        0xe9e0 ; am_util_stdio_vsprintf + 448
        0x0000e9e0:    9814        ..      LDR      r0,[sp,#0x50]
        0x0000e9e2:    3001        .0      ADDS     r0,#1
        0x0000e9e4:    9014        ..      STR      r0,[sp,#0x50]
        0x0000e9e6:    e236        6.      B        0xee56 ; am_util_stdio_vsprintf + 1590
        0x0000e9e8:    981d        ..      LDR      r0,[sp,#0x74]
        0x0000e9ea:    1d01        ..      ADDS     r1,r0,#4
        0x0000e9ec:    911d        ..      STR      r1,[sp,#0x74]
        0x0000e9ee:    6800        .h      LDR      r0,[r0,#0]
        0x0000e9f0:    901a        ..      STR      r0,[sp,#0x68]
        0x0000e9f2:    981a        ..      LDR      r0,[sp,#0x68]
        0x0000e9f4:    f001f97a    ..z.    BL       simple_strlen ; 0xfcec
        0x0000e9f8:    900e        ..      STR      r0,[sp,#0x38]
        0x0000e9fa:    9813        ..      LDR      r0,[sp,#0x4c]
        0x0000e9fc:    2801        .(      CMP      r0,#1
        0x0000e9fe:    db25        %.      BLT      0xea4c ; am_util_stdio_vsprintf + 556
        0x0000ea00:    e7ff        ..      B        0xea02 ; am_util_stdio_vsprintf + 482
        0x0000ea02:    980e        ..      LDR      r0,[sp,#0x38]
        0x0000ea04:    9913        ..      LDR      r1,[sp,#0x4c]
        0x0000ea06:    4288        .B      CMP      r0,r1
        0x0000ea08:    d21f        ..      BCS      0xea4a ; am_util_stdio_vsprintf + 554
        0x0000ea0a:    e7ff        ..      B        0xea0c ; am_util_stdio_vsprintf + 492
        0x0000ea0c:    990e        ..      LDR      r1,[sp,#0x38]
        0x0000ea0e:    9813        ..      LDR      r0,[sp,#0x4c]
        0x0000ea10:    1a40        @.      SUBS     r0,r0,r1
        0x0000ea12:    9013        ..      STR      r0,[sp,#0x4c]
        0x0000ea14:    981c        ..      LDR      r0,[sp,#0x70]
        0x0000ea16:    f89d1042    ..B.    LDRB     r1,[sp,#0x42]
        0x0000ea1a:    9a13        ..      LDR      r2,[sp,#0x4c]
        0x0000ea1c:    f001f82a    ..*.    BL       padbuffer ; 0xfa74
        0x0000ea20:    9013        ..      STR      r0,[sp,#0x4c]
        0x0000ea22:    981c        ..      LDR      r0,[sp,#0x70]
        0x0000ea24:    b118        ..      CBZ      r0,0xea2e ; am_util_stdio_vsprintf + 526
        0x0000ea26:    e7ff        ..      B        0xea28 ; am_util_stdio_vsprintf + 520
        0x0000ea28:    9813        ..      LDR      r0,[sp,#0x4c]
        0x0000ea2a:    900a        ..      STR      r0,[sp,#0x28]
        0x0000ea2c:    e002        ..      B        0xea34 ; am_util_stdio_vsprintf + 532
        0x0000ea2e:    2000        .       MOVS     r0,#0
        0x0000ea30:    900a        ..      STR      r0,[sp,#0x28]
        0x0000ea32:    e7ff        ..      B        0xea34 ; am_util_stdio_vsprintf + 532
        0x0000ea34:    990a        ..      LDR      r1,[sp,#0x28]
        0x0000ea36:    981c        ..      LDR      r0,[sp,#0x70]
        0x0000ea38:    4408        .D      ADD      r0,r0,r1
        0x0000ea3a:    901c        ..      STR      r0,[sp,#0x70]
        0x0000ea3c:    9913        ..      LDR      r1,[sp,#0x4c]
        0x0000ea3e:    9814        ..      LDR      r0,[sp,#0x50]
        0x0000ea40:    4408        .D      ADD      r0,r0,r1
        0x0000ea42:    9014        ..      STR      r0,[sp,#0x50]
        0x0000ea44:    2000        .       MOVS     r0,#0
        0x0000ea46:    9013        ..      STR      r0,[sp,#0x4c]
        0x0000ea48:    e7ff        ..      B        0xea4a ; am_util_stdio_vsprintf + 554
        0x0000ea4a:    e7ff        ..      B        0xea4c ; am_util_stdio_vsprintf + 556
        0x0000ea4c:    e7ff        ..      B        0xea4e ; am_util_stdio_vsprintf + 558
        0x0000ea4e:    981a        ..      LDR      r0,[sp,#0x68]
        0x0000ea50:    7800        .x      LDRB     r0,[r0,#0]
        0x0000ea52:    b188        ..      CBZ      r0,0xea78 ; am_util_stdio_vsprintf + 600
        0x0000ea54:    e7ff        ..      B        0xea56 ; am_util_stdio_vsprintf + 566
        0x0000ea56:    981c        ..      LDR      r0,[sp,#0x70]
        0x0000ea58:    b138        8.      CBZ      r0,0xea6a ; am_util_stdio_vsprintf + 586
        0x0000ea5a:    e7ff        ..      B        0xea5c ; am_util_stdio_vsprintf + 572
        0x0000ea5c:    981a        ..      LDR      r0,[sp,#0x68]
        0x0000ea5e:    7800        .x      LDRB     r0,[r0,#0]
        0x0000ea60:    991c        ..      LDR      r1,[sp,#0x70]
        0x0000ea62:    1c4a        J.      ADDS     r2,r1,#1
        0x0000ea64:    921c        ..      STR      r2,[sp,#0x70]
        0x0000ea66:    7008        .p      STRB     r0,[r1,#0]
        0x0000ea68:    e7ff        ..      B        0xea6a ; am_util_stdio_vsprintf + 586
        0x0000ea6a:    981a        ..      LDR      r0,[sp,#0x68]
        0x0000ea6c:    3001        .0      ADDS     r0,#1
        0x0000ea6e:    901a        ..      STR      r0,[sp,#0x68]
        0x0000ea70:    9814        ..      LDR      r0,[sp,#0x50]
        0x0000ea72:    3001        .0      ADDS     r0,#1
        0x0000ea74:    9014        ..      STR      r0,[sp,#0x50]
        0x0000ea76:    e7ea        ..      B        0xea4e ; am_util_stdio_vsprintf + 558
        0x0000ea78:    9813        ..      LDR      r0,[sp,#0x4c]
        0x0000ea7a:    b340        @.      CBZ      r0,0xeace ; am_util_stdio_vsprintf + 686
        0x0000ea7c:    e7ff        ..      B        0xea7e ; am_util_stdio_vsprintf + 606
        0x0000ea7e:    9813        ..      LDR      r0,[sp,#0x4c]
        0x0000ea80:    4240        @B      RSBS     r0,r0,#0
        0x0000ea82:    9013        ..      STR      r0,[sp,#0x4c]
        0x0000ea84:    980e        ..      LDR      r0,[sp,#0x38]
        0x0000ea86:    9913        ..      LDR      r1,[sp,#0x4c]
        0x0000ea88:    4288        .B      CMP      r0,r1
        0x0000ea8a:    d21f        ..      BCS      0xeacc ; am_util_stdio_vsprintf + 684
        0x0000ea8c:    e7ff        ..      B        0xea8e ; am_util_stdio_vsprintf + 622
        0x0000ea8e:    990e        ..      LDR      r1,[sp,#0x38]
        0x0000ea90:    9813        ..      LDR      r0,[sp,#0x4c]
        0x0000ea92:    1a40        @.      SUBS     r0,r0,r1
        0x0000ea94:    9013        ..      STR      r0,[sp,#0x4c]
        0x0000ea96:    981c        ..      LDR      r0,[sp,#0x70]
        0x0000ea98:    f89d1042    ..B.    LDRB     r1,[sp,#0x42]
        0x0000ea9c:    9a13        ..      LDR      r2,[sp,#0x4c]
        0x0000ea9e:    f000ffe9    ....    BL       padbuffer ; 0xfa74
        0x0000eaa2:    9013        ..      STR      r0,[sp,#0x4c]
        0x0000eaa4:    981c        ..      LDR      r0,[sp,#0x70]
        0x0000eaa6:    b118        ..      CBZ      r0,0xeab0 ; am_util_stdio_vsprintf + 656
        0x0000eaa8:    e7ff        ..      B        0xeaaa ; am_util_stdio_vsprintf + 650
        0x0000eaaa:    9813        ..      LDR      r0,[sp,#0x4c]
        0x0000eaac:    9009        ..      STR      r0,[sp,#0x24]
        0x0000eaae:    e002        ..      B        0xeab6 ; am_util_stdio_vsprintf + 662
        0x0000eab0:    2000        .       MOVS     r0,#0
        0x0000eab2:    9009        ..      STR      r0,[sp,#0x24]
        0x0000eab4:    e7ff        ..      B        0xeab6 ; am_util_stdio_vsprintf + 662
        0x0000eab6:    9909        ..      LDR      r1,[sp,#0x24]
        0x0000eab8:    981c        ..      LDR      r0,[sp,#0x70]
        0x0000eaba:    4408        .D      ADD      r0,r0,r1
        0x0000eabc:    901c        ..      STR      r0,[sp,#0x70]
        0x0000eabe:    9913        ..      LDR      r1,[sp,#0x4c]
        0x0000eac0:    9814        ..      LDR      r0,[sp,#0x50]
        0x0000eac2:    4408        .D      ADD      r0,r0,r1
        0x0000eac4:    9014        ..      STR      r0,[sp,#0x50]
        0x0000eac6:    2000        .       MOVS     r0,#0
        0x0000eac8:    9013        ..      STR      r0,[sp,#0x4c]
        0x0000eaca:    e7ff        ..      B        0xeacc ; am_util_stdio_vsprintf + 684
        0x0000eacc:    e7ff        ..      B        0xeace ; am_util_stdio_vsprintf + 686
        0x0000eace:    e1c2        ..      B        0xee56 ; am_util_stdio_vsprintf + 1590
        0x0000ead0:    2001        .       MOVS     r0,#1
        0x0000ead2:    f88d0041    ..A.    STRB     r0,[sp,#0x41]
        0x0000ead6:    e7ff        ..      B        0xead8 ; am_util_stdio_vsprintf + 696
        0x0000ead8:    f89d0040    ..@.    LDRB     r0,[sp,#0x40]
        0x0000eadc:    07c0        ..      LSLS     r0,r0,#31
        0x0000eade:    b160        `.      CBZ      r0,0xeafa ; am_util_stdio_vsprintf + 730
        0x0000eae0:    e7ff        ..      B        0xeae2 ; am_util_stdio_vsprintf + 706
        0x0000eae2:    981d        ..      LDR      r0,[sp,#0x74]
        0x0000eae4:    3007        .0      ADDS     r0,#7
        0x0000eae6:    f0200007     ...    BIC      r0,r0,#7
        0x0000eaea:    f1000108    ....    ADD      r1,r0,#8
        0x0000eaee:    911d        ..      STR      r1,[sp,#0x74]
        0x0000eaf0:    6801        .h      LDR      r1,[r0,#0]
        0x0000eaf2:    6840        @h      LDR      r0,[r0,#4]
        0x0000eaf4:    9107        ..      STR      r1,[sp,#0x1c]
        0x0000eaf6:    9008        ..      STR      r0,[sp,#0x20]
        0x0000eaf8:    e007        ..      B        0xeb0a ; am_util_stdio_vsprintf + 746
        0x0000eafa:    981d        ..      LDR      r0,[sp,#0x74]
        0x0000eafc:    1d01        ..      ADDS     r1,r0,#4
        0x0000eafe:    911d        ..      STR      r1,[sp,#0x74]
        0x0000eb00:    6801        .h      LDR      r1,[r0,#0]
        0x0000eb02:    2000        .       MOVS     r0,#0
        0x0000eb04:    9107        ..      STR      r1,[sp,#0x1c]
        0x0000eb06:    9008        ..      STR      r0,[sp,#0x20]
        0x0000eb08:    e7ff        ..      B        0xeb0a ; am_util_stdio_vsprintf + 746
        0x0000eb0a:    9907        ..      LDR      r1,[sp,#0x1c]
        0x0000eb0c:    9808        ..      LDR      r0,[sp,#0x20]
        0x0000eb0e:    9118        ..      STR      r1,[sp,#0x60]
        0x0000eb10:    9019        ..      STR      r0,[sp,#0x64]
        0x0000eb12:    9813        ..      LDR      r0,[sp,#0x4c]
        0x0000eb14:    b318        ..      CBZ      r0,0xeb5e ; am_util_stdio_vsprintf + 830
        0x0000eb16:    e7ff        ..      B        0xeb18 ; am_util_stdio_vsprintf + 760
        0x0000eb18:    9818        ..      LDR      r0,[sp,#0x60]
        0x0000eb1a:    9919        ..      LDR      r1,[sp,#0x64]
        0x0000eb1c:    f000ff54    ..T.    BL       ndigits_in_hex ; 0xf9c8
        0x0000eb20:    4601        .F      MOV      r1,r0
        0x0000eb22:    9813        ..      LDR      r0,[sp,#0x4c]
        0x0000eb24:    1a40        @.      SUBS     r0,r0,r1
        0x0000eb26:    9013        ..      STR      r0,[sp,#0x4c]
        0x0000eb28:    981c        ..      LDR      r0,[sp,#0x70]
        0x0000eb2a:    f89d1042    ..B.    LDRB     r1,[sp,#0x42]
        0x0000eb2e:    9a13        ..      LDR      r2,[sp,#0x4c]
        0x0000eb30:    f000ffa0    ....    BL       padbuffer ; 0xfa74
        0x0000eb34:    9013        ..      STR      r0,[sp,#0x4c]
        0x0000eb36:    981c        ..      LDR      r0,[sp,#0x70]
        0x0000eb38:    b118        ..      CBZ      r0,0xeb42 ; am_util_stdio_vsprintf + 802
        0x0000eb3a:    e7ff        ..      B        0xeb3c ; am_util_stdio_vsprintf + 796
        0x0000eb3c:    9813        ..      LDR      r0,[sp,#0x4c]
        0x0000eb3e:    9006        ..      STR      r0,[sp,#0x18]
        0x0000eb40:    e002        ..      B        0xeb48 ; am_util_stdio_vsprintf + 808
        0x0000eb42:    2000        .       MOVS     r0,#0
        0x0000eb44:    9006        ..      STR      r0,[sp,#0x18]
        0x0000eb46:    e7ff        ..      B        0xeb48 ; am_util_stdio_vsprintf + 808
        0x0000eb48:    9906        ..      LDR      r1,[sp,#0x18]
        0x0000eb4a:    981c        ..      LDR      r0,[sp,#0x70]
        0x0000eb4c:    4408        .D      ADD      r0,r0,r1
        0x0000eb4e:    901c        ..      STR      r0,[sp,#0x70]
        0x0000eb50:    9913        ..      LDR      r1,[sp,#0x4c]
        0x0000eb52:    9814        ..      LDR      r0,[sp,#0x50]
        0x0000eb54:    4408        .D      ADD      r0,r0,r1
        0x0000eb56:    9014        ..      STR      r0,[sp,#0x50]
        0x0000eb58:    2000        .       MOVS     r0,#0
        0x0000eb5a:    9013        ..      STR      r0,[sp,#0x4c]
        0x0000eb5c:    e7ff        ..      B        0xeb5e ; am_util_stdio_vsprintf + 830
        0x0000eb5e:    9818        ..      LDR      r0,[sp,#0x60]
        0x0000eb60:    9919        ..      LDR      r1,[sp,#0x64]
        0x0000eb62:    9a1c        ..      LDR      r2,[sp,#0x70]
        0x0000eb64:    f89d3041    ..A0    LDRB     r3,[sp,#0x41]
        0x0000eb68:    f0030301    ....    AND      r3,r3,#1
        0x0000eb6c:    f001f8da    ....    BL       uint64_to_hexstr ; 0xfd24
        0x0000eb70:    9012        ..      STR      r0,[sp,#0x48]
        0x0000eb72:    981c        ..      LDR      r0,[sp,#0x70]
        0x0000eb74:    b128        (.      CBZ      r0,0xeb82 ; am_util_stdio_vsprintf + 866
        0x0000eb76:    e7ff        ..      B        0xeb78 ; am_util_stdio_vsprintf + 856
        0x0000eb78:    9912        ..      LDR      r1,[sp,#0x48]
        0x0000eb7a:    981c        ..      LDR      r0,[sp,#0x70]
        0x0000eb7c:    4408        .D      ADD      r0,r0,r1
        0x0000eb7e:    901c        ..      STR      r0,[sp,#0x70]
        0x0000eb80:    e7ff        ..      B        0xeb82 ; am_util_stdio_vsprintf + 866
        0x0000eb82:    9912        ..      LDR      r1,[sp,#0x48]
        0x0000eb84:    9814        ..      LDR      r0,[sp,#0x50]
        0x0000eb86:    4408        .D      ADD      r0,r0,r1
        0x0000eb88:    9014        ..      STR      r0,[sp,#0x50]
        0x0000eb8a:    e164        d.      B        0xee56 ; am_util_stdio_vsprintf + 1590
        0x0000eb8c:    f89d0040    ..@.    LDRB     r0,[sp,#0x40]
        0x0000eb90:    07c0        ..      LSLS     r0,r0,#31
        0x0000eb92:    b160        `.      CBZ      r0,0xebae ; am_util_stdio_vsprintf + 910
        0x0000eb94:    e7ff        ..      B        0xeb96 ; am_util_stdio_vsprintf + 886
        0x0000eb96:    981d        ..      LDR      r0,[sp,#0x74]
        0x0000eb98:    3007        .0      ADDS     r0,#7
        0x0000eb9a:    f0200007     ...    BIC      r0,r0,#7
        0x0000eb9e:    f1000108    ....    ADD      r1,r0,#8
        0x0000eba2:    911d        ..      STR      r1,[sp,#0x74]
        0x0000eba4:    6801        .h      LDR      r1,[r0,#0]
        0x0000eba6:    6840        @h      LDR      r0,[r0,#4]
        0x0000eba8:    9104        ..      STR      r1,[sp,#0x10]
        0x0000ebaa:    9005        ..      STR      r0,[sp,#0x14]
        0x0000ebac:    e007        ..      B        0xebbe ; am_util_stdio_vsprintf + 926
        0x0000ebae:    981d        ..      LDR      r0,[sp,#0x74]
        0x0000ebb0:    1d01        ..      ADDS     r1,r0,#4
        0x0000ebb2:    911d        ..      STR      r1,[sp,#0x74]
        0x0000ebb4:    6801        .h      LDR      r1,[r0,#0]
        0x0000ebb6:    2000        .       MOVS     r0,#0
        0x0000ebb8:    9104        ..      STR      r1,[sp,#0x10]
        0x0000ebba:    9005        ..      STR      r0,[sp,#0x14]
        0x0000ebbc:    e7ff        ..      B        0xebbe ; am_util_stdio_vsprintf + 926
        0x0000ebbe:    9904        ..      LDR      r1,[sp,#0x10]
        0x0000ebc0:    9805        ..      LDR      r0,[sp,#0x14]
        0x0000ebc2:    9118        ..      STR      r1,[sp,#0x60]
        0x0000ebc4:    9019        ..      STR      r0,[sp,#0x64]
        0x0000ebc6:    9813        ..      LDR      r0,[sp,#0x4c]
        0x0000ebc8:    b318        ..      CBZ      r0,0xec12 ; am_util_stdio_vsprintf + 1010
        0x0000ebca:    e7ff        ..      B        0xebcc ; am_util_stdio_vsprintf + 940
        0x0000ebcc:    9818        ..      LDR      r0,[sp,#0x60]
        0x0000ebce:    9919        ..      LDR      r1,[sp,#0x64]
        0x0000ebd0:    f000ff32    ..2.    BL       ndigits_in_u64 ; 0xfa38
        0x0000ebd4:    4601        .F      MOV      r1,r0
        0x0000ebd6:    9813        ..      LDR      r0,[sp,#0x4c]
        0x0000ebd8:    1a40        @.      SUBS     r0,r0,r1
        0x0000ebda:    9013        ..      STR      r0,[sp,#0x4c]
        0x0000ebdc:    981c        ..      LDR      r0,[sp,#0x70]
        0x0000ebde:    f89d1042    ..B.    LDRB     r1,[sp,#0x42]
        0x0000ebe2:    9a13        ..      LDR      r2,[sp,#0x4c]
        0x0000ebe4:    f000ff46    ..F.    BL       padbuffer ; 0xfa74
        0x0000ebe8:    9013        ..      STR      r0,[sp,#0x4c]
        0x0000ebea:    981c        ..      LDR      r0,[sp,#0x70]
        0x0000ebec:    b118        ..      CBZ      r0,0xebf6 ; am_util_stdio_vsprintf + 982
        0x0000ebee:    e7ff        ..      B        0xebf0 ; am_util_stdio_vsprintf + 976
        0x0000ebf0:    9813        ..      LDR      r0,[sp,#0x4c]
        0x0000ebf2:    9003        ..      STR      r0,[sp,#0xc]
        0x0000ebf4:    e002        ..      B        0xebfc ; am_util_stdio_vsprintf + 988
        0x0000ebf6:    2000        .       MOVS     r0,#0
        0x0000ebf8:    9003        ..      STR      r0,[sp,#0xc]
        0x0000ebfa:    e7ff        ..      B        0xebfc ; am_util_stdio_vsprintf + 988
        0x0000ebfc:    9903        ..      LDR      r1,[sp,#0xc]
        0x0000ebfe:    981c        ..      LDR      r0,[sp,#0x70]
        0x0000ec00:    4408        .D      ADD      r0,r0,r1
        0x0000ec02:    901c        ..      STR      r0,[sp,#0x70]
        0x0000ec04:    9913        ..      LDR      r1,[sp,#0x4c]
        0x0000ec06:    9814        ..      LDR      r0,[sp,#0x50]
        0x0000ec08:    4408        .D      ADD      r0,r0,r1
        0x0000ec0a:    9014        ..      STR      r0,[sp,#0x50]
        0x0000ec0c:    2000        .       MOVS     r0,#0
        0x0000ec0e:    9013        ..      STR      r0,[sp,#0x4c]
        0x0000ec10:    e7ff        ..      B        0xec12 ; am_util_stdio_vsprintf + 1010
        0x0000ec12:    9818        ..      LDR      r0,[sp,#0x60]
        0x0000ec14:    9919        ..      LDR      r1,[sp,#0x64]
        0x0000ec16:    9a1c        ..      LDR      r2,[sp,#0x70]
        0x0000ec18:    f001f8e4    ....    BL       uint64_to_str ; 0xfde4
        0x0000ec1c:    9012        ..      STR      r0,[sp,#0x48]
        0x0000ec1e:    981c        ..      LDR      r0,[sp,#0x70]
        0x0000ec20:    b128        (.      CBZ      r0,0xec2e ; am_util_stdio_vsprintf + 1038
        0x0000ec22:    e7ff        ..      B        0xec24 ; am_util_stdio_vsprintf + 1028
        0x0000ec24:    9912        ..      LDR      r1,[sp,#0x48]
        0x0000ec26:    981c        ..      LDR      r0,[sp,#0x70]
        0x0000ec28:    4408        .D      ADD      r0,r0,r1
        0x0000ec2a:    901c        ..      STR      r0,[sp,#0x70]
        0x0000ec2c:    e7ff        ..      B        0xec2e ; am_util_stdio_vsprintf + 1038
        0x0000ec2e:    9912        ..      LDR      r1,[sp,#0x48]
        0x0000ec30:    9814        ..      LDR      r0,[sp,#0x50]
        0x0000ec32:    4408        .D      ADD      r0,r0,r1
        0x0000ec34:    9014        ..      STR      r0,[sp,#0x50]
        0x0000ec36:    e10e        ..      B        0xee56 ; am_util_stdio_vsprintf + 1590
        0x0000ec38:    f89d0040    ..@.    LDRB     r0,[sp,#0x40]
        0x0000ec3c:    07c0        ..      LSLS     r0,r0,#31
        0x0000ec3e:    b160        `.      CBZ      r0,0xec5a ; am_util_stdio_vsprintf + 1082
        0x0000ec40:    e7ff        ..      B        0xec42 ; am_util_stdio_vsprintf + 1058
        0x0000ec42:    981d        ..      LDR      r0,[sp,#0x74]
        0x0000ec44:    3007        .0      ADDS     r0,#7
        0x0000ec46:    f0200007     ...    BIC      r0,r0,#7
        0x0000ec4a:    f1000108    ....    ADD      r1,r0,#8
        0x0000ec4e:    911d        ..      STR      r1,[sp,#0x74]
        0x0000ec50:    6801        .h      LDR      r1,[r0,#0]
        0x0000ec52:    6840        @h      LDR      r0,[r0,#4]
        0x0000ec54:    9101        ..      STR      r1,[sp,#4]
        0x0000ec56:    9002        ..      STR      r0,[sp,#8]
        0x0000ec58:    e007        ..      B        0xec6a ; am_util_stdio_vsprintf + 1098
        0x0000ec5a:    981d        ..      LDR      r0,[sp,#0x74]
        0x0000ec5c:    1d01        ..      ADDS     r1,r0,#4
        0x0000ec5e:    911d        ..      STR      r1,[sp,#0x74]
        0x0000ec60:    6801        .h      LDR      r1,[r0,#0]
        0x0000ec62:    17c8        ..      ASRS     r0,r1,#31
        0x0000ec64:    9101        ..      STR      r1,[sp,#4]
        0x0000ec66:    9002        ..      STR      r0,[sp,#8]
        0x0000ec68:    e7ff        ..      B        0xec6a ; am_util_stdio_vsprintf + 1098
        0x0000ec6a:    9901        ..      LDR      r1,[sp,#4]
        0x0000ec6c:    9802        ..      LDR      r0,[sp,#8]
        0x0000ec6e:    9116        ..      STR      r1,[sp,#0x58]
        0x0000ec70:    9017        ..      STR      r0,[sp,#0x5c]
        0x0000ec72:    9817        ..      LDR      r0,[sp,#0x5c]
        0x0000ec74:    f1b03fff    ...?    CMP      r0,#0xffffffff
        0x0000ec78:    dc0c        ..      BGT      0xec94 ; am_util_stdio_vsprintf + 1140
        0x0000ec7a:    e7ff        ..      B        0xec7c ; am_util_stdio_vsprintf + 1116
        0x0000ec7c:    9816        ..      LDR      r0,[sp,#0x58]
        0x0000ec7e:    9a17        ..      LDR      r2,[sp,#0x5c]
        0x0000ec80:    4241        AB      RSBS     r1,r0,#0
        0x0000ec82:    f04f0000    O...    MOV      r0,#0
        0x0000ec86:    4190        .A      SBCS     r0,r0,r2
        0x0000ec88:    9118        ..      STR      r1,[sp,#0x60]
        0x0000ec8a:    9019        ..      STR      r0,[sp,#0x64]
        0x0000ec8c:    2001        .       MOVS     r0,#1
        0x0000ec8e:    f88d003f    ..?.    STRB     r0,[sp,#0x3f]
        0x0000ec92:    e007        ..      B        0xeca4 ; am_util_stdio_vsprintf + 1156
        0x0000ec94:    9816        ..      LDR      r0,[sp,#0x58]
        0x0000ec96:    9917        ..      LDR      r1,[sp,#0x5c]
        0x0000ec98:    9119        ..      STR      r1,[sp,#0x64]
        0x0000ec9a:    9018        ..      STR      r0,[sp,#0x60]
        0x0000ec9c:    2000        .       MOVS     r0,#0
        0x0000ec9e:    f88d003f    ..?.    STRB     r0,[sp,#0x3f]
        0x0000eca2:    e7ff        ..      B        0xeca4 ; am_util_stdio_vsprintf + 1156
        0x0000eca4:    9813        ..      LDR      r0,[sp,#0x4c]
        0x0000eca6:    2800        .(      CMP      r0,#0
        0x0000eca8:    d055        U.      BEQ      0xed56 ; am_util_stdio_vsprintf + 1334
        0x0000ecaa:    e7ff        ..      B        0xecac ; am_util_stdio_vsprintf + 1164
        0x0000ecac:    9818        ..      LDR      r0,[sp,#0x60]
        0x0000ecae:    9919        ..      LDR      r1,[sp,#0x64]
        0x0000ecb0:    f000feaa    ....    BL       ndigits_in_i64 ; 0xfa08
        0x0000ecb4:    4601        .F      MOV      r1,r0
        0x0000ecb6:    9813        ..      LDR      r0,[sp,#0x4c]
        0x0000ecb8:    1a40        @.      SUBS     r0,r0,r1
        0x0000ecba:    9013        ..      STR      r0,[sp,#0x4c]
        0x0000ecbc:    f89d003f    ..?.    LDRB     r0,[sp,#0x3f]
        0x0000ecc0:    07c0        ..      LSLS     r0,r0,#31
        0x0000ecc2:    b1b0        ..      CBZ      r0,0xecf2 ; am_util_stdio_vsprintf + 1234
        0x0000ecc4:    e7ff        ..      B        0xecc6 ; am_util_stdio_vsprintf + 1190
        0x0000ecc6:    9813        ..      LDR      r0,[sp,#0x4c]
        0x0000ecc8:    3801        .8      SUBS     r0,#1
        0x0000ecca:    9013        ..      STR      r0,[sp,#0x4c]
        0x0000eccc:    f89d0042    ..B.    LDRB     r0,[sp,#0x42]
        0x0000ecd0:    2830        0(      CMP      r0,#0x30
        0x0000ecd2:    d10d        ..      BNE      0xecf0 ; am_util_stdio_vsprintf + 1232
        0x0000ecd4:    e7ff        ..      B        0xecd6 ; am_util_stdio_vsprintf + 1206
        0x0000ecd6:    981c        ..      LDR      r0,[sp,#0x70]
        0x0000ecd8:    b130        0.      CBZ      r0,0xece8 ; am_util_stdio_vsprintf + 1224
        0x0000ecda:    e7ff        ..      B        0xecdc ; am_util_stdio_vsprintf + 1212
        0x0000ecdc:    991c        ..      LDR      r1,[sp,#0x70]
        0x0000ecde:    1c48        H.      ADDS     r0,r1,#1
        0x0000ece0:    901c        ..      STR      r0,[sp,#0x70]
        0x0000ece2:    202d        -       MOVS     r0,#0x2d
        0x0000ece4:    7008        .p      STRB     r0,[r1,#0]
        0x0000ece6:    e7ff        ..      B        0xece8 ; am_util_stdio_vsprintf + 1224
        0x0000ece8:    9814        ..      LDR      r0,[sp,#0x50]
        0x0000ecea:    3001        .0      ADDS     r0,#1
        0x0000ecec:    9014        ..      STR      r0,[sp,#0x50]
        0x0000ecee:    e7ff        ..      B        0xecf0 ; am_util_stdio_vsprintf + 1232
        0x0000ecf0:    e7ff        ..      B        0xecf2 ; am_util_stdio_vsprintf + 1234
        0x0000ecf2:    981c        ..      LDR      r0,[sp,#0x70]
        0x0000ecf4:    f89d1042    ..B.    LDRB     r1,[sp,#0x42]
        0x0000ecf8:    9a13        ..      LDR      r2,[sp,#0x4c]
        0x0000ecfa:    f000febb    ....    BL       padbuffer ; 0xfa74
        0x0000ecfe:    9013        ..      STR      r0,[sp,#0x4c]
        0x0000ed00:    981c        ..      LDR      r0,[sp,#0x70]
        0x0000ed02:    b118        ..      CBZ      r0,0xed0c ; am_util_stdio_vsprintf + 1260
        0x0000ed04:    e7ff        ..      B        0xed06 ; am_util_stdio_vsprintf + 1254
        0x0000ed06:    9813        ..      LDR      r0,[sp,#0x4c]
        0x0000ed08:    9000        ..      STR      r0,[sp,#0]
        0x0000ed0a:    e002        ..      B        0xed12 ; am_util_stdio_vsprintf + 1266
        0x0000ed0c:    2000        .       MOVS     r0,#0
        0x0000ed0e:    9000        ..      STR      r0,[sp,#0]
        0x0000ed10:    e7ff        ..      B        0xed12 ; am_util_stdio_vsprintf + 1266
        0x0000ed12:    9900        ..      LDR      r1,[sp,#0]
        0x0000ed14:    981c        ..      LDR      r0,[sp,#0x70]
        0x0000ed16:    4408        .D      ADD      r0,r0,r1
        0x0000ed18:    901c        ..      STR      r0,[sp,#0x70]
        0x0000ed1a:    9913        ..      LDR      r1,[sp,#0x4c]
        0x0000ed1c:    9814        ..      LDR      r0,[sp,#0x50]
        0x0000ed1e:    4408        .D      ADD      r0,r0,r1
        0x0000ed20:    9014        ..      STR      r0,[sp,#0x50]
        0x0000ed22:    2000        .       MOVS     r0,#0
        0x0000ed24:    9013        ..      STR      r0,[sp,#0x4c]
        0x0000ed26:    f89d003f    ..?.    LDRB     r0,[sp,#0x3f]
        0x0000ed2a:    07c0        ..      LSLS     r0,r0,#31
        0x0000ed2c:    b190        ..      CBZ      r0,0xed54 ; am_util_stdio_vsprintf + 1332
        0x0000ed2e:    e7ff        ..      B        0xed30 ; am_util_stdio_vsprintf + 1296
        0x0000ed30:    f89d0042    ..B.    LDRB     r0,[sp,#0x42]
        0x0000ed34:    2820         (      CMP      r0,#0x20
        0x0000ed36:    d10d        ..      BNE      0xed54 ; am_util_stdio_vsprintf + 1332
        0x0000ed38:    e7ff        ..      B        0xed3a ; am_util_stdio_vsprintf + 1306
        0x0000ed3a:    981c        ..      LDR      r0,[sp,#0x70]
        0x0000ed3c:    b130        0.      CBZ      r0,0xed4c ; am_util_stdio_vsprintf + 1324
        0x0000ed3e:    e7ff        ..      B        0xed40 ; am_util_stdio_vsprintf + 1312
        0x0000ed40:    991c        ..      LDR      r1,[sp,#0x70]
        0x0000ed42:    1c48        H.      ADDS     r0,r1,#1
        0x0000ed44:    901c        ..      STR      r0,[sp,#0x70]
        0x0000ed46:    202d        -       MOVS     r0,#0x2d
        0x0000ed48:    7008        .p      STRB     r0,[r1,#0]
        0x0000ed4a:    e7ff        ..      B        0xed4c ; am_util_stdio_vsprintf + 1324
        0x0000ed4c:    9814        ..      LDR      r0,[sp,#0x50]
        0x0000ed4e:    3001        .0      ADDS     r0,#1
        0x0000ed50:    9014        ..      STR      r0,[sp,#0x50]
        0x0000ed52:    e7ff        ..      B        0xed54 ; am_util_stdio_vsprintf + 1332
        0x0000ed54:    e012        ..      B        0xed7c ; am_util_stdio_vsprintf + 1372
        0x0000ed56:    f89d003f    ..?.    LDRB     r0,[sp,#0x3f]
        0x0000ed5a:    07c0        ..      LSLS     r0,r0,#31
        0x0000ed5c:    b168        h.      CBZ      r0,0xed7a ; am_util_stdio_vsprintf + 1370
        0x0000ed5e:    e7ff        ..      B        0xed60 ; am_util_stdio_vsprintf + 1344
        0x0000ed60:    981c        ..      LDR      r0,[sp,#0x70]
        0x0000ed62:    b130        0.      CBZ      r0,0xed72 ; am_util_stdio_vsprintf + 1362
        0x0000ed64:    e7ff        ..      B        0xed66 ; am_util_stdio_vsprintf + 1350
        0x0000ed66:    991c        ..      LDR      r1,[sp,#0x70]
        0x0000ed68:    1c48        H.      ADDS     r0,r1,#1
        0x0000ed6a:    901c        ..      STR      r0,[sp,#0x70]
        0x0000ed6c:    202d        -       MOVS     r0,#0x2d
        0x0000ed6e:    7008        .p      STRB     r0,[r1,#0]
        0x0000ed70:    e7ff        ..      B        0xed72 ; am_util_stdio_vsprintf + 1362
        0x0000ed72:    9814        ..      LDR      r0,[sp,#0x50]
        0x0000ed74:    3001        .0      ADDS     r0,#1
        0x0000ed76:    9014        ..      STR      r0,[sp,#0x50]
        0x0000ed78:    e7ff        ..      B        0xed7a ; am_util_stdio_vsprintf + 1370
        0x0000ed7a:    e7ff        ..      B        0xed7c ; am_util_stdio_vsprintf + 1372
        0x0000ed7c:    9818        ..      LDR      r0,[sp,#0x60]
        0x0000ed7e:    9919        ..      LDR      r1,[sp,#0x64]
        0x0000ed80:    9a1c        ..      LDR      r2,[sp,#0x70]
        0x0000ed82:    f001f82f    ../.    BL       uint64_to_str ; 0xfde4
        0x0000ed86:    9012        ..      STR      r0,[sp,#0x48]
        0x0000ed88:    981c        ..      LDR      r0,[sp,#0x70]
        0x0000ed8a:    b128        (.      CBZ      r0,0xed98 ; am_util_stdio_vsprintf + 1400
        0x0000ed8c:    e7ff        ..      B        0xed8e ; am_util_stdio_vsprintf + 1390
        0x0000ed8e:    9912        ..      LDR      r1,[sp,#0x48]
        0x0000ed90:    981c        ..      LDR      r0,[sp,#0x70]
        0x0000ed92:    4408        .D      ADD      r0,r0,r1
        0x0000ed94:    901c        ..      STR      r0,[sp,#0x70]
        0x0000ed96:    e7ff        ..      B        0xed98 ; am_util_stdio_vsprintf + 1400
        0x0000ed98:    9912        ..      LDR      r1,[sp,#0x48]
        0x0000ed9a:    9814        ..      LDR      r0,[sp,#0x50]
        0x0000ed9c:    4408        .D      ADD      r0,r0,r1
        0x0000ed9e:    9014        ..      STR      r0,[sp,#0x50]
        0x0000eda0:    e059        Y.      B        0xee56 ; am_util_stdio_vsprintf + 1590
        0x0000eda2:    981c        ..      LDR      r0,[sp,#0x70]
        0x0000eda4:    2800        .(      CMP      r0,#0
        0x0000eda6:    d047        G.      BEQ      0xee38 ; am_util_stdio_vsprintf + 1560
        0x0000eda8:    e7ff        ..      B        0xedaa ; am_util_stdio_vsprintf + 1418
        0x0000edaa:    981d        ..      LDR      r0,[sp,#0x74]
        0x0000edac:    3007        .0      ADDS     r0,#7
        0x0000edae:    f0200007     ...    BIC      r0,r0,#7
        0x0000edb2:    f1000108    ....    ADD      r1,r0,#8
        0x0000edb6:    911d        ..      STR      r1,[sp,#0x74]
        0x0000edb8:    ed900b00    ....    VLDR     d0,[r0,#0]
        0x0000edbc:    ec510b10    Q...    VMOV     r0,r1,d0
        0x0000edc0:    f001f8ac    ....    BL       __aeabi_d2f ; 0xff1c
        0x0000edc4:    900d        ..      STR      r0,[sp,#0x34]
        0x0000edc6:    991c        ..      LDR      r1,[sp,#0x70]
        0x0000edc8:    2014        .       MOVS     r0,#0x14
        0x0000edca:    6008        .`      STR      r0,[r1,#0]
        0x0000edcc:    ed9d0a0d    ....    VLDR     s0,[sp,#0x34]
        0x0000edd0:    981c        ..      LDR      r0,[sp,#0x70]
        0x0000edd2:    9911        ..      LDR      r1,[sp,#0x44]
        0x0000edd4:    f000f946    ..F.    BL       ftoa ; 0xf064
        0x0000edd8:    9012        ..      STR      r0,[sp,#0x48]
        0x0000edda:    9812        ..      LDR      r0,[sp,#0x48]
        0x0000eddc:    f1b03fff    ...?    CMP      r0,#0xffffffff
        0x0000ede0:    dc21        !.      BGT      0xee26 ; am_util_stdio_vsprintf + 1542
        0x0000ede2:    e7ff        ..      B        0xede4 ; am_util_stdio_vsprintf + 1476
        0x0000ede4:    9812        ..      LDR      r0,[sp,#0x48]
        0x0000ede6:    3001        .0      ADDS     r0,#1
        0x0000ede8:    b930        0.      CBNZ     r0,0xedf8 ; am_util_stdio_vsprintf + 1496
        0x0000edea:    e7ff        ..      B        0xedec ; am_util_stdio_vsprintf + 1484
        0x0000edec:    f6426030    B.0`    MOV      r0,#0x2e30
        0x0000edf0:    f2c00030    ..0.    MOVT     r0,#0x30
        0x0000edf4:    900c        ..      STR      r0,[sp,#0x30]
        0x0000edf6:    e010        ..      B        0xee1a ; am_util_stdio_vsprintf + 1530
        0x0000edf8:    9812        ..      LDR      r0,[sp,#0x48]
        0x0000edfa:    3002        .0      ADDS     r0,#2
        0x0000edfc:    b930        0.      CBNZ     r0,0xee0c ; am_util_stdio_vsprintf + 1516
        0x0000edfe:    e7ff        ..      B        0xee00 ; am_util_stdio_vsprintf + 1504
        0x0000ee00:    f6426023    B.#`    MOV      r0,#0x2e23
        0x0000ee04:    f2c00023    ..#.    MOVT     r0,#0x23
        0x0000ee08:    900c        ..      STR      r0,[sp,#0x30]
        0x0000ee0a:    e005        ..      B        0xee18 ; am_util_stdio_vsprintf + 1528
        0x0000ee0c:    f642603f    B.?`    MOV      r0,#0x2e3f
        0x0000ee10:    f2c0003f    ..?.    MOVT     r0,#0x3f
        0x0000ee14:    900c        ..      STR      r0,[sp,#0x30]
        0x0000ee16:    e7ff        ..      B        0xee18 ; am_util_stdio_vsprintf + 1528
        0x0000ee18:    e7ff        ..      B        0xee1a ; am_util_stdio_vsprintf + 1530
        0x0000ee1a:    980c        ..      LDR      r0,[sp,#0x30]
        0x0000ee1c:    991c        ..      LDR      r1,[sp,#0x70]
        0x0000ee1e:    6008        .`      STR      r0,[r1,#0]
        0x0000ee20:    2003        .       MOVS     r0,#3
        0x0000ee22:    9012        ..      STR      r0,[sp,#0x48]
        0x0000ee24:    e7ff        ..      B        0xee26 ; am_util_stdio_vsprintf + 1542
        0x0000ee26:    9912        ..      LDR      r1,[sp,#0x48]
        0x0000ee28:    9814        ..      LDR      r0,[sp,#0x50]
        0x0000ee2a:    4408        .D      ADD      r0,r0,r1
        0x0000ee2c:    9014        ..      STR      r0,[sp,#0x50]
        0x0000ee2e:    9912        ..      LDR      r1,[sp,#0x48]
        0x0000ee30:    981c        ..      LDR      r0,[sp,#0x70]
        0x0000ee32:    4408        .D      ADD      r0,r0,r1
        0x0000ee34:    901c        ..      STR      r0,[sp,#0x70]
        0x0000ee36:    e7ff        ..      B        0xee38 ; am_util_stdio_vsprintf + 1560
        0x0000ee38:    e00d        ..      B        0xee56 ; am_util_stdio_vsprintf + 1590
        0x0000ee3a:    981c        ..      LDR      r0,[sp,#0x70]
        0x0000ee3c:    b138        8.      CBZ      r0,0xee4e ; am_util_stdio_vsprintf + 1582
        0x0000ee3e:    e7ff        ..      B        0xee40 ; am_util_stdio_vsprintf + 1568
        0x0000ee40:    981b        ..      LDR      r0,[sp,#0x6c]
        0x0000ee42:    7800        .x      LDRB     r0,[r0,#0]
        0x0000ee44:    991c        ..      LDR      r1,[sp,#0x70]
        0x0000ee46:    1c4a        J.      ADDS     r2,r1,#1
        0x0000ee48:    921c        ..      STR      r2,[sp,#0x70]
        0x0000ee4a:    7008        .p      STRB     r0,[r1,#0]
        0x0000ee4c:    e7ff        ..      B        0xee4e ; am_util_stdio_vsprintf + 1582
        0x0000ee4e:    9814        ..      LDR      r0,[sp,#0x50]
        0x0000ee50:    3001        .0      ADDS     r0,#1
        0x0000ee52:    9014        ..      STR      r0,[sp,#0x50]
        0x0000ee54:    e7ff        ..      B        0xee56 ; am_util_stdio_vsprintf + 1590
        0x0000ee56:    981b        ..      LDR      r0,[sp,#0x6c]
        0x0000ee58:    3001        .0      ADDS     r0,#1
        0x0000ee5a:    901b        ..      STR      r0,[sp,#0x6c]
        0x0000ee5c:    f7ffbce9    ....    B.W      0xe832 ; am_util_stdio_vsprintf + 18
        0x0000ee60:    981c        ..      LDR      r0,[sp,#0x70]
        0x0000ee62:    b120         .      CBZ      r0,0xee6e ; am_util_stdio_vsprintf + 1614
        0x0000ee64:    e7ff        ..      B        0xee66 ; am_util_stdio_vsprintf + 1606
        0x0000ee66:    991c        ..      LDR      r1,[sp,#0x70]
        0x0000ee68:    2000        .       MOVS     r0,#0
        0x0000ee6a:    7008        .p      STRB     r0,[r1,#0]
        0x0000ee6c:    e7ff        ..      B        0xee6e ; am_util_stdio_vsprintf + 1614
        0x0000ee6e:    9814        ..      LDR      r0,[sp,#0x50]
        0x0000ee70:    b01e        ..      ADD      sp,sp,#0x78
        0x0000ee72:    bd80        ..      POP      {r7,pc}
    clear_rx_buf
        0x0000ee74:    b081        ..      SUB      sp,sp,#4
        0x0000ee76:    2000        .       MOVS     r0,#0
        0x0000ee78:    9000        ..      STR      r0,[sp,#0]
        0x0000ee7a:    e7ff        ..      B        0xee7c ; clear_rx_buf + 8
        0x0000ee7c:    9900        ..      LDR      r1,[sp,#0]
        0x0000ee7e:    2000        .       MOVS     r0,#0
        0x0000ee80:    ebb02f91    .../    CMP      r0,r1,LSR #10
        0x0000ee84:    d10c        ..      BNE      0xeea0 ; clear_rx_buf + 44
        0x0000ee86:    e7ff        ..      B        0xee88 ; clear_rx_buf + 20
        0x0000ee88:    9a00        ..      LDR      r2,[sp,#0]
        0x0000ee8a:    f6442164    D.d!    MOV      r1,#0x4a64
        0x0000ee8e:    f2c10101    ....    MOVT     r1,#0x1001
        0x0000ee92:    20ee        .       MOVS     r0,#0xee
        0x0000ee94:    5488        .T      STRB     r0,[r1,r2]
        0x0000ee96:    e7ff        ..      B        0xee98 ; clear_rx_buf + 36
        0x0000ee98:    9800        ..      LDR      r0,[sp,#0]
        0x0000ee9a:    3001        .0      ADDS     r0,#1
        0x0000ee9c:    9000        ..      STR      r0,[sp,#0]
        0x0000ee9e:    e7ed        ..      B        0xee7c ; clear_rx_buf + 8
        0x0000eea0:    b001        ..      ADD      sp,sp,#4
        0x0000eea2:    4770        pG      BX       lr
    decstr_to_int
        0x0000eea4:    b087        ..      SUB      sp,sp,#0x1c
        0x0000eea6:    9006        ..      STR      r0,[sp,#0x18]
        0x0000eea8:    9105        ..      STR      r1,[sp,#0x14]
        0x0000eeaa:    2000        .       MOVS     r0,#0
        0x0000eeac:    f88d0013    ....    STRB     r0,[sp,#0x13]
        0x0000eeb0:    9003        ..      STR      r0,[sp,#0xc]
        0x0000eeb2:    9002        ..      STR      r0,[sp,#8]
        0x0000eeb4:    9806        ..      LDR      r0,[sp,#0x18]
        0x0000eeb6:    7800        .x      LDRB     r0,[r0,#0]
        0x0000eeb8:    282d        -(      CMP      r0,#0x2d
        0x0000eeba:    d10a        ..      BNE      0xeed2 ; decstr_to_int + 46
        0x0000eebc:    e7ff        ..      B        0xeebe ; decstr_to_int + 26
        0x0000eebe:    2001        .       MOVS     r0,#1
        0x0000eec0:    f88d0013    ....    STRB     r0,[sp,#0x13]
        0x0000eec4:    9806        ..      LDR      r0,[sp,#0x18]
        0x0000eec6:    3001        .0      ADDS     r0,#1
        0x0000eec8:    9006        ..      STR      r0,[sp,#0x18]
        0x0000eeca:    9802        ..      LDR      r0,[sp,#8]
        0x0000eecc:    3001        .0      ADDS     r0,#1
        0x0000eece:    9002        ..      STR      r0,[sp,#8]
        0x0000eed0:    e7ff        ..      B        0xeed2 ; decstr_to_int + 46
        0x0000eed2:    e7ff        ..      B        0xeed4 ; decstr_to_int + 48
        0x0000eed4:    9806        ..      LDR      r0,[sp,#0x18]
        0x0000eed6:    7801        .x      LDRB     r1,[r0,#0]
        0x0000eed8:    2000        .       MOVS     r0,#0
        0x0000eeda:    2930        0)      CMP      r1,#0x30
        0x0000eedc:    9001        ..      STR      r0,[sp,#4]
        0x0000eede:    db08        ..      BLT      0xeef2 ; decstr_to_int + 78
        0x0000eee0:    e7ff        ..      B        0xeee2 ; decstr_to_int + 62
        0x0000eee2:    9806        ..      LDR      r0,[sp,#0x18]
        0x0000eee4:    7801        .x      LDRB     r1,[r0,#0]
        0x0000eee6:    2000        .       MOVS     r0,#0
        0x0000eee8:    293a        :)      CMP      r1,#0x3a
        0x0000eeea:    bfb8        ..      IT       LT
        0x0000eeec:    2001        .       MOVLT    r0,#1
        0x0000eeee:    9001        ..      STR      r0,[sp,#4]
        0x0000eef0:    e7ff        ..      B        0xeef2 ; decstr_to_int + 78
        0x0000eef2:    9801        ..      LDR      r0,[sp,#4]
        0x0000eef4:    07c0        ..      LSLS     r0,r0,#31
        0x0000eef6:    b190        ..      CBZ      r0,0xef1e ; decstr_to_int + 122
        0x0000eef8:    e7ff        ..      B        0xeefa ; decstr_to_int + 86
        0x0000eefa:    9802        ..      LDR      r0,[sp,#8]
        0x0000eefc:    3001        .0      ADDS     r0,#1
        0x0000eefe:    9002        ..      STR      r0,[sp,#8]
        0x0000ef00:    9803        ..      LDR      r0,[sp,#0xc]
        0x0000ef02:    eb000080    ....    ADD      r0,r0,r0,LSL #2
        0x0000ef06:    0040        @.      LSLS     r0,r0,#1
        0x0000ef08:    9003        ..      STR      r0,[sp,#0xc]
        0x0000ef0a:    9806        ..      LDR      r0,[sp,#0x18]
        0x0000ef0c:    7800        .x      LDRB     r0,[r0,#0]
        0x0000ef0e:    9903        ..      LDR      r1,[sp,#0xc]
        0x0000ef10:    4408        .D      ADD      r0,r0,r1
        0x0000ef12:    3830        08      SUBS     r0,r0,#0x30
        0x0000ef14:    9003        ..      STR      r0,[sp,#0xc]
        0x0000ef16:    9806        ..      LDR      r0,[sp,#0x18]
        0x0000ef18:    3001        .0      ADDS     r0,#1
        0x0000ef1a:    9006        ..      STR      r0,[sp,#0x18]
        0x0000ef1c:    e7da        ..      B        0xeed4 ; decstr_to_int + 48
        0x0000ef1e:    9805        ..      LDR      r0,[sp,#0x14]
        0x0000ef20:    b120         .      CBZ      r0,0xef2c ; decstr_to_int + 136
        0x0000ef22:    e7ff        ..      B        0xef24 ; decstr_to_int + 128
        0x0000ef24:    9802        ..      LDR      r0,[sp,#8]
        0x0000ef26:    9905        ..      LDR      r1,[sp,#0x14]
        0x0000ef28:    6008        .`      STR      r0,[r1,#0]
        0x0000ef2a:    e7ff        ..      B        0xef2c ; decstr_to_int + 136
        0x0000ef2c:    f89d0013    ....    LDRB     r0,[sp,#0x13]
        0x0000ef30:    07c0        ..      LSLS     r0,r0,#31
        0x0000ef32:    b120         .      CBZ      r0,0xef3e ; decstr_to_int + 154
        0x0000ef34:    e7ff        ..      B        0xef36 ; decstr_to_int + 146
        0x0000ef36:    9803        ..      LDR      r0,[sp,#0xc]
        0x0000ef38:    4240        @B      RSBS     r0,r0,#0
        0x0000ef3a:    9000        ..      STR      r0,[sp,#0]
        0x0000ef3c:    e002        ..      B        0xef44 ; decstr_to_int + 160
        0x0000ef3e:    9803        ..      LDR      r0,[sp,#0xc]
        0x0000ef40:    9000        ..      STR      r0,[sp,#0]
        0x0000ef42:    e7ff        ..      B        0xef44 ; decstr_to_int + 160
        0x0000ef44:    9800        ..      LDR      r0,[sp,#0]
        0x0000ef46:    b007        ..      ADD      sp,sp,#0x1c
        0x0000ef48:    4770        pG      BX       lr
        0x0000ef4a:    0000        ..      MOVS     r0,r0
    divu64_10
        0x0000ef4c:    b08c        ..      SUB      sp,sp,#0x30
        0x0000ef4e:    9109        ..      STR      r1,[sp,#0x24]
        0x0000ef50:    9008        ..      STR      r0,[sp,#0x20]
        0x0000ef52:    9809        ..      LDR      r0,[sp,#0x24]
        0x0000ef54:    2800        .(      CMP      r0,#0
        0x0000ef56:    d05b        [.      BEQ      0xf010 ; divu64_10 + 196
        0x0000ef58:    e7ff        ..      B        0xef5a ; divu64_10 + 14
        0x0000ef5a:    9b08        ..      LDR      r3,[sp,#0x20]
        0x0000ef5c:    9a09        ..      LDR      r2,[sp,#0x24]
        0x0000ef5e:    ea5f0052    _.R.    LSRS.W   r0,r2,#1
        0x0000ef62:    ea4f0133    O.3.    RRX      r1,r3
        0x0000ef66:    089b        ..      LSRS     r3,r3,#2
        0x0000ef68:    ea437382    C..s    ORR      r3,r3,r2,LSL #30
        0x0000ef6c:    18c9        ..      ADDS     r1,r1,r3
        0x0000ef6e:    eb400092    @...    ADC      r0,r0,r2,LSR #2
        0x0000ef72:    9106        ..      STR      r1,[sp,#0x18]
        0x0000ef74:    9007        ..      STR      r0,[sp,#0x1c]
        0x0000ef76:    9906        ..      LDR      r1,[sp,#0x18]
        0x0000ef78:    9807        ..      LDR      r0,[sp,#0x1c]
        0x0000ef7a:    090a        ..      LSRS     r2,r1,#4
        0x0000ef7c:    ea427200    B..r    ORR      r2,r2,r0,LSL #28
        0x0000ef80:    1889        ..      ADDS     r1,r1,r2
        0x0000ef82:    eb401010    @...    ADC      r0,r0,r0,LSR #4
        0x0000ef86:    9106        ..      STR      r1,[sp,#0x18]
        0x0000ef88:    9007        ..      STR      r0,[sp,#0x1c]
        0x0000ef8a:    9906        ..      LDR      r1,[sp,#0x18]
        0x0000ef8c:    9807        ..      LDR      r0,[sp,#0x1c]
        0x0000ef8e:    0a0a        ..      LSRS     r2,r1,#8
        0x0000ef90:    ea426200    B..b    ORR      r2,r2,r0,LSL #24
        0x0000ef94:    1889        ..      ADDS     r1,r1,r2
        0x0000ef96:    eb402010    @..     ADC      r0,r0,r0,LSR #8
        0x0000ef9a:    9106        ..      STR      r1,[sp,#0x18]
        0x0000ef9c:    9007        ..      STR      r0,[sp,#0x1c]
        0x0000ef9e:    9906        ..      LDR      r1,[sp,#0x18]
        0x0000efa0:    9807        ..      LDR      r0,[sp,#0x1c]
        0x0000efa2:    0c0a        ..      LSRS     r2,r1,#16
        0x0000efa4:    ea424200    B..B    ORR      r2,r2,r0,LSL #16
        0x0000efa8:    1889        ..      ADDS     r1,r1,r2
        0x0000efaa:    eb404010    @..@    ADC      r0,r0,r0,LSR #16
        0x0000efae:    9106        ..      STR      r1,[sp,#0x18]
        0x0000efb0:    9007        ..      STR      r0,[sp,#0x1c]
        0x0000efb2:    9906        ..      LDR      r1,[sp,#0x18]
        0x0000efb4:    9807        ..      LDR      r0,[sp,#0x1c]
        0x0000efb6:    1809        ..      ADDS     r1,r1,r0
        0x0000efb8:    f1400000    @...    ADC      r0,r0,#0
        0x0000efbc:    9106        ..      STR      r1,[sp,#0x18]
        0x0000efbe:    9007        ..      STR      r0,[sp,#0x1c]
        0x0000efc0:    9806        ..      LDR      r0,[sp,#0x18]
        0x0000efc2:    9907        ..      LDR      r1,[sp,#0x1c]
        0x0000efc4:    08c0        ..      LSRS     r0,r0,#3
        0x0000efc6:    ea407041    @.Ap    ORR      r0,r0,r1,LSL #29
        0x0000efca:    08c9        ..      LSRS     r1,r1,#3
        0x0000efcc:    9107        ..      STR      r1,[sp,#0x1c]
        0x0000efce:    9006        ..      STR      r0,[sp,#0x18]
        0x0000efd0:    9908        ..      LDR      r1,[sp,#0x20]
        0x0000efd2:    9809        ..      LDR      r0,[sp,#0x24]
        0x0000efd4:    9a06        ..      LDR      r2,[sp,#0x18]
        0x0000efd6:    f8ddc01c    ....    LDR      r12,[sp,#0x1c]
        0x0000efda:    230a        .#      MOVS     r3,#0xa
        0x0000efdc:    fba23203    ...2    UMULL    r3,r2,r2,r3
        0x0000efe0:    eb0c0c8c    ....    ADD      r12,r12,r12,LSL #2
        0x0000efe4:    eb02024c    ..L.    ADD      r2,r2,r12,LSL #1
        0x0000efe8:    1ac9        ..      SUBS     r1,r1,r3
        0x0000efea:    4190        .A      SBCS     r0,r0,r2
        0x0000efec:    9104        ..      STR      r1,[sp,#0x10]
        0x0000efee:    9005        ..      STR      r0,[sp,#0x14]
        0x0000eff0:    9906        ..      LDR      r1,[sp,#0x18]
        0x0000eff2:    9807        ..      LDR      r0,[sp,#0x1c]
        0x0000eff4:    9b04        ..      LDR      r3,[sp,#0x10]
        0x0000eff6:    9a05        ..      LDR      r2,[sp,#0x14]
        0x0000eff8:    3306        .3      ADDS     r3,#6
        0x0000effa:    f1420200    B...    ADC      r2,r2,#0
        0x0000effe:    091b        ..      LSRS     r3,r3,#4
        0x0000f000:    ea437302    C..s    ORR      r3,r3,r2,LSL #28
        0x0000f004:    18c9        ..      ADDS     r1,r1,r3
        0x0000f006:    eb401012    @...    ADC      r0,r0,r2,LSR #4
        0x0000f00a:    910a        ..      STR      r1,[sp,#0x28]
        0x0000f00c:    900b        ..      STR      r0,[sp,#0x2c]
        0x0000f00e:    e025        %.      B        0xf05c ; divu64_10 + 272
        0x0000f010:    9808        ..      LDR      r0,[sp,#0x20]
        0x0000f012:    9001        ..      STR      r0,[sp,#4]
        0x0000f014:    9901        ..      LDR      r1,[sp,#4]
        0x0000f016:    0848        H.      LSRS     r0,r1,#1
        0x0000f018:    eb000091    ....    ADD      r0,r0,r1,LSR #2
        0x0000f01c:    9003        ..      STR      r0,[sp,#0xc]
        0x0000f01e:    9803        ..      LDR      r0,[sp,#0xc]
        0x0000f020:    eb001010    ....    ADD      r0,r0,r0,LSR #4
        0x0000f024:    9003        ..      STR      r0,[sp,#0xc]
        0x0000f026:    9803        ..      LDR      r0,[sp,#0xc]
        0x0000f028:    eb002010    ...     ADD      r0,r0,r0,LSR #8
        0x0000f02c:    9003        ..      STR      r0,[sp,#0xc]
        0x0000f02e:    9803        ..      LDR      r0,[sp,#0xc]
        0x0000f030:    eb004010    ...@    ADD      r0,r0,r0,LSR #16
        0x0000f034:    9003        ..      STR      r0,[sp,#0xc]
        0x0000f036:    9803        ..      LDR      r0,[sp,#0xc]
        0x0000f038:    08c0        ..      LSRS     r0,r0,#3
        0x0000f03a:    9003        ..      STR      r0,[sp,#0xc]
        0x0000f03c:    9801        ..      LDR      r0,[sp,#4]
        0x0000f03e:    9903        ..      LDR      r1,[sp,#0xc]
        0x0000f040:    eb010181    ....    ADD      r1,r1,r1,LSL #2
        0x0000f044:    eba00041    ..A.    SUB      r0,r0,r1,LSL #1
        0x0000f048:    9002        ..      STR      r0,[sp,#8]
        0x0000f04a:    9803        ..      LDR      r0,[sp,#0xc]
        0x0000f04c:    9902        ..      LDR      r1,[sp,#8]
        0x0000f04e:    3106        .1      ADDS     r1,#6
        0x0000f050:    eb001011    ....    ADD      r0,r0,r1,LSR #4
        0x0000f054:    2100        .!      MOVS     r1,#0
        0x0000f056:    910b        ..      STR      r1,[sp,#0x2c]
        0x0000f058:    900a        ..      STR      r0,[sp,#0x28]
        0x0000f05a:    e7ff        ..      B        0xf05c ; divu64_10 + 272
        0x0000f05c:    980a        ..      LDR      r0,[sp,#0x28]
        0x0000f05e:    990b        ..      LDR      r1,[sp,#0x2c]
        0x0000f060:    b00c        ..      ADD      sp,sp,#0x30
        0x0000f062:    4770        pG      BX       lr
    ftoa
        0x0000f064:    b580        ..      PUSH     {r7,lr}
        0x0000f066:    b090        ..      SUB      sp,sp,#0x40
        0x0000f068:    ed8d0a0e    ....    VSTR     s0,[sp,#0x38]
        0x0000f06c:    900d        ..      STR      r0,[sp,#0x34]
        0x0000f06e:    910c        ..      STR      r1,[sp,#0x30]
        0x0000f070:    980d        ..      LDR      r0,[sp,#0x34]
        0x0000f072:    6800        .h      LDR      r0,[r0,#0]
        0x0000f074:    9009        ..      STR      r0,[sp,#0x24]
        0x0000f076:    9809        ..      LDR      r0,[sp,#0x24]
        0x0000f078:    2803        .(      CMP      r0,#3
        0x0000f07a:    dc04        ..      BGT      0xf086 ; ftoa + 34
        0x0000f07c:    e7ff        ..      B        0xf07e ; ftoa + 26
        0x0000f07e:    f06f0002    o...    MVN      r0,#2
        0x0000f082:    900f        ..      STR      r0,[sp,#0x3c]
        0x0000f084:    e103        ..      B        0xf28e ; ftoa + 554
        0x0000f086:    ed9d0a0e    ....    VLDR     s0,[sp,#0x38]
        0x0000f08a:    eeb50a40    ..@.    VCMP.F32 s0,#0.0
        0x0000f08e:    eef1fa10    ....    VMRS     APSR_nzcv,FPSCR
        0x0000f092:    d109        ..      BNE      0xf0a8 ; ftoa + 68
        0x0000f094:    e7ff        ..      B        0xf096 ; ftoa + 50
        0x0000f096:    990d        ..      LDR      r1,[sp,#0x34]
        0x0000f098:    f6426030    B.0`    MOV      r0,#0x2e30
        0x0000f09c:    f2c00030    ..0.    MOVT     r0,#0x30
        0x0000f0a0:    6008        .`      STR      r0,[r1,#0]
        0x0000f0a2:    2003        .       MOVS     r0,#3
        0x0000f0a4:    900f        ..      STR      r0,[sp,#0x3c]
        0x0000f0a6:    e0f2        ..      B        0xf28e ; ftoa + 554
        0x0000f0a8:    980d        ..      LDR      r0,[sp,#0x34]
        0x0000f0aa:    9005        ..      STR      r0,[sp,#0x14]
        0x0000f0ac:    980e        ..      LDR      r0,[sp,#0x38]
        0x0000f0ae:    900b        ..      STR      r0,[sp,#0x2c]
        0x0000f0b0:    980b        ..      LDR      r0,[sp,#0x2c]
        0x0000f0b2:    0dc1        ..      LSRS     r1,r0,#23
        0x0000f0b4:    f06f007e    o.~.    MVN      r0,#0x7e
        0x0000f0b8:    fa50f081    P...    UXTAB    r0,r0,r1
        0x0000f0bc:    900a        ..      STR      r0,[sp,#0x28]
        0x0000f0be:    980b        ..      LDR      r0,[sp,#0x2c]
        0x0000f0c0:    f4400000    @...    ORR      r0,r0,#0x800000
        0x0000f0c4:    f020407f     ..@    BIC      r0,r0,#0xff000000
        0x0000f0c8:    9008        ..      STR      r0,[sp,#0x20]
        0x0000f0ca:    2000        .       MOVS     r0,#0
        0x0000f0cc:    9006        ..      STR      r0,[sp,#0x18]
        0x0000f0ce:    9007        ..      STR      r0,[sp,#0x1c]
        0x0000f0d0:    980a        ..      LDR      r0,[sp,#0x28]
        0x0000f0d2:    281f        .(      CMP      r0,#0x1f
        0x0000f0d4:    db04        ..      BLT      0xf0e0 ; ftoa + 124
        0x0000f0d6:    e7ff        ..      B        0xf0d8 ; ftoa + 116
        0x0000f0d8:    f06f0001    o...    MVN      r0,#1
        0x0000f0dc:    900f        ..      STR      r0,[sp,#0x3c]
        0x0000f0de:    e0d6        ..      B        0xf28e ; ftoa + 554
        0x0000f0e0:    980a        ..      LDR      r0,[sp,#0x28]
        0x0000f0e2:    f1100f18    ....    CMN      r0,#0x18
        0x0000f0e6:    dc04        ..      BGT      0xf0f2 ; ftoa + 142
        0x0000f0e8:    e7ff        ..      B        0xf0ea ; ftoa + 134
        0x0000f0ea:    f04f30ff    O..0    MOV      r0,#0xffffffff
        0x0000f0ee:    900f        ..      STR      r0,[sp,#0x3c]
        0x0000f0f0:    e0cd        ..      B        0xf28e ; ftoa + 554
        0x0000f0f2:    980a        ..      LDR      r0,[sp,#0x28]
        0x0000f0f4:    2817        .(      CMP      r0,#0x17
        0x0000f0f6:    db06        ..      BLT      0xf106 ; ftoa + 162
        0x0000f0f8:    e7ff        ..      B        0xf0fa ; ftoa + 150
        0x0000f0fa:    9808        ..      LDR      r0,[sp,#0x20]
        0x0000f0fc:    990a        ..      LDR      r1,[sp,#0x28]
        0x0000f0fe:    3917        .9      SUBS     r1,r1,#0x17
        0x0000f100:    4088        .@      LSLS     r0,r0,r1
        0x0000f102:    9007        ..      STR      r0,[sp,#0x1c]
        0x0000f104:    e01a        ..      B        0xf13c ; ftoa + 216
        0x0000f106:    980a        ..      LDR      r0,[sp,#0x28]
        0x0000f108:    2800        .(      CMP      r0,#0
        0x0000f10a:    d40e        ..      BMI      0xf12a ; ftoa + 198
        0x0000f10c:    e7ff        ..      B        0xf10e ; ftoa + 170
        0x0000f10e:    9808        ..      LDR      r0,[sp,#0x20]
        0x0000f110:    990a        ..      LDR      r1,[sp,#0x28]
        0x0000f112:    f1c10117    ....    RSB      r1,r1,#0x17
        0x0000f116:    4108        .A      ASRS     r0,r0,r1
        0x0000f118:    9007        ..      STR      r0,[sp,#0x1c]
        0x0000f11a:    9808        ..      LDR      r0,[sp,#0x20]
        0x0000f11c:    990a        ..      LDR      r1,[sp,#0x28]
        0x0000f11e:    3101        .1      ADDS     r1,#1
        0x0000f120:    4088        .@      LSLS     r0,r0,r1
        0x0000f122:    f020407f     ..@    BIC      r0,r0,#0xff000000
        0x0000f126:    9006        ..      STR      r0,[sp,#0x18]
        0x0000f128:    e007        ..      B        0xf13a ; ftoa + 214
        0x0000f12a:    9808        ..      LDR      r0,[sp,#0x20]
        0x0000f12c:    f020407f     ..@    BIC      r0,r0,#0xff000000
        0x0000f130:    990a        ..      LDR      r1,[sp,#0x28]
        0x0000f132:    43c9        .C      MVNS     r1,r1
        0x0000f134:    40c8        .@      LSRS     r0,r0,r1
        0x0000f136:    9006        ..      STR      r0,[sp,#0x18]
        0x0000f138:    e7ff        ..      B        0xf13a ; ftoa + 214
        0x0000f13a:    e7ff        ..      B        0xf13c ; ftoa + 216
        0x0000f13c:    e7ff        ..      B        0xf13e ; ftoa + 218
        0x0000f13e:    e7ff        ..      B        0xf140 ; ftoa + 220
        0x0000f140:    980b        ..      LDR      r0,[sp,#0x2c]
        0x0000f142:    f1b03fff    ...?    CMP      r0,#0xffffffff
        0x0000f146:    dc06        ..      BGT      0xf156 ; ftoa + 242
        0x0000f148:    e7ff        ..      B        0xf14a ; ftoa + 230
        0x0000f14a:    990d        ..      LDR      r1,[sp,#0x34]
        0x0000f14c:    1c48        H.      ADDS     r0,r1,#1
        0x0000f14e:    900d        ..      STR      r0,[sp,#0x34]
        0x0000f150:    202d        -       MOVS     r0,#0x2d
        0x0000f152:    7008        .p      STRB     r0,[r1,#0]
        0x0000f154:    e7ff        ..      B        0xf156 ; ftoa + 242
        0x0000f156:    9807        ..      LDR      r0,[sp,#0x1c]
        0x0000f158:    b930        0.      CBNZ     r0,0xf168 ; ftoa + 260
        0x0000f15a:    e7ff        ..      B        0xf15c ; ftoa + 248
        0x0000f15c:    990d        ..      LDR      r1,[sp,#0x34]
        0x0000f15e:    1c48        H.      ADDS     r0,r1,#1
        0x0000f160:    900d        ..      STR      r0,[sp,#0x34]
        0x0000f162:    2030        0       MOVS     r0,#0x30
        0x0000f164:    7008        .p      STRB     r0,[r1,#0]
        0x0000f166:    e01f        ..      B        0xf1a8 ; ftoa + 324
        0x0000f168:    9807        ..      LDR      r0,[sp,#0x1c]
        0x0000f16a:    2801        .(      CMP      r0,#1
        0x0000f16c:    db06        ..      BLT      0xf17c ; ftoa + 280
        0x0000f16e:    e7ff        ..      B        0xf170 ; ftoa + 268
        0x0000f170:    9807        ..      LDR      r0,[sp,#0x1c]
        0x0000f172:    17c1        ..      ASRS     r1,r0,#31
        0x0000f174:    9a0d        ..      LDR      r2,[sp,#0x34]
        0x0000f176:    f000fe35    ..5.    BL       uint64_to_str ; 0xfde4
        0x0000f17a:    e00b        ..      B        0xf194 ; ftoa + 304
        0x0000f17c:    990d        ..      LDR      r1,[sp,#0x34]
        0x0000f17e:    1c48        H.      ADDS     r0,r1,#1
        0x0000f180:    900d        ..      STR      r0,[sp,#0x34]
        0x0000f182:    202d        -       MOVS     r0,#0x2d
        0x0000f184:    7008        .p      STRB     r0,[r1,#0]
        0x0000f186:    9807        ..      LDR      r0,[sp,#0x1c]
        0x0000f188:    4240        @B      RSBS     r0,r0,#0
        0x0000f18a:    17c1        ..      ASRS     r1,r0,#31
        0x0000f18c:    9a0d        ..      LDR      r2,[sp,#0x34]
        0x0000f18e:    f000fe29    ..).    BL       uint64_to_str ; 0xfde4
        0x0000f192:    e7ff        ..      B        0xf194 ; ftoa + 304
        0x0000f194:    e7ff        ..      B        0xf196 ; ftoa + 306
        0x0000f196:    980d        ..      LDR      r0,[sp,#0x34]
        0x0000f198:    7800        .x      LDRB     r0,[r0,#0]
        0x0000f19a:    b120         .      CBZ      r0,0xf1a6 ; ftoa + 322
        0x0000f19c:    e7ff        ..      B        0xf19e ; ftoa + 314
        0x0000f19e:    980d        ..      LDR      r0,[sp,#0x34]
        0x0000f1a0:    3001        .0      ADDS     r0,#1
        0x0000f1a2:    900d        ..      STR      r0,[sp,#0x34]
        0x0000f1a4:    e7f7        ..      B        0xf196 ; ftoa + 306
        0x0000f1a6:    e7ff        ..      B        0xf1a8 ; ftoa + 324
        0x0000f1a8:    990d        ..      LDR      r1,[sp,#0x34]
        0x0000f1aa:    1c48        H.      ADDS     r0,r1,#1
        0x0000f1ac:    900d        ..      STR      r0,[sp,#0x34]
        0x0000f1ae:    202e        .       MOVS     r0,#0x2e
        0x0000f1b0:    7008        .p      STRB     r0,[r1,#0]
        0x0000f1b2:    9806        ..      LDR      r0,[sp,#0x18]
        0x0000f1b4:    b930        0.      CBNZ     r0,0xf1c4 ; ftoa + 352
        0x0000f1b6:    e7ff        ..      B        0xf1b8 ; ftoa + 340
        0x0000f1b8:    990d        ..      LDR      r1,[sp,#0x34]
        0x0000f1ba:    1c48        H.      ADDS     r0,r1,#1
        0x0000f1bc:    900d        ..      STR      r0,[sp,#0x34]
        0x0000f1be:    2030        0       MOVS     r0,#0x30
        0x0000f1c0:    7008        .p      STRB     r0,[r1,#0]
        0x0000f1c2:    e05c        \.      B        0xf27e ; ftoa + 538
        0x0000f1c4:    9909        ..      LDR      r1,[sp,#0x24]
        0x0000f1c6:    980d        ..      LDR      r0,[sp,#0x34]
        0x0000f1c8:    9a05        ..      LDR      r2,[sp,#0x14]
        0x0000f1ca:    1a80        ..      SUBS     r0,r0,r2
        0x0000f1cc:    43c0        .C      MVNS     r0,r0
        0x0000f1ce:    4408        .D      ADD      r0,r0,r1
        0x0000f1d0:    9002        ..      STR      r0,[sp,#8]
        0x0000f1d2:    9802        ..      LDR      r0,[sp,#8]
        0x0000f1d4:    990c        ..      LDR      r1,[sp,#0x30]
        0x0000f1d6:    4288        .B      CMP      r0,r1
        0x0000f1d8:    dd03        ..      BLE      0xf1e2 ; ftoa + 382
        0x0000f1da:    e7ff        ..      B        0xf1dc ; ftoa + 376
        0x0000f1dc:    980c        ..      LDR      r0,[sp,#0x30]
        0x0000f1de:    9001        ..      STR      r0,[sp,#4]
        0x0000f1e0:    e002        ..      B        0xf1e8 ; ftoa + 388
        0x0000f1e2:    9802        ..      LDR      r0,[sp,#8]
        0x0000f1e4:    9001        ..      STR      r0,[sp,#4]
        0x0000f1e6:    e7ff        ..      B        0xf1e8 ; ftoa + 388
        0x0000f1e8:    9801        ..      LDR      r0,[sp,#4]
        0x0000f1ea:    9002        ..      STR      r0,[sp,#8]
        0x0000f1ec:    2000        .       MOVS     r0,#0
        0x0000f1ee:    9003        ..      STR      r0,[sp,#0xc]
        0x0000f1f0:    e7ff        ..      B        0xf1f2 ; ftoa + 398
        0x0000f1f2:    9803        ..      LDR      r0,[sp,#0xc]
        0x0000f1f4:    9902        ..      LDR      r1,[sp,#8]
        0x0000f1f6:    4288        .B      CMP      r0,r1
        0x0000f1f8:    da15        ..      BGE      0xf226 ; ftoa + 450
        0x0000f1fa:    e7ff        ..      B        0xf1fc ; ftoa + 408
        0x0000f1fc:    9806        ..      LDR      r0,[sp,#0x18]
        0x0000f1fe:    eb000080    ....    ADD      r0,r0,r0,LSL #2
        0x0000f202:    0040        @.      LSLS     r0,r0,#1
        0x0000f204:    9006        ..      STR      r0,[sp,#0x18]
        0x0000f206:    f89d001b    ....    LDRB     r0,[sp,#0x1b]
        0x0000f20a:    3030        00      ADDS     r0,r0,#0x30
        0x0000f20c:    990d        ..      LDR      r1,[sp,#0x34]
        0x0000f20e:    1c4a        J.      ADDS     r2,r1,#1
        0x0000f210:    920d        ..      STR      r2,[sp,#0x34]
        0x0000f212:    7008        .p      STRB     r0,[r1,#0]
        0x0000f214:    9806        ..      LDR      r0,[sp,#0x18]
        0x0000f216:    f020407f     ..@    BIC      r0,r0,#0xff000000
        0x0000f21a:    9006        ..      STR      r0,[sp,#0x18]
        0x0000f21c:    e7ff        ..      B        0xf21e ; ftoa + 442
        0x0000f21e:    9803        ..      LDR      r0,[sp,#0xc]
        0x0000f220:    3001        .0      ADDS     r0,#1
        0x0000f222:    9003        ..      STR      r0,[sp,#0xc]
        0x0000f224:    e7e5        ..      B        0xf1f2 ; ftoa + 398
        0x0000f226:    9806        ..      LDR      r0,[sp,#0x18]
        0x0000f228:    eb000080    ....    ADD      r0,r0,r0,LSL #2
        0x0000f22c:    f34050c7    @..P    SBFX     r0,r0,#23,#8
        0x0000f230:    2805        .(      CMP      r0,#5
        0x0000f232:    db23        #.      BLT      0xf27c ; ftoa + 536
        0x0000f234:    e7ff        ..      B        0xf236 ; ftoa + 466
        0x0000f236:    980d        ..      LDR      r0,[sp,#0x34]
        0x0000f238:    3801        .8      SUBS     r0,#1
        0x0000f23a:    9004        ..      STR      r0,[sp,#0x10]
        0x0000f23c:    e7ff        ..      B        0xf23e ; ftoa + 474
        0x0000f23e:    9804        ..      LDR      r0,[sp,#0x10]
        0x0000f240:    9905        ..      LDR      r1,[sp,#0x14]
        0x0000f242:    4288        .B      CMP      r0,r1
        0x0000f244:    d319        ..      BCC      0xf27a ; ftoa + 534
        0x0000f246:    e7ff        ..      B        0xf248 ; ftoa + 484
        0x0000f248:    9804        ..      LDR      r0,[sp,#0x10]
        0x0000f24a:    7800        .x      LDRB     r0,[r0,#0]
        0x0000f24c:    282e        .(      CMP      r0,#0x2e
        0x0000f24e:    d101        ..      BNE      0xf254 ; ftoa + 496
        0x0000f250:    e7ff        ..      B        0xf252 ; ftoa + 494
        0x0000f252:    e00e        ..      B        0xf272 ; ftoa + 526
        0x0000f254:    9804        ..      LDR      r0,[sp,#0x10]
        0x0000f256:    7800        .x      LDRB     r0,[r0,#0]
        0x0000f258:    2839        9(      CMP      r0,#0x39
        0x0000f25a:    d104        ..      BNE      0xf266 ; ftoa + 514
        0x0000f25c:    e7ff        ..      B        0xf25e ; ftoa + 506
        0x0000f25e:    9904        ..      LDR      r1,[sp,#0x10]
        0x0000f260:    2030        0       MOVS     r0,#0x30
        0x0000f262:    7008        .p      STRB     r0,[r1,#0]
        0x0000f264:    e004        ..      B        0xf270 ; ftoa + 524
        0x0000f266:    9904        ..      LDR      r1,[sp,#0x10]
        0x0000f268:    7808        .x      LDRB     r0,[r1,#0]
        0x0000f26a:    3001        .0      ADDS     r0,#1
        0x0000f26c:    7008        .p      STRB     r0,[r1,#0]
        0x0000f26e:    e004        ..      B        0xf27a ; ftoa + 534
        0x0000f270:    e7ff        ..      B        0xf272 ; ftoa + 526
        0x0000f272:    9804        ..      LDR      r0,[sp,#0x10]
        0x0000f274:    3801        .8      SUBS     r0,#1
        0x0000f276:    9004        ..      STR      r0,[sp,#0x10]
        0x0000f278:    e7e1        ..      B        0xf23e ; ftoa + 474
        0x0000f27a:    e7ff        ..      B        0xf27c ; ftoa + 536
        0x0000f27c:    e7ff        ..      B        0xf27e ; ftoa + 538
        0x0000f27e:    990d        ..      LDR      r1,[sp,#0x34]
        0x0000f280:    2000        .       MOVS     r0,#0
        0x0000f282:    7008        .p      STRB     r0,[r1,#0]
        0x0000f284:    980d        ..      LDR      r0,[sp,#0x34]
        0x0000f286:    9905        ..      LDR      r1,[sp,#0x14]
        0x0000f288:    1a40        @.      SUBS     r0,r0,r1
        0x0000f28a:    900f        ..      STR      r0,[sp,#0x3c]
        0x0000f28c:    e7ff        ..      B        0xf28e ; ftoa + 554
        0x0000f28e:    980f        ..      LDR      r0,[sp,#0x3c]
        0x0000f290:    b010        ..      ADD      sp,sp,#0x40
        0x0000f292:    bd80        ..      POP      {r7,pc}
    hostint_handler
        0x0000f294:    f24101bc    A...    MOV      r1,#0x10bc
        0x0000f298:    f2c10101    ....    MOVT     r1,#0x1001
        0x0000f29c:    2001        .       MOVS     r0,#1
        0x0000f29e:    7008        .p      STRB     r0,[r1,#0]
        0x0000f2a0:    4770        pG      BX       lr
        0x0000f2a2:    0000        ..      MOVS     r0,r0
    internal_iom_reset_on_error
        0x0000f2a4:    b570        p.      PUSH     {r4-r6,lr}
        0x0000f2a6:    f8d02864    ..d(    LDR      r2,[r0,#0x864]
        0x0000f2aa:    6840        @h      LDR      r0,[r0,#4]
        0x0000f2ac:    f2440300    D...    MOVW     r3,#0x4000
        0x0000f2b0:    f2c50300    ....    MOVT     r3,#0x5000
        0x0000f2b4:    eb033400    ...4    ADD      r4,r3,r0,LSL #12
        0x0000f2b8:    f8d45200    ...R    LDR      r5,[r4,#0x200]
        0x0000f2bc:    2000        .       MOVS     r0,#0
        0x0000f2be:    050b        ..      LSLS     r3,r1,#20
        0x0000f2c0:    f8c40200    ....    STR      r0,[r4,#0x200]
        0x0000f2c4:    f14080a6    @...    BPL.W    0xf414 ; internal_iom_reset_on_error + 368
        0x0000f2c8:    f8d40280    ....    LDR      r0,[r4,#0x280]
        0x0000f2cc:    0780        ..      LSLS     r0,r0,#30
        0x0000f2ce:    d467        g.      BMI      0xf3a0 ; internal_iom_reset_on_error + 252
        0x0000f2d0:    f8d402b4    ....    LDR      r0,[r4,#0x2b4]
        0x0000f2d4:    0780        ..      LSLS     r0,r0,#30
        0x0000f2d6:    d521        !.      BPL      0xf31c ; internal_iom_reset_on_error + 120
        0x0000f2d8:    f8d40100    ....    LDR      r0,[r4,#0x100]
        0x0000f2dc:    f4100f7c    ..|.    TST      r0,#0xfc0000
        0x0000f2e0:    d0f6        ..      BEQ      0xf2d0 ; internal_iom_reset_on_error + 44
        0x0000f2e2:    f8d40108    ....    LDR      r0,[r4,#0x108]
        0x0000f2e6:    f8d40100    ....    LDR      r0,[r4,#0x100]
        0x0000f2ea:    f4100f7c    ..|.    TST      r0,#0xfc0000
        0x0000f2ee:    d0ef        ..      BEQ      0xf2d0 ; internal_iom_reset_on_error + 44
        0x0000f2f0:    f8d40108    ....    LDR      r0,[r4,#0x108]
        0x0000f2f4:    f8d40100    ....    LDR      r0,[r4,#0x100]
        0x0000f2f8:    f4100f7c    ..|.    TST      r0,#0xfc0000
        0x0000f2fc:    d0e8        ..      BEQ      0xf2d0 ; internal_iom_reset_on_error + 44
        0x0000f2fe:    f8d40108    ....    LDR      r0,[r4,#0x108]
        0x0000f302:    f8d40100    ....    LDR      r0,[r4,#0x100]
        0x0000f306:    f4100f7c    ..|.    TST      r0,#0xfc0000
        0x0000f30a:    d0e1        ..      BEQ      0xf2d0 ; internal_iom_reset_on_error + 44
        0x0000f30c:    f8d40108    ....    LDR      r0,[r4,#0x108]
        0x0000f310:    f8d40100    ....    LDR      r0,[r4,#0x100]
        0x0000f314:    f4100f7c    ..|.    TST      r0,#0xfc0000
        0x0000f318:    d1e3        ..      BNE      0xf2e2 ; internal_iom_reset_on_error + 62
        0x0000f31a:    e7d9        ..      B        0xf2d0 ; internal_iom_reset_on_error + 44
        0x0000f31c:    f8d402b4    ....    LDR      r0,[r4,#0x2b4]
        0x0000f320:    f0000006    ....    AND      r0,r0,#6
        0x0000f324:    2804        .(      CMP      r0,#4
        0x0000f326:    d034        4.      BEQ      0xf392 ; internal_iom_reset_on_error + 238
        0x0000f328:    f8d402b4    ....    LDR      r0,[r4,#0x2b4]
        0x0000f32c:    f0000006    ....    AND      r0,r0,#6
        0x0000f330:    2804        .(      CMP      r0,#4
        0x0000f332:    d02e        ..      BEQ      0xf392 ; internal_iom_reset_on_error + 238
        0x0000f334:    f8d402b4    ....    LDR      r0,[r4,#0x2b4]
        0x0000f338:    f0000006    ....    AND      r0,r0,#6
        0x0000f33c:    2804        .(      CMP      r0,#4
        0x0000f33e:    d028        (.      BEQ      0xf392 ; internal_iom_reset_on_error + 238
        0x0000f340:    f8d402b4    ....    LDR      r0,[r4,#0x2b4]
        0x0000f344:    f0000006    ....    AND      r0,r0,#6
        0x0000f348:    2804        .(      CMP      r0,#4
        0x0000f34a:    d1e7        ..      BNE      0xf31c ; internal_iom_reset_on_error + 120
        0x0000f34c:    e021        !.      B        0xf392 ; internal_iom_reset_on_error + 238
        0x0000f34e:    bf00        ..      NOP      
        0x0000f350:    f8d40100    ....    LDR      r0,[r4,#0x100]
        0x0000f354:    f4100f7c    ..|.    TST      r0,#0xfc0000
        0x0000f358:    d01b        ..      BEQ      0xf392 ; internal_iom_reset_on_error + 238
        0x0000f35a:    f8d40108    ....    LDR      r0,[r4,#0x108]
        0x0000f35e:    f8d40100    ....    LDR      r0,[r4,#0x100]
        0x0000f362:    f4100f7c    ..|.    TST      r0,#0xfc0000
        0x0000f366:    d014        ..      BEQ      0xf392 ; internal_iom_reset_on_error + 238
        0x0000f368:    f8d40108    ....    LDR      r0,[r4,#0x108]
        0x0000f36c:    f8d40100    ....    LDR      r0,[r4,#0x100]
        0x0000f370:    f4100f7c    ..|.    TST      r0,#0xfc0000
        0x0000f374:    d00d        ..      BEQ      0xf392 ; internal_iom_reset_on_error + 238
        0x0000f376:    f8d40108    ....    LDR      r0,[r4,#0x108]
        0x0000f37a:    f8d40100    ....    LDR      r0,[r4,#0x100]
        0x0000f37e:    f4100f7c    ..|.    TST      r0,#0xfc0000
        0x0000f382:    d006        ..      BEQ      0xf392 ; internal_iom_reset_on_error + 238
        0x0000f384:    f8d40108    ....    LDR      r0,[r4,#0x108]
        0x0000f388:    f8d40100    ....    LDR      r0,[r4,#0x100]
        0x0000f38c:    f4100f7c    ..|.    TST      r0,#0xfc0000
        0x0000f390:    d1e3        ..      BNE      0xf35a ; internal_iom_reset_on_error + 182
        0x0000f392:    f8d40100    ....    LDR      r0,[r4,#0x100]
        0x0000f396:    f4100f7f    ....    TST      r0,#0xff0000
        0x0000f39a:    d1d9        ..      BNE      0xf350 ; internal_iom_reset_on_error + 172
        0x0000f39c:    e03a        :.      B        0xf414 ; internal_iom_reset_on_error + 368
        0x0000f39e:    bf00        ..      NOP      
        0x0000f3a0:    f8d40288    ....    LDR      r0,[r4,#0x288]
        0x0000f3a4:    b1f0        ..      CBZ      r0,0xf3e4 ; internal_iom_reset_on_error + 320
        0x0000f3a6:    f64b63ef    K..c    MOV      r3,#0xbeef
        0x0000f3aa:    f6cd63ad    ...c    MOVT     r3,#0xdead
        0x0000f3ae:    bf00        ..      NOP      
        0x0000f3b0:    f8d46100    ...a    LDR      r6,[r4,#0x100]
        0x0000f3b4:    f4164f7c    ..|O    TST      r6,#0xfc00
        0x0000f3b8:    d10e        ..      BNE      0xf3d8 ; internal_iom_reset_on_error + 308
        0x0000f3ba:    f8d46100    ...a    LDR      r6,[r4,#0x100]
        0x0000f3be:    f4164f7c    ..|O    TST      r6,#0xfc00
        0x0000f3c2:    d109        ..      BNE      0xf3d8 ; internal_iom_reset_on_error + 308
        0x0000f3c4:    f8d46100    ...a    LDR      r6,[r4,#0x100]
        0x0000f3c8:    f4164f7c    ..|O    TST      r6,#0xfc00
        0x0000f3cc:    d104        ..      BNE      0xf3d8 ; internal_iom_reset_on_error + 308
        0x0000f3ce:    f8d46100    ...a    LDR      r6,[r4,#0x100]
        0x0000f3d2:    f4164f7c    ..|O    TST      r6,#0xfc00
        0x0000f3d6:    d0eb        ..      BEQ      0xf3b0 ; internal_iom_reset_on_error + 268
        0x0000f3d8:    2805        .(      CMP      r0,#5
        0x0000f3da:    f8c4310c    ...1    STR      r3,[r4,#0x10c]
        0x0000f3de:    d301        ..      BCC      0xf3e4 ; internal_iom_reset_on_error + 320
        0x0000f3e0:    3804        .8      SUBS     r0,#4
        0x0000f3e2:    e7e5        ..      B        0xf3b0 ; internal_iom_reset_on_error + 268
        0x0000f3e4:    f8d402b4    ....    LDR      r0,[r4,#0x2b4]
        0x0000f3e8:    f0000006    ....    AND      r0,r0,#6
        0x0000f3ec:    2804        .(      CMP      r0,#4
        0x0000f3ee:    d011        ..      BEQ      0xf414 ; internal_iom_reset_on_error + 368
        0x0000f3f0:    f8d402b4    ....    LDR      r0,[r4,#0x2b4]
        0x0000f3f4:    f0000006    ....    AND      r0,r0,#6
        0x0000f3f8:    2804        .(      CMP      r0,#4
        0x0000f3fa:    d00b        ..      BEQ      0xf414 ; internal_iom_reset_on_error + 368
        0x0000f3fc:    f8d402b4    ....    LDR      r0,[r4,#0x2b4]
        0x0000f400:    f0000006    ....    AND      r0,r0,#6
        0x0000f404:    2804        .(      CMP      r0,#4
        0x0000f406:    d005        ..      BEQ      0xf414 ; internal_iom_reset_on_error + 368
        0x0000f408:    f8d402b4    ....    LDR      r0,[r4,#0x2b4]
        0x0000f40c:    f0000006    ....    AND      r0,r0,#6
        0x0000f410:    2804        .(      CMP      r0,#4
        0x0000f412:    d1e7        ..      BNE      0xf3e4 ; internal_iom_reset_on_error + 320
        0x0000f414:    f4117f04    ....    TST      r1,#0x210
        0x0000f418:    d03c        <.      BEQ      0xf494 ; internal_iom_reset_on_error + 496
        0x0000f41a:    f8d46410    ...d    LDR      r6,[r4,#0x410]
        0x0000f41e:    0050        P.      LSLS     r0,r2,#1
        0x0000f420:    f8d412b4    ....    LDR      r1,[r4,#0x2b4]
        0x0000f424:    f0010106    ....    AND      r1,r1,#6
        0x0000f428:    2904        .)      CMP      r1,#4
        0x0000f42a:    d011        ..      BEQ      0xf450 ; internal_iom_reset_on_error + 428
        0x0000f42c:    f8d412b4    ....    LDR      r1,[r4,#0x2b4]
        0x0000f430:    f0010106    ....    AND      r1,r1,#6
        0x0000f434:    2904        .)      CMP      r1,#4
        0x0000f436:    d00b        ..      BEQ      0xf450 ; internal_iom_reset_on_error + 428
        0x0000f438:    f8d412b4    ....    LDR      r1,[r4,#0x2b4]
        0x0000f43c:    f0010106    ....    AND      r1,r1,#6
        0x0000f440:    2904        .)      CMP      r1,#4
        0x0000f442:    d005        ..      BEQ      0xf450 ; internal_iom_reset_on_error + 428
        0x0000f444:    f8d412b4    ....    LDR      r1,[r4,#0x2b4]
        0x0000f448:    f0010106    ....    AND      r1,r1,#6
        0x0000f44c:    2904        .)      CMP      r1,#4
        0x0000f44e:    d1e7        ..      BNE      0xf420 ; internal_iom_reset_on_error + 380
        0x0000f450:    f8d41214    ....    LDR      r1,[r4,#0x214]
        0x0000f454:    f0210110    !...    BIC      r1,r1,#0x10
        0x0000f458:    f8c41214    ....    STR      r1,[r4,#0x214]
        0x0000f45c:    f8d41110    ....    LDR      r1,[r4,#0x110]
        0x0000f460:    f0210102    !...    BIC      r1,r1,#2
        0x0000f464:    f8c41110    ....    STR      r1,[r4,#0x110]
        0x0000f468:    f8d41410    ....    LDR      r1,[r4,#0x410]
        0x0000f46c:    f0410102    A...    ORR      r1,r1,#2
        0x0000f470:    f8c41410    ....    STR      r1,[r4,#0x410]
        0x0000f474:    f7fdfd24    ..$.    BL       am_hal_flash_delay ; 0xcec0
        0x0000f478:    f8c46410    ...d    STR      r6,[r4,#0x410]
        0x0000f47c:    f8d40110    ....    LDR      r0,[r4,#0x110]
        0x0000f480:    f0400002    @...    ORR      r0,r0,#2
        0x0000f484:    f8c40110    ....    STR      r0,[r4,#0x110]
        0x0000f488:    f8d40214    ....    LDR      r0,[r4,#0x214]
        0x0000f48c:    f0400010    @...    ORR      r0,r0,#0x10
        0x0000f490:    f8c40214    ....    STR      r0,[r4,#0x214]
        0x0000f494:    f04f30ff    O..0    MOV      r0,#0xffffffff
        0x0000f498:    f8c40208    ....    STR      r0,[r4,#0x208]
        0x0000f49c:    f8c45200    ...R    STR      r5,[r4,#0x200]
        0x0000f4a0:    bd70        p.      POP      {r4-r6,pc}
        0x0000f4a2:    0000        ..      MOVS     r0,r0
    iom_get_interface_clock_cfg
        0x0000f4a4:    e92d43f0    -..C    PUSH     {r4-r9,lr}
        0x0000f4a8:    2800        .(      CMP      r0,#0
        0x0000f4aa:    d044        D.      BEQ      0xf536 ; iom_get_interface_clock_cfg + 146
        0x0000f4ac:    f6464c00    F..L    MOVW     r12,#0x6c00
        0x0000f4b0:    f2c02cdc    ...,    MOVT     r12,#0x2dc
        0x0000f4b4:    fbbcf2f0    ....    UDIV     r2,r12,r0
        0x0000f4b8:    fb02f300    ....    MUL      r3,r2,r0
        0x0000f4bc:    4563        cE      CMP      r3,r12
        0x0000f4be:    bf18        ..      IT       NE
        0x0000f4c0:    3201        .2      ADDNE    r2,#1
        0x0000f4c2:    4253        SB      RSBS     r3,r2,#0
        0x0000f4c4:    4013        .@      ANDS     r3,r3,r2
        0x0000f4c6:    fab3f383    ....    CLZ      r3,r3
        0x0000f4ca:    f1c3031f    ....    RSB      r3,r3,#0x1f
        0x0000f4ce:    2b06        .+      CMP      r3,#6
        0x0000f4d0:    bfa8        ..      IT       GE
        0x0000f4d2:    2306        .#      MOVGE    r3,#6
        0x0000f4d4:    f5b06f37    ..7o    CMP      r0,#0xb70
        0x0000f4d8:    d802        ..      BHI      0xf4e0 ; iom_get_interface_clock_cfg + 60
        0x0000f4da:    f04f0e01    O...    MOV      lr,#1
        0x0000f4de:    e00f        ..      B        0xf500 ; iom_get_interface_clock_cfg + 92
        0x0000f4e0:    f2424700    B..G    MOVW     r7,#0x2400
        0x0000f4e4:    f2c007f4    ....    MOVT     r7,#0xf4
        0x0000f4e8:    42b8        .B      CMP      r0,r7
        0x0000f4ea:    f04f0e00    O...    MOV      lr,#0
        0x0000f4ee:    d307        ..      BCC      0xf500 ; iom_get_interface_clock_cfg + 92
        0x0000f4f0:    f2436400    C..d    MOVW     r4,#0x3600
        0x0000f4f4:    f2c0146e    ..n.    MOVT     r4,#0x16e
        0x0000f4f8:    42a0        .B      CMP      r0,r4
        0x0000f4fa:    bf38        8.      IT       CC
        0x0000f4fc:    f04f0e01    O...    MOVCC    lr,#1
        0x0000f500:    ea4f044e    O.N.    LSL      r4,lr,#1
        0x0000f504:    f1040901    ....    ADD      r9,r4,#1
        0x0000f508:    fa09f403    ....    LSL      r4,r9,r3
        0x0000f50c:    fbb2f6f4    ....    UDIV     r6,r2,r4
        0x0000f510:    fb062414    ...$    MLS      r4,r6,r4,r2
        0x0000f514:    2c00        .,      CMP      r4,#0
        0x0000f516:    bf18        ..      IT       NE
        0x0000f518:    3601        .6      ADDNE    r6,#1
        0x0000f51a:    fab6f786    ....    CLZ      r7,r6
        0x0000f51e:    f0070438    ..8.    AND      r4,r7,#0x38
        0x0000f522:    1bdd        ..      SUBS     r5,r3,r7
        0x0000f524:    2c18        .,      CMP      r4,#0x18
        0x0000f526:    bf18        ..      IT       NE
        0x0000f528:    f1050318    ....    ADDNE    r3,r5,#0x18
        0x0000f52c:    f1030801    ....    ADD      r8,r3,#1
        0x0000f530:    f1b80f07    ....    CMP      r8,#7
        0x0000f534:    d904        ..      BLS      0xf540 ; iom_get_interface_clock_cfg + 156
        0x0000f536:    2000        .       MOVS     r0,#0
        0x0000f538:    2100        .!      MOVS     r1,#0
        0x0000f53a:    e8bd83f0    ....    POP      {r4-r9,pc}
        0x0000f53e:    bf00        ..      NOP      
        0x0000f540:    2c18        .,      CMP      r4,#0x18
        0x0000f542:    d00a        ..      BEQ      0xf55a ; iom_get_interface_clock_cfg + 182
        0x0000f544:    f1c70418    ....    RSB      r4,r7,#0x18
        0x0000f548:    f04f35ff    O..5    MOV      r5,#0xffffffff
        0x0000f54c:    40a5        .@      LSLS     r5,r5,r4
        0x0000f54e:    43ed        .C      MVNS     r5,r5
        0x0000f550:    422e        .B      TST      r6,r5
        0x0000f552:    fa26f604    &...    LSR      r6,r6,r4
        0x0000f556:    bf18        ..      IT       NE
        0x0000f558:    3601        .6      ADDNE    r6,#1
        0x0000f55a:    f6413400    A..4    MOVW     r4,#0x1b00
        0x0000f55e:    f2c004b7    ....    MOVT     r4,#0xb7
        0x0000f562:    42a0        .B      CMP      r0,r4
        0x0000f564:    f04f0001    O...    MOV      r0,#1
        0x0000f568:    f04f0500    O...    MOV      r5,#0
        0x0000f56c:    fa00f403    ....    LSL      r4,r0,r3
        0x0000f570:    bf38        8.      IT       CC
        0x0000f572:    2501        .%      MOVCC    r5,#1
        0x0000f574:    1b12        ..      SUBS     r2,r2,r4
        0x0000f576:    bf18        ..      IT       NE
        0x0000f578:    2201        ."      MOVNE    r2,#1
        0x0000f57a:    402a        *@      ANDS     r2,r2,r5
        0x0000f57c:    1e75        u.      SUBS     r5,r6,#1
        0x0000f57e:    2901        .)      CMP      r1,#1
        0x0000f580:    462f        /F      MOV      r7,r5
        0x0000f582:    bf08        ..      IT       EQ
        0x0000f584:    f50677ff    ...w    ADDEQ    r7,r6,#0x1fe
        0x0000f588:    fa09f103    ....    LSL      r1,r9,r3
        0x0000f58c:    2a00        .*      CMP      r2,#0
        0x0000f58e:    bf18        ..      IT       NE
        0x0000f590:    4630        0F      MOVNE    r0,r6
        0x0000f592:    4348        HC      MULS     r0,r1,r0
        0x0000f594:    fbbcf1f0    ....    UDIV     r1,r12,r0
        0x0000f598:    f40777ff    ...w    AND      r7,r7,#0x1fe
        0x0000f59c:    fb01c410    ....    MLS      r4,r1,r0,r12
        0x0000f5a0:    ebb40f50    ..P.    CMP      r4,r0,LSR #1
        0x0000f5a4:    f64d6083    M..`    MOV      r0,#0xde83
        0x0000f5a8:    f2c4301b    ...0    MOVT     r0,#0x431b
        0x0000f5ac:    bf88        ..      IT       HI
        0x0000f5ae:    3101        .1      ADDHI    r1,#1
        0x0000f5b0:    fba10600    ....    UMULL    r0,r6,r1,r0
        0x0000f5b4:    f24d048f    M...    MOV      r4,#0xd08f
        0x0000f5b8:    ea4f20ce    O..     LSL      r0,lr,#11
        0x0000f5bc:    f2c00403    ....    MOVT     r4,#3
        0x0000f5c0:    f362300c    b..0    BFI      r0,r2,#12,#1
        0x0000f5c4:    ea4030c7    @..0    ORR      r0,r0,r7,LSL #15
        0x0000f5c8:    0c37        7.      LSRS     r7,r6,#16
        0x0000f5ca:    1c66        f.      ADDS     r6,r4,#1
        0x0000f5cc:    f44f62e0    O..b    MOV      r2,#0x700
        0x0000f5d0:    fb071616    ....    MLS      r6,r7,r6,r1
        0x0000f5d4:    ea022208    ..."    AND      r2,r2,r8,LSL #8
        0x0000f5d8:    ea406005    @..`    ORR      r0,r0,r5,LSL #24
        0x0000f5dc:    4410        .D      ADD      r0,r0,r2
        0x0000f5de:    b10e        ..      CBZ      r6,0xf5e4 ; iom_get_interface_clock_cfg + 320
        0x0000f5e0:    e8bd83f0    ....    POP      {r4-r9,pc}
        0x0000f5e4:    42a1        .B      CMP      r1,r4
        0x0000f5e6:    d9fb        ..      BLS      0xf5e0 ; iom_get_interface_clock_cfg + 316
        0x0000f5e8:    f2415655    A.UV    MOV      r6,#0x1555
        0x0000f5ec:    ea060657    ..W.    AND      r6,r6,r7,LSR #1
        0x0000f5f0:    1bbf        ..      SUBS     r7,r7,r6
        0x0000f5f2:    f04f3633    O.36    MOV      r6,#0x33333333
        0x0000f5f6:    ea060697    ....    AND      r6,r6,r7,LSR #2
        0x0000f5fa:    f02737cc    '..7    BIC      r7,r7,#0xcccccccc
        0x0000f5fe:    4437        7D      ADD      r7,r7,r6
        0x0000f600:    eb071717    ....    ADD      r7,r7,r7,LSR #4
        0x0000f604:    f02737f0    '..7    BIC      r7,r7,#0xf0f0f0f0
        0x0000f608:    f04f3601    O..6    MOV      r6,#0x1010101
        0x0000f60c:    4377        wC      MULS     r7,r6,r7
        0x0000f60e:    0e3f        ?.      LSRS     r7,r7,#24
        0x0000f610:    2f01        ./      CMP      r7,#1
        0x0000f612:    bf88        ..      IT       HI
        0x0000f614:    e8bd83f0    ....    POPHI    {r4-r9,pc}
        0x0000f618:    2003        .       MOVS     r0,#3
        0x0000f61a:    4098        .@      LSLS     r0,r0,r3
        0x0000f61c:    fbbcf1f0    ....    UDIV     r1,r12,r0
        0x0000f620:    fb01c310    ....    MLS      r3,r1,r0,r12
        0x0000f624:    ebb30f50    ..P.    CMP      r3,r0,LSR #1
        0x0000f628:    f5026000    ...`    ADD      r0,r2,#0x800
        0x0000f62c:    bf88        ..      IT       HI
        0x0000f62e:    3101        .1      ADDHI    r1,#1
        0x0000f630:    e8bd83f0    ....    POP      {r4-r9,pc}
    iom_set_up
        0x0000f634:    b580        ..      PUSH     {r7,lr}
        0x0000f636:    b08a        ..      SUB      sp,sp,#0x28
        0x0000f638:    9009        ..      STR      r0,[sp,#0x24]
        0x0000f63a:    f88d1023    ..#.    STRB     r1,[sp,#0x23]
        0x0000f63e:    2001        .       MOVS     r0,#1
        0x0000f640:    9007        ..      STR      r0,[sp,#0x1c]
        0x0000f642:    9809        ..      LDR      r0,[sp,#0x24]
        0x0000f644:    f241217c    A.|!    MOV      r1,#0x127c
        0x0000f648:    f2c10101    ....    MOVT     r1,#0x1001
        0x0000f64c:    9102        ..      STR      r1,[sp,#8]
        0x0000f64e:    f7fefba5    ....    BL       am_hal_iom_initialize ; 0xdd9c
        0x0000f652:    9802        ..      LDR      r0,[sp,#8]
        0x0000f654:    6800        .h      LDR      r0,[r0,#0]
        0x0000f656:    2200        ."      MOVS     r2,#0
        0x0000f658:    4611        .F      MOV      r1,r2
        0x0000f65a:    f7fefbc3    ....    BL       am_hal_iom_power_ctrl ; 0xdde4
        0x0000f65e:    f89d0023    ..#.    LDRB     r0,[sp,#0x23]
        0x0000f662:    07c0        ..      LSLS     r0,r0,#31
        0x0000f664:    b180        ..      CBZ      r0,0xf688 ; iom_set_up + 84
        0x0000f666:    e7ff        ..      B        0xf668 ; iom_set_up + 52
        0x0000f668:    f241207c    A.|     MOV      r0,#0x127c
        0x0000f66c:    f2c10001    ....    MOVT     r0,#0x1001
        0x0000f670:    6800        .h      LDR      r0,[r0,#0]
        0x0000f672:    f241013c    A.<.    MOV      r1,#0x103c
        0x0000f676:    f2c10101    ....    MOVT     r1,#0x1001
        0x0000f67a:    f7fefa6b    ..k.    BL       am_hal_iom_configure ; 0xdb54
        0x0000f67e:    9809        ..      LDR      r0,[sp,#0x24]
        0x0000f680:    2100        .!      MOVS     r1,#0
        0x0000f682:    f7fcfe19    ....    BL       am_bsp_iom_pins_enable ; 0xc2b8
        0x0000f686:    e00f        ..      B        0xf6a8 ; iom_set_up + 116
        0x0000f688:    f241207c    A.|     MOV      r0,#0x127c
        0x0000f68c:    f2c10001    ....    MOVT     r0,#0x1001
        0x0000f690:    6800        .h      LDR      r0,[r0,#0]
        0x0000f692:    f2410128    A.(.    MOV      r1,#0x1028
        0x0000f696:    f2c10101    ....    MOVT     r1,#0x1001
        0x0000f69a:    f7fefa5b    ..[.    BL       am_hal_iom_configure ; 0xdb54
        0x0000f69e:    9809        ..      LDR      r0,[sp,#0x24]
        0x0000f6a0:    2101        .!      MOVS     r1,#1
        0x0000f6a2:    f7fcfe09    ....    BL       am_bsp_iom_pins_enable ; 0xc2b8
        0x0000f6a6:    e7ff        ..      B        0xf6a8 ; iom_set_up + 116
        0x0000f6a8:    f241207c    A.|     MOV      r0,#0x127c
        0x0000f6ac:    f2c10001    ....    MOVT     r0,#0x1001
        0x0000f6b0:    6800        .h      LDR      r0,[r0,#0]
        0x0000f6b2:    f7fefb01    ....    BL       am_hal_iom_enable ; 0xdcb8
        0x0000f6b6:    f24020b0    @..     MOVW     r0,#0x2b0
        0x0000f6ba:    f2c00001    ....    MOVT     r0,#1
        0x0000f6be:    6801        .h      LDR      r1,[r0,#0]
        0x0000f6c0:    200a        .       MOVS     r0,#0xa
        0x0000f6c2:    9001        ..      STR      r0,[sp,#4]
        0x0000f6c4:    f7fdfda0    ....    BL       am_hal_gpio_pinconfig ; 0xd208
        0x0000f6c8:    9901        ..      LDR      r1,[sp,#4]
        0x0000f6ca:    a804        ..      ADD      r0,sp,#0x10
        0x0000f6cc:    9003        ..      STR      r0,[sp,#0xc]
        0x0000f6ce:    2000        .       MOVS     r0,#0
        0x0000f6d0:    9006        ..      STR      r0,[sp,#0x18]
        0x0000f6d2:    9005        ..      STR      r0,[sp,#0x14]
        0x0000f6d4:    9004        ..      STR      r0,[sp,#0x10]
        0x0000f6d6:    9803        ..      LDR      r0,[sp,#0xc]
        0x0000f6d8:    f7fcfdc6    ....    BL       AM_HAL_GPIO_MASKBIT ; 0xc268
        0x0000f6dc:    f7fdfc7c    ..|.    BL       am_hal_gpio_interrupt_clear ; 0xcfd8
        0x0000f6e0:    9801        ..      LDR      r0,[sp,#4]
        0x0000f6e2:    f24f2195    O..!    MOV      r1,#0xf295
        0x0000f6e6:    f2c00100    ....    MOVT     r1,#0
        0x0000f6ea:    f7fdfcc5    ....    BL       am_hal_gpio_interrupt_register ; 0xd078
        0x0000f6ee:    9901        ..      LDR      r1,[sp,#4]
        0x0000f6f0:    9803        ..      LDR      r0,[sp,#0xc]
        0x0000f6f2:    f7fcfdb9    ....    BL       AM_HAL_GPIO_MASKBIT ; 0xc268
        0x0000f6f6:    f7fdfc99    ....    BL       am_hal_gpio_interrupt_enable ; 0xd02c
        0x0000f6fa:    200d        .       MOVS     r0,#0xd
        0x0000f6fc:    f7fcfdc4    ....    BL       __NVIC_EnableIRQ ; 0xc288
        0x0000f700:    f89d0023    ..#.    LDRB     r0,[sp,#0x23]
        0x0000f704:    f0000001    ....    AND      r0,r0,#1
        0x0000f708:    21f8        .!      MOVS     r1,#0xf8
        0x0000f70a:    aa07        ..      ADD      r2,sp,#0x1c
        0x0000f70c:    2301        .#      MOVS     r3,#1
        0x0000f70e:    f000f831    ..1.    BL       iom_target_write ; 0xf774
        0x0000f712:    b00a        ..      ADD      sp,sp,#0x28
        0x0000f714:    bd80        ..      POP      {r7,pc}
        0x0000f716:    0000        ..      MOVS     r0,r0
    iom_target_read
        0x0000f718:    b580        ..      PUSH     {r7,lr}
        0x0000f71a:    b08e        ..      SUB      sp,sp,#0x38
        0x0000f71c:    f88d0037    ..7.    STRB     r0,[sp,#0x37]
        0x0000f720:    910c        ..      STR      r1,[sp,#0x30]
        0x0000f722:    920b        ..      STR      r2,[sp,#0x2c]
        0x0000f724:    930a        ..      STR      r3,[sp,#0x28]
        0x0000f726:    2001        .       MOVS     r0,#1
        0x0000f728:    9001        ..      STR      r0,[sp,#4]
        0x0000f72a:    990c        ..      LDR      r1,[sp,#0x30]
        0x0000f72c:    9102        ..      STR      r1,[sp,#8]
        0x0000f72e:    f88d0010    ....    STRB     r0,[sp,#0x10]
        0x0000f732:    980a        ..      LDR      r0,[sp,#0x28]
        0x0000f734:    9003        ..      STR      r0,[sp,#0xc]
        0x0000f736:    980b        ..      LDR      r0,[sp,#0x2c]
        0x0000f738:    9006        ..      STR      r0,[sp,#0x18]
        0x0000f73a:    2000        .       MOVS     r0,#0
        0x0000f73c:    f88d001c    ....    STRB     r0,[sp,#0x1c]
        0x0000f740:    f88d001d    ....    STRB     r0,[sp,#0x1d]
        0x0000f744:    9008        ..      STR      r0,[sp,#0x20]
        0x0000f746:    9009        ..      STR      r0,[sp,#0x24]
        0x0000f748:    f89d0037    ..7.    LDRB     r0,[sp,#0x37]
        0x0000f74c:    07c0        ..      LSLS     r0,r0,#31
        0x0000f74e:    b118        ..      CBZ      r0,0xf758 ; iom_target_read + 64
        0x0000f750:    e7ff        ..      B        0xf752 ; iom_target_read + 58
        0x0000f752:    2000        .       MOVS     r0,#0
        0x0000f754:    9000        ..      STR      r0,[sp,#0]
        0x0000f756:    e002        ..      B        0xf75e ; iom_target_read + 70
        0x0000f758:    2010        .       MOVS     r0,#0x10
        0x0000f75a:    9000        ..      STR      r0,[sp,#0]
        0x0000f75c:    e7ff        ..      B        0xf75e ; iom_target_read + 70
        0x0000f75e:    f241207c    A.|     MOV      r0,#0x127c
        0x0000f762:    f2c10001    ....    MOVT     r0,#0x1001
        0x0000f766:    6800        .h      LDR      r0,[r0,#0]
        0x0000f768:    4669        iF      MOV      r1,sp
        0x0000f76a:    f7fdfeff    ....    BL       am_hal_iom_blocking_transfer ; 0xd56c
        0x0000f76e:    b00e        ..      ADD      sp,sp,#0x38
        0x0000f770:    bd80        ..      POP      {r7,pc}
        0x0000f772:    0000        ..      MOVS     r0,r0
    iom_target_write
        0x0000f774:    b580        ..      PUSH     {r7,lr}
        0x0000f776:    b08e        ..      SUB      sp,sp,#0x38
        0x0000f778:    f88d0037    ..7.    STRB     r0,[sp,#0x37]
        0x0000f77c:    910c        ..      STR      r1,[sp,#0x30]
        0x0000f77e:    920b        ..      STR      r2,[sp,#0x2c]
        0x0000f780:    930a        ..      STR      r3,[sp,#0x28]
        0x0000f782:    2001        .       MOVS     r0,#1
        0x0000f784:    9001        ..      STR      r0,[sp,#4]
        0x0000f786:    980c        ..      LDR      r0,[sp,#0x30]
        0x0000f788:    9002        ..      STR      r0,[sp,#8]
        0x0000f78a:    2000        .       MOVS     r0,#0
        0x0000f78c:    f88d0010    ....    STRB     r0,[sp,#0x10]
        0x0000f790:    990a        ..      LDR      r1,[sp,#0x28]
        0x0000f792:    9103        ..      STR      r1,[sp,#0xc]
        0x0000f794:    990b        ..      LDR      r1,[sp,#0x2c]
        0x0000f796:    9105        ..      STR      r1,[sp,#0x14]
        0x0000f798:    f88d001c    ....    STRB     r0,[sp,#0x1c]
        0x0000f79c:    f88d001d    ....    STRB     r0,[sp,#0x1d]
        0x0000f7a0:    9008        ..      STR      r0,[sp,#0x20]
        0x0000f7a2:    9009        ..      STR      r0,[sp,#0x24]
        0x0000f7a4:    f89d0037    ..7.    LDRB     r0,[sp,#0x37]
        0x0000f7a8:    07c0        ..      LSLS     r0,r0,#31
        0x0000f7aa:    b118        ..      CBZ      r0,0xf7b4 ; iom_target_write + 64
        0x0000f7ac:    e7ff        ..      B        0xf7ae ; iom_target_write + 58
        0x0000f7ae:    2000        .       MOVS     r0,#0
        0x0000f7b0:    9000        ..      STR      r0,[sp,#0]
        0x0000f7b2:    e002        ..      B        0xf7ba ; iom_target_write + 70
        0x0000f7b4:    2010        .       MOVS     r0,#0x10
        0x0000f7b6:    9000        ..      STR      r0,[sp,#0]
        0x0000f7b8:    e7ff        ..      B        0xf7ba ; iom_target_write + 70
        0x0000f7ba:    f241207c    A.|     MOV      r0,#0x127c
        0x0000f7be:    f2c10001    ....    MOVT     r0,#0x1001
        0x0000f7c2:    6800        .h      LDR      r0,[r0,#0]
        0x0000f7c4:    4669        iF      MOV      r1,sp
        0x0000f7c6:    f7fdfed1    ....    BL       am_hal_iom_blocking_transfer ; 0xd56c
        0x0000f7ca:    b00e        ..      ADD      sp,sp,#0x38
        0x0000f7cc:    bd80        ..      POP      {r7,pc}
        0x0000f7ce:    0000        ..      MOVS     r0,r0
    main
        0x0000f7d0:    b580        ..      PUSH     {r7,lr}
        0x0000f7d2:    b08c        ..      SUB      sp,sp,#0x30
        0x0000f7d4:    2100        .!      MOVS     r1,#0
        0x0000f7d6:    9103        ..      STR      r1,[sp,#0xc]
        0x0000f7d8:    910b        ..      STR      r1,[sp,#0x2c]
        0x0000f7da:    910a        ..      STR      r1,[sp,#0x28]
        0x0000f7dc:    2001        .       MOVS     r0,#1
        0x0000f7de:    9004        ..      STR      r0,[sp,#0x10]
        0x0000f7e0:    f88d0027    ..'.    STRB     r0,[sp,#0x27]
        0x0000f7e4:    f88d1026    ..&.    STRB     r1,[sp,#0x26]
        0x0000f7e8:    f88d1025    ..%.    STRB     r1,[sp,#0x25]
        0x0000f7ec:    f89d0027    ..'.    LDRB     r0,[sp,#0x27]
        0x0000f7f0:    07c2        ..      LSLS     r2,r0,#31
        0x0000f7f2:    20ff        .       MOVS     r0,#0xff
        0x0000f7f4:    2a00        .*      CMP      r2,#0
        0x0000f7f6:    bf18        ..      IT       NE
        0x0000f7f8:    f24030ff    @..0    MOVNE    r0,#0x3ff
        0x0000f7fc:    9007        ..      STR      r0,[sp,#0x1c]
        0x0000f7fe:    4608        .F      MOV      r0,r1
        0x0000f800:    f7fdf9fa    ....    BL       am_hal_clkgen_control ; 0xcbf8
        0x0000f804:    f240003e    @.>.    MOVW     r0,#0x3e
        0x0000f808:    f2c00001    ....    MOVT     r0,#1
        0x0000f80c:    f7fdf8e4    ....    BL       am_hal_cachectrl_config ; 0xc9d8
        0x0000f810:    f7fdf9e8    ....    BL       am_hal_cachectrl_enable ; 0xcbe4
        0x0000f814:    f7fcfe8c    ....    BL       am_bsp_low_power_init ; 0xc530
        0x0000f818:    f7fcfe68    ..h.    BL       am_bsp_itm_printf_enable ; 0xc4ec
        0x0000f81c:    f7fefff8    ....    BL       am_util_stdio_terminal_clear ; 0xe810
        0x0000f820:    f24050b8    @..P    MOVW     r0,#0x5b8
        0x0000f824:    f2c00001    ....    MOVT     r0,#1
        0x0000f828:    f2427110    B..q    MOV      r1,#0x2710
        0x0000f82c:    f7feffb8    ....    BL       am_util_stdio_printf ; 0xe7a0
        0x0000f830:    200a        .       MOVS     r0,#0xa
        0x0000f832:    f7feff9d    ....    BL       am_util_delay_ms ; 0xe770
        0x0000f836:    f7fdfe7b    ..{.    BL       am_hal_interrupt_master_enable ; 0xd530
        0x0000f83a:    980a        ..      LDR      r0,[sp,#0x28]
        0x0000f83c:    f89d1027    ..'.    LDRB     r1,[sp,#0x27]
        0x0000f840:    f0010101    ....    AND      r1,r1,#1
        0x0000f844:    f7fffef6    ....    BL       iom_set_up ; 0xf634
        0x0000f848:    2064        d       MOVS     r0,#0x64
        0x0000f84a:    f7feff91    ....    BL       am_util_delay_ms ; 0xe770
        0x0000f84e:    9803        ..      LDR      r0,[sp,#0xc]
        0x0000f850:    9b04        ..      LDR      r3,[sp,#0x10]
        0x0000f852:    9008        ..      STR      r0,[sp,#0x20]
        0x0000f854:    f89d0027    ..'.    LDRB     r0,[sp,#0x27]
        0x0000f858:    f0000001    ....    AND      r0,r0,#1
        0x0000f85c:    2180        .!      MOVS     r1,#0x80
        0x0000f85e:    aa08        ..      ADD      r2,sp,#0x20
        0x0000f860:    f7ffff88    ....    BL       iom_target_write ; 0xf774
        0x0000f864:    e7ff        ..      B        0xf866 ; main + 150
        0x0000f866:    f89d0025    ..%.    LDRB     r0,[sp,#0x25]
        0x0000f86a:    07c0        ..      LSLS     r0,r0,#31
        0x0000f86c:    2800        .(      CMP      r0,#0
        0x0000f86e:    f040809d    @...    BNE.W    0xf9ac ; main + 476
        0x0000f872:    e7ff        ..      B        0xf874 ; main + 164
        0x0000f874:    f7fdfe58    ..X.    BL       am_hal_interrupt_master_disable ; 0xd528
        0x0000f878:    9006        ..      STR      r0,[sp,#0x18]
        0x0000f87a:    f24100bc    A...    MOV      r0,#0x10bc
        0x0000f87e:    f2c10001    ....    MOVT     r0,#0x1001
        0x0000f882:    7800        .x      LDRB     r0,[r0,#0]
        0x0000f884:    07c0        ..      LSLS     r0,r0,#31
        0x0000f886:    2800        .(      CMP      r0,#0
        0x0000f888:    f0008088    ....    BEQ.W    0xf99c ; main + 460
        0x0000f88c:    e7ff        ..      B        0xf88e ; main + 190
        0x0000f88e:    9806        ..      LDR      r0,[sp,#0x18]
        0x0000f890:    f7fdfe52    ..R.    BL       am_hal_interrupt_master_set ; 0xd538
        0x0000f894:    f24101bc    A...    MOV      r1,#0x10bc
        0x0000f898:    f2c10101    ....    MOVT     r1,#0x1001
        0x0000f89c:    2000        .       MOVS     r0,#0
        0x0000f89e:    7008        .p      STRB     r0,[r1,#0]
        0x0000f8a0:    f89d0027    ..'.    LDRB     r0,[sp,#0x27]
        0x0000f8a4:    f0000001    ....    AND      r0,r0,#1
        0x0000f8a8:    2179        y!      MOVS     r1,#0x79
        0x0000f8aa:    aa08        ..      ADD      r2,sp,#0x20
        0x0000f8ac:    2301        .#      MOVS     r3,#1
        0x0000f8ae:    f7ffff33    ..3.    BL       iom_target_read ; 0xf718
        0x0000f8b2:    f89d0020    .. .    LDRB     r0,[sp,#0x20]
        0x0000f8b6:    07c0        ..      LSLS     r0,r0,#31
        0x0000f8b8:    b178        x.      CBZ      r0,0xf8da ; main + 266
        0x0000f8ba:    e7ff        ..      B        0xf8bc ; main + 236
        0x0000f8bc:    2301        .#      MOVS     r3,#1
        0x0000f8be:    9302        ..      STR      r3,[sp,#8]
        0x0000f8c0:    9308        ..      STR      r3,[sp,#0x20]
        0x0000f8c2:    f89d0027    ..'.    LDRB     r0,[sp,#0x27]
        0x0000f8c6:    f0000001    ....    AND      r0,r0,#1
        0x0000f8ca:    21fa        .!      MOVS     r1,#0xfa
        0x0000f8cc:    aa08        ..      ADD      r2,sp,#0x20
        0x0000f8ce:    f7ffff51    ..Q.    BL       iom_target_write ; 0xf774
        0x0000f8d2:    9802        ..      LDR      r0,[sp,#8]
        0x0000f8d4:    f88d0026    ..&.    STRB     r0,[sp,#0x26]
        0x0000f8d8:    e7ff        ..      B        0xf8da ; main + 266
        0x0000f8da:    f89d0026    ..&.    LDRB     r0,[sp,#0x26]
        0x0000f8de:    07c0        ..      LSLS     r0,r0,#31
        0x0000f8e0:    2800        .(      CMP      r0,#0
        0x0000f8e2:    d05a        Z.      BEQ      0xf99a ; main + 458
        0x0000f8e4:    e7ff        ..      B        0xf8e6 ; main + 278
        0x0000f8e6:    2000        .       MOVS     r0,#0
        0x0000f8e8:    9005        ..      STR      r0,[sp,#0x14]
        0x0000f8ea:    f88d0026    ..&.    STRB     r0,[sp,#0x26]
        0x0000f8ee:    f89d0027    ..'.    LDRB     r0,[sp,#0x27]
        0x0000f8f2:    f0000001    ....    AND      r0,r0,#1
        0x0000f8f6:    217c        |!      MOVS     r1,#0x7c
        0x0000f8f8:    aa05        ..      ADD      r2,sp,#0x14
        0x0000f8fa:    2302        .#      MOVS     r3,#2
        0x0000f8fc:    f7ffff0c    ....    BL       iom_target_read ; 0xf718
        0x0000f900:    9805        ..      LDR      r0,[sp,#0x14]
        0x0000f902:    9907        ..      LDR      r1,[sp,#0x1c]
        0x0000f904:    4288        .B      CMP      r0,r1
        0x0000f906:    d903        ..      BLS      0xf910 ; main + 320
        0x0000f908:    e7ff        ..      B        0xf90a ; main + 314
        0x0000f90a:    9807        ..      LDR      r0,[sp,#0x1c]
        0x0000f90c:    9001        ..      STR      r0,[sp,#4]
        0x0000f90e:    e002        ..      B        0xf916 ; main + 326
        0x0000f910:    9805        ..      LDR      r0,[sp,#0x14]
        0x0000f912:    9001        ..      STR      r0,[sp,#4]
        0x0000f914:    e7ff        ..      B        0xf916 ; main + 326
        0x0000f916:    9801        ..      LDR      r0,[sp,#4]
        0x0000f918:    9005        ..      STR      r0,[sp,#0x14]
        0x0000f91a:    f7fffaab    ....    BL       clear_rx_buf ; 0xee74
        0x0000f91e:    9b05        ..      LDR      r3,[sp,#0x14]
        0x0000f920:    f89d0027    ..'.    LDRB     r0,[sp,#0x27]
        0x0000f924:    f0000001    ....    AND      r0,r0,#1
        0x0000f928:    f6442264    D.d"    MOV      r2,#0x4a64
        0x0000f92c:    f2c10201    ....    MOVT     r2,#0x1001
        0x0000f930:    217f        .!      MOVS     r1,#0x7f
        0x0000f932:    f7fffef1    ....    BL       iom_target_read ; 0xf718
        0x0000f936:    9805        ..      LDR      r0,[sp,#0x14]
        0x0000f938:    f000fab6    ....    BL       validate_rx_buf ; 0xfea8
        0x0000f93c:    b968        h.      CBNZ     r0,0xf95a ; main + 394
        0x0000f93e:    e7ff        ..      B        0xf940 ; main + 368
        0x0000f940:    f6446064    D.d`    MOV      r0,#0x4e64
        0x0000f944:    f2c10001    ....    MOVT     r0,#0x1001
        0x0000f948:    6801        .h      LDR      r1,[r0,#0]
        0x0000f94a:    9a05        ..      LDR      r2,[sp,#0x14]
        0x0000f94c:    f240508d    @..P    MOV      r0,#0x58d
        0x0000f950:    f2c00001    ....    MOVT     r0,#1
        0x0000f954:    f7feff24    ..$.    BL       am_util_stdio_printf ; 0xe7a0
        0x0000f958:    e7ff        ..      B        0xf95a ; main + 394
        0x0000f95a:    2002        .       MOVS     r0,#2
        0x0000f95c:    9008        ..      STR      r0,[sp,#0x20]
        0x0000f95e:    f6446064    D.d`    MOV      r0,#0x4e64
        0x0000f962:    f2c10001    ....    MOVT     r0,#0x1001
        0x0000f966:    9000        ..      STR      r0,[sp,#0]
        0x0000f968:    6800        .h      LDR      r0,[r0,#0]
        0x0000f96a:    f000fa7f    ....    BL       update_progress ; 0xfe6c
        0x0000f96e:    9800        ..      LDR      r0,[sp,#0]
        0x0000f970:    6800        .h      LDR      r0,[r0,#0]
        0x0000f972:    f2427110    B..q    MOV      r1,#0x2710
        0x0000f976:    4288        .B      CMP      r0,r1
        0x0000f978:    d305        ..      BCC      0xf986 ; main + 438
        0x0000f97a:    e7ff        ..      B        0xf97c ; main + 428
        0x0000f97c:    2001        .       MOVS     r0,#1
        0x0000f97e:    f88d0025    ..%.    STRB     r0,[sp,#0x25]
        0x0000f982:    9008        ..      STR      r0,[sp,#0x20]
        0x0000f984:    e7ff        ..      B        0xf986 ; main + 438
        0x0000f986:    f89d0027    ..'.    LDRB     r0,[sp,#0x27]
        0x0000f98a:    f0000001    ....    AND      r0,r0,#1
        0x0000f98e:    2180        .!      MOVS     r1,#0x80
        0x0000f990:    aa08        ..      ADD      r2,sp,#0x20
        0x0000f992:    2301        .#      MOVS     r3,#1
        0x0000f994:    f7fffeee    ....    BL       iom_target_write ; 0xf774
        0x0000f998:    e7ff        ..      B        0xf99a ; main + 458
        0x0000f99a:    e006        ..      B        0xf9aa ; main + 474
        0x0000f99c:    2001        .       MOVS     r0,#1
        0x0000f99e:    f7fefe45    ..E.    BL       am_hal_sysctrl_sleep ; 0xe62c
        0x0000f9a2:    9806        ..      LDR      r0,[sp,#0x18]
        0x0000f9a4:    f7fdfdc8    ....    BL       am_hal_interrupt_master_set ; 0xd538
        0x0000f9a8:    e7ff        ..      B        0xf9aa ; main + 474
        0x0000f9aa:    e75c        \.      B        0xf866 ; main + 150
        0x0000f9ac:    f6446064    D.d`    MOV      r0,#0x4e64
        0x0000f9b0:    f2c10001    ....    MOVT     r0,#0x1001
        0x0000f9b4:    6801        .h      LDR      r1,[r0,#0]
        0x0000f9b6:    f240506a    @.jP    MOV      r0,#0x56a
        0x0000f9ba:    f2c00001    ....    MOVT     r0,#1
        0x0000f9be:    f7fefeef    ....    BL       am_util_stdio_printf ; 0xe7a0
        0x0000f9c2:    e7ff        ..      B        0xf9c4 ; main + 500
        0x0000f9c4:    e7fe        ..      B        0xf9c4 ; main + 500
        0x0000f9c6:    0000        ..      MOVS     r0,r0
    ndigits_in_hex
        0x0000f9c8:    b084        ..      SUB      sp,sp,#0x10
        0x0000f9ca:    9103        ..      STR      r1,[sp,#0xc]
        0x0000f9cc:    9002        ..      STR      r0,[sp,#8]
        0x0000f9ce:    9802        ..      LDR      r0,[sp,#8]
        0x0000f9d0:    9903        ..      LDR      r1,[sp,#0xc]
        0x0000f9d2:    4308        .C      ORRS     r0,r0,r1
        0x0000f9d4:    fab0f080    ....    CLZ      r0,r0
        0x0000f9d8:    0940        @.      LSRS     r0,r0,#5
        0x0000f9da:    9001        ..      STR      r0,[sp,#4]
        0x0000f9dc:    e7ff        ..      B        0xf9de ; ndigits_in_hex + 22
        0x0000f9de:    9802        ..      LDR      r0,[sp,#8]
        0x0000f9e0:    9903        ..      LDR      r1,[sp,#0xc]
        0x0000f9e2:    4308        .C      ORRS     r0,r0,r1
        0x0000f9e4:    b160        `.      CBZ      r0,0xfa00 ; ndigits_in_hex + 56
        0x0000f9e6:    e7ff        ..      B        0xf9e8 ; ndigits_in_hex + 32
        0x0000f9e8:    9802        ..      LDR      r0,[sp,#8]
        0x0000f9ea:    9903        ..      LDR      r1,[sp,#0xc]
        0x0000f9ec:    0900        ..      LSRS     r0,r0,#4
        0x0000f9ee:    ea407001    @..p    ORR      r0,r0,r1,LSL #28
        0x0000f9f2:    0909        ..      LSRS     r1,r1,#4
        0x0000f9f4:    9103        ..      STR      r1,[sp,#0xc]
        0x0000f9f6:    9002        ..      STR      r0,[sp,#8]
        0x0000f9f8:    9801        ..      LDR      r0,[sp,#4]
        0x0000f9fa:    3001        .0      ADDS     r0,#1
        0x0000f9fc:    9001        ..      STR      r0,[sp,#4]
        0x0000f9fe:    e7ee        ..      B        0xf9de ; ndigits_in_hex + 22
        0x0000fa00:    9801        ..      LDR      r0,[sp,#4]
        0x0000fa02:    b004        ..      ADD      sp,sp,#0x10
        0x0000fa04:    4770        pG      BX       lr
        0x0000fa06:    0000        ..      MOVS     r0,r0
    ndigits_in_i64
        0x0000fa08:    b580        ..      PUSH     {r7,lr}
        0x0000fa0a:    b082        ..      SUB      sp,sp,#8
        0x0000fa0c:    9101        ..      STR      r1,[sp,#4]
        0x0000fa0e:    9000        ..      STR      r0,[sp,#0]
        0x0000fa10:    9801        ..      LDR      r0,[sp,#4]
        0x0000fa12:    f1b03fff    ...?    CMP      r0,#0xffffffff
        0x0000fa16:    dc09        ..      BGT      0xfa2c ; ndigits_in_i64 + 36
        0x0000fa18:    e7ff        ..      B        0xfa1a ; ndigits_in_i64 + 18
        0x0000fa1a:    9800        ..      LDR      r0,[sp,#0]
        0x0000fa1c:    9a01        ..      LDR      r2,[sp,#4]
        0x0000fa1e:    4241        AB      RSBS     r1,r0,#0
        0x0000fa20:    f04f0000    O...    MOV      r0,#0
        0x0000fa24:    4190        .A      SBCS     r0,r0,r2
        0x0000fa26:    9100        ..      STR      r1,[sp,#0]
        0x0000fa28:    9001        ..      STR      r0,[sp,#4]
        0x0000fa2a:    e7ff        ..      B        0xfa2c ; ndigits_in_i64 + 36
        0x0000fa2c:    9800        ..      LDR      r0,[sp,#0]
        0x0000fa2e:    9901        ..      LDR      r1,[sp,#4]
        0x0000fa30:    f000f802    ....    BL       ndigits_in_u64 ; 0xfa38
        0x0000fa34:    b002        ..      ADD      sp,sp,#8
        0x0000fa36:    bd80        ..      POP      {r7,pc}
    ndigits_in_u64
        0x0000fa38:    b580        ..      PUSH     {r7,lr}
        0x0000fa3a:    b084        ..      SUB      sp,sp,#0x10
        0x0000fa3c:    9103        ..      STR      r1,[sp,#0xc]
        0x0000fa3e:    9002        ..      STR      r0,[sp,#8]
        0x0000fa40:    9802        ..      LDR      r0,[sp,#8]
        0x0000fa42:    9903        ..      LDR      r1,[sp,#0xc]
        0x0000fa44:    4308        .C      ORRS     r0,r0,r1
        0x0000fa46:    fab0f080    ....    CLZ      r0,r0
        0x0000fa4a:    0940        @.      LSRS     r0,r0,#5
        0x0000fa4c:    9001        ..      STR      r0,[sp,#4]
        0x0000fa4e:    e7ff        ..      B        0xfa50 ; ndigits_in_u64 + 24
        0x0000fa50:    9802        ..      LDR      r0,[sp,#8]
        0x0000fa52:    9903        ..      LDR      r1,[sp,#0xc]
        0x0000fa54:    4308        .C      ORRS     r0,r0,r1
        0x0000fa56:    b150        P.      CBZ      r0,0xfa6e ; ndigits_in_u64 + 54
        0x0000fa58:    e7ff        ..      B        0xfa5a ; ndigits_in_u64 + 34
        0x0000fa5a:    9802        ..      LDR      r0,[sp,#8]
        0x0000fa5c:    9903        ..      LDR      r1,[sp,#0xc]
        0x0000fa5e:    f7fffa75    ..u.    BL       divu64_10 ; 0xef4c
        0x0000fa62:    9103        ..      STR      r1,[sp,#0xc]
        0x0000fa64:    9002        ..      STR      r0,[sp,#8]
        0x0000fa66:    9801        ..      LDR      r0,[sp,#4]
        0x0000fa68:    3001        .0      ADDS     r0,#1
        0x0000fa6a:    9001        ..      STR      r0,[sp,#4]
        0x0000fa6c:    e7f0        ..      B        0xfa50 ; ndigits_in_u64 + 24
        0x0000fa6e:    9801        ..      LDR      r0,[sp,#4]
        0x0000fa70:    b004        ..      ADD      sp,sp,#0x10
        0x0000fa72:    bd80        ..      POP      {r7,pc}
    padbuffer
        0x0000fa74:    b085        ..      SUB      sp,sp,#0x14
        0x0000fa76:    9003        ..      STR      r0,[sp,#0xc]
        0x0000fa78:    f88d100b    ....    STRB     r1,[sp,#0xb]
        0x0000fa7c:    9201        ..      STR      r2,[sp,#4]
        0x0000fa7e:    2000        .       MOVS     r0,#0
        0x0000fa80:    9000        ..      STR      r0,[sp,#0]
        0x0000fa82:    9801        ..      LDR      r0,[sp,#4]
        0x0000fa84:    2800        .(      CMP      r0,#0
        0x0000fa86:    dc03        ..      BGT      0xfa90 ; padbuffer + 28
        0x0000fa88:    e7ff        ..      B        0xfa8a ; padbuffer + 22
        0x0000fa8a:    9800        ..      LDR      r0,[sp,#0]
        0x0000fa8c:    9004        ..      STR      r0,[sp,#0x10]
        0x0000fa8e:    e016        ..      B        0xfabe ; padbuffer + 74
        0x0000fa90:    e7ff        ..      B        0xfa92 ; padbuffer + 30
        0x0000fa92:    9801        ..      LDR      r0,[sp,#4]
        0x0000fa94:    1e41        A.      SUBS     r1,r0,#1
        0x0000fa96:    9101        ..      STR      r1,[sp,#4]
        0x0000fa98:    b170        p.      CBZ      r0,0xfab8 ; padbuffer + 68
        0x0000fa9a:    e7ff        ..      B        0xfa9c ; padbuffer + 40
        0x0000fa9c:    9803        ..      LDR      r0,[sp,#0xc]
        0x0000fa9e:    b138        8.      CBZ      r0,0xfab0 ; padbuffer + 60
        0x0000faa0:    e7ff        ..      B        0xfaa2 ; padbuffer + 46
        0x0000faa2:    f89d000b    ....    LDRB     r0,[sp,#0xb]
        0x0000faa6:    9903        ..      LDR      r1,[sp,#0xc]
        0x0000faa8:    1c4a        J.      ADDS     r2,r1,#1
        0x0000faaa:    9203        ..      STR      r2,[sp,#0xc]
        0x0000faac:    7008        .p      STRB     r0,[r1,#0]
        0x0000faae:    e7ff        ..      B        0xfab0 ; padbuffer + 60
        0x0000fab0:    9800        ..      LDR      r0,[sp,#0]
        0x0000fab2:    3001        .0      ADDS     r0,#1
        0x0000fab4:    9000        ..      STR      r0,[sp,#0]
        0x0000fab6:    e7ec        ..      B        0xfa92 ; padbuffer + 30
        0x0000fab8:    9800        ..      LDR      r0,[sp,#0]
        0x0000faba:    9004        ..      STR      r0,[sp,#0x10]
        0x0000fabc:    e7ff        ..      B        0xfabe ; padbuffer + 74
        0x0000fabe:    9804        ..      LDR      r0,[sp,#0x10]
        0x0000fac0:    b005        ..      ADD      sp,sp,#0x14
        0x0000fac2:    4770        pG      BX       lr
    set_LPMMODE
        0x0000fac4:    b5f0        ..      PUSH     {r4-r7,lr}
        0x0000fac6:    b081        ..      SUB      sp,sp,#4
        0x0000fac8:    4604        .F      MOV      r4,r0
        0x0000faca:    2803        .(      CMP      r0,#3
        0x0000facc:    d851        Q.      BHI      0xfb72 ; set_LPMMODE + 174
        0x0000face:    f0040703    ....    AND      r7,r4,#3
        0x0000fad2:    f7fdfd29    ..).    BL       am_hal_interrupt_master_disable ; 0xd528
        0x0000fad6:    f2481500    H...    MOVW     r5,#0x8100
        0x0000fada:    f2c40501    ....    MOVT     r5,#0x4001
        0x0000fade:    9000        ..      STR      r0,[sp,#0]
        0x0000fae0:    4628        (F      MOV      r0,r5
        0x0000fae2:    f7fdfa5f    .._.    BL       am_hal_flash_load_ui32 ; 0xcfa4
        0x0000fae6:    f420507c     .|P    BIC      r0,r0,#0x3f00
        0x0000faea:    ea403007    @..0    ORR      r0,r0,r7,LSL #12
        0x0000faee:    f50061e0    ...a    ADD      r1,r0,#0x700
        0x0000faf2:    4628        (F      MOV      r0,r5
        0x0000faf4:    f7fdfa5a    ..Z.    BL       am_hal_flash_store_ui32 ; 0xcfac
        0x0000faf8:    9800        ..      LDR      r0,[sp,#0]
        0x0000fafa:    f7fdfd1d    ....    BL       am_hal_interrupt_master_set ; 0xd538
        0x0000fafe:    f7fdfd13    ....    BL       am_hal_interrupt_master_disable ; 0xd528
        0x0000fb02:    1d2e        ..      ADDS     r6,r5,#4
        0x0000fb04:    9000        ..      STR      r0,[sp,#0]
        0x0000fb06:    4630        0F      MOV      r0,r6
        0x0000fb08:    f7fdfa4c    ..L.    BL       am_hal_flash_load_ui32 ; 0xcfa4
        0x0000fb0c:    f420507c     .|P    BIC      r0,r0,#0x3f00
        0x0000fb10:    ea403007    @..0    ORR      r0,r0,r7,LSL #12
        0x0000fb14:    f50061e0    ...a    ADD      r1,r0,#0x700
        0x0000fb18:    4630        0F      MOV      r0,r6
        0x0000fb1a:    f7fdfa47    ..G.    BL       am_hal_flash_store_ui32 ; 0xcfac
        0x0000fb1e:    9800        ..      LDR      r0,[sp,#0]
        0x0000fb20:    f7fdfd0a    ....    BL       am_hal_interrupt_master_set ; 0xd538
        0x0000fb24:    f7fdfd00    ....    BL       am_hal_interrupt_master_disable ; 0xd528
        0x0000fb28:    f1050608    ....    ADD      r6,r5,#8
        0x0000fb2c:    9000        ..      STR      r0,[sp,#0]
        0x0000fb2e:    4630        0F      MOV      r0,r6
        0x0000fb30:    f7fdfa38    ..8.    BL       am_hal_flash_load_ui32 ; 0xcfa4
        0x0000fb34:    f420507c     .|P    BIC      r0,r0,#0x3f00
        0x0000fb38:    ea403007    @..0    ORR      r0,r0,r7,LSL #12
        0x0000fb3c:    f50061e0    ...a    ADD      r1,r0,#0x700
        0x0000fb40:    4630        0F      MOV      r0,r6
        0x0000fb42:    f7fdfa33    ..3.    BL       am_hal_flash_store_ui32 ; 0xcfac
        0x0000fb46:    9800        ..      LDR      r0,[sp,#0]
        0x0000fb48:    f7fdfcf6    ....    BL       am_hal_interrupt_master_set ; 0xd538
        0x0000fb4c:    f7fdfcec    ....    BL       am_hal_interrupt_master_disable ; 0xd528
        0x0000fb50:    350c        .5      ADDS     r5,r5,#0xc
        0x0000fb52:    9000        ..      STR      r0,[sp,#0]
        0x0000fb54:    4628        (F      MOV      r0,r5
        0x0000fb56:    f7fdfa25    ..%.    BL       am_hal_flash_load_ui32 ; 0xcfa4
        0x0000fb5a:    f420507c     .|P    BIC      r0,r0,#0x3f00
        0x0000fb5e:    ea403007    @..0    ORR      r0,r0,r7,LSL #12
        0x0000fb62:    f50061e0    ...a    ADD      r1,r0,#0x700
        0x0000fb66:    4628        (F      MOV      r0,r5
        0x0000fb68:    f7fdfa20    .. .    BL       am_hal_flash_store_ui32 ; 0xcfac
        0x0000fb6c:    9800        ..      LDR      r0,[sp,#0]
        0x0000fb6e:    f7fdfce3    ....    BL       am_hal_interrupt_master_set ; 0xd538
        0x0000fb72:    2000        .       MOVS     r0,#0
        0x0000fb74:    2c04        .,      CMP      r4,#4
        0x0000fb76:    bf38        8.      IT       CC
        0x0000fb78:    2001        .       MOVCC    r0,#1
        0x0000fb7a:    b001        ..      ADD      sp,sp,#4
        0x0000fb7c:    bdf0        ..      POP      {r4-r7,pc}
        0x0000fb7e:    0000        ..      MOVS     r0,r0
    set_RDWAIT
        0x0000fb80:    b5f0        ..      PUSH     {r4-r7,lr}
        0x0000fb82:    b081        ..      SUB      sp,sp,#4
        0x0000fb84:    4604        .F      MOV      r4,r0
        0x0000fb86:    280f        .(      CMP      r0,#0xf
        0x0000fb88:    d84b        K.      BHI      0xfc22 ; set_RDWAIT + 162
        0x0000fb8a:    f7fdfccd    ....    BL       am_hal_interrupt_master_disable ; 0xd528
        0x0000fb8e:    f2481500    H...    MOVW     r5,#0x8100
        0x0000fb92:    f2c40501    ....    MOVT     r5,#0x4001
        0x0000fb96:    9000        ..      STR      r0,[sp,#0]
        0x0000fb98:    4628        (F      MOV      r0,r5
        0x0000fb9a:    f7fdfa03    ....    BL       am_hal_flash_load_ui32 ; 0xcfa4
        0x0000fb9e:    f24f07f0    O...    MOV      r7,#0xf0f0
        0x0000fba2:    f6cf77ff    ...w    MOVT     r7,#0xffff
        0x0000fba6:    4038        8@      ANDS     r0,r0,r7
        0x0000fba8:    4320         C      ORRS     r0,r0,r4
        0x0000fbaa:    f44061e0    @..a    ORR      r1,r0,#0x700
        0x0000fbae:    4628        (F      MOV      r0,r5
        0x0000fbb0:    f7fdf9fc    ....    BL       am_hal_flash_store_ui32 ; 0xcfac
        0x0000fbb4:    9800        ..      LDR      r0,[sp,#0]
        0x0000fbb6:    f7fdfcbf    ....    BL       am_hal_interrupt_master_set ; 0xd538
        0x0000fbba:    f7fdfcb5    ....    BL       am_hal_interrupt_master_disable ; 0xd528
        0x0000fbbe:    1d2e        ..      ADDS     r6,r5,#4
        0x0000fbc0:    9000        ..      STR      r0,[sp,#0]
        0x0000fbc2:    4630        0F      MOV      r0,r6
        0x0000fbc4:    f7fdf9ee    ....    BL       am_hal_flash_load_ui32 ; 0xcfa4
        0x0000fbc8:    4038        8@      ANDS     r0,r0,r7
        0x0000fbca:    4320         C      ORRS     r0,r0,r4
        0x0000fbcc:    f44061e0    @..a    ORR      r1,r0,#0x700
        0x0000fbd0:    4630        0F      MOV      r0,r6
        0x0000fbd2:    f7fdf9eb    ....    BL       am_hal_flash_store_ui32 ; 0xcfac
        0x0000fbd6:    9800        ..      LDR      r0,[sp,#0]
        0x0000fbd8:    f7fdfcae    ....    BL       am_hal_interrupt_master_set ; 0xd538
        0x0000fbdc:    f7fdfca4    ....    BL       am_hal_interrupt_master_disable ; 0xd528
        0x0000fbe0:    f1050608    ....    ADD      r6,r5,#8
        0x0000fbe4:    9000        ..      STR      r0,[sp,#0]
        0x0000fbe6:    4630        0F      MOV      r0,r6
        0x0000fbe8:    f7fdf9dc    ....    BL       am_hal_flash_load_ui32 ; 0xcfa4
        0x0000fbec:    4038        8@      ANDS     r0,r0,r7
        0x0000fbee:    4320         C      ORRS     r0,r0,r4
        0x0000fbf0:    f44061e0    @..a    ORR      r1,r0,#0x700
        0x0000fbf4:    4630        0F      MOV      r0,r6
        0x0000fbf6:    f7fdf9d9    ....    BL       am_hal_flash_store_ui32 ; 0xcfac
        0x0000fbfa:    9800        ..      LDR      r0,[sp,#0]
        0x0000fbfc:    f7fdfc9c    ....    BL       am_hal_interrupt_master_set ; 0xd538
        0x0000fc00:    f7fdfc92    ....    BL       am_hal_interrupt_master_disable ; 0xd528
        0x0000fc04:    350c        .5      ADDS     r5,r5,#0xc
        0x0000fc06:    9000        ..      STR      r0,[sp,#0]
        0x0000fc08:    4628        (F      MOV      r0,r5
        0x0000fc0a:    f7fdf9cb    ....    BL       am_hal_flash_load_ui32 ; 0xcfa4
        0x0000fc0e:    4038        8@      ANDS     r0,r0,r7
        0x0000fc10:    4320         C      ORRS     r0,r0,r4
        0x0000fc12:    f44061e0    @..a    ORR      r1,r0,#0x700
        0x0000fc16:    4628        (F      MOV      r0,r5
        0x0000fc18:    f7fdf9c8    ....    BL       am_hal_flash_store_ui32 ; 0xcfac
        0x0000fc1c:    9800        ..      LDR      r0,[sp,#0]
        0x0000fc1e:    f7fdfc8b    ....    BL       am_hal_interrupt_master_set ; 0xd538
        0x0000fc22:    2000        .       MOVS     r0,#0
        0x0000fc24:    2c10        .,      CMP      r4,#0x10
        0x0000fc26:    bf38        8.      IT       CC
        0x0000fc28:    2001        .       MOVCC    r0,#1
        0x0000fc2a:    b001        ..      ADD      sp,sp,#4
        0x0000fc2c:    bdf0        ..      POP      {r4-r7,pc}
        0x0000fc2e:    0000        ..      MOVS     r0,r0
    set_SEDELAY
        0x0000fc30:    b5f0        ..      PUSH     {r4-r7,lr}
        0x0000fc32:    b081        ..      SUB      sp,sp,#4
        0x0000fc34:    4604        .F      MOV      r4,r0
        0x0000fc36:    2807        .(      CMP      r0,#7
        0x0000fc38:    d851        Q.      BHI      0xfcde ; set_SEDELAY + 174
        0x0000fc3a:    f0040707    ....    AND      r7,r4,#7
        0x0000fc3e:    f7fdfc73    ..s.    BL       am_hal_interrupt_master_disable ; 0xd528
        0x0000fc42:    f2481500    H...    MOVW     r5,#0x8100
        0x0000fc46:    f2c40501    ....    MOVT     r5,#0x4001
        0x0000fc4a:    9000        ..      STR      r0,[sp,#0]
        0x0000fc4c:    4628        (F      MOV      r0,r5
        0x0000fc4e:    f7fdf9a9    ....    BL       am_hal_flash_load_ui32 ; 0xcfa4
        0x0000fc52:    f4206077     .w`    BIC      r0,r0,#0xf70
        0x0000fc56:    ea401007    @...    ORR      r0,r0,r7,LSL #4
        0x0000fc5a:    f50061e0    ...a    ADD      r1,r0,#0x700
        0x0000fc5e:    4628        (F      MOV      r0,r5
        0x0000fc60:    f7fdf9a4    ....    BL       am_hal_flash_store_ui32 ; 0xcfac
        0x0000fc64:    9800        ..      LDR      r0,[sp,#0]
        0x0000fc66:    f7fdfc67    ..g.    BL       am_hal_interrupt_master_set ; 0xd538
        0x0000fc6a:    f7fdfc5d    ..].    BL       am_hal_interrupt_master_disable ; 0xd528
        0x0000fc6e:    1d2e        ..      ADDS     r6,r5,#4
        0x0000fc70:    9000        ..      STR      r0,[sp,#0]
        0x0000fc72:    4630        0F      MOV      r0,r6
        0x0000fc74:    f7fdf996    ....    BL       am_hal_flash_load_ui32 ; 0xcfa4
        0x0000fc78:    f4206077     .w`    BIC      r0,r0,#0xf70
        0x0000fc7c:    ea401007    @...    ORR      r0,r0,r7,LSL #4
        0x0000fc80:    f50061e0    ...a    ADD      r1,r0,#0x700
        0x0000fc84:    4630        0F      MOV      r0,r6
        0x0000fc86:    f7fdf991    ....    BL       am_hal_flash_store_ui32 ; 0xcfac
        0x0000fc8a:    9800        ..      LDR      r0,[sp,#0]
        0x0000fc8c:    f7fdfc54    ..T.    BL       am_hal_interrupt_master_set ; 0xd538
        0x0000fc90:    f7fdfc4a    ..J.    BL       am_hal_interrupt_master_disable ; 0xd528
        0x0000fc94:    f1050608    ....    ADD      r6,r5,#8
        0x0000fc98:    9000        ..      STR      r0,[sp,#0]
        0x0000fc9a:    4630        0F      MOV      r0,r6
        0x0000fc9c:    f7fdf982    ....    BL       am_hal_flash_load_ui32 ; 0xcfa4
        0x0000fca0:    f4206077     .w`    BIC      r0,r0,#0xf70
        0x0000fca4:    ea401007    @...    ORR      r0,r0,r7,LSL #4
        0x0000fca8:    f50061e0    ...a    ADD      r1,r0,#0x700
        0x0000fcac:    4630        0F      MOV      r0,r6
        0x0000fcae:    f7fdf97d    ..}.    BL       am_hal_flash_store_ui32 ; 0xcfac
        0x0000fcb2:    9800        ..      LDR      r0,[sp,#0]
        0x0000fcb4:    f7fdfc40    ..@.    BL       am_hal_interrupt_master_set ; 0xd538
        0x0000fcb8:    f7fdfc36    ..6.    BL       am_hal_interrupt_master_disable ; 0xd528
        0x0000fcbc:    350c        .5      ADDS     r5,r5,#0xc
        0x0000fcbe:    9000        ..      STR      r0,[sp,#0]
        0x0000fcc0:    4628        (F      MOV      r0,r5
        0x0000fcc2:    f7fdf96f    ..o.    BL       am_hal_flash_load_ui32 ; 0xcfa4
        0x0000fcc6:    f4206077     .w`    BIC      r0,r0,#0xf70
        0x0000fcca:    ea401007    @...    ORR      r0,r0,r7,LSL #4
        0x0000fcce:    f50061e0    ...a    ADD      r1,r0,#0x700
        0x0000fcd2:    4628        (F      MOV      r0,r5
        0x0000fcd4:    f7fdf96a    ..j.    BL       am_hal_flash_store_ui32 ; 0xcfac
        0x0000fcd8:    9800        ..      LDR      r0,[sp,#0]
        0x0000fcda:    f7fdfc2d    ..-.    BL       am_hal_interrupt_master_set ; 0xd538
        0x0000fcde:    2000        .       MOVS     r0,#0
        0x0000fce0:    2c08        .,      CMP      r4,#8
        0x0000fce2:    bf38        8.      IT       CC
        0x0000fce4:    2001        .       MOVCC    r0,#1
        0x0000fce6:    b001        ..      ADD      sp,sp,#4
        0x0000fce8:    bdf0        ..      POP      {r4-r7,pc}
        0x0000fcea:    0000        ..      MOVS     r0,r0
    simple_strlen
        0x0000fcec:    b083        ..      SUB      sp,sp,#0xc
        0x0000fcee:    9001        ..      STR      r0,[sp,#4]
        0x0000fcf0:    2000        .       MOVS     r0,#0
        0x0000fcf2:    9000        ..      STR      r0,[sp,#0]
        0x0000fcf4:    9801        ..      LDR      r0,[sp,#4]
        0x0000fcf6:    b918        ..      CBNZ     r0,0xfd00 ; simple_strlen + 20
        0x0000fcf8:    e7ff        ..      B        0xfcfa ; simple_strlen + 14
        0x0000fcfa:    9800        ..      LDR      r0,[sp,#0]
        0x0000fcfc:    9002        ..      STR      r0,[sp,#8]
        0x0000fcfe:    e00d        ..      B        0xfd1c ; simple_strlen + 48
        0x0000fd00:    e7ff        ..      B        0xfd02 ; simple_strlen + 22
        0x0000fd02:    9801        ..      LDR      r0,[sp,#4]
        0x0000fd04:    1c41        A.      ADDS     r1,r0,#1
        0x0000fd06:    9101        ..      STR      r1,[sp,#4]
        0x0000fd08:    7800        .x      LDRB     r0,[r0,#0]
        0x0000fd0a:    b120         .      CBZ      r0,0xfd16 ; simple_strlen + 42
        0x0000fd0c:    e7ff        ..      B        0xfd0e ; simple_strlen + 34
        0x0000fd0e:    9800        ..      LDR      r0,[sp,#0]
        0x0000fd10:    3001        .0      ADDS     r0,#1
        0x0000fd12:    9000        ..      STR      r0,[sp,#0]
        0x0000fd14:    e7f5        ..      B        0xfd02 ; simple_strlen + 22
        0x0000fd16:    9800        ..      LDR      r0,[sp,#0]
        0x0000fd18:    9002        ..      STR      r0,[sp,#8]
        0x0000fd1a:    e7ff        ..      B        0xfd1c ; simple_strlen + 48
        0x0000fd1c:    9802        ..      LDR      r0,[sp,#8]
        0x0000fd1e:    b003        ..      ADD      sp,sp,#0xc
        0x0000fd20:    4770        pG      BX       lr
        0x0000fd22:    0000        ..      MOVS     r0,r0
    uint64_to_hexstr
        0x0000fd24:    b08c        ..      SUB      sp,sp,#0x30
        0x0000fd26:    910b        ..      STR      r1,[sp,#0x2c]
        0x0000fd28:    900a        ..      STR      r0,[sp,#0x28]
        0x0000fd2a:    9209        ..      STR      r2,[sp,#0x24]
        0x0000fd2c:    f88d3023    ..#0    STRB     r3,[sp,#0x23]
        0x0000fd30:    2000        .       MOVS     r0,#0
        0x0000fd32:    9006        ..      STR      r0,[sp,#0x18]
        0x0000fd34:    980a        ..      LDR      r0,[sp,#0x28]
        0x0000fd36:    990b        ..      LDR      r1,[sp,#0x2c]
        0x0000fd38:    4308        .C      ORRS     r0,r0,r1
        0x0000fd3a:    b940        @.      CBNZ     r0,0xfd4e ; uint64_to_hexstr + 42
        0x0000fd3c:    e7ff        ..      B        0xfd3e ; uint64_to_hexstr + 26
        0x0000fd3e:    9a06        ..      LDR      r2,[sp,#0x18]
        0x0000fd40:    1c50        P.      ADDS     r0,r2,#1
        0x0000fd42:    9006        ..      STR      r0,[sp,#0x18]
        0x0000fd44:    f10d0103    ....    ADD      r1,sp,#3
        0x0000fd48:    2030        0       MOVS     r0,#0x30
        0x0000fd4a:    5488        .T      STRB     r0,[r1,r2]
        0x0000fd4c:    e7ff        ..      B        0xfd4e ; uint64_to_hexstr + 42
        0x0000fd4e:    e7ff        ..      B        0xfd50 ; uint64_to_hexstr + 44
        0x0000fd50:    980a        ..      LDR      r0,[sp,#0x28]
        0x0000fd52:    990b        ..      LDR      r1,[sp,#0x2c]
        0x0000fd54:    4308        .C      ORRS     r0,r0,r1
        0x0000fd56:    b350        P.      CBZ      r0,0xfdae ; uint64_to_hexstr + 138
        0x0000fd58:    e7ff        ..      B        0xfd5a ; uint64_to_hexstr + 54
        0x0000fd5a:    f89d0028    ..(.    LDRB     r0,[sp,#0x28]
        0x0000fd5e:    f000000f    ....    AND      r0,r0,#0xf
        0x0000fd62:    f88d0017    ....    STRB     r0,[sp,#0x17]
        0x0000fd66:    f89d0017    ....    LDRB     r0,[sp,#0x17]
        0x0000fd6a:    280a        .(      CMP      r0,#0xa
        0x0000fd6c:    db0d        ..      BLT      0xfd8a ; uint64_to_hexstr + 102
        0x0000fd6e:    e7ff        ..      B        0xfd70 ; uint64_to_hexstr + 76
        0x0000fd70:    f89d0023    ..#.    LDRB     r0,[sp,#0x23]
        0x0000fd74:    07c0        ..      LSLS     r0,r0,#31
        0x0000fd76:    2107        .!      MOVS     r1,#7
        0x0000fd78:    2800        .(      CMP      r0,#0
        0x0000fd7a:    bf18        ..      IT       NE
        0x0000fd7c:    2127        '!      MOVNE    r1,#0x27
        0x0000fd7e:    f89d0017    ....    LDRB     r0,[sp,#0x17]
        0x0000fd82:    4408        .D      ADD      r0,r0,r1
        0x0000fd84:    f88d0017    ....    STRB     r0,[sp,#0x17]
        0x0000fd88:    e7ff        ..      B        0xfd8a ; uint64_to_hexstr + 102
        0x0000fd8a:    f89d0017    ....    LDRB     r0,[sp,#0x17]
        0x0000fd8e:    3030        00      ADDS     r0,r0,#0x30
        0x0000fd90:    9a06        ..      LDR      r2,[sp,#0x18]
        0x0000fd92:    1c51        Q.      ADDS     r1,r2,#1
        0x0000fd94:    9106        ..      STR      r1,[sp,#0x18]
        0x0000fd96:    f10d0103    ....    ADD      r1,sp,#3
        0x0000fd9a:    5488        .T      STRB     r0,[r1,r2]
        0x0000fd9c:    980a        ..      LDR      r0,[sp,#0x28]
        0x0000fd9e:    990b        ..      LDR      r1,[sp,#0x2c]
        0x0000fda0:    0900        ..      LSRS     r0,r0,#4
        0x0000fda2:    ea407001    @..p    ORR      r0,r0,r1,LSL #28
        0x0000fda6:    0909        ..      LSRS     r1,r1,#4
        0x0000fda8:    910b        ..      STR      r1,[sp,#0x2c]
        0x0000fdaa:    900a        ..      STR      r0,[sp,#0x28]
        0x0000fdac:    e7d0        ..      B        0xfd50 ; uint64_to_hexstr + 44
        0x0000fdae:    9806        ..      LDR      r0,[sp,#0x18]
        0x0000fdb0:    9007        ..      STR      r0,[sp,#0x1c]
        0x0000fdb2:    9809        ..      LDR      r0,[sp,#0x24]
        0x0000fdb4:    b198        ..      CBZ      r0,0xfdde ; uint64_to_hexstr + 186
        0x0000fdb6:    e7ff        ..      B        0xfdb8 ; uint64_to_hexstr + 148
        0x0000fdb8:    e7ff        ..      B        0xfdba ; uint64_to_hexstr + 150
        0x0000fdba:    9806        ..      LDR      r0,[sp,#0x18]
        0x0000fdbc:    1e41        A.      SUBS     r1,r0,#1
        0x0000fdbe:    9106        ..      STR      r1,[sp,#0x18]
        0x0000fdc0:    b148        H.      CBZ      r0,0xfdd6 ; uint64_to_hexstr + 178
        0x0000fdc2:    e7ff        ..      B        0xfdc4 ; uint64_to_hexstr + 160
        0x0000fdc4:    9906        ..      LDR      r1,[sp,#0x18]
        0x0000fdc6:    f10d0003    ....    ADD      r0,sp,#3
        0x0000fdca:    5c40        @\      LDRB     r0,[r0,r1]
        0x0000fdcc:    9909        ..      LDR      r1,[sp,#0x24]
        0x0000fdce:    1c4a        J.      ADDS     r2,r1,#1
        0x0000fdd0:    9209        ..      STR      r2,[sp,#0x24]
        0x0000fdd2:    7008        .p      STRB     r0,[r1,#0]
        0x0000fdd4:    e7f1        ..      B        0xfdba ; uint64_to_hexstr + 150
        0x0000fdd6:    9909        ..      LDR      r1,[sp,#0x24]
        0x0000fdd8:    2000        .       MOVS     r0,#0
        0x0000fdda:    7008        .p      STRB     r0,[r1,#0]
        0x0000fddc:    e7ff        ..      B        0xfdde ; uint64_to_hexstr + 186
        0x0000fdde:    9807        ..      LDR      r0,[sp,#0x1c]
        0x0000fde0:    b00c        ..      ADD      sp,sp,#0x30
        0x0000fde2:    4770        pG      BX       lr
    uint64_to_str
        0x0000fde4:    b580        ..      PUSH     {r7,lr}
        0x0000fde6:    b090        ..      SUB      sp,sp,#0x40
        0x0000fde8:    910f        ..      STR      r1,[sp,#0x3c]
        0x0000fdea:    900e        ..      STR      r0,[sp,#0x38]
        0x0000fdec:    920d        ..      STR      r2,[sp,#0x34]
        0x0000fdee:    2000        .       MOVS     r0,#0
        0x0000fdf0:    9005        ..      STR      r0,[sp,#0x14]
        0x0000fdf2:    9004        ..      STR      r0,[sp,#0x10]
        0x0000fdf4:    e7ff        ..      B        0xfdf6 ; uint64_to_str + 18
        0x0000fdf6:    980e        ..      LDR      r0,[sp,#0x38]
        0x0000fdf8:    990f        ..      LDR      r1,[sp,#0x3c]
        0x0000fdfa:    f7fff8a7    ....    BL       divu64_10 ; 0xef4c
        0x0000fdfe:    9101        ..      STR      r1,[sp,#4]
        0x0000fe00:    9000        ..      STR      r0,[sp,#0]
        0x0000fe02:    980e        ..      LDR      r0,[sp,#0x38]
        0x0000fe04:    9900        ..      LDR      r1,[sp,#0]
        0x0000fe06:    eb010181    ....    ADD      r1,r1,r1,LSL #2
        0x0000fe0a:    eba00041    ..A.    SUB      r0,r0,r1,LSL #1
        0x0000fe0e:    9003        ..      STR      r0,[sp,#0xc]
        0x0000fe10:    9803        ..      LDR      r0,[sp,#0xc]
        0x0000fe12:    3030        00      ADDS     r0,r0,#0x30
        0x0000fe14:    9a05        ..      LDR      r2,[sp,#0x14]
        0x0000fe16:    1c51        Q.      ADDS     r1,r2,#1
        0x0000fe18:    9105        ..      STR      r1,[sp,#0x14]
        0x0000fe1a:    f10d011b    ....    ADD      r1,sp,#0x1b
        0x0000fe1e:    5488        .T      STRB     r0,[r1,r2]
        0x0000fe20:    9800        ..      LDR      r0,[sp,#0]
        0x0000fe22:    9901        ..      LDR      r1,[sp,#4]
        0x0000fe24:    910f        ..      STR      r1,[sp,#0x3c]
        0x0000fe26:    900e        ..      STR      r0,[sp,#0x38]
        0x0000fe28:    e7ff        ..      B        0xfe2a ; uint64_to_str + 70
        0x0000fe2a:    980e        ..      LDR      r0,[sp,#0x38]
        0x0000fe2c:    990f        ..      LDR      r1,[sp,#0x3c]
        0x0000fe2e:    4308        .C      ORRS     r0,r0,r1
        0x0000fe30:    2800        .(      CMP      r0,#0
        0x0000fe32:    d1e0        ..      BNE      0xfdf6 ; uint64_to_str + 18
        0x0000fe34:    e7ff        ..      B        0xfe36 ; uint64_to_str + 82
        0x0000fe36:    9805        ..      LDR      r0,[sp,#0x14]
        0x0000fe38:    9004        ..      STR      r0,[sp,#0x10]
        0x0000fe3a:    980d        ..      LDR      r0,[sp,#0x34]
        0x0000fe3c:    b198        ..      CBZ      r0,0xfe66 ; uint64_to_str + 130
        0x0000fe3e:    e7ff        ..      B        0xfe40 ; uint64_to_str + 92
        0x0000fe40:    e7ff        ..      B        0xfe42 ; uint64_to_str + 94
        0x0000fe42:    9805        ..      LDR      r0,[sp,#0x14]
        0x0000fe44:    1e41        A.      SUBS     r1,r0,#1
        0x0000fe46:    9105        ..      STR      r1,[sp,#0x14]
        0x0000fe48:    b148        H.      CBZ      r0,0xfe5e ; uint64_to_str + 122
        0x0000fe4a:    e7ff        ..      B        0xfe4c ; uint64_to_str + 104
        0x0000fe4c:    9905        ..      LDR      r1,[sp,#0x14]
        0x0000fe4e:    f10d001b    ....    ADD      r0,sp,#0x1b
        0x0000fe52:    5c40        @\      LDRB     r0,[r0,r1]
        0x0000fe54:    990d        ..      LDR      r1,[sp,#0x34]
        0x0000fe56:    1c4a        J.      ADDS     r2,r1,#1
        0x0000fe58:    920d        ..      STR      r2,[sp,#0x34]
        0x0000fe5a:    7008        .p      STRB     r0,[r1,#0]
        0x0000fe5c:    e7f1        ..      B        0xfe42 ; uint64_to_str + 94
        0x0000fe5e:    990d        ..      LDR      r1,[sp,#0x34]
        0x0000fe60:    2000        .       MOVS     r0,#0
        0x0000fe62:    7008        .p      STRB     r0,[r1,#0]
        0x0000fe64:    e7ff        ..      B        0xfe66 ; uint64_to_str + 130
        0x0000fe66:    9804        ..      LDR      r0,[sp,#0x10]
        0x0000fe68:    b010        ..      ADD      sp,sp,#0x40
        0x0000fe6a:    bd80        ..      POP      {r7,pc}
    update_progress
        0x0000fe6c:    b580        ..      PUSH     {r7,lr}
        0x0000fe6e:    b082        ..      SUB      sp,sp,#8
        0x0000fe70:    9001        ..      STR      r0,[sp,#4]
        0x0000fe72:    9801        ..      LDR      r0,[sp,#4]
        0x0000fe74:    f6446168    D.ha    MOV      r1,#0x4e68
        0x0000fe78:    f2c10101    ....    MOVT     r1,#0x1001
        0x0000fe7c:    6809        .h      LDR      r1,[r1,#0]
        0x0000fe7e:    1a40        @.      SUBS     r0,r0,r1
        0x0000fe80:    f5b07f7a    ..z.    CMP      r0,#0x3e8
        0x0000fe84:    d90d        ..      BLS      0xfea2 ; update_progress + 54
        0x0000fe86:    e7ff        ..      B        0xfe88 ; update_progress + 28
        0x0000fe88:    f24050f4    @..P    MOV      r0,#0x5f4
        0x0000fe8c:    f2c00001    ....    MOVT     r0,#1
        0x0000fe90:    f7fefc86    ....    BL       am_util_stdio_printf ; 0xe7a0
        0x0000fe94:    9801        ..      LDR      r0,[sp,#4]
        0x0000fe96:    f6446168    D.ha    MOV      r1,#0x4e68
        0x0000fe9a:    f2c10101    ....    MOVT     r1,#0x1001
        0x0000fe9e:    6008        .`      STR      r0,[r1,#0]
        0x0000fea0:    e7ff        ..      B        0xfea2 ; update_progress + 54
        0x0000fea2:    b002        ..      ADD      sp,sp,#8
        0x0000fea4:    bd80        ..      POP      {r7,pc}
        0x0000fea6:    0000        ..      MOVS     r0,r0
    validate_rx_buf
        0x0000fea8:    b580        ..      PUSH     {r7,lr}
        0x0000feaa:    b082        ..      SUB      sp,sp,#8
        0x0000feac:    9001        ..      STR      r0,[sp,#4]
        0x0000feae:    2000        .       MOVS     r0,#0
        0x0000feb0:    9000        ..      STR      r0,[sp,#0]
        0x0000feb2:    e7ff        ..      B        0xfeb4 ; validate_rx_buf + 12
        0x0000feb4:    9800        ..      LDR      r0,[sp,#0]
        0x0000feb6:    9901        ..      LDR      r1,[sp,#4]
        0x0000feb8:    4288        .B      CMP      r0,r1
        0x0000feba:    d21e        ..      BCS      0xfefa ; validate_rx_buf + 82
        0x0000febc:    e7ff        ..      B        0xfebe ; validate_rx_buf + 22
        0x0000febe:    9900        ..      LDR      r1,[sp,#0]
        0x0000fec0:    f6442064    D.d     MOV      r0,#0x4a64
        0x0000fec4:    f2c10001    ....    MOVT     r0,#0x1001
        0x0000fec8:    5c40        @\      LDRB     r0,[r0,r1]
        0x0000feca:    f6446164    D.da    MOV      r1,#0x4e64
        0x0000fece:    f2c10101    ....    MOVT     r1,#0x1001
        0x0000fed2:    6809        .h      LDR      r1,[r1,#0]
        0x0000fed4:    9a00        ..      LDR      r2,[sp,#0]
        0x0000fed6:    4411        .D      ADD      r1,r1,r2
        0x0000fed8:    b2c9        ..      UXTB     r1,r1
        0x0000feda:    4288        .B      CMP      r0,r1
        0x0000fedc:    d008        ..      BEQ      0xfef0 ; validate_rx_buf + 72
        0x0000fede:    e7ff        ..      B        0xfee0 ; validate_rx_buf + 56
        0x0000fee0:    9900        ..      LDR      r1,[sp,#0]
        0x0000fee2:    f2405042    @.BP    MOV      r0,#0x542
        0x0000fee6:    f2c00001    ....    MOVT     r0,#1
        0x0000feea:    f7fefc59    ..Y.    BL       am_util_stdio_printf ; 0xe7a0
        0x0000feee:    e004        ..      B        0xfefa ; validate_rx_buf + 82
        0x0000fef0:    e7ff        ..      B        0xfef2 ; validate_rx_buf + 74
        0x0000fef2:    9800        ..      LDR      r0,[sp,#0]
        0x0000fef4:    3001        .0      ADDS     r0,#1
        0x0000fef6:    9000        ..      STR      r0,[sp,#0]
        0x0000fef8:    e7dc        ..      B        0xfeb4 ; validate_rx_buf + 12
        0x0000fefa:    9a01        ..      LDR      r2,[sp,#4]
        0x0000fefc:    f6446164    D.da    MOV      r1,#0x4e64
        0x0000ff00:    f2c10101    ....    MOVT     r1,#0x1001
        0x0000ff04:    6808        .h      LDR      r0,[r1,#0]
        0x0000ff06:    4410        .D      ADD      r0,r0,r2
        0x0000ff08:    6008        .`      STR      r0,[r1,#0]
        0x0000ff0a:    9800        ..      LDR      r0,[sp,#0]
        0x0000ff0c:    9901        ..      LDR      r1,[sp,#4]
        0x0000ff0e:    1a40        @.      SUBS     r0,r0,r1
        0x0000ff10:    fab0f080    ....    CLZ      r0,r0
        0x0000ff14:    0940        @.      LSRS     r0,r0,#5
        0x0000ff16:    b002        ..      ADD      sp,sp,#8
        0x0000ff18:    bd80        ..      POP      {r7,pc}
        0x0000ff1a:    0000        ..      MOVS     r0,r0
    $t
    x$fpl$d2f
    $v0
    __aeabi_d2f
    _d2f
        0x0000ff1c:    f0214200    !..B    BIC      r2,r1,#0x80000000
        0x0000ff20:    f0014300    ...C    AND      r3,r1,#0x80000000
        0x0000ff24:    f1a25260    ..`R    SUB      r2,r2,#0x38000000
        0x0000ff28:    f5b21f80    ....    CMP      r2,#0x100000
        0x0000ff2c:    bf28        (.      IT       CS
        0x0000ff2e:    f1d26c7f    ...l    RSBSCS   r12,r2,#0xff00000
        0x0000ff32:    d90b        ..      BLS      0xff4c ; __aeabi_d2f + 48
        0x0000ff34:    ea5f1c00    _...    LSLS     r12,r0,#4
        0x0000ff38:    ea4302c2    C...    ORR      r2,r3,r2,LSL #3
        0x0000ff3c:    eb427050    B.Pp    ADC      r0,r2,r0,LSR #29
        0x0000ff40:    bf18        ..      IT       NE
        0x0000ff42:    4770        pG      BXNE     lr
        0x0000ff44:    bf28        (.      IT       CS
        0x0000ff46:    f0200001     ...    BICCS    r0,r0,#1
        0x0000ff4a:    4770        pG      BX       lr
        0x0000ff4c:    f5b21f80    ....    CMP      r2,#0x100000
        0x0000ff50:    bfbc        ..      ITT      LT
        0x0000ff52:    4618        .F      MOVLT    r0,r3
        0x0000ff54:    4770        pG      BXLT     lr
        0x0000ff56:    ea4f0c41    O.A.    LSL      r12,r1,#1
        0x0000ff5a:    f51c1f00    ....    CMN      r12,#0x200000
        0x0000ff5e:    d202        ..      BCS      0xff66 ; __aeabi_d2f + 74
        0x0000ff60:    4608        .F      MOV      r0,r1
        0x0000ff62:    f000b867    ..g.    B.W      __fpl_fretinf ; 0x10034
        0x0000ff66:    b570        p.      PUSH     {r4-r6,lr}
        0x0000ff68:    f000f809    ....    BL       __fpl_dnaninf ; 0xff7e
    $d
        0x0000ff6c:    89000000    ....    DCD    2298478592
    $t
        0x0000ff70:    f7ffbff6    ....    B.W      0xff60 ; __aeabi_d2f + 68
        0x0000ff74:    f04f4000    O..@    MOV      r0,#0x80000000
        0x0000ff78:    f5a00080    ....    SUB      r0,r0,#0x400000
        0x0000ff7c:    4770        pG      BX       lr
    x$fpl$dnaninf
    $v0
    __fpl_dnaninf
        0x0000ff7e:    f10e0e02    ....    ADD      lr,lr,#2
        0x0000ff82:    f02e0e03    ....    BIC      lr,lr,#3
        0x0000ff86:    f85e6b04    ^..k    LDR      r6,[lr],#4
        0x0000ff8a:    4236        6B      TST      r6,r6
        0x0000ff8c:    d405        ..      BMI      0xff9a ; __fpl_dnaninf + 28
        0x0000ff8e:    2a01        .*      CMP      r2,#1
        0x0000ff90:    eb430503    C...    ADC      r5,r3,r3
        0x0000ff94:    f5151f00    ....    CMN      r5,#0x200000
        0x0000ff98:    d812        ..      BHI      0xffc0 ; __fpl_dnaninf + 66
        0x0000ff9a:    2801        .(      CMP      r0,#1
        0x0000ff9c:    eb410c01    A...    ADC      r12,r1,r1
        0x0000ffa0:    f51c1f00    ....    CMN      r12,#0x200000
        0x0000ffa4:    d80c        ..      BHI      0xffc0 ; __fpl_dnaninf + 66
        0x0000ffa6:    d10e        ..      BNE      0xffc6 ; __fpl_dnaninf + 72
        0x0000ffa8:    ea4f7cd1    O..|    LSR      r12,r1,#31
        0x0000ffac:    eb0c0c4c    ..L.    ADD      r12,r12,r12,LSL #1
        0x0000ffb0:    f10c0c02    ....    ADD      r12,r12,#2
        0x0000ffb4:    f5151f00    ....    CMN      r5,#0x200000
        0x0000ffb8:    bf08        ..      IT       EQ
        0x0000ffba:    eb4c7cd3    L..|    ADCEQ    r12,r12,r3,LSR #31
        0x0000ffbe:    e004        ..      B        0xffca ; __fpl_dnaninf + 76
        0x0000ffc0:    f04f0c08    O...    MOV      r12,#8
        0x0000ffc4:    e001        ..      B        0xffca ; __fpl_dnaninf + 76
        0x0000ffc6:    ea4f7cd3    O..|    LSR      r12,r3,#31
        0x0000ffca:    eb0c054c    ..L.    ADD      r5,r12,r12,LSL #1
        0x0000ffce:    fa26f605    &...    LSR      r6,r6,r5
        0x0000ffd2:    f0060607    ....    AND      r6,r6,#7
        0x0000ffd6:    f1b60c04    ....    SUBS     r12,r6,#4
        0x0000ffda:    d206        ..      BCS      0xffea ; __fpl_dnaninf + 108
        0x0000ffdc:    eb0e0c86    ....    ADD      r12,lr,r6,LSL #2
        0x0000ffe0:    e8bd4070    ..p@    POP      {r4-r6,lr}
        0x0000ffe4:    f04c0c01    L...    ORR      r12,r12,#1
        0x0000ffe8:    4760        `G      BX       r12
        0x0000ffea:    e8dff00c    ....    TBB      [pc,r12]
    $d
        0x0000ffee:    0b09        ..      DCW    2825
        0x0000fff0:    0202        ..      DCW    514
    $t
        0x0000fff2:    f04f4100    O..A    MOV      r1,#0x80000000
        0x0000fff6:    f5a12100    ...!    SUB      r1,r1,#0x80000
        0x0000fffa:    f04f0000    O...    MOV      r0,#0
        0x0000fffe:    bd70        p.      POP      {r4-r6,pc}
        0x00010000:    4619        .F      MOV      r1,r3
        0x00010002:    4610        .F      MOV      r0,r2
        0x00010004:    2801        .(      CMP      r0,#1
        0x00010006:    eb510401    Q...    ADCS     r4,r1,r1
        0x0001000a:    bf18        ..      IT       NE
        0x0001000c:    f5d41400    ....    RSBSNE   r4,r4,#0x200000
        0x00010010:    bf84        ..      ITT      HI
        0x00010012:    2000        .       MOVHI    r0,#0
        0x00010014:    f0014100    ...A    ANDHI    r1,r1,#0x80000000
        0x00010018:    bd70        p.      POP      {r4-r6,pc}
    x$fpl$fpinit
    $v0
    _fp_init
        0x0001001a:    eef10a10    ....    VMRS     r0,FPSCR
        0x0001001e:    f64f71ff    O..q    MOV      r1,#0xffff
        0x00010022:    f2c031c0    ...1    MOVT     r1,#0x3c0
        0x00010026:    ea200001     ...    BIC      r0,r0,r1
        0x0001002a:    f0407040    @.@p    ORR      r0,r0,#0x3000000
        0x0001002e:    eee10a10    ....    VMSR     FPSCR,r0
    __fplib_config_fpu_vfp
    __fplib_config_pureend_doubles
        0x00010032:    4770        pG      BX       lr
    x$fpl$fretinf
    $v0
    __fpl_fretinf
        0x00010034:    21ff        .!      MOVS     r1,#0xff
        0x00010036:    ea4150d0    A..P    ORR      r0,r1,r0,LSR #23
        0x0001003a:    05c0        ..      LSLS     r0,r0,#23
        0x0001003c:    4770        pG      BX       lr
    $d.realdata
    x$fpl$usenofp
    __I$use$fp
    am_hal_cachectrl_defaults
        0x0001003e:    0308        ..      DCW    776
        0x00010040:    00000000    ....    DCD    0
    am_hal_pwrctrl_peripheral_control
        0x00010044:    00000000    ....    DCD    0
        0x00010048:    00000000    ....    DCD    0
        0x0001004c:    00000000    ....    DCD    0
        0x00010050:    00000001    ....    DCD    1
        0x00010054:    00000004    ....    DCD    4
        0x00010058:    00000004    ....    DCD    4
        0x0001005c:    00000002    ....    DCD    2
        0x00010060:    00000008    ....    DCD    8
        0x00010064:    00000008    ....    DCD    8
        0x00010068:    00000004    ....    DCD    4
        0x0001006c:    00000008    ....    DCD    8
        0x00010070:    00000008    ....    DCD    8
        0x00010074:    00000008    ....    DCD    8
        0x00010078:    00000008    ....    DCD    8
        0x0001007c:    00000008    ....    DCD    8
        0x00010080:    00000010    ....    DCD    16
        0x00010084:    00000010    ....    DCD    16
        0x00010088:    00000010    ....    DCD    16
        0x0001008c:    00000020     ...    DCD    32
        0x00010090:    00000010    ....    DCD    16
        0x00010094:    00000010    ....    DCD    16
        0x00010098:    00000040    @...    DCD    64
        0x0001009c:    00000010    ....    DCD    16
        0x000100a0:    00000010    ....    DCD    16
        0x000100a4:    00000080    ....    DCD    128
        0x000100a8:    00000004    ....    DCD    4
        0x000100ac:    00000004    ....    DCD    4
        0x000100b0:    00000100    ....    DCD    256
        0x000100b4:    00000004    ....    DCD    4
        0x000100b8:    00000004    ....    DCD    4
        0x000100bc:    00000200    ....    DCD    512
        0x000100c0:    00000020     ...    DCD    32
        0x000100c4:    00000020     ...    DCD    32
        0x000100c8:    00000400    ....    DCD    1024
        0x000100cc:    00000004    ....    DCD    4
        0x000100d0:    00000004    ....    DCD    4
        0x000100d4:    00000800    ....    DCD    2048
        0x000100d8:    00000040    @...    DCD    64
        0x000100dc:    00000040    @...    DCD    64
        0x000100e0:    00001000    ....    DCD    4096
        0x000100e4:    00000040    @...    DCD    64
        0x000100e8:    00000040    @...    DCD    64
        0x000100ec:    00002000    . ..    DCD    8192
        0x000100f0:    00000040    @...    DCD    64
        0x000100f4:    00000040    @...    DCD    64
        0x000100f8:    00004000    .@..    DCD    16384
        0x000100fc:    00000080    ....    DCD    128
        0x00010100:    00000080    ....    DCD    128
        0x00010104:    00008000    ....    DCD    32768
        0x00010108:    00000100    ....    DCD    256
        0x0001010c:    00000100    ....    DCD    256
    gAmHalCmdQReg
        0x00010110:    50004294    .B.P    DCD    1342194324
        0x00010114:    50004298    .B.P    DCD    1342194328
        0x00010118:    500042ac    .B.P    DCD    1342194348
        0x0001011c:    500042b0    .B.P    DCD    1342194352
        0x00010120:    500042a8    .B.P    DCD    1342194344
        0x00010124:    00008000    ....    DCD    32768
        0x00010128:    5000429c    .B.P    DCD    1342194332
        0x0001012c:    00000001    ....    DCD    1
        0x00010130:    00000004    ....    DCD    4
        0x00010134:    00000002    ....    DCD    2
        0x00010138:    50005294    .R.P    DCD    1342198420
        0x0001013c:    50005298    .R.P    DCD    1342198424
        0x00010140:    500052ac    .R.P    DCD    1342198444
        0x00010144:    500052b0    .R.P    DCD    1342198448
        0x00010148:    500052a8    .R.P    DCD    1342198440
        0x0001014c:    00008000    ....    DCD    32768
        0x00010150:    5000529c    .R.P    DCD    1342198428
        0x00010154:    00000001    ....    DCD    1
        0x00010158:    00000004    ....    DCD    4
        0x0001015c:    00000002    ....    DCD    2
        0x00010160:    50006294    .b.P    DCD    1342202516
        0x00010164:    50006298    .b.P    DCD    1342202520
        0x00010168:    500062ac    .b.P    DCD    1342202540
        0x0001016c:    500062b0    .b.P    DCD    1342202544
        0x00010170:    500062a8    .b.P    DCD    1342202536
        0x00010174:    00008000    ....    DCD    32768
        0x00010178:    5000629c    .b.P    DCD    1342202524
        0x0001017c:    00000001    ....    DCD    1
        0x00010180:    00000004    ....    DCD    4
        0x00010184:    00000002    ....    DCD    2
        0x00010188:    50007294    .r.P    DCD    1342206612
        0x0001018c:    50007298    .r.P    DCD    1342206616
        0x00010190:    500072ac    .r.P    DCD    1342206636
        0x00010194:    500072b0    .r.P    DCD    1342206640
        0x00010198:    500072a8    .r.P    DCD    1342206632
        0x0001019c:    00008000    ....    DCD    32768
        0x000101a0:    5000729c    .r.P    DCD    1342206620
        0x000101a4:    00000001    ....    DCD    1
        0x000101a8:    00000004    ....    DCD    4
        0x000101ac:    00000002    ....    DCD    2
        0x000101b0:    50008294    ...P    DCD    1342210708
        0x000101b4:    50008298    ...P    DCD    1342210712
        0x000101b8:    500082ac    ...P    DCD    1342210732
        0x000101bc:    500082b0    ...P    DCD    1342210736
        0x000101c0:    500082a8    ...P    DCD    1342210728
        0x000101c4:    00008000    ....    DCD    32768
        0x000101c8:    5000829c    ...P    DCD    1342210716
        0x000101cc:    00000001    ....    DCD    1
        0x000101d0:    00000004    ....    DCD    4
        0x000101d4:    00000002    ....    DCD    2
        0x000101d8:    50009294    ...P    DCD    1342214804
        0x000101dc:    50009298    ...P    DCD    1342214808
        0x000101e0:    500092ac    ...P    DCD    1342214828
        0x000101e4:    500092b0    ...P    DCD    1342214832
        0x000101e8:    500092a8    ...P    DCD    1342214824
        0x000101ec:    00008000    ....    DCD    32768
        0x000101f0:    5000929c    ...P    DCD    1342214812
        0x000101f4:    00000001    ....    DCD    1
        0x000101f8:    00000004    ....    DCD    4
        0x000101fc:    00000002    ....    DCD    2
        0x00010200:    500142a0    .B.P    DCD    1342259872
        0x00010204:    500142a8    .B.P    DCD    1342259880
        0x00010208:    500142c0    .B.P    DCD    1342259904
        0x0001020c:    500142c4    .B.P    DCD    1342259908
        0x00010210:    500142b8    .B.P    DCD    1342259896
        0x00010214:    00004000    .@..    DCD    16384
        0x00010218:    500142ac    .B.P    DCD    1342259884
        0x0001021c:    00000001    ....    DCD    1
        0x00010220:    00000004    ....    DCD    4
        0x00010224:    00000008    ....    DCD    8
        0x00010228:    500152a0    .R.P    DCD    1342263968
        0x0001022c:    500152a8    .R.P    DCD    1342263976
        0x00010230:    500152c0    .R.P    DCD    1342264000
        0x00010234:    500152c4    .R.P    DCD    1342264004
        0x00010238:    500152b8    .R.P    DCD    1342263992
        0x0001023c:    00004000    .@..    DCD    16384
        0x00010240:    500152ac    .R.P    DCD    1342263980
        0x00010244:    00000001    ....    DCD    1
        0x00010248:    00000004    ....    DCD    4
        0x0001024c:    00000008    ....    DCD    8
        0x00010250:    500162a0    .b.P    DCD    1342268064
        0x00010254:    500162a8    .b.P    DCD    1342268072
        0x00010258:    500162c0    .b.P    DCD    1342268096
        0x0001025c:    500162c4    .b.P    DCD    1342268100
        0x00010260:    500162b8    .b.P    DCD    1342268088
        0x00010264:    00004000    .@..    DCD    16384
        0x00010268:    500162ac    .b.P    DCD    1342268076
        0x0001026c:    00000001    ....    DCD    1
        0x00010270:    00000004    ....    DCD    4
        0x00010274:    00000008    ....    DCD    8
        0x00010278:    5000c248    H..P    DCD    1342227016
        0x0001027c:    5000c24c    L..P    DCD    1342227020
        0x00010280:    5000c260    `..P    DCD    1342227040
        0x00010284:    5000c264    d..P    DCD    1342227044
        0x00010288:    5000c25c    \..P    DCD    1342227036
        0x0001028c:    00008000    ....    DCD    32768
        0x00010290:    5000c250    P..P    DCD    1342227024
        0x00010294:    00000001    ....    DCD    1
        0x00010298:    00000004    ....    DCD    4
        0x0001029c:    00000002    ....    DCD    2
    g_AM_BSP_GPIO_FT_BRIDGE_MISO
        0x000102a0:    00050005    ....    DCD    327685
    g_AM_BSP_GPIO_FT_BRIDGE_MOSI
        0x000102a4:    00050305    ....    DCD    328453
    g_AM_BSP_GPIO_FT_BRIDGE_SCK
        0x000102a8:    00050b45    E...    DCD    330565
    g_AM_BSP_GPIO_FT_BRIDGE_SS
        0x000102ac:    00350701    ..5.    DCD    3475201
    g_AM_BSP_GPIO_HANDSHAKE
        0x000102b0:    00001003    ....    DCD    4099
    g_AM_BSP_GPIO_IOM0_CS
        0x000102b4:    00010701    ....    DCD    67329
    g_AM_BSP_GPIO_IOM0_MISO
        0x000102b8:    00010001    ....    DCD    65537
    g_AM_BSP_GPIO_IOM0_MOSI
        0x000102bc:    00010301    ....    DCD    66305
    g_AM_BSP_GPIO_IOM0_SCK
        0x000102c0:    00010301    ....    DCD    66305
    g_AM_BSP_GPIO_IOM0_SCL
        0x000102c4:    00010b40    @...    DCD    68416
    g_AM_BSP_GPIO_IOM0_SDA
        0x000102c8:    00010b40    @...    DCD    68416
    g_AM_BSP_GPIO_IOM1_CS
        0x000102cc:    00230701    ..#.    DCD    2295553
    g_AM_BSP_GPIO_IOM1_MISO
        0x000102d0:    00030001    ....    DCD    196609
    g_AM_BSP_GPIO_IOM1_MOSI
        0x000102d4:    00030301    ....    DCD    197377
    g_AM_BSP_GPIO_IOM1_SCK
        0x000102d8:    00030301    ....    DCD    197377
    g_AM_BSP_GPIO_IOM1_SCL
        0x000102dc:    00030b40    @...    DCD    199488
    g_AM_BSP_GPIO_IOM1_SDA
        0x000102e0:    00030b40    @...    DCD    199488
    g_AM_BSP_GPIO_IOM2_SCL
        0x000102e4:    00050b44    D...    DCD    330564
    g_AM_BSP_GPIO_IOM2_SDA
        0x000102e8:    00050b44    D...    DCD    330564
    g_AM_BSP_GPIO_IOM3_CS
        0x000102ec:    00070701    ....    DCD    460545
    g_AM_BSP_GPIO_IOM3_MISO
        0x000102f0:    00070005    ....    DCD    458757
    g_AM_BSP_GPIO_IOM3_MOSI
        0x000102f4:    00070305    ....    DCD    459525
    g_AM_BSP_GPIO_IOM3_SCK
        0x000102f8:    00070305    ....    DCD    459525
    g_AM_BSP_GPIO_IOM3_SCL
        0x000102fc:    00070b44    D...    DCD    461636
    g_AM_BSP_GPIO_IOM3_SDA
        0x00010300:    00070b44    D...    DCD    461636
    g_AM_BSP_GPIO_IOM4_CS
        0x00010304:    00190701    ....    DCD    1640193
    g_AM_BSP_GPIO_IOM4_MISO
        0x00010308:    00090005    ....    DCD    589829
    g_AM_BSP_GPIO_IOM4_MOSI
        0x0001030c:    00090305    ....    DCD    590597
    g_AM_BSP_GPIO_IOM4_SCK
        0x00010310:    00090305    ....    DCD    590597
    g_AM_BSP_GPIO_IOM4_SCL
        0x00010314:    00090b44    D...    DCD    592708
    g_AM_BSP_GPIO_IOM4_SDA
        0x00010318:    00090b44    D...    DCD    592708
    g_AM_BSP_GPIO_IOM5_CS
        0x0001031c:    000b0701    ....    DCD    722689
    g_AM_BSP_GPIO_IOM5_MISO
        0x00010320:    000b0005    ....    DCD    720901
    g_AM_BSP_GPIO_IOM5_MOSI
        0x00010324:    000b0305    ....    DCD    721669
    g_AM_BSP_GPIO_IOM5_SCK
        0x00010328:    000b0305    ....    DCD    721669
    g_AM_BSP_GPIO_IOM5_SCL
        0x0001032c:    000b0b44    D...    DCD    723780
    g_AM_BSP_GPIO_IOM5_SDA
        0x00010330:    000b0b44    D...    DCD    723780
    g_AM_BSP_GPIO_ITM_SWO
        0x00010334:    00000002    ....    DCD    2
    g_AM_HAL_GPIO_OUTPUT
        0x00010338:    00000403    ....    DCD    1027
    g_ui8Bit76Capabilities
        0x0001033c:    02800101    ....    DCD    41943297
        0x00010340:    80010180    ....    DCD    2147549568
        0x00010344:    80800101    ....    DCD    2155872513
        0x00010348:    80808080    ....    DCD    2155905152
        0x0001034c:    80808080    ....    DCD    2155905152
        0x00010350:    80808008    ....    DCD    2155905032
        0x00010354:    01800180    ....    DCD    25166208
        0x00010358:    80808080    ....    DCD    2155905152
        0x0001035c:    80808080    ....    DCD    2155905152
        0x00010360:    01800402    ....    DCD    25166850
        0x00010364:    01010401    ....    DCD    16843777
        0x00010368:    80808080    ....    DCD    2155905152
        0x0001036c:    80800101    ....    DCD    2155872513
        0x00010370:    80808080    ....    DCD    2155905152
        0x00010374:    80808080    ....    DCD    2155905152
        0x00010378:    80808080    ....    DCD    2155905152
        0x0001037c:    80808080    ....    DCD    2155905152
        0x00010380:    80808080    ....    DCD    2155905152
        0x00010384:    8080        ..      DCW    32896
    g_ui8Inpen
        0x00010386:    2323        ##      DCW    8995
        0x00010388:    03a16227    'b..    DCD    60908071
        0x0001038c:    53031087    ...S    DCD    1392709767
        0x00010390:    8151e100    ..Q.    DCD    2169626880
        0x00010394:    c4055541    AU..    DCD    3288683841
        0x00010398:    b1014080    .@..    DCD    2969649280
        0x0001039c:    31144140    @A.1    DCD    823411008
        0x000103a0:    f10031a0    .1..    DCD    4043321760
        0x000103a4:    21911180    ...!    DCD    563155328
        0x000103a8:    11e511c1    ....    DCD    300224961
        0x000103ac:    00373045    E07.    DCD    3616837
        0x000103b0:    71003130    01.q    DCD    1895838000
        0x000103b4:    31304000    .@01    DCD    825245696
        0x000103b8:    01010100    ....    DCD    16843008
        0x000103bc:    01010101    ....    DCD    16843009
        0x000103c0:    a0010101    ....    DCD    2684420353
        0x000103c4:    0101a050    P...    DCD    16883792
        0x000103c8:    a0010101    ....    DCD    2684420353
        0x000103cc:    50a0a0a0    ...P    DCD    1352704160
    g_ui8NCEtable
        0x000103d0:    0112a4a3    ....    DCD    17999011
        0x000103d4:    a4a2a1a0    ....    DCD    2762121632
        0x000103d8:    92b502b3    ....    DCD    2461336243
        0x000103dc:    82858483    ....    DCD    2189788291
        0x000103e0:    91019493    ....    DCD    2432799891
        0x000103e4:    ffffffff    ....    DCD    4294967295
        0x000103e8:    ffffffff    ....    DCD    4294967295
        0x000103ec:    00951201    ....    DCD    9769473
        0x000103f0:    80028483    ....    DCD    2147648643
        0x000103f4:    b2b5b401    ....    DCD    2998252545
        0x000103f8:    0011a4a3    ....    DCD    1156259
        0x000103fc:    83828180    ....    DCD    2206368128
        0x00010400:    10850283    ....    DCD    277152387
        0x00010404:    90959493    ....    DCD    2425722003
        0x00010408:    a4a212a0    ....    DCD    2762085024
        0x0001040c:    00b2b101    ....    DCD    11710721
        0x00010410:    85b20280    ....    DCD    2243035776
        0x00010414:    94029190    ....    DCD    2483196304
        0x00010418:    a3a2a102    ....    DCD    2745344258
        0x0001041c:    00b311b0    ....    DCD    11735472
        0x00010420:    92950012    ....    DCD    2459238418
        0x00010424:    0102a4a3    ....    DCD    16950435
        0x00010428:    02b5b4b3    ....    DCD    45462707
        0x0001042c:    84828180    ....    DCD    2223145344
        0x00010430:    95920190    ....    DCD    2509373840
        0x00010434:    a0a501a3    ....    DCD    2695168419
        0x00010438:    b1b5b4b3    ....    DCD    2981475507
        0x0001043c:    81008402    ....    DCD    2164294658
        0x00010440:    00959493    ....    DCD    9802899
        0x00010444:    a1a512a3    ....    DCD    2711949987
        0x00010448:    b002b400    ....    DCD    2952967168
        0x0001044c:    84820201    ....    DCD    2223112705
        0x00010450:    1001b190    ....    DCD    268546448
        0x00010454:    a59211a0    ....    DCD    2777813408
        0x00010458:    11b202b0    ....    DCD    296878768
        0x0001045c:    02828101    ....    DCD    42107137
        0x00010460:    10959493    ....    DCD    278238355
        0x00010464:    00a5a493    ....    DCD    10855571
        0x00010468:    b512b1b0    ....    DCD    3037901232
        0x0001046c:    ffffffff    ....    DCD    4294967295
        0x00010470:    ffffffff    ....    DCD    4294967295
        0x00010474:    10119102    ....    DCD    269586690
        0x00010478:    85820180    ....    DCD    2239889792
        0x0001047c:    10029190    ....    DCD    268603792
        0x00010480:    a5a200a0    ....    DCD    2778857632
        0x00010484:    b185b4b3    ....    DCD    2978329779
        0x00010488:    10020183    ....    DCD    268566915
        0x0001048c:    93928111    ....    DCD    2475852049
        0x00010490:    12a2a101    ....    DCD    312647937
        0x00010494:    81b211b0    ....    DCD    2175930800
        0x00010498:    80b20201    ....    DCD    2159149569
        0x0001049c:    809291a4    ....    DCD    2157089188
        0x000104a0:    9200a190    ....    DCD    2449514896
        0x000104a4:    8202b1a0    ....    DCD    2181214624
        0x000104a8:    83858402    ....    DCD    2206565378
        0x000104ac:    84950083    ....    DCD    2224357507
        0x000104b0:    10a5b4a3    ....    DCD    279295139
        0x000104b4:    90b5b400    ....    DCD    2427827200
        0x000104b8:    b50081b3    ....    DCD    3036709299
        0x000104bc:    00929111    ....    DCD    9605393
        0x000104c0:    b0a2a110    ....    DCD    2963448080
        0x000104c4:    0102b100    ....    DCD    16953600
        0x000104c8:    11858410    ....    DCD    293962768
        0x000104cc:    00029401    ....    DCD    168961
        0x000104d0:    10a5a480    ....    DCD    279291008
        0x000104d4:    93a50090    ....    DCD    2477064336
        0x000104d8:    94828101    ....    DCD    2491580673
        0x000104dc:    95b291b0    ....    DCD    2511507888
        0x000104e0:    a0a20083    ....    DCD    2694971523
        0x000104e4:    0100b193    ....    DCD    16822675
        0x000104e8:    118502a3    ....    DCD    293929635
        0x000104ec:    a1b094b3    ....    DCD    2712704179
        0x000104f0:    a2010200    ....    DCD    2717975040
        0x000104f4:    02b5b401    ....    DCD    45462529
    g_ui8nCEpins
        0x000104f8:    02070707    ....    DCD    34014983
        0x000104fc:    00080802    ....    DCD    526338
        0x00010500:    01020202    ....    DCD    16908802
        0x00010504:    01010101    ....    DCD    16843009
        0x00010508:    01010101    ....    DCD    16843009
        0x0001050c:    01010101    ....    DCD    16843009
        0x00010510:    01010101    ....    DCD    16843009
        0x00010514:    01010101    ....    DCD    16843009
        0x00010518:    01010101    ....    DCD    16843009
        0x0001051c:    08010101    ....    DCD    134283521
        0x00010520:    01010008    ....    DCD    16842760
        0x00010524:    01010101    ....    DCD    16843009
        0x00010528:    01010101    ....    DCD    16843009
        0x0001052c:    01010101    ....    DCD    16843009
        0x00010530:    01010101    ....    DCD    16843009
        0x00010534:    01010101    ....    DCD    16843009
        0x00010538:    01010101    ....    DCD    16843009
        0x0001053c:    01010101    ....    DCD    16843009
        0x00010540:    0101        ..      DCW    257
    .L.str
        0x00010542:    6146        Fa      DCW    24902
        0x00010544:    64656c69    iled    DCD    1684368489
        0x00010548:    206f7420     to     DCD    544175136
        0x0001054c:    706d6f63    comp    DCD    1886220131
        0x00010550:    20657261    are     DCD    543519329
        0x00010554:    66667562    buff    DCD    1717990754
        0x00010558:    20737265    ers     DCD    544436837
        0x0001055c:    69207461    at i    DCD    1763734625
        0x00010560:    7865646e    ndex    DCD    2019910766
        0x00010564:    20642520     %d     DCD    543434016
        0x00010568:    000a        ..      DCW    10
    .L.str.4
        0x0001056a:    540a        .T      DCW    21514
        0x0001056c:    20747365    est     DCD    544502629
        0x00010570:    656e6f44    Done    DCD    1701736260
        0x00010574:    54202d20     - T    DCD    1411394848
        0x00010578:    6c61746f    otal    DCD    1818326127
        0x0001057c:    63655220     Rec    DCD    1667584544
        0x00010580:    65766965    eive    DCD    1702259045
        0x00010584:    203d2064    d =     DCD    540876900
        0x00010588:    0a64253d    =%d.    DCD    174335293
        0x0001058c:    00          .       DCB    0
    .L.str.3
        0x0001058d:    0a4461      .Da     DCB    10,68,97
        0x00010590:    56206174    ta V    DCD    1444962676
        0x00010594:    66697265    erif    DCD    1718186597
        0x00010598:    74616369    icat    DCD    1952539497
        0x0001059c:    206e6f69    ion     DCD    544108393
        0x000105a0:    6c696166    fail    DCD    1818845542
        0x000105a4:    41206465    ed A    DCD    1092641893
        0x000105a8:    6d756363    ccum    DCD    1836409699
        0x000105ac:    756c253a    :%lu    DCD    1970021690
        0x000105b0:    3d787220     rx=    DCD    1031303712
        0x000105b4:    000a6425    %d..    DCD    680997
    .L.str.2
        0x000105b8:    20534f49    IOS     DCD    542330697
        0x000105bc:    74736554    Test    DCD    1953719636
        0x000105c0:    736f4820     Hos    DCD    1936672800
        0x000105c4:    57203a74    t: W    DCD    1461729908
        0x000105c8:    69746961    aiti    DCD    1769236833
        0x000105cc:    6620676e    ng f    DCD    1713399662
        0x000105d0:    6120726f    or a    DCD    1629516399
        0x000105d4:    656c2074    t le    DCD    1701585012
        0x000105d8:    20747361    ast     DCD    544502625
        0x000105dc:    62206425    %d b    DCD    1646289957
        0x000105e0:    73657479    ytes    DCD    1936028793
        0x000105e4:    6f726620     fro    DCD    1869768224
        0x000105e8:    6874206d    m th    DCD    1752440941
        0x000105ec:    61742065    e ta    DCD    1635000421
        0x000105f0:    74656772    rget    DCD    1952802674
    .L.str.1
        0x000105f4:    002e        ..      DCW    46
    .L.str
        0x000105f6:    0a0a        ..      DCW    2570
        0x000105f8:    0a0a0a0a    ....    DCD    168430090
        0x000105fc:    0a0a0a0a    ....    DCD    168430090
        0x00010600:    0a0a0a0a    ....    DCD    168430090
        0x00010604:    0a0a0a0a    ....    DCD    168430090
        0x00010608:    00000000    ....    DCD    0
    Region$$Table$$Base
        0x0001060c:    00010640    @...    DCD    67136
        0x00010610:    10011000    ....    DCD    268505088
        0x00010614:    00000050    P...    DCD    80
        0x00010618:    0000c170    p...    DCD    49520
        0x0001061c:    00010690    ....    DCD    67216
        0x00010620:    10011050    P...    DCD    268505168
        0x00010624:    00004070    p@..    DCD    16496
        0x00010628:    0000c18c    ....    DCD    49548
        0x0001062c:    00010690    ....    DCD    67216
        0x00010630:    10010000    ....    DCD    268500992
        0x00010634:    00001000    ....    DCD    4096
        0x00010638:    0000c18c    ....    DCD    49548
    Region$$Table$$Limit

** Section #2 'RWMEM' (SHT_PROGBITS) [SHF_ALLOC + SHF_WRITE]
    Size   : 80 bytes (alignment 8)
    Address: 0x10011000

    0x10011000:   0a 00 00 00 03 00 00 00 1e 00 00 00 03 00 00 00    ................
    0x10011010:   0f 00 00 00 03 00 00 00 0e 00 00 00 03 00 00 00    ................
    0x10011020:   11 00 00 00 03 00 00 00 01 00 00 00 40 42 0f 00    ............@B..
    0x10011030:   00 00 00 00 00 00 00 00 00 00 00 00 00 00 00 00    ................
    0x10011040:   00 09 3d 00 00 00 00 00 00 00 00 00 00 00 00 00    ..=.............


** Section #3 'RWMEM' (SHT_NOBITS) [SHF_ALLOC + SHF_WRITE]
    Size   : 16496 bytes (alignment 8)
    Address: 0x10011050


** Section #4 'STACKMEM' (SHT_NOBITS) [SHF_ALLOC + SHF_WRITE]
    Size   : 4096 bytes (alignment 8)
    Address: 0x10010000


** Section #5 '.debug_abbrev' (SHT_PROGBITS)
    Size   : 1155 bytes


** Section #6 '.debug_frame' (SHT_PROGBITS)
    Size   : 6292 bytes


** Section #7 '.debug_info' (SHT_PROGBITS)
    Size   : 7055 bytes


** Section #8 '.debug_line' (SHT_PROGBITS)
    Size   : 5661 bytes


** Section #9 '.debug_ranges' (SHT_PROGBITS)
    Size   : 296 bytes


** Section #10 '.debug_str' (SHT_PROGBITS)
    Size   : 4753 bytes


** Section #11 '.symtab' (SHT_SYMTAB)
    Size   : 7360 bytes (alignment 4)
    String table #12 '.strtab'
    Last local symbol no. 226

    Symbol table .symtab (459 symbols, 226 local)

      #  Symbol Name                Value      Bind  Sec  Type  Vis  Size
    ========================================================================

      1  $d                         0x0000c000   Lc    1   --   De 
      2  $t                         0x0000c100   Lc    1   --   De 
      3  $d                         0x0000c130   Lc    1   --   De 
      4  $t                         0x0000c134   Lc    1   --   De 
      5  $d                         0x0000c168   Lc    1   --   De 
      6  $t                         0x0000c170   Lc    1   --   De 
      7  $d                         0x0000c1de   Lc    1   --   De 
      8  $t                         0x0000c1ec   Lc    1   --   De 
      9  $d                         0x0000c254   Lc    1   --   De 
     10  $t                         0x0000c258   Lc    1   --   De 
     11  $d                         0x0000c260   Lc    1   --   De 
     12  $t                         0x0000c264   Lc    1   --   De 
     13  $t.8                       0x0000c268   Lc    1   --   De 
     14  $d.9                       0x0000c2e2   Lc    1   --   De 
     15  $t.10                      0x0000c310   Lc    1   --   De 
     16  $d.4                       0x0000ca30   Lc    1   --   De 
     17  $t.5                       0x0000ca44   Lc    1   --   De 
     18  $d.1                       0x0000cc1c   Lc    1   --   De 
     19  $t.2                       0x0000cc28   Lc    1   --   De 
     20  $d.2                       0x0000d362   Lc    1   --   De 
     21  $t.3                       0x0000d368   Lc    1   --   De 
     22  $d.7                       0x0000d4b4   Lc    1   --   De 
     23  $t.8                       0x0000d4bc   Lc    1   --   De 
     24  $d.4                       0x0000e95a   Lc    1   --   De 
     25  $t.5                       0x0000e9c0   Lc    1   --   De 
     26  $t                         0x0000ff1c   Lc    1   --   De 
     27  $d                         0x0000ff6c   Lc    1   --   De 
     28  $t                         0x0000ff70   Lc    1   --   De 
     29  $d                         0x0000ffee   Lc    1   --   De 
     30  $t                         0x0000fff2   Lc    1   --   De 
     31  $d.realdata                0x0001003e   Lc    1   --   De 
     32  $d.realdata                0x10011000   Lc    2   --   De 
     33  $d.realdata                0x10010000   Lc    4   --   De 
     34  ios_fifo_host.c            0x00000000   Lc  Abs  File  De 
     35  iom_set_up                 0x0000f635   Lc    1  Code  De   0xe2
     36  AM_HAL_GPIO_MASKBIT        0x0000c269   Lc    1  Code  De   0x1e
     37  hostint_handler            0x0000f295   Lc    1  Code  De   0xe
     38  __NVIC_EnableIRQ           0x0000c289   Lc    1  Code  De   0x30
     39  .L.str                     0x00010542   Lc    1  Data  De   0x28
     40  .L.str.4                   0x0001056a   Lc    1  Data  De   0x23
     41  .L.str.3                   0x0001058d   Lc    1  Data  De   0x2b
     42  .L.str.2                   0x000105b8   Lc    1  Data  De   0x3e
     43  .L.str.1                   0x000105f4   Lc    1  Data  De   0x2
     44  g_sIOMSpiConfig            0x1001103c   Lc    2  Data  De   0x14
     45  g_sIOMI2cConfig            0x10011028   Lc    2  Data  De   0x14
     46  am_util_delay.c            0x00000000   Lc  Abs  File  De 
     47  am_util_stdio.c            0x00000000   Lc  Abs  File  De 
     48  decstr_to_int              0x0000eea5   Lc    1  Code  De   0xa6
     49  simple_strlen              0x0000fced   Lc    1  Code  De   0x36
     50  padbuffer                  0x0000fa75   Lc    1  Code  De   0x50
     51  ndigits_in_hex             0x0000f9c9   Lc    1  Code  De   0x3e
     52  uint64_to_hexstr           0x0000fd25   Lc    1  Code  De   0xc0
     53  ndigits_in_u64             0x0000fa39   Lc    1  Code  De   0x3c
     54  uint64_to_str              0x0000fde5   Lc    1  Code  De   0x88
     55  ndigits_in_i64             0x0000fa09   Lc    1  Code  De   0x30
     56  ftoa                       0x0000f065   Lc    1  Code  De   0x230
     57  divu64_10                  0x0000ef4d   Lc    1  Code  De   0x118
     58  g_bTxtXlate                0x1001465d   Lc    3  Data  De   0x1
     59  g_prfbuf                   0x10014664   Lc    3  Data  De   0x400
     60  .L.str                     0x000105f6   Lc    1  Data  De   0x13
     61  ../keil6/startup_keil6.s   0x00000000   Lc  Abs  File  De 
     62  STACK                      0x10010000   Lc    4  Sect  De   0x1000
     63  StackMem                   0x10010000   Lc    4  Data  De 
     64  HEAP                       0x100150c0   Lc    3  Sect  De 
     65  HeapMem                    0x100150c0   Lc    3  Data  De 
     66  RESET                      0x0000c000   Lc    1  Sect  De   0x134
     67  $v0                        0x0000c100   Lc    1   --   De 
     68  .text                      0x0000c1d4   Lc    1  Sect  De   0x18
     69  $v0                        0x0000c1d4   Lc    1   --   De 
     70  am_hal_cachectrl.c         0x00000000   Lc  Abs  File  De 
     71  set_LPMMODE                0x0000fac5   Lc    1  Code  De   0xba
     72  set_SEDELAY                0x0000fc31   Lc    1  Code  De   0xba
     73  set_RDWAIT                 0x0000fb81   Lc    1  Code  De   0xae
     74  am_hal_clkgen.c            0x00000000   Lc  Abs  File  De 
     75  am_hal_flash.c             0x00000000   Lc  Abs  File  De 
     76  am_hal_gpio.c              0x00000000   Lc  Abs  File  De 
     77  g_ui8Bit76Capabilities     0x0001033c   Lc    1  Data  De   0x4a
     78  g_ui8Inpen                 0x00010386   Lc    1  Data  De   0x4a
     79  g_ui8nCEpins               0x000104f8   Lc    1  Data  De   0x4a
     80  g_ui8NCEtable              0x000103d0   Lc    1  Data  De   0x128
     81  gpio_ppfnHandlers          0x10014f94   Lc    3  Data  De   0x128
     82  gpio_pHandlerCtxt          0x10014e6c   Lc    3  Data  De   0x128
     83  am_hal_interrupt.c         0x00000000   Lc  Abs  File  De 
     84  am_hal_iom.c               0x00000000   Lc  Abs  File  De 
     85  internal_iom_reset_on_error
                                    0x0000f2a5   Lc    1  Code  De   0x1fe
     86  iom_get_interface_clock_cfg
                                    0x0000f4a5   Lc    1  Code  De   0x190
     87  am_hal_sysctrl.c           0x00000000   Lc  Abs  File  De 
     88  am_bsp.c                   0x00000000   Lc  Abs  File  De 
     89  .L_MergedGlobals           0x100110b0   Lc    3  Data  De   0x8
     90  g_ui32PrintInterface       0x100110b0   Lc    3  Data  De   0x4
     91  g_sCOMUART                 0x100110b4   Lc    3  Data  De   0x4
     92  am_hal_burst.c             0x00000000   Lc  Abs  File  De 
     93  g_bDisFromManual           0x1001465c   Lc    3  Data  De   0x1
     94  .L_MergedGlobals           0x100110b8   Lc    3  Data  De   0x2
     95  g_bEnFromManual            0x100110b9   Lc    3  Data  De   0x1
     96  am_hal_cmdq.c              0x00000000   Lc  Abs  File  De 
     97  gAmHalCmdq                 0x100110c0   Lc    3  Data  De   0x1b8
     98  gAmHalCmdQReg              0x00010110   Lc    1  Data  De   0x190
     99  am_hal_itm.c               0x00000000   Lc  Abs  File  De 
    100  am_hal_pwrctrl.c           0x00000000   Lc  Abs  File  De 
    101  .L_MergedGlobals           0x100110ba   Lc    3  Data  De   0x2
    102  am_hal_reset.c             0x00000000   Lc  Abs  File  De 
    103  am_hal_rtc.c               0x00000000   Lc  Abs  File  De 
    104  am_hal_tpiu.c              0x00000000   Lc  Abs  File  De 
    105  am_hal_uart.c              0x00000000   Lc  Abs  File  De 
    106  am_bsp_pins.c              0x00000000   Lc  Abs  File  De 
    107  am_hal_queue.c             0x00000000   Lc  Abs  File  De 
    108  dc.s                       0x00000000   Lc  Abs  File  De 
    109  ../clib/heapaux.c          0x00000000   Lc  Abs  File  De 
    110  .text                      0x0000c1ec   Lc    1  Sect  De 
    111  ../clib/angel/startup.s    0x00000000   Lc  Abs  File  De 
    112  !!!main                    0x0000c134   Lc    1  Sect  De   0x8
    113  ../clib/angel/handlers.s   0x00000000   Lc  Abs  File  De 
    114  !!handler_copy             0x0000c170   Lc    1  Sect  De   0x1a
    115  ../fplib/d2f.s             0x00000000   Lc  Abs  File  De 
    116  x$fpl$d2f                  0x0000ff1c   Lc    1  Sect  De   0x62
    117  $v0                        0x0000ff1c   Lc    1   --   De 
    118  ../clib/angel/kernel.s     0x00000000   Lc  Abs  File  De 
    119  .ARM.Collect$$rtentry$$00000000
                                    0x0000c1b4   Lc    1  Sect  De 
    120  ../fplib/dnaninf.s         0x00000000   Lc  Abs  File  De 
    121  x$fpl$dnaninf              0x0000ff7e   Lc    1  Sect  De   0x9c
    122  $v0                        0x0000ff7e   Lc    1   --   De 
    123  ../fplib/fretinf.s         0x00000000   Lc  Abs  File  De 
    124  x$fpl$fretinf              0x00010034   Lc    1  Sect  De   0xa
    125  $v0                        0x00010034   Lc    1   --   De 
    126  ../fplib/usenofp.s         0x00000000   Lc  Abs  File  De 
    127  x$fpl$usenofp              0x0001003e   Lc    1  Sect  De 
    128  ../clib/angel/kernel.s     0x00000000   Lc  Abs  File  De 
    129  .ARM.Collect$$rtentry$$00000002
                                    0x0000c1b4   Lc    1  Sect  De 
    130  .ARM.Collect$$rtentry$$00000009
                                    0x0000c1ba   Lc    1  Sect  De 
    131  .ARM.Collect$$rtentry$$0000000A
                                    0x0000c1ba   Lc    1  Sect  De   0x4
    132  .ARM.Collect$$rtentry$$0000000C
                                    0x0000c1be   Lc    1  Sect  De 
    133  .ARM.Collect$$rtentry$$0000000D
                                    0x0000c1be   Lc    1  Sect  De   0x8
    134  ../clib/angel/kernel.s     0x00000000   Lc  Abs  File  De 
    135  .ARM.Collect$$rtentry$$00000004
                                    0x0000c1b4   Lc    1  Sect  De   0x6
    136  ../clib/angel/sys.s        0x00000000   Lc  Abs  File  De 
    137  .text                      0x0000c1f2   Lc    1  Sect  De   0x4a
    138  ../clib/stdlib.c           0x00000000   Lc  Abs  File  De 
    139  .text                      0x0000c23c   Lc    1  Sect  De 
    140  ../clib/angel/boardlib.s   0x00000000   Lc  Abs  File  De 
    141  ../clib/angel/boardlib.s   0x00000000   Lc  Abs  File  De 
    142  ../clib/angel/boardlib.s   0x00000000   Lc  Abs  File  De 
    143  ../clib/libinit.s          0x00000000   Lc  Abs  File  De 
    144  .ARM.Collect$$libinit$$00000000
                                    0x0000c1a8   Lc    1  Sect  De   0x2
    145  ../clib/angel/sys.s        0x00000000   Lc  Abs  File  De 
    146  .text                      0x0000c250   Lc    1  Sect  De   0x8
    147  .bss                       0x10011050   Lc    3  Sect  De   0x60
    148  ../clib/angel/kernel.s     0x00000000   Lc  Abs  File  De 
    149  .ARM.Collect$$rtexit$$00000000
                                    0x0000c1c6   Lc    1  Sect  De   0x2
    150  ../clib/libinit.s          0x00000000   Lc  Abs  File  De 
    151  .ARM.Collect$$libinit$$00000001
                                    0x0000c1aa   Lc    1  Sect  De   0x4
    152  .ARM.Collect$$libinit$$00000004
                                    0x0000c1ae   Lc    1  Sect  De 
    153  .ARM.Collect$$libinit$$00000006
                                    0x0000c1ae   Lc    1  Sect  De 
    154  .ARM.Collect$$libinit$$0000000C
                                    0x0000c1ae   Lc    1  Sect  De 
    155  .ARM.Collect$$libinit$$0000000E
                                    0x0000c1ae   Lc    1  Sect  De 
    156  .ARM.Collect$$libinit$$00000010
                                    0x0000c1ae   Lc    1  Sect  De 
    157  .ARM.Collect$$libinit$$00000013
                                    0x0000c1ae   Lc    1  Sect  De 
    158  .ARM.Collect$$libinit$$00000015
                                    0x0000c1ae   Lc    1  Sect  De 
    159  .ARM.Collect$$libinit$$00000017
                                    0x0000c1ae   Lc    1  Sect  De 
    160  .ARM.Collect$$libinit$$00000019
                                    0x0000c1ae   Lc    1  Sect  De 
    161  .ARM.Collect$$libinit$$0000001B
                                    0x0000c1ae   Lc    1  Sect  De 
    162  .ARM.Collect$$libinit$$0000001D
                                    0x0000c1ae   Lc    1  Sect  De 
    163  .ARM.Collect$$libinit$$0000001F
                                    0x0000c1ae   Lc    1  Sect  De 
    164  .ARM.Collect$$libinit$$00000021
                                    0x0000c1ae   Lc    1  Sect  De 
    165  .ARM.Collect$$libinit$$00000023
                                    0x0000c1ae   Lc    1  Sect  De 
    166  .ARM.Collect$$libinit$$00000025
                                    0x0000c1ae   Lc    1  Sect  De 
    167  .ARM.Collect$$libinit$$00000027
                                    0x0000c1ae   Lc    1  Sect  De 
    168  .ARM.Collect$$libinit$$0000002E
                                    0x0000c1ae   Lc    1  Sect  De 
    169  .ARM.Collect$$libinit$$00000030
                                    0x0000c1ae   Lc    1  Sect  De 
    170  .ARM.Collect$$libinit$$00000032
                                    0x0000c1ae   Lc    1  Sect  De 
    171  .ARM.Collect$$libinit$$00000034
                                    0x0000c1ae   Lc    1  Sect  De 
    172  .ARM.Collect$$libinit$$00000035
                                    0x0000c1ae   Lc    1  Sect  De   0x2
    173  ../clib/angel/kernel.s     0x00000000   Lc  Abs  File  De 
    174  .ARM.Collect$$rtexit$$00000002
                                    0x0000c1c8   Lc    1  Sect  De 
    175  .ARM.Collect$$rtexit$$00000003
                                    0x0000c1c8   Lc    1  Sect  De   0x4
    176  .ARM.Collect$$rtexit$$00000004
                                    0x0000c1cc   Lc    1  Sect  De   0x6
    177  ../clib/armsys.c           0x00000000   Lc  Abs  File  De 
    178  ../clib/armsys.c           0x00000000   Lc  Abs  File  De 
    179  ../fplib/fpinit.s          0x00000000   Lc  Abs  File  De 
    180  x$fpl$fpinit               0x0001001a   Lc    1  Sect  De   0x1a
    181  $v0                        0x0001001a   Lc    1   --   De 
    182  ../clib/angel/sysapp.c     0x00000000   Lc  Abs  File  De 
    183  .text                      0x0000c258   Lc    1  Sect  De 
    184  ../clib/angel/sysapp.c     0x00000000   Lc  Abs  File  De 
    185  ../clib/angel/boardlib.s   0x00000000   Lc  Abs  File  De 
    186  ../clib/armsys.c           0x00000000   Lc  Abs  File  De 
    187  ../clib/armsys.c           0x00000000   Lc  Abs  File  De 
    188  ../clib/libinit.s          0x00000000   Lc  Abs  File  De 
    189  .ARM.Collect$$libshutdown$$00000000
                                    0x0000c1b0   Lc    1  Sect  De   0x2
    190  ../clib/angel/sysapp.c     0x00000000   Lc  Abs  File  De 
    191  ../clib/angel/sysapp.c     0x00000000   Lc  Abs  File  De 
    192  ../clib/angel/sys.s        0x00000000   Lc  Abs  File  De 
    193  .text                      0x0000c264   Lc    1  Sect  De   0x2
    194  ../clib/angel/sys.s        0x00000000   Lc  Abs  File  De 
    195  .text                      0x0000c266   Lc    1  Sect  De 
    196  ../clib/heapalloc.c        0x00000000   Lc  Abs  File  De 
    197  ../clib/signal.c           0x00000000   Lc  Abs  File  De 
    198  ../clib/signal.c           0x00000000   Lc  Abs  File  De 
    199  ../clib/libinit.s          0x00000000   Lc  Abs  File  De 
    200  .ARM.Collect$$libshutdown$$00000002
                                    0x0000c1b2   Lc    1  Sect  De 
    201  .ARM.Collect$$libshutdown$$00000004
                                    0x0000c1b2   Lc    1  Sect  De 
    202  .ARM.Collect$$libshutdown$$00000007
                                    0x0000c1b2   Lc    1  Sect  De 
    203  .ARM.Collect$$libshutdown$$0000000A
                                    0x0000c1b2   Lc    1  Sect  De 
    204  .ARM.Collect$$libshutdown$$0000000C
                                    0x0000c1b2   Lc    1  Sect  De 
    205  .ARM.Collect$$libshutdown$$0000000F
                                    0x0000c1b2   Lc    1  Sect  De 
    206  .ARM.Collect$$libshutdown$$00000010
                                    0x0000c1b2   Lc    1  Sect  De   0x2
    207  ../clib/angel/rt.s         0x00000000   Lc  Abs  File  De 
    208  ../clib/signal.c           0x00000000   Lc  Abs  File  De 
    209  ../clib/signal.c           0x00000000   Lc  Abs  File  De 
    210  ../clib/signal.c           0x00000000   Lc  Abs  File  De 
    211  ../clib/signal.c           0x00000000   Lc  Abs  File  De 
    212  ../clib/angel/sysapp.c     0x00000000   Lc  Abs  File  De 
    213  ../clib/angel/sysapp.c     0x00000000   Lc  Abs  File  De 
    214  ../clib/signal.s           0x00000000   Lc  Abs  File  De 
    215  ../clib/signal.c           0x00000000   Lc  Abs  File  De 
    216  ../clib/signal.c           0x00000000   Lc  Abs  File  De 
    217  ../clib/signal.c           0x00000000   Lc  Abs  File  De 
    218  ../clib/signal.c           0x00000000   Lc  Abs  File  De 
    219  ../clib/signal.c           0x00000000   Lc  Abs  File  De 
    220  ../clib/signal.c           0x00000000   Lc  Abs  File  De 
    221  ../clib/signal.c           0x00000000   Lc  Abs  File  De 
    222  ../clib/signal.c           0x00000000   Lc  Abs  File  De 
    223  ../clib/angel/scatter.s    0x00000000   Lc  Abs  File  De 
    224  !!!scatter                 0x0000c13c   Lc    1  Sect  De   0x34
    225  ../clib/angel/handlers.s   0x00000000   Lc  Abs  File  De 
    226  !!handler_zi               0x0000c18c   Lc    1  Sect  De   0x1c
    227  BuildAttributes$$THM_ISAv4$E$P$D$K$B$S$7EM$VFPi3$EXTD16$VFPS$VFMA$PE$A:L22UL41UL21$X:L11$S22US41US21$IEEE1$IW$~IW$USESV6$~STKCKD$USESV7$~SHL$OTIME$ROPI$EBA8$UX$STANDARDLIB$REQ8$PRES8$EABIv2
                                    0x00000000   Gb  Abs   --   Hi 
    228  __Vectors                  0x0000c000   Gb    1  Data  Hi 
    229  __Patchable                0x0000c0c8   Gb    1  Data  Hi 
    230  Reset_Handler              0x0000c101   Wk    1  Code  Hi   0x1c
    231  HardFault_Handler          0x0000c11d   Wk    1  Code  Hi   0x2
    232  NMI_Handler                0x0000c11f   Wk    1  Code  Hi   0x2
    233  MemManage_Handler          0x0000c121   Wk    1  Code  Hi   0x2
    234  BusFault_Handler           0x0000c123   Wk    1  Code  Hi   0x2
    235  UsageFault_Handler         0x0000c125   Wk    1  Code  Hi   0x2
    236  SVC_Handler                0x0000c127   Wk    1  Code  Hi   0x2
    237  DebugMon_Handler           0x0000c129   Wk    1  Code  Hi   0x2
    238  PendSV_Handler             0x0000c12b   Wk    1  Code  Hi   0x2
    239  SysTick_Handler            0x0000c12d   Wk    1  Code  Hi   0x2
    240  am_adc_isr                 0x0000c12f   Wk    1  Code  Hi 
    241  am_ble_isr                 0x0000c12f   Wk    1  Code  Hi 
    242  am_brownout_isr            0x0000c12f   Wk    1  Code  Hi 
    243  am_clkgen_isr              0x0000c12f   Wk    1  Code  Hi 
    244  am_ctimer_isr              0x0000c12f   Wk    1  Code  Hi 
    245  am_iomaster0_isr           0x0000c12f   Wk    1  Code  Hi 
    246  am_iomaster1_isr           0x0000c12f   Wk    1  Code  Hi 
    247  am_iomaster2_isr           0x0000c12f   Wk    1  Code  Hi 
    248  am_iomaster3_isr           0x0000c12f   Wk    1  Code  Hi 
    249  am_iomaster4_isr           0x0000c12f   Wk    1  Code  Hi 
    250  am_iomaster5_isr           0x0000c12f   Wk    1  Code  Hi 
    251  am_ioslave_acc_isr         0x0000c12f   Wk    1  Code  Hi 
    252  am_ioslave_ios_isr         0x0000c12f   Wk    1  Code  Hi 
    253  am_mspi0_isr               0x0000c12f   Wk    1  Code  Hi 
    254  am_mspi1_isr               0x0000c12f   Wk    1  Code  Hi 
    255  am_mspi2_isr               0x0000c12f   Wk    1  Code  Hi 
    256  am_pdm0_isr                0x0000c12f   Wk    1  Code  Hi 
    257  am_rtc_isr                 0x0000c12f   Wk    1  Code  Hi 
    258  am_scard_isr               0x0000c12f   Wk    1  Code  Hi 
    259  am_software0_isr           0x0000c12f   Wk    1  Code  Hi 
    260  am_stimer_cmpr0_isr        0x0000c12f   Wk    1  Code  Hi 
    261  am_stimer_cmpr1_isr        0x0000c12f   Wk    1  Code  Hi 
    262  am_stimer_cmpr2_isr        0x0000c12f   Wk    1  Code  Hi 
    263  am_stimer_cmpr3_isr        0x0000c12f   Wk    1  Code  Hi 
    264  am_stimer_cmpr4_isr        0x0000c12f   Wk    1  Code  Hi 
    265  am_stimer_cmpr5_isr        0x0000c12f   Wk    1  Code  Hi 
    266  am_stimer_cmpr6_isr        0x0000c12f   Wk    1  Code  Hi 
    267  am_stimer_cmpr7_isr        0x0000c12f   Wk    1  Code  Hi 
    268  am_stimer_isr              0x0000c12f   Wk    1  Code  Hi 
    269  am_uart0_isr               0x0000c12f   Wk    1  Code  Hi 
    270  am_uart1_isr               0x0000c12f   Wk    1  Code  Hi 
    271  am_uart_isr                0x0000c12f   Wk    1  Code  Hi 
    272  am_vcomp_isr               0x0000c12f   Wk    1  Code  Hi 
    273  am_watchdog_isr            0x0000c12f   Wk    1  Code  Hi 
    274  __main                     0x0000c135   Gb    1  Code  Hi   0x8
    275  __scatterload              0x0000c13d   Gb    1  Code  Hi 
    276  __scatterload_rt2          0x0000c13d   Gb    1  Code  Hi   0x2c
    277  __scatterload_rt2_thumb_only
                                    0x0000c13d   Gb    1  Code  Hi 
    278  __scatterload_null         0x0000c14b   Gb    1  Code  Hi 
    279  __scatterload_copy         0x0000c171   Gb    1  Code  Hi   0x1a
    280  __scatterload_zeroinit     0x0000c18d   Gb    1  Code  Hi   0x1c
    281  __rt_lib_init              0x0000c1a9   Gb    1  Code  De 
    282  __rt_lib_init_fp_1         0x0000c1ab   Gb    1  Code  Hi 
    283  __rt_lib_init_alloca_1     0x0000c1af   Gb    1  Code  Hi 
    284  __rt_lib_init_argv_1       0x0000c1af   Gb    1  Code  Hi 
    285  __rt_lib_init_atexit_1     0x0000c1af   Gb    1  Code  Hi 
    286  __rt_lib_init_clock_1      0x0000c1af   Gb    1  Code  Hi 
    287  __rt_lib_init_cpp_1        0x0000c1af   Gb    1  Code  Hi 
    288  __rt_lib_init_exceptions_1 0x0000c1af   Gb    1  Code  Hi 
    289  __rt_lib_init_fp_trap_1    0x0000c1af   Gb    1  Code  Hi 
    290  __rt_lib_init_getenv_1     0x0000c1af   Gb    1  Code  Hi 
    291  __rt_lib_init_heap_1       0x0000c1af   Gb    1  Code  Hi 
    292  __rt_lib_init_lc_collate_1 0x0000c1af   Gb    1  Code  Hi 
    293  __rt_lib_init_lc_ctype_1   0x0000c1af   Gb    1  Code  Hi 
    294  __rt_lib_init_lc_monetary_1
                                    0x0000c1af   Gb    1  Code  Hi 
    295  __rt_lib_init_lc_numeric_1 0x0000c1af   Gb    1  Code  Hi 
    296  __rt_lib_init_lc_time_1    0x0000c1af   Gb    1  Code  Hi 
    297  __rt_lib_init_preinit_1    0x0000c1af   Gb    1  Code  Hi 
    298  __rt_lib_init_rand_1       0x0000c1af   Gb    1  Code  Hi 
    299  __rt_lib_init_relocate_pie_1
                                    0x0000c1af   Gb    1  Code  Hi 
    300  __rt_lib_init_return       0x0000c1af   Gb    1  Code  Hi 
    301  __rt_lib_init_signal_1     0x0000c1af   Gb    1  Code  Hi 
    302  __rt_lib_init_stdio_1      0x0000c1af   Gb    1  Code  Hi 
    303  __rt_lib_init_user_alloc_1 0x0000c1af   Gb    1  Code  Hi 
    304  __rt_lib_shutdown          0x0000c1b1   Gb    1  Code  De 
    305  __rt_lib_shutdown_cpp_1    0x0000c1b3   Gb    1  Code  Hi 
    306  __rt_lib_shutdown_fp_trap_1
                                    0x0000c1b3   Gb    1  Code  Hi 
    307  __rt_lib_shutdown_heap_1   0x0000c1b3   Gb    1  Code  Hi 
    308  __rt_lib_shutdown_return   0x0000c1b3   Gb    1  Code  Hi 
    309  __rt_lib_shutdown_signal_1 0x0000c1b3   Gb    1  Code  Hi 
    310  __rt_lib_shutdown_stdio_1  0x0000c1b3   Gb    1  Code  Hi 
    311  __rt_lib_shutdown_user_alloc_1
                                    0x0000c1b3   Gb    1  Code  Hi 
    312  __rt_entry                 0x0000c1b5   Gb    1  Code  Hi 
    313  __rt_entry_presh_1         0x0000c1b5   Gb    1  Code  Hi 
    314  __rt_entry_sh              0x0000c1b5   Gb    1  Code  Hi 
    315  __rt_entry_li              0x0000c1bb   Gb    1  Code  Hi 
    316  __rt_entry_postsh_1        0x0000c1bb   Gb    1  Code  Hi 
    317  __rt_entry_main            0x0000c1bf   Gb    1  Code  Hi 
    318  __rt_entry_postli_1        0x0000c1bf   Gb    1  Code  Hi 
    319  __rt_exit                  0x0000c1c7   Gb    1  Code  De 
    320  __rt_exit_ls               0x0000c1c9   Gb    1  Code  Hi 
    321  __rt_exit_prels_1          0x0000c1c9   Gb    1  Code  Hi 
    322  __rt_exit_exit             0x0000c1cd   Gb    1  Code  Hi 
    323  __user_initial_stackheap   0x0000c1d5   Gb    1  Code  Hi   0xa
    324  __use_two_region_memory    0x0000c1ed   Gb    1  Code  Hi   0x2
    325  __rt_heap_escrow$2region   0x0000c1ef   Gb    1  Code  De   0x2
    326  __rt_heap_expand$2region   0x0000c1f1   Gb    1  Code  De   0x2
    327  __user_setup_stackheap     0x0000c1f3   Gb    1  Code  De   0x4a
    328  exit                       0x0000c23d   Gb    1  Code  De   0x12
    329  __user_libspace            0x0000c251   Wk    1  Code  De   0x8
    330  __user_perproc_libspace    0x0000c251   Wk    1  Code  De 
    331  __user_perthread_libspace  0x0000c251   Wk    1  Code  De 
    332  _sys_exit                  0x0000c259   Gb    1  Code  De   0x8
    333  __I$use$semihosting        0x0000c265   Gb    1  Code  Hi 
    334  __use_no_semihosting_swi   0x0000c265   Gb    1  Code  Hi   0x2
    335  __semihosting_library_function
                                    0x0000c267   Gb    1  Code  Hi 
    336  am_bsp_iom_pins_enable     0x0000c2b9   Gb    1  Code  Hi   0x232
    337  am_bsp_itm_printf_enable   0x0000c4ed   Gb    1  Code  Hi   0x44
    338  am_bsp_low_power_init      0x0000c531   Gb    1  Code  Hi   0xa2
    339  am_gpio_isr                0x0000c5d5   Gb    1  Code  Hi   0x26
    340  am_hal_burst_ldo_charge    0x0000c5fd   Gb    1  Code  Hi   0xc4
    341  am_hal_burst_ldo_patch_check
                                    0x0000c6c1   Gb    1  Code  Hi   0x16
    342  am_hal_burst_mode_disable  0x0000c6d9   Gb    1  Code  Hi   0xb2
    343  am_hal_burst_mode_enable   0x0000c78d   Gb    1  Code  Hi   0x78
    344  am_hal_burst_mode_enable_w_manual_sequence
                                    0x0000c805   Gb    1  Code  Hi   0x1d2
    345  am_hal_cachectrl_config    0x0000c9d9   Gb    1  Code  Hi   0x48
    346  am_hal_cachectrl_control   0x0000ca21   Gb    1  Code  Hi   0x1c4
    347  am_hal_cachectrl_enable    0x0000cbe5   Gb    1  Code  Hi   0x14
    348  am_hal_clkgen_control      0x0000cbf9   Gb    1  Code  Hi   0x15a
    349  am_hal_clkgen_status_get   0x0000cd55   Gb    1  Code  Hi   0x3a
    350  am_hal_cmdq_disable        0x0000cd91   Gb    1  Code  Hi   0x38
    351  am_hal_cmdq_enable         0x0000cdc9   Gb    1  Code  Hi   0x38
    352  am_hal_cmdq_init           0x0000ce01   Gb    1  Code  Hi   0xbe
    353  am_hal_flash_delay         0x0000cec1   Gb    1  Code  Hi   0x2a
    354  am_hal_flash_delay_status_check
                                    0x0000ceed   Gb    1  Code  Hi   0xb6
    355  am_hal_flash_load_ui32     0x0000cfa5   Gb    1  Code  Hi   0x8
    356  am_hal_flash_store_ui32    0x0000cfad   Gb    1  Code  Hi   0x2c
    357  am_hal_gpio_interrupt_clear
                                    0x0000cfd9   Gb    1  Code  Hi   0x52
    358  am_hal_gpio_interrupt_enable
                                    0x0000d02d   Gb    1  Code  Hi   0x4a
    359  am_hal_gpio_interrupt_register
                                    0x0000d079   Gb    1  Code  Hi   0x20
    360  am_hal_gpio_interrupt_service
                                    0x0000d099   Gb    1  Code  Hi   0xfe
    361  am_hal_gpio_interrupt_status_get
                                    0x0000d199   Gb    1  Code  Hi   0x6e
    362  am_hal_gpio_pinconfig      0x0000d209   Gb    1  Code  Hi   0x26a
    363  am_hal_gpio_state_write    0x0000d475   Gb    1  Code  Hi   0xb4
    364  am_hal_interrupt_master_disable
                                    0x0000d529   Gb    1  Code  Hi   0x8
    365  am_hal_interrupt_master_enable
                                    0x0000d531   Gb    1  Code  Hi   0x8
    366  am_hal_interrupt_master_set
                                    0x0000d539   Gb    1  Code  Hi   0x6
    367  am_hal_iom_CQEnable        0x0000d541   Gb    1  Code  Hi   0x2a
    368  am_hal_iom_blocking_transfer
                                    0x0000d56d   Gb    1  Code  Hi   0x5e6
    369  am_hal_iom_configure       0x0000db55   Gb    1  Code  Hi   0x162
    370  am_hal_iom_enable          0x0000dcb9   Gb    1  Code  Hi   0xe4
    371  am_hal_iom_initialize      0x0000dd9d   Gb    1  Code  Hi   0x48
    372  am_hal_iom_power_ctrl      0x0000dde5   Gb    1  Code  Hi   0x204
    373  am_hal_itm_enable          0x0000dfe9   Gb    1  Code  Hi   0x56
    374  am_hal_itm_print           0x0000e041   Gb    1  Code  Hi   0x136
    375  am_hal_pwrctrl_low_power_init
                                    0x0000e179   Gb    1  Code  Hi   0x1fe
    376  am_hal_pwrctrl_periph_disable
                                    0x0000e379   Gb    1  Code  Hi   0xa8
    377  am_hal_pwrctrl_periph_enable
                                    0x0000e421   Gb    1  Code  Hi   0x76
    378  am_hal_pwrctrl_wa_vddf_boost
                                    0x0000e499   Gb    1  Code  Hi   0xc8
    379  am_hal_pwrctrl_wa_vddf_restore
                                    0x0000e561   Gb    1  Code  Hi   0xb8
    380  am_hal_rtc_osc_disable     0x0000e619   Gb    1  Code  Hi   0x12
    381  am_hal_sysctrl_sleep       0x0000e62d   Gb    1  Code  Hi   0xaa
    382  am_hal_tpiu_enable         0x0000e6d9   Gb    1  Code  Hi   0x98
    383  am_util_delay_ms           0x0000e771   Gb    1  Code  Hi   0x30
    384  am_util_stdio_printf       0x0000e7a1   Gb    1  Code  Hi   0x5c
    385  am_util_stdio_printf_init  0x0000e7fd   Gb    1  Code  Hi   0x14
    386  am_util_stdio_terminal_clear
                                    0x0000e811   Gb    1  Code  Hi   0x10
    387  am_util_stdio_vsprintf     0x0000e821   Gb    1  Code  Hi   0x654
    388  clear_rx_buf               0x0000ee75   Gb    1  Code  Hi   0x30
    389  iom_target_read            0x0000f719   Gb    1  Code  Hi   0x5a
    390  iom_target_write           0x0000f775   Gb    1  Code  Hi   0x5a
    391  main                       0x0000f7d1   Gb    1  Code  Hi   0x1f6
    392  update_progress            0x0000fe6d   Gb    1  Code  Hi   0x3a
    393  validate_rx_buf            0x0000fea9   Gb    1  Code  Hi   0x72
    394  __aeabi_d2f                0x0000ff1d   Gb    1  Code  De 
    395  _d2f                       0x0000ff1d   Gb    1  Code  De   0x62
    396  __fpl_dnaninf              0x0000ff7f   Gb    1  Code  De   0x9c
    397  _fp_init                   0x0001001b   Gb    1  Code  De   0x1a
    398  __fplib_config_fpu_vfp     0x00010033   Gb    1  Code  De 
    399  __fplib_config_pureend_doubles
                                    0x00010033   Gb    1  Code  De 
    400  __fpl_fretinf              0x00010035   Gb    1  Code  De   0xa
    401  __I$use$fp                 0x0001003e   Gb    1   --   De 
    402  am_hal_cachectrl_defaults  0x0001003e   Gb    1  Data  Hi   0x3
    403  am_hal_pwrctrl_peripheral_control
                                    0x00010044   Gb    1  Data  Hi   0xcc
    404  g_AM_BSP_GPIO_FT_BRIDGE_MISO
                                    0x000102a0   Gb    1  Data  Hi   0x4
    405  g_AM_BSP_GPIO_FT_BRIDGE_MOSI
                                    0x000102a4   Gb    1  Data  Hi   0x4
    406  g_AM_BSP_GPIO_FT_BRIDGE_SCK
                                    0x000102a8   Gb    1  Data  Hi   0x4
    407  g_AM_BSP_GPIO_FT_BRIDGE_SS 0x000102ac   Gb    1  Data  Hi   0x4
    408  g_AM_BSP_GPIO_HANDSHAKE    0x000102b0   Gb    1  Data  Hi   0x4
    409  g_AM_BSP_GPIO_IOM0_CS      0x000102b4   Gb    1  Data  Hi   0x4
    410  g_AM_BSP_GPIO_IOM0_MISO    0x000102b8   Gb    1  Data  Hi   0x4
    411  g_AM_BSP_GPIO_IOM0_MOSI    0x000102bc   Gb    1  Data  Hi   0x4
    412  g_AM_BSP_GPIO_IOM0_SCK     0x000102c0   Gb    1  Data  Hi   0x4
    413  g_AM_BSP_GPIO_IOM0_SCL     0x000102c4   Gb    1  Data  Hi   0x4
    414  g_AM_BSP_GPIO_IOM0_SDA     0x000102c8   Gb    1  Data  Hi   0x4
    415  g_AM_BSP_GPIO_IOM1_CS      0x000102cc   Gb    1  Data  Hi   0x4
    416  g_AM_BSP_GPIO_IOM1_MISO    0x000102d0   Gb    1  Data  Hi   0x4
    417  g_AM_BSP_GPIO_IOM1_MOSI    0x000102d4   Gb    1  Data  Hi   0x4
    418  g_AM_BSP_GPIO_IOM1_SCK     0x000102d8   Gb    1  Data  Hi   0x4
    419  g_AM_BSP_GPIO_IOM1_SCL     0x000102dc   Gb    1  Data  Hi   0x4
    420  g_AM_BSP_GPIO_IOM1_SDA     0x000102e0   Gb    1  Data  Hi   0x4
    421  g_AM_BSP_GPIO_IOM2_SCL     0x000102e4   Gb    1  Data  Hi   0x4
    422  g_AM_BSP_GPIO_IOM2_SDA     0x000102e8   Gb    1  Data  Hi   0x4
    423  g_AM_BSP_GPIO_IOM3_CS      0x000102ec   Gb    1  Data  Hi   0x4
    424  g_AM_BSP_GPIO_IOM3_MISO    0x000102f0   Gb    1  Data  Hi   0x4
    425  g_AM_BSP_GPIO_IOM3_MOSI    0x000102f4   Gb    1  Data  Hi   0x4
    426  g_AM_BSP_GPIO_IOM3_SCK     0x000102f8   Gb    1  Data  Hi   0x4
    427  g_AM_BSP_GPIO_IOM3_SCL     0x000102fc   Gb    1  Data  Hi   0x4
    428  g_AM_BSP_GPIO_IOM3_SDA     0x00010300   Gb    1  Data  Hi   0x4
    429  g_AM_BSP_GPIO_IOM4_CS      0x00010304   Gb    1  Data  Hi   0x4
    430  g_AM_BSP_GPIO_IOM4_MISO    0x00010308   Gb    1  Data  Hi   0x4
    431  g_AM_BSP_GPIO_IOM4_MOSI    0x0001030c   Gb    1  Data  Hi   0x4
    432  g_AM_BSP_GPIO_IOM4_SCK     0x00010310   Gb    1  Data  Hi   0x4
    433  g_AM_BSP_GPIO_IOM4_SCL     0x00010314   Gb    1  Data  Hi   0x4
    434  g_AM_BSP_GPIO_IOM4_SDA     0x00010318   Gb    1  Data  Hi   0x4
    435  g_AM_BSP_GPIO_IOM5_CS      0x0001031c   Gb    1  Data  Hi   0x4
    436  g_AM_BSP_GPIO_IOM5_MISO    0x00010320   Gb    1  Data  Hi   0x4
    437  g_AM_BSP_GPIO_IOM5_MOSI    0x00010324   Gb    1  Data  Hi   0x4
    438  g_AM_BSP_GPIO_IOM5_SCK     0x00010328   Gb    1  Data  Hi   0x4
    439  g_AM_BSP_GPIO_IOM5_SCL     0x0001032c   Gb    1  Data  Hi   0x4
    440  g_AM_BSP_GPIO_IOM5_SDA     0x00010330   Gb    1  Data  Hi   0x4
    441  g_AM_BSP_GPIO_ITM_SWO      0x00010334   Gb    1  Data  Hi   0x4
    442  g_AM_HAL_GPIO_OUTPUT       0x00010338   Gb    1  Data  Hi   0x4
    443  Region$$Table$$Base        0x0001060c   Gb    1   --   Hi 
    444  Region$$Table$$Limit       0x0001063c   Gb    1   --   Hi 
    445  am_bsp_psLEDs              0x10011000   Gb    2  Data  Hi   0x28
    446  __libspace_start           0x10011050   Gb    3  Data  De   0x60
    447  __temporary_stack_top$libspace
                                    0x100110b0   Gb    3  Data  De 
    448  g_am_hal_burst_mode_available
                                    0x100110b8   Gb    3  Data  Hi   0x1
    449  g_bSimobuckTrimsDone       0x100110ba   Gb    3  Data  Hi   0x1
    450  g_bVddfTrimsDone           0x100110bb   Gb    3  Data  Hi   0x1
    451  bIosInt                    0x100110bc   Gb    3  Data  Hi   0x1
    452  gAmHalResetStatus          0x10011278   Gb    3  Data  Hi   0x4
    453  g_IOMHandle                0x1001127c   Gb    3  Data  Hi   0x4
    454  g_IOMhandles               0x10011280   Gb    3  Data  Hi   0x33d8
    455  g_am_hal_sysctrl_sleep_count
                                    0x10014658   Gb    3  Data  Hi   0x4
    456  g_pfnCharPrint             0x10014660   Gb    3  Data  Hi   0x4
    457  g_pui8RcvBuf               0x10014a64   Gb    3  Data  Hi   0x400
    458  g_startIdx                 0x10014e64   Gb    3  Data  Hi   0x4
    459  g_ui32LastUpdate           0x10014e68   Gb    3  Data  Hi   0x4


** Section #12 '.strtab' (SHT_STRTAB)
    Size   : 7932 bytes

            #  Offset String
        ====================================

            1      1: $d
            2      4: $t
            3      7: $t.8
            4     12: $d.9
            5     17: $t.10
            6     23: $d.4
            7     28: $t.5
            8     33: $d.1
            9     38: $t.2
           10     43: $d.2
           11     48: $t.3
           12     53: $d.7
           13     58: $d.realdata
           14     70: ios_fifo_host.c
           15     86: iom_set_up
           16     97: AM_HAL_GPIO_MASKBIT
           17    117: hostint_handler
           18    133: __NVIC_EnableIRQ
           19    150: .L.str
           20    157: .L.str.4
           21    166: .L.str.3
           22    175: .L.str.2
           23    184: .L.str.1
           24    193: g_sIOMSpiConfig
           25    209: g_sIOMI2cConfig
           26    225: am_util_delay.c
           27    241: am_util_stdio.c
           28    257: decstr_to_int
           29    271: simple_strlen
           30    285: padbuffer
           31    295: ndigits_in_hex
           32    310: uint64_to_hexstr
           33    327: ndigits_in_u64
           34    342: uint64_to_str
           35    356: ndigits_in_i64
           36    371: ftoa
           37    376: divu64_10
           38    386: g_bTxtXlate
           39    398: g_prfbuf
           40    407: ../keil6/startup_keil6.s
           41    432: STACK
           42    438: StackMem
           43    447: HEAP
           44    452: HeapMem
           45    460: RESET
           46    466: $v0
           47    470: .text
           48    476: am_hal_cachectrl.c
           49    495: set_LPMMODE
           50    507: set_SEDELAY
           51    519: set_RDWAIT
           52    530: am_hal_clkgen.c
           53    546: am_hal_flash.c
           54    561: am_hal_gpio.c
           55    575: g_ui8Bit76Capabilities
           56    598: g_ui8Inpen
           57    609: g_ui8nCEpins
           58    622: g_ui8NCEtable
           59    636: gpio_ppfnHandlers
           60    654: gpio_pHandlerCtxt
           61    672: am_hal_interrupt.c
           62    691: am_hal_iom.c
           63    704: internal_iom_reset_on_error
           64    732: iom_get_interface_clock_cfg
           65    760: am_hal_sysctrl.c
           66    777: am_bsp.c
           67    786: .L_MergedGlobals
           68    803: g_ui32PrintInterface
           69    824: g_sCOMUART
           70    835: am_hal_burst.c
           71    850: g_bDisFromManual
           72    867: g_bEnFromManual
           73    883: am_hal_cmdq.c
           74    897: gAmHalCmdq
           75    908: gAmHalCmdQReg
           76    922: am_hal_itm.c
           77    935: am_hal_pwrctrl.c
           78    952: am_hal_reset.c
           79    967: am_hal_rtc.c
           80    980: am_hal_tpiu.c
           81    994: am_hal_uart.c
           82   1008: am_bsp_pins.c
           83   1022: am_hal_queue.c
           84   1037: dc.s
           85   1042: ../clib/heapaux.c
           86   1060: ../clib/angel/startup.s
           87   1084: !!!main
           88   1092: ../clib/angel/handlers.s
           89   1117: !!handler_copy
           90   1132: ../fplib/d2f.s
           91   1147: x$fpl$d2f
           92   1157: ../clib/angel/kernel.s
           93   1180: .ARM.Collect$$rtentry$$00000000
           94   1212: ../fplib/dnaninf.s
           95   1231: x$fpl$dnaninf
           96   1245: ../fplib/fretinf.s
           97   1264: x$fpl$fretinf
           98   1278: ../fplib/usenofp.s
           99   1297: x$fpl$usenofp
          100   1311: .ARM.Collect$$rtentry$$00000002
          101   1343: .ARM.Collect$$rtentry$$00000009
          102   1375: .ARM.Collect$$rtentry$$0000000A
          103   1407: .ARM.Collect$$rtentry$$0000000C
          104   1439: .ARM.Collect$$rtentry$$0000000D
          105   1471: .ARM.Collect$$rtentry$$00000004
          106   1503: ../clib/angel/sys.s
          107   1523: ../clib/stdlib.c
          108   1540: ../clib/angel/boardlib.s
          109   1565: ../clib/libinit.s
          110   1583: .ARM.Collect$$libinit$$00000000
          111   1615: .bss
          112   1620: .ARM.Collect$$rtexit$$00000000
          113   1651: .ARM.Collect$$libinit$$00000001
          114   1683: .ARM.Collect$$libinit$$00000004
          115   1715: .ARM.Collect$$libinit$$00000006
          116   1747: .ARM.Collect$$libinit$$0000000C
          117   1779: .ARM.Collect$$libinit$$0000000E
          118   1811: .ARM.Collect$$libinit$$00000010
          119   1843: .ARM.Collect$$libinit$$00000013
          120   1875: .ARM.Collect$$libinit$$00000015
          121   1907: .ARM.Collect$$libinit$$00000017
          122   1939: .ARM.Collect$$libinit$$00000019
          123   1971: .ARM.Collect$$libinit$$0000001B
          124   2003: .ARM.Collect$$libinit$$0000001D
          125   2035: .ARM.Collect$$libinit$$0000001F
          126   2067: .ARM.Collect$$libinit$$00000021
          127   2099: .ARM.Collect$$libinit$$00000023
          128   2131: .ARM.Collect$$libinit$$00000025
          129   2163: .ARM.Collect$$libinit$$00000027
          130   2195: .ARM.Collect$$libinit$$0000002E
          131   2227: .ARM.Collect$$libinit$$00000030
          132   2259: .ARM.Collect$$libinit$$00000032
          133   2291: .ARM.Collect$$libinit$$00000034
          134   2323: .ARM.Collect$$libinit$$00000035
          135   2355: .ARM.Collect$$rtexit$$00000002
          136   2386: .ARM.Collect$$rtexit$$00000003
          137   2417: .ARM.Collect$$rtexit$$00000004
          138   2448: ../clib/armsys.c
          139   2465: ../fplib/fpinit.s
          140   2483: x$fpl$fpinit
          141   2496: ../clib/angel/sysapp.c
          142   2519: .ARM.Collect$$libshutdown$$00000000
          143   2555: ../clib/heapalloc.c
          144   2575: ../clib/signal.c
          145   2592: .ARM.Collect$$libshutdown$$00000002
          146   2628: .ARM.Collect$$libshutdown$$00000004
          147   2664: .ARM.Collect$$libshutdown$$00000007
          148   2700: .ARM.Collect$$libshutdown$$0000000A
          149   2736: .ARM.Collect$$libshutdown$$0000000C
          150   2772: .ARM.Collect$$libshutdown$$0000000F
          151   2808: .ARM.Collect$$libshutdown$$00000010
          152   2844: ../clib/angel/rt.s
          153   2863: ../clib/signal.s
          154   2880: ../clib/angel/scatter.s
          155   2904: !!!scatter
          156   2915: !!handler_zi
          157   2928: BuildAttributes$$THM_ISAv4$E$P$D$K$B$S$7EM$VFPi3$EXTD16$VFPS$VFMA$PE$A:L22UL41UL21$X:L11$S22US41US21$IEEE1$IW$~IW$USESV6$~STKCKD$USESV7$~SHL$OTIME$ROPI$EBA8$UX$STANDARDLIB$REQ8$PRES8$EABIv2
          158   3118: __Vectors
          159   3128: __Patchable
          160   3140: Reset_Handler
          161   3154: HardFault_Handler
          162   3172: NMI_Handler
          163   3184: MemManage_Handler
          164   3202: BusFault_Handler
          165   3219: UsageFault_Handler
          166   3238: SVC_Handler
          167   3250: DebugMon_Handler
          168   3267: PendSV_Handler
          169   3282: SysTick_Handler
          170   3298: am_adc_isr
          171   3309: am_ble_isr
          172   3320: am_brownout_isr
          173   3336: am_clkgen_isr
          174   3350: am_ctimer_isr
          175   3364: am_iomaster0_isr
          176   3381: am_iomaster1_isr
          177   3398: am_iomaster2_isr
          178   3415: am_iomaster3_isr
          179   3432: am_iomaster4_isr
          180   3449: am_iomaster5_isr
          181   3466: am_ioslave_acc_isr
          182   3485: am_ioslave_ios_isr
          183   3504: am_mspi0_isr
          184   3517: am_mspi1_isr
          185   3530: am_mspi2_isr
          186   3543: am_pdm0_isr
          187   3555: am_rtc_isr
          188   3566: am_scard_isr
          189   3579: am_software0_isr
          190   3596: am_stimer_cmpr0_isr
          191   3616: am_stimer_cmpr1_isr
          192   3636: am_stimer_cmpr2_isr
          193   3656: am_stimer_cmpr3_isr
          194   3676: am_stimer_cmpr4_isr
          195   3696: am_stimer_cmpr5_isr
          196   3716: am_stimer_cmpr6_isr
          197   3736: am_stimer_cmpr7_isr
          198   3756: am_stimer_isr
          199   3770: am_uart0_isr
          200   3783: am_uart1_isr
          201   3796: am_uart_isr
          202   3808: am_vcomp_isr
          203   3821: am_watchdog_isr
          204   3837: __main
          205   3844: __scatterload
          206   3858: __scatterload_rt2
          207   3876: __scatterload_rt2_thumb_only
          208   3905: __scatterload_null
          209   3924: __scatterload_copy
          210   3943: __scatterload_zeroinit
          211   3966: __rt_lib_init
          212   3980: __rt_lib_init_fp_1
          213   3999: __rt_lib_init_alloca_1
          214   4022: __rt_lib_init_argv_1
          215   4043: __rt_lib_init_atexit_1
          216   4066: __rt_lib_init_clock_1
          217   4088: __rt_lib_init_cpp_1
          218   4108: __rt_lib_init_exceptions_1
          219   4135: __rt_lib_init_fp_trap_1
          220   4159: __rt_lib_init_getenv_1
          221   4182: __rt_lib_init_heap_1
          222   4203: __rt_lib_init_lc_collate_1
          223   4230: __rt_lib_init_lc_ctype_1
          224   4255: __rt_lib_init_lc_monetary_1
          225   4283: __rt_lib_init_lc_numeric_1
          226   4310: __rt_lib_init_lc_time_1
          227   4334: __rt_lib_init_preinit_1
          228   4358: __rt_lib_init_rand_1
          229   4379: __rt_lib_init_relocate_pie_1
          230   4408: __rt_lib_init_return
          231   4429: __rt_lib_init_signal_1
          232   4452: __rt_lib_init_stdio_1
          233   4474: __rt_lib_init_user_alloc_1
          234   4501: __rt_lib_shutdown
          235   4519: __rt_lib_shutdown_cpp_1
          236   4543: __rt_lib_shutdown_fp_trap_1
          237   4571: __rt_lib_shutdown_heap_1
          238   4596: __rt_lib_shutdown_return
          239   4621: __rt_lib_shutdown_signal_1
          240   4648: __rt_lib_shutdown_stdio_1
          241   4674: __rt_lib_shutdown_user_alloc_1
          242   4705: __rt_entry
          243   4716: __rt_entry_presh_1
          244   4735: __rt_entry_sh
          245   4749: __rt_entry_li
          246   4763: __rt_entry_postsh_1
          247   4783: __rt_entry_main
          248   4799: __rt_entry_postli_1
          249   4819: __rt_exit
          250   4829: __rt_exit_ls
          251   4842: __rt_exit_prels_1
          252   4860: __rt_exit_exit
          253   4875: __user_initial_stackheap
          254   4900: __use_two_region_memory
          255   4924: __rt_heap_escrow$2region
          256   4949: __rt_heap_expand$2region
          257   4974: __user_setup_stackheap
          258   4997: exit
          259   5002: __user_libspace
          260   5018: __user_perproc_libspace
          261   5042: __user_perthread_libspace
          262   5068: _sys_exit
          263   5078: __I$use$semihosting
          264   5098: __use_no_semihosting_swi
          265   5123: __semihosting_library_function
          266   5154: am_bsp_iom_pins_enable
          267   5177: am_bsp_itm_printf_enable
          268   5202: am_bsp_low_power_init
          269   5224: am_gpio_isr
          270   5236: am_hal_burst_ldo_charge
          271   5260: am_hal_burst_ldo_patch_check
          272   5289: am_hal_burst_mode_disable
          273   5315: am_hal_burst_mode_enable
          274   5340: am_hal_burst_mode_enable_w_manual_sequence
          275   5383: am_hal_cachectrl_config
          276   5407: am_hal_cachectrl_control
          277   5432: am_hal_cachectrl_enable
          278   5456: am_hal_clkgen_control
          279   5478: am_hal_clkgen_status_get
          280   5503: am_hal_cmdq_disable
          281   5523: am_hal_cmdq_enable
          282   5542: am_hal_cmdq_init
          283   5559: am_hal_flash_delay
          284   5578: am_hal_flash_delay_status_check
          285   5610: am_hal_flash_load_ui32
          286   5633: am_hal_flash_store_ui32
          287   5657: am_hal_gpio_interrupt_clear
          288   5685: am_hal_gpio_interrupt_enable
          289   5714: am_hal_gpio_interrupt_register
          290   5745: am_hal_gpio_interrupt_service
          291   5775: am_hal_gpio_interrupt_status_get
          292   5808: am_hal_gpio_pinconfig
          293   5830: am_hal_gpio_state_write
          294   5854: am_hal_interrupt_master_disable
          295   5886: am_hal_interrupt_master_enable
          296   5917: am_hal_interrupt_master_set
          297   5945: am_hal_iom_CQEnable
          298   5965: am_hal_iom_blocking_transfer
          299   5994: am_hal_iom_configure
          300   6015: am_hal_iom_enable
          301   6033: am_hal_iom_initialize
          302   6055: am_hal_iom_power_ctrl
          303   6077: am_hal_itm_enable
          304   6095: am_hal_itm_print
          305   6112: am_hal_pwrctrl_low_power_init
          306   6142: am_hal_pwrctrl_periph_disable
          307   6172: am_hal_pwrctrl_periph_enable
          308   6201: am_hal_pwrctrl_wa_vddf_boost
          309   6230: am_hal_pwrctrl_wa_vddf_restore
          310   6261: am_hal_rtc_osc_disable
          311   6284: am_hal_sysctrl_sleep
          312   6305: am_hal_tpiu_enable
          313   6324: am_util_delay_ms
          314   6341: am_util_stdio_printf
          315   6362: am_util_stdio_printf_init
          316   6388: am_util_stdio_terminal_clear
          317   6417: am_util_stdio_vsprintf
          318   6440: clear_rx_buf
          319   6453: iom_target_read
          320   6469: iom_target_write
          321   6486: main
          322   6491: update_progress
          323   6507: validate_rx_buf
          324   6523: __aeabi_d2f
          325   6535: _d2f
          326   6540: __fpl_dnaninf
          327   6554: _fp_init
          328   6563: __fplib_config_fpu_vfp
          329   6586: __fplib_config_pureend_doubles
          330   6617: __fpl_fretinf
          331   6631: __I$use$fp
          332   6642: am_hal_cachectrl_defaults
          333   6668: am_hal_pwrctrl_peripheral_control
          334   6702: g_AM_BSP_GPIO_FT_BRIDGE_MISO
          335   6731: g_AM_BSP_GPIO_FT_BRIDGE_MOSI
          336   6760: g_AM_BSP_GPIO_FT_BRIDGE_SCK
          337   6788: g_AM_BSP_GPIO_FT_BRIDGE_SS
          338   6815: g_AM_BSP_GPIO_HANDSHAKE
          339   6839: g_AM_BSP_GPIO_IOM0_CS
          340   6861: g_AM_BSP_GPIO_IOM0_MISO
          341   6885: g_AM_BSP_GPIO_IOM0_MOSI
          342   6909: g_AM_BSP_GPIO_IOM0_SCK
          343   6932: g_AM_BSP_GPIO_IOM0_SCL
          344   6955: g_AM_BSP_GPIO_IOM0_SDA
          345   6978: g_AM_BSP_GPIO_IOM1_CS
          346   7000: g_AM_BSP_GPIO_IOM1_MISO
          347   7024: g_AM_BSP_GPIO_IOM1_MOSI
          348   7048: g_AM_BSP_GPIO_IOM1_SCK
          349   7071: g_AM_BSP_GPIO_IOM1_SCL
          350   7094: g_AM_BSP_GPIO_IOM1_SDA
          351   7117: g_AM_BSP_GPIO_IOM2_SCL
          352   7140: g_AM_BSP_GPIO_IOM2_SDA
          353   7163: g_AM_BSP_GPIO_IOM3_CS
          354   7185: g_AM_BSP_GPIO_IOM3_MISO
          355   7209: g_AM_BSP_GPIO_IOM3_MOSI
          356   7233: g_AM_BSP_GPIO_IOM3_SCK
          357   7256: g_AM_BSP_GPIO_IOM3_SCL
          358   7279: g_AM_BSP_GPIO_IOM3_SDA
          359   7302: g_AM_BSP_GPIO_IOM4_CS
          360   7324: g_AM_BSP_GPIO_IOM4_MISO
          361   7348: g_AM_BSP_GPIO_IOM4_MOSI
          362   7372: g_AM_BSP_GPIO_IOM4_SCK
          363   7395: g_AM_BSP_GPIO_IOM4_SCL
          364   7418: g_AM_BSP_GPIO_IOM4_SDA
          365   7441: g_AM_BSP_GPIO_IOM5_CS
          366   7463: g_AM_BSP_GPIO_IOM5_MISO
          367   7487: g_AM_BSP_GPIO_IOM5_MOSI
          368   7511: g_AM_BSP_GPIO_IOM5_SCK
          369   7534: g_AM_BSP_GPIO_IOM5_SCL
          370   7557: g_AM_BSP_GPIO_IOM5_SDA
          371   7580: g_AM_BSP_GPIO_ITM_SWO
          372   7602: g_AM_HAL_GPIO_OUTPUT
          373   7623: Region$$Table$$Base
          374   7643: Region$$Table$$Limit
          375   7664: am_bsp_psLEDs
          376   7678: __libspace_start
          377   7695: __temporary_stack_top$libspace
          378   7726: g_am_hal_burst_mode_available
          379   7756: g_bSimobuckTrimsDone
          380   7777: g_bVddfTrimsDone
          381   7794: bIosInt
          382   7802: gAmHalResetStatus
          383   7820: g_IOMHandle
          384   7832: g_IOMhandles
          385   7845: g_am_hal_sysctrl_sleep_count
          386   7874: g_pfnCharPrint
          387   7889: g_pui8RcvBuf
          388   7902: g_startIdx
          389   7913: g_ui32LastUpdate
          390   7930: 
          391   7931: 


** Section #13 '.note' (SHT_NOTE)
    Size   : 32 bytes (alignment 4)


** Section #14 '.comment' (SHT_PROGBITS)
    Size   : 1512 bytes


** Section #15 '.shstrtab' (SHT_STRTAB)
    Size   : 144 bytes

            #  Offset String
        ====================================

            1      1: ROMEM
            2      7: RWMEM
            3     13: TCM
            4     17: STACKMEM
            5     26: .debug_abbrev
            6     40: .debug_frame
            7     53: .debug_info
            8     65: .debug_line
            9     77: .debug_ranges
           10     91: .debug_str
           11    102: .symtab
           12    110: .strtab
           13    118: .note
           14    124: .comment
           15    133: .shstrtab
           16    143: 


