
========================================================================

** ELF Header Information

    File Name: bin\ctimer_stepper_synch_64bit_pattern.axf

    Machine class: ELFCLASS32 (32-bit)
    Data encoding: ELFDATA2LSB (Little endian)
    Header version: EV_CURRENT (Current version)
    Operating System ABI: none
    ABI Version: 0
    File Type: ET_EXEC (Executable) (2)
    Machine: EM_ARM (ARM)

    Image Entry point: 0x0000c135
    Flags: EF_ARM_HASENTRY + EF_ARM_ABI_FLOAT_HARD (0x05000402)

    ARM ELF revision: 5 (ABI version 2)

    Conforms to Hard float procedure-call standard

    Built with
    Component: Arm Compiler for Embedded 6.19 Tool: armasm [5e73cb00]
    Component: Arm Compiler for Embedded 6.19 Tool: armlink [5e73cb00]

    Header size: 52 bytes (0x34)
    Program header entry size: 32 bytes (0x20)
    Section header entry size: 40 bytes (0x28)

    Program header entries: 1
    Section header entries: 15

    Program header offset: 67244 (0x000106ac)
    Section header offset: 67276 (0x000106cc)

    Section header string table index: 14

========================================================================

** Program header #0 (PT_LOAD) [PF_X + PF_W + PF_R + PF_ARM_ENTRY]
    Size : 18856 bytes (13096 bytes in file)
    Virtual address: 0x0000c000 (Alignment 8)


========================================================================

** Section #1 'FLASH' (SHT_PROGBITS) [SHF_ALLOC + SHF_EXECINSTR]
    Size   : 13036 bytes (alignment 4)
    Address: 0x0000c000

    $d
    RESET
    __Vectors
        0x0000c000:    10001038    8...    DCD    268439608
        0x0000c004:    0000c101    ....    DCD    49409
        0x0000c008:    0000c11f    ....    DCD    49439
        0x0000c00c:    0000c269    i...    DCD    49769
        0x0000c010:    0000c121    !...    DCD    49441
        0x0000c014:    0000c123    #...    DCD    49443
        0x0000c018:    0000c125    %...    DCD    49445
        0x0000c01c:    00000000    ....    DCD    0
        0x0000c020:    00000000    ....    DCD    0
        0x0000c024:    00000000    ....    DCD    0
        0x0000c028:    00000000    ....    DCD    0
        0x0000c02c:    0000c127    '...    DCD    49447
        0x0000c030:    0000c129    )...    DCD    49449
        0x0000c034:    00000000    ....    DCD    0
        0x0000c038:    0000c12b    +...    DCD    49451
        0x0000c03c:    0000c12d    -...    DCD    49453
        0x0000c040:    0000c12f    /...    DCD    49455
        0x0000c044:    0000c12f    /...    DCD    49455
        0x0000c048:    0000c12f    /...    DCD    49455
        0x0000c04c:    0000c12f    /...    DCD    49455
        0x0000c050:    0000c12f    /...    DCD    49455
        0x0000c054:    0000c12f    /...    DCD    49455
        0x0000c058:    0000c12f    /...    DCD    49455
        0x0000c05c:    0000c12f    /...    DCD    49455
        0x0000c060:    0000c12f    /...    DCD    49455
        0x0000c064:    0000c12f    /...    DCD    49455
        0x0000c068:    0000c12f    /...    DCD    49455
        0x0000c06c:    0000c12f    /...    DCD    49455
        0x0000c070:    0000c12f    /...    DCD    49455
        0x0000c074:    0000c12f    /...    DCD    49455
        0x0000c078:    0000c12f    /...    DCD    49455
        0x0000c07c:    0000c12f    /...    DCD    49455
        0x0000c080:    0000c12f    /...    DCD    49455
        0x0000c084:    0000c12f    /...    DCD    49455
        0x0000c088:    0000c12f    /...    DCD    49455
        0x0000c08c:    0000c12f    /...    DCD    49455
        0x0000c090:    0000c12f    /...    DCD    49455
        0x0000c094:    0000c12f    /...    DCD    49455
        0x0000c098:    0000c12f    /...    DCD    49455
        0x0000c09c:    0000c12f    /...    DCD    49455
        0x0000c0a0:    0000c12f    /...    DCD    49455
        0x0000c0a4:    0000c12f    /...    DCD    49455
        0x0000c0a8:    0000c12f    /...    DCD    49455
        0x0000c0ac:    0000c12f    /...    DCD    49455
        0x0000c0b0:    0000c12f    /...    DCD    49455
        0x0000c0b4:    0000c12f    /...    DCD    49455
        0x0000c0b8:    0000c12f    /...    DCD    49455
        0x0000c0bc:    0000c12f    /...    DCD    49455
    __Patchable
        0x0000c0c0:    00000000    ....    DCD    0
        0x0000c0c4:    00000000    ....    DCD    0
        0x0000c0c8:    00000000    ....    DCD    0
        0x0000c0cc:    00000000    ....    DCD    0
        0x0000c0d0:    00000000    ....    DCD    0
        0x0000c0d4:    00000000    ....    DCD    0
        0x0000c0d8:    00000000    ....    DCD    0
        0x0000c0dc:    00000000    ....    DCD    0
        0x0000c0e0:    00000000    ....    DCD    0
        0x0000c0e4:    00000000    ....    DCD    0
        0x0000c0e8:    00000000    ....    DCD    0
        0x0000c0ec:    00000000    ....    DCD    0
        0x0000c0f0:    00000000    ....    DCD    0
        0x0000c0f4:    00000000    ....    DCD    0
        0x0000c0f8:    00000000    ....    DCD    0
        0x0000c0fc:    00000000    ....    DCD    0
    $t
    $v0
    Reset_Handler
        0x0000c100:    f64e5088    N..P    MOV      r0,#0xed88
        0x0000c104:    f2ce0000    ....    MOVT     r0,#0xe000
        0x0000c108:    6801        .h      LDR      r1,[r0,#0]
        0x0000c10a:    f4410170    A.p.    ORR      r1,r1,#0xf00000
        0x0000c10e:    6001        .`      STR      r1,[r0,#0]
        0x0000c110:    f3bf8f4f    ..O.    DSB      
        0x0000c114:    f3bf8f6f    ..o.    ISB      
        0x0000c118:    4805        .H      LDR      r0,[pc,#20] ; [0xc130] = 0xc135
        0x0000c11a:    4700        .G      BX       r0
        0x0000c11c:    e7fe        ..      B        0xc11c ; Reset_Handler + 28
    NMI_Handler
        0x0000c11e:    e7fe        ..      B        NMI_Handler ; 0xc11e
    MemManage_Handler
        0x0000c120:    e7fe        ..      B        MemManage_Handler ; 0xc120
    BusFault_Handler
        0x0000c122:    e7fe        ..      B        BusFault_Handler ; 0xc122
    UsageFault_Handler
        0x0000c124:    e7fe        ..      B        UsageFault_Handler ; 0xc124
    SVC_Handler
        0x0000c126:    e7fe        ..      B        SVC_Handler ; 0xc126
    DebugMon_Handler
        0x0000c128:    e7fe        ..      B        DebugMon_Handler ; 0xc128
    PendSV_Handler
        0x0000c12a:    e7fe        ..      B        PendSV_Handler ; 0xc12a
    SysTick_Handler
        0x0000c12c:    e7fe        ..      B        SysTick_Handler ; 0xc12c
    am_adc_isr
    am_ble_isr
    am_brownout_isr
    am_clkgen_isr
    am_ctimer_isr
    am_gpio_isr
    am_iomaster0_isr
    am_iomaster1_isr
    am_iomaster2_isr
    am_iomaster3_isr
    am_iomaster4_isr
    am_iomaster5_isr
    am_ioslave_acc_isr
    am_ioslave_ios_isr
    am_mspi0_isr
    am_pdm0_isr
    am_rtc_isr
    am_scard_isr
    am_software0_isr
    am_stimer_cmpr0_isr
    am_stimer_cmpr1_isr
    am_stimer_cmpr2_isr
    am_stimer_cmpr3_isr
    am_stimer_cmpr4_isr
    am_stimer_cmpr5_isr
    am_stimer_cmpr6_isr
    am_stimer_cmpr7_isr
    am_stimer_isr
    am_uart0_isr
    am_uart1_isr
    am_uart_isr
    am_vcomp_isr
    am_watchdog_isr
        0x0000c12e:    e7fe        ..      B        am_adc_isr ; 0xc12e
    $d
        0x0000c130:    0000c135    5...    DCD    49461
    $t
    !!!main
    __main
        0x0000c134:    f000f802    ....    BL       __scatterload ; 0xc13c
        0x0000c138:    f000f83c    ..<.    BL       __rt_entry ; 0xc1b4
    !!!scatter
    __scatterload
    __scatterload_rt2
    __scatterload_rt2_thumb_only
        0x0000c13c:    a00a        ..      ADR      r0,{pc}+0x2c ; 0xc168
        0x0000c13e:    e8900c00    ....    LDM      r0,{r10,r11}
        0x0000c142:    4482        .D      ADD      r10,r10,r0
        0x0000c144:    4483        .D      ADD      r11,r11,r0
        0x0000c146:    f1aa0701    ....    SUB      r7,r10,#1
    __scatterload_null
        0x0000c14a:    45da        .E      CMP      r10,r11
        0x0000c14c:    d101        ..      BNE      0xc152 ; __scatterload_null + 8
        0x0000c14e:    f000f831    ..1.    BL       __rt_entry ; 0xc1b4
        0x0000c152:    f2af0e09    ....    ADR      lr,{pc}-7 ; 0xc14b
        0x0000c156:    e8ba000f    ....    LDM      r10!,{r0-r3}
        0x0000c15a:    f0130f01    ....    TST      r3,#1
        0x0000c15e:    bf18        ..      IT       NE
        0x0000c160:    1afb        ..      SUBNE    r3,r7,r3
        0x0000c162:    f0430301    C...    ORR      r3,r3,#1
        0x0000c166:    4718        .G      BX       r3
    $d
        0x0000c168:    00003164    d1..    DCD    12644
        0x0000c16c:    00003184    .1..    DCD    12676
    $t
    !!handler_copy
    __scatterload_copy
        0x0000c170:    3a10        .:      SUBS     r2,r2,#0x10
        0x0000c172:    bf24        $.      ITT      CS
        0x0000c174:    c878        x.      LDMCS    r0!,{r3-r6}
        0x0000c176:    c178        x.      STMCS    r1!,{r3-r6}
        0x0000c178:    d8fa        ..      BHI      __scatterload_copy ; 0xc170
        0x0000c17a:    0752        R.      LSLS     r2,r2,#29
        0x0000c17c:    bf24        $.      ITT      CS
        0x0000c17e:    c830        0.      LDMCS    r0!,{r4,r5}
        0x0000c180:    c130        0.      STMCS    r1!,{r4,r5}
        0x0000c182:    bf44        D.      ITT      MI
        0x0000c184:    6804        .h      LDRMI    r4,[r0,#0]
        0x0000c186:    600c        .`      STRMI    r4,[r1,#0]
        0x0000c188:    4770        pG      BX       lr
        0x0000c18a:    0000        ..      MOVS     r0,r0
    !!handler_zi
    __scatterload_zeroinit
        0x0000c18c:    2300        .#      MOVS     r3,#0
        0x0000c18e:    2400        .$      MOVS     r4,#0
        0x0000c190:    2500        .%      MOVS     r5,#0
        0x0000c192:    2600        .&      MOVS     r6,#0
        0x0000c194:    3a10        .:      SUBS     r2,r2,#0x10
        0x0000c196:    bf28        (.      IT       CS
        0x0000c198:    c178        x.      STMCS    r1!,{r3-r6}
        0x0000c19a:    d8fb        ..      BHI      0xc194 ; __scatterload_zeroinit + 8
        0x0000c19c:    0752        R.      LSLS     r2,r2,#29
        0x0000c19e:    bf28        (.      IT       CS
        0x0000c1a0:    c130        0.      STMCS    r1!,{r4,r5}
        0x0000c1a2:    bf48        H.      IT       MI
        0x0000c1a4:    600b        .`      STRMI    r3,[r1,#0]
        0x0000c1a6:    4770        pG      BX       lr
    .ARM.Collect$$libinit$$00000000
    __rt_lib_init
        0x0000c1a8:    b51f        ..      PUSH     {r0-r4,lr}
    .ARM.Collect$$libinit$$00000001
    __rt_lib_init_fp_1
        0x0000c1aa:    f002ff02    ....    BL       _fp_init ; 0xefb2
    .ARM.Collect$$libinit$$00000004
    .ARM.Collect$$libinit$$00000006
    .ARM.Collect$$libinit$$0000000C
    .ARM.Collect$$libinit$$0000000E
    .ARM.Collect$$libinit$$00000010
    .ARM.Collect$$libinit$$00000013
    .ARM.Collect$$libinit$$00000015
    .ARM.Collect$$libinit$$00000017
    .ARM.Collect$$libinit$$00000019
    .ARM.Collect$$libinit$$0000001B
    .ARM.Collect$$libinit$$0000001D
    .ARM.Collect$$libinit$$0000001F
    .ARM.Collect$$libinit$$00000021
    .ARM.Collect$$libinit$$00000023
    .ARM.Collect$$libinit$$00000025
    .ARM.Collect$$libinit$$00000027
    .ARM.Collect$$libinit$$0000002E
    .ARM.Collect$$libinit$$00000030
    .ARM.Collect$$libinit$$00000032
    .ARM.Collect$$libinit$$00000034
    .ARM.Collect$$libinit$$00000035
    __rt_lib_init_alloca_1
    __rt_lib_init_argv_1
    __rt_lib_init_atexit_1
    __rt_lib_init_clock_1
    __rt_lib_init_cpp_1
    __rt_lib_init_exceptions_1
    __rt_lib_init_fp_trap_1
    __rt_lib_init_getenv_1
    __rt_lib_init_heap_1
    __rt_lib_init_lc_collate_1
    __rt_lib_init_lc_ctype_1
    __rt_lib_init_lc_monetary_1
    __rt_lib_init_lc_numeric_1
    __rt_lib_init_lc_time_1
    __rt_lib_init_preinit_1
    __rt_lib_init_rand_1
    __rt_lib_init_relocate_pie_1
    __rt_lib_init_return
    __rt_lib_init_signal_1
    __rt_lib_init_stdio_1
    __rt_lib_init_user_alloc_1
        0x0000c1ae:    bd1f        ..      POP      {r0-r4,pc}
    .ARM.Collect$$libshutdown$$00000000
    __rt_lib_shutdown
        0x0000c1b0:    b510        ..      PUSH     {r4,lr}
    .ARM.Collect$$libshutdown$$00000002
    .ARM.Collect$$libshutdown$$00000004
    .ARM.Collect$$libshutdown$$00000007
    .ARM.Collect$$libshutdown$$0000000A
    .ARM.Collect$$libshutdown$$0000000C
    .ARM.Collect$$libshutdown$$0000000F
    .ARM.Collect$$libshutdown$$00000010
    __rt_lib_shutdown_cpp_1
    __rt_lib_shutdown_fp_trap_1
    __rt_lib_shutdown_heap_1
    __rt_lib_shutdown_return
    __rt_lib_shutdown_signal_1
    __rt_lib_shutdown_stdio_1
    __rt_lib_shutdown_user_alloc_1
        0x0000c1b2:    bd10        ..      POP      {r4,pc}
    .ARM.Collect$$rtentry$$00000000
    .ARM.Collect$$rtentry$$00000002
    .ARM.Collect$$rtentry$$00000004
    __rt_entry
    __rt_entry_presh_1
    __rt_entry_sh
        0x0000c1b4:    f000f81d    ....    BL       __user_setup_stackheap ; 0xc1f2
        0x0000c1b8:    4611        .F      MOV      r1,r2
    .ARM.Collect$$rtentry$$00000009
    .ARM.Collect$$rtentry$$0000000A
    __rt_entry_li
    __rt_entry_postsh_1
        0x0000c1ba:    f7fffff5    ....    BL       __rt_lib_init ; 0xc1a8
    .ARM.Collect$$rtentry$$0000000C
    .ARM.Collect$$rtentry$$0000000D
    __rt_entry_main
    __rt_entry_postli_1
        0x0000c1be:    f002fcdb    ....    BL       main ; 0xeb78
        0x0000c1c2:    f000f83b    ..;.    BL       exit ; 0xc23c
    .ARM.Collect$$rtexit$$00000000
    __rt_exit
        0x0000c1c6:    b403        ..      PUSH     {r0,r1}
    .ARM.Collect$$rtexit$$00000002
    .ARM.Collect$$rtexit$$00000003
    __rt_exit_ls
    __rt_exit_prels_1
        0x0000c1c8:    f7fffff2    ....    BL       __rt_lib_shutdown ; 0xc1b0
    .ARM.Collect$$rtexit$$00000004
    __rt_exit_exit
        0x0000c1cc:    bc03        ..      POP      {r0,r1}
        0x0000c1ce:    f000f843    ..C.    BL       _sys_exit ; 0xc258
        0x0000c1d2:    0000        ..      MOVS     r0,r0
    .text
    $v0
    __user_initial_stackheap
        0x0000c1d4:    4802        .H      LDR      r0,[pc,#8] ; [0xc1e0] = 0x100016b8
        0x0000c1d6:    4903        .I      LDR      r1,[pc,#12] ; [0xc1e4] = 0x10001038
        0x0000c1d8:    4a01        .J      LDR      r2,[pc,#4] ; [0xc1e0] = 0x100016b8
        0x0000c1da:    4b03        .K      LDR      r3,[pc,#12] ; [0xc1e8] = 0x10000038
        0x0000c1dc:    4770        pG      BX       lr
    $d
        0x0000c1de:    0000        ..      DCW    0
        0x0000c1e0:    100016b8    ....    DCD    268441272
        0x0000c1e4:    10001038    8...    DCD    268439608
        0x0000c1e8:    10000038    8...    DCD    268435512
    $t
    .text
    __use_two_region_memory
        0x0000c1ec:    4770        pG      BX       lr
    __rt_heap_escrow$2region
        0x0000c1ee:    4770        pG      BX       lr
    __rt_heap_expand$2region
        0x0000c1f0:    4770        pG      BX       lr
    .text
    __user_setup_stackheap
        0x0000c1f2:    4675        uF      MOV      r5,lr
        0x0000c1f4:    f000f82c    ..,.    BL       __user_libspace ; 0xc250
        0x0000c1f8:    46ae        .F      MOV      lr,r5
        0x0000c1fa:    0005        ..      MOVS     r5,r0
        0x0000c1fc:    4669        iF      MOV      r1,sp
        0x0000c1fe:    4653        SF      MOV      r3,r10
        0x0000c200:    f0200007     ...    BIC      r0,r0,#7
        0x0000c204:    4685        .F      MOV      sp,r0
        0x0000c206:    b018        ..      ADD      sp,sp,#0x60
        0x0000c208:    b520         .      PUSH     {r5,lr}
        0x0000c20a:    f7ffffe3    ....    BL       __user_initial_stackheap ; 0xc1d4
        0x0000c20e:    e8bd4020    .. @    POP      {r5,lr}
        0x0000c212:    f04f0600    O...    MOV      r6,#0
        0x0000c216:    f04f0700    O...    MOV      r7,#0
        0x0000c21a:    f04f0800    O...    MOV      r8,#0
        0x0000c21e:    f04f0b00    O...    MOV      r11,#0
        0x0000c222:    46ac        .F      MOV      r12,r5
        0x0000c224:    e8ac09c0    ....    STM      r12!,{r6-r8,r11}
        0x0000c228:    e8ac09c0    ....    STM      r12!,{r6-r8,r11}
        0x0000c22c:    e8ac09c0    ....    STM      r12!,{r6-r8,r11}
        0x0000c230:    e8ac09c0    ....    STM      r12!,{r6-r8,r11}
        0x0000c234:    f0210107    !...    BIC      r1,r1,#7
        0x0000c238:    468d        .F      MOV      sp,r1
        0x0000c23a:    4770        pG      BX       lr
    .text
    exit
        0x0000c23c:    b510        ..      PUSH     {r4,lr}
        0x0000c23e:    4604        .F      MOV      r4,r0
        0x0000c240:    f3af8000    ....    NOP.W    
        0x0000c244:    4620         F      MOV      r0,r4
        0x0000c246:    e8bd4010    ...@    POP      {r4,lr}
        0x0000c24a:    f7ffbfbc    ....    B.W      __rt_exit ; 0xc1c6
        0x0000c24e:    0000        ..      MOVS     r0,r0
    .text
    __user_libspace
    __user_perproc_libspace
    __user_perthread_libspace
        0x0000c250:    4800        .H      LDR      r0,[pc,#0] ; [0xc254] = 0x10001038
        0x0000c252:    4770        pG      BX       lr
    $d
        0x0000c254:    10001038    8...    DCD    268439608
    $t
    .text
    _sys_exit
        0x0000c258:    4901        .I      LDR      r1,[pc,#4] ; [0xc260] = 0x20026
        0x0000c25a:    2018        .       MOVS     r0,#0x18
        0x0000c25c:    beab        ..      BKPT     #0xab
        0x0000c25e:    e7fe        ..      B        0xc25e ; _sys_exit + 6
    $d
        0x0000c260:    00020026    &...    DCD    131110
    $t
    .text
    __I$use$semihosting
    __use_no_semihosting_swi
        0x0000c264:    4770        pG      BX       lr
    .text
    __semihosting_library_function
        0x0000c266:    0000        ..      MOVS     r0,r0
    $t.0
    HardFault_Handler
        0x0000c268:    f01e0f04    ....    TST      lr,#4
        0x0000c26c:    bf0c        ..      ITE      EQ
        0x0000c26e:    f3ef8008    ....    MRSEQ    r0,MSP
        0x0000c272:    f3ef8009    ....    MRSNE    r0,PSP
        0x0000c276:    4904        .I      LDR      r1,[pc,#16] ; [0xc288] = 0x100010a8
        0x0000c278:    f5017100    ...q    ADD      r1,r1,#0x200
        0x0000c27c:    f0210103    !...    BIC      r1,r1,#3
        0x0000c280:    468d        .F      MOV      sp,r1
        0x0000c282:    f001be0b    ....    B.W      am_util_faultisr_collect_data ; 0xde9c
        0x0000c286:    0000        ..      MOVS     r0,r0
    $d.4
        0x0000c288:    100010a8    ....    DCD    268439720
    $t.5
    am_bsp_debug_printf_disable
        0x0000c28c:    b510        ..      PUSH     {r4,lr}
        0x0000c28e:    f2410498    A...    MOV      r4,#0x1098
        0x0000c292:    f2c10400    ....    MOVT     r4,#0x1000
        0x0000c296:    6820         h      LDR      r0,[r4,#0]
        0x0000c298:    2802        .(      CMP      r0,#2
        0x0000c29a:    d011        ..      BEQ      0xc2c0 ; am_bsp_debug_printf_disable + 52
        0x0000c29c:    2801        .(      CMP      r0,#1
        0x0000c29e:    bf18        ..      IT       NE
        0x0000c2a0:    bd10        ..      POPNE    {r4,pc}
        0x0000c2a2:    f001f919    ....    BL       am_hal_itm_disable ; 0xd4d8
        0x0000c2a6:    2000        .       MOVS     r0,#0
        0x0000c2a8:    f001fe92    ....    BL       am_util_stdio_printf_init ; 0xdfd0
        0x0000c2ac:    f24f0094    O...    MOV      r0,#0xf094
        0x0000c2b0:    f2c00000    ....    MOVT     r0,#0
        0x0000c2b4:    6801        .h      LDR      r1,[r0,#0]
        0x0000c2b6:    2029        )       MOVS     r0,#0x29
        0x0000c2b8:    e8bd4010    ...@    POP      {r4,lr}
        0x0000c2bc:    f000bf56    ..V.    B.W      am_hal_gpio_pinconfig ; 0xd16c
        0x0000c2c0:    6860        `h      LDR      r0,[r4,#4]
        0x0000c2c2:    f001fdbd    ....    BL       am_hal_uart_tx_flush ; 0xde40
        0x0000c2c6:    2000        .       MOVS     r0,#0
        0x0000c2c8:    f001fe82    ....    BL       am_util_stdio_printf_init ; 0xdfd0
        0x0000c2cc:    6860        `h      LDR      r0,[r4,#4]
        0x0000c2ce:    2102        .!      MOVS     r1,#2
        0x0000c2d0:    2200        ."      MOVS     r2,#0
        0x0000c2d2:    f001fd2d    ..-.    BL       am_hal_uart_power_control ; 0xdd30
        0x0000c2d6:    6860        `h      LDR      r0,[r4,#4]
        0x0000c2d8:    f001fd16    ....    BL       am_hal_uart_deinitialize ; 0xdd08
        0x0000c2dc:    f24f0094    O...    MOV      r0,#0xf094
        0x0000c2e0:    f2c00000    ....    MOVT     r0,#0
        0x0000c2e4:    6804        .h      LDR      r4,[r0,#0]
        0x0000c2e6:    2016        .       MOVS     r0,#0x16
        0x0000c2e8:    4621        !F      MOV      r1,r4
        0x0000c2ea:    f000ff3f    ..?.    BL       am_hal_gpio_pinconfig ; 0xd16c
        0x0000c2ee:    2017        .       MOVS     r0,#0x17
        0x0000c2f0:    4621        !F      MOV      r1,r4
        0x0000c2f2:    e8bd4010    ...@    POP      {r4,lr}
        0x0000c2f6:    f000bf39    ..9.    B.W      am_hal_gpio_pinconfig ; 0xd16c
        0x0000c2fa:    0000        ..      MOVS     r0,r0
    am_bsp_itm_printf_enable
        0x0000c2fc:    b580        ..      PUSH     {r7,lr}
        0x0000c2fe:    b086        ..      SUB      sp,sp,#0x18
        0x0000c300:    f2410098    A...    MOV      r0,#0x1098
        0x0000c304:    f2c10000    ....    MOVT     r0,#0x1000
        0x0000c308:    2101        .!      MOVS     r1,#1
        0x0000c30a:    6001        .`      STR      r1,[r0,#0]
        0x0000c30c:    f001f9a8    ....    BL       am_hal_itm_enable ; 0xd660
        0x0000c310:    f2442040    D.@     MOV      r0,#0x4240
        0x0000c314:    f2c0000f    ....    MOVT     r0,#0xf
        0x0000c318:    9001        ..      STR      r0,[sp,#4]
        0x0000c31a:    a801        ..      ADD      r0,sp,#4
        0x0000c31c:    f001fca8    ....    BL       am_hal_tpiu_enable ; 0xdc70
        0x0000c320:    f24f0090    O...    MOV      r0,#0xf090
        0x0000c324:    f2c00000    ....    MOVT     r0,#0
        0x0000c328:    6801        .h      LDR      r1,[r0,#0]
        0x0000c32a:    2029        )       MOVS     r0,#0x29
        0x0000c32c:    f000ff1e    ....    BL       am_hal_gpio_pinconfig ; 0xd16c
        0x0000c330:    f24d60b9    M..`    MOV      r0,#0xd6b9
        0x0000c334:    f2c00000    ....    MOVT     r0,#0
        0x0000c338:    f001fe4a    ..J.    BL       am_util_stdio_printf_init ; 0xdfd0
        0x0000c33c:    b006        ..      ADD      sp,sp,#0x18
        0x0000c33e:    bd80        ..      POP      {r7,pc}
    am_bsp_low_power_init
        0x0000c340:    b570        p.      PUSH     {r4-r6,lr}
        0x0000c342:    f001fae9    ....    BL       am_hal_pwrctrl_low_power_init ; 0xd918
        0x0000c346:    f001fc27    ..'.    BL       am_hal_rtc_osc_disable ; 0xdb98
        0x0000c34a:    f24f0098    O...    MOV      r0,#0xf098
        0x0000c34e:    f2400600    @...    MOVW     r6,#0
        0x0000c352:    f2c00000    ....    MOVT     r0,#0
        0x0000c356:    f2c10600    ....    MOVT     r6,#0x1000
        0x0000c35a:    6804        .h      LDR      r4,[r0,#0]
        0x0000c35c:    6835        5h      LDR      r5,[r6,#0]
        0x0000c35e:    4621        !F      MOV      r1,r4
        0x0000c360:    4628        (F      MOV      r0,r5
        0x0000c362:    f000ff03    ....    BL       am_hal_gpio_pinconfig ; 0xd16c
        0x0000c366:    4628        (F      MOV      r0,r5
        0x0000c368:    2103        .!      MOVS     r1,#3
        0x0000c36a:    f001f853    ..S.    BL       am_hal_gpio_state_write ; 0xd414
        0x0000c36e:    4628        (F      MOV      r0,r5
        0x0000c370:    2100        .!      MOVS     r1,#0
        0x0000c372:    f001f84f    ..O.    BL       am_hal_gpio_state_write ; 0xd414
        0x0000c376:    68b5        .h      LDR      r5,[r6,#8]
        0x0000c378:    4621        !F      MOV      r1,r4
        0x0000c37a:    4628        (F      MOV      r0,r5
        0x0000c37c:    f000fef6    ....    BL       am_hal_gpio_pinconfig ; 0xd16c
        0x0000c380:    4628        (F      MOV      r0,r5
        0x0000c382:    2103        .!      MOVS     r1,#3
        0x0000c384:    f001f846    ..F.    BL       am_hal_gpio_state_write ; 0xd414
        0x0000c388:    4628        (F      MOV      r0,r5
        0x0000c38a:    2100        .!      MOVS     r1,#0
        0x0000c38c:    f001f842    ..B.    BL       am_hal_gpio_state_write ; 0xd414
        0x0000c390:    6935        5i      LDR      r5,[r6,#0x10]
        0x0000c392:    4621        !F      MOV      r1,r4
        0x0000c394:    4628        (F      MOV      r0,r5
        0x0000c396:    f000fee9    ....    BL       am_hal_gpio_pinconfig ; 0xd16c
        0x0000c39a:    4628        (F      MOV      r0,r5
        0x0000c39c:    2103        .!      MOVS     r1,#3
        0x0000c39e:    f001f839    ..9.    BL       am_hal_gpio_state_write ; 0xd414
        0x0000c3a2:    4628        (F      MOV      r0,r5
        0x0000c3a4:    2100        .!      MOVS     r1,#0
        0x0000c3a6:    f001f835    ..5.    BL       am_hal_gpio_state_write ; 0xd414
        0x0000c3aa:    69b5        .i      LDR      r5,[r6,#0x18]
        0x0000c3ac:    4621        !F      MOV      r1,r4
        0x0000c3ae:    4628        (F      MOV      r0,r5
        0x0000c3b0:    f000fedc    ....    BL       am_hal_gpio_pinconfig ; 0xd16c
        0x0000c3b4:    4628        (F      MOV      r0,r5
        0x0000c3b6:    2103        .!      MOVS     r1,#3
        0x0000c3b8:    f001f82c    ..,.    BL       am_hal_gpio_state_write ; 0xd414
        0x0000c3bc:    4628        (F      MOV      r0,r5
        0x0000c3be:    2100        .!      MOVS     r1,#0
        0x0000c3c0:    f001f828    ..(.    BL       am_hal_gpio_state_write ; 0xd414
        0x0000c3c4:    6a35        5j      LDR      r5,[r6,#0x20]
        0x0000c3c6:    4621        !F      MOV      r1,r4
        0x0000c3c8:    4628        (F      MOV      r0,r5
        0x0000c3ca:    f000fecf    ....    BL       am_hal_gpio_pinconfig ; 0xd16c
        0x0000c3ce:    4628        (F      MOV      r0,r5
        0x0000c3d0:    2103        .!      MOVS     r1,#3
        0x0000c3d2:    f001f81f    ....    BL       am_hal_gpio_state_write ; 0xd414
        0x0000c3d6:    4628        (F      MOV      r0,r5
        0x0000c3d8:    2100        .!      MOVS     r1,#0
        0x0000c3da:    e8bd4070    ..p@    POP      {r4-r6,lr}
        0x0000c3de:    f001b819    ....    B.W      am_hal_gpio_state_write ; 0xd414
        0x0000c3e2:    0000        ..      MOVS     r0,r0
    am_getStackedReg
        0x0000c3e4:    b082        ..      SUB      sp,sp,#8
        0x0000c3e6:    9001        ..      STR      r0,[sp,#4]
        0x0000c3e8:    9100        ..      STR      r1,[sp,#0]
        0x0000c3ea:    9800        ..      LDR      r0,[sp,#0]
        0x0000c3ec:    9901        ..      LDR      r1,[sp,#4]
        0x0000c3ee:    f8500021    P.!.    LDR      r0,[r0,r1,LSL #2]
        0x0000c3f2:    b002        ..      ADD      sp,sp,#8
        0x0000c3f4:    4770        pG      BX       lr
        0x0000c3f6:    0000        ..      MOVS     r0,r0
    am_hal_cachectrl_config
        0x0000c3f8:    b5b0        ..      PUSH     {r4,r5,r7,lr}
        0x0000c3fa:    b082        ..      SUB      sp,sp,#8
        0x0000c3fc:    4604        .F      MOV      r4,r0
        0x0000c3fe:    f001f863    ..c.    BL       am_hal_interrupt_master_disable ; 0xd4c8
        0x0000c402:    f2480500    H...    MOVW     r5,#0x8000
        0x0000c406:    9001        ..      STR      r0,[sp,#4]
        0x0000c408:    f2c40501    ....    MOVT     r5,#0x4001
        0x0000c40c:    6828        (h      LDR      r0,[r5,#0]
        0x0000c40e:    f4207040     .@p    BIC      r0,r0,#0x300
        0x0000c412:    6028        (`      STR      r0,[r5,#0]
        0x0000c414:    9801        ..      LDR      r0,[sp,#4]
        0x0000c416:    f001f85b    ..[.    BL       am_hal_interrupt_master_set ; 0xd4d0
        0x0000c41a:    78a1        .x      LDRB     r1,[r4,#2]
        0x0000c41c:    7820         x      LDRB     r0,[r4,#0]
        0x0000c41e:    7862        bx      LDRB     r2,[r4,#1]
        0x0000c420:    0049        I.      LSLS     r1,r1,#1
        0x0000c422:    b2c9        ..      UXTB     r1,r1
        0x0000c424:    f0020203    ....    AND      r2,r2,#3
        0x0000c428:    f3601107    `...    BFI      r1,r0,#4,#4
        0x0000c42c:    ea412002    A..     ORR      r0,r1,r2,LSL #8
        0x0000c430:    f4401080    @...    ORR      r0,r0,#0x100000
        0x0000c434:    f4406180    @..a    ORR      r1,r0,#0x400
        0x0000c438:    2000        .       MOVS     r0,#0
        0x0000c43a:    6029        )`      STR      r1,[r5,#0]
        0x0000c43c:    b002        ..      ADD      sp,sp,#8
        0x0000c43e:    bdb0        ..      POP      {r4,r5,r7,pc}
    am_hal_cachectrl_control
        0x0000c440:    b5b0        ..      PUSH     {r4,r5,r7,lr}
        0x0000c442:    b082        ..      SUB      sp,sp,#8
        0x0000c444:    1e42        B.      SUBS     r2,r0,#1
        0x0000c446:    2a10        .*      CMP      r2,#0x10
        0x0000c448:    f20080ee    ....    BHI.W    0xc628 ; am_hal_cachectrl_control + 488
        0x0000c44c:    e8dff012    ....    TBH      [pc,r2,LSL #1]
    $d.4
        0x0000c450:    001200f1    ....    DCD    1179889
        0x0000c454:    00240020     .$.    DCD    2359328
        0x0000c458:    002a0028    (.*.    DCD    2752552
        0x0000c45c:    0030002c    ,.0.    DCD    3145772
        0x0000c460:    00400034    4.@.    DCD    4194356
        0x0000c464:    007c004e    N.|.    DCD    8126542
        0x0000c468:    00ca009c    ....    DCD    13238428
        0x0000c46c:    00da00d2    ....    DCD    14287058
        0x0000c470:    bf0000e2    ....    DCD    3204448482
    $t.5
        0x0000c474:    f2480004    H...    MOV      r0,#0x8004
        0x0000c478:    f2c40001    ....    MOVT     r0,#0x4001
        0x0000c47c:    f8500c04    P...    LDR      r0,[r0,#-4]
        0x0000c480:    01c0        ..      LSLS     r0,r0,#7
        0x0000c482:    f10080d5    ....    BMI.W    0xc630 ; am_hal_cachectrl_control + 496
        0x0000c486:    2407        .$      MOVS     r4,#7
        0x0000c488:    4620         F      MOV      r0,r4
        0x0000c48a:    b002        ..      ADD      sp,sp,#8
        0x0000c48c:    bdb0        ..      POP      {r4,r5,r7,pc}
        0x0000c48e:    bf00        ..      NOP      
        0x0000c490:    f44f6088    O..`    MOV      r0,#0x440
        0x0000c494:    e0cd        ..      B        0xc632 ; am_hal_cachectrl_control + 498
        0x0000c496:    bf00        ..      NOP      
        0x0000c498:    f44f7008    O..p    MOV      r0,#0x220
        0x0000c49c:    e0c9        ..      B        0xc632 ; am_hal_cachectrl_control + 498
        0x0000c49e:    bf00        ..      NOP      
        0x0000c4a0:    2040        @       MOVS     r0,#0x40
        0x0000c4a2:    e0c6        ..      B        0xc632 ; am_hal_cachectrl_control + 498
        0x0000c4a4:    2020                MOVS     r0,#0x20
        0x0000c4a6:    e0c4        ..      B        0xc632 ; am_hal_cachectrl_control + 498
        0x0000c4a8:    f44f6080    O..`    MOV      r0,#0x400
        0x0000c4ac:    e0c1        ..      B        0xc632 ; am_hal_cachectrl_control + 498
        0x0000c4ae:    bf00        ..      NOP      
        0x0000c4b0:    f44f7000    O..p    MOV      r0,#0x200
        0x0000c4b4:    e0bd        ..      B        0xc632 ; am_hal_cachectrl_control + 498
        0x0000c4b6:    bf00        ..      NOP      
        0x0000c4b8:    f001f806    ....    BL       am_hal_interrupt_master_disable ; 0xd4c8
        0x0000c4bc:    9001        ..      STR      r0,[sp,#4]
        0x0000c4be:    f2480004    H...    MOV      r0,#0x8004
        0x0000c4c2:    f2c40001    ....    MOVT     r0,#0x4001
        0x0000c4c6:    f8501c04    P...    LDR      r1,[r0,#-4]
        0x0000c4ca:    f0417180    A..q    ORR      r1,r1,#0x1000000
        0x0000c4ce:    e00a        ..      B        0xc4e6 ; am_hal_cachectrl_control + 166
        0x0000c4d0:    f000fffa    ....    BL       am_hal_interrupt_master_disable ; 0xd4c8
        0x0000c4d4:    9001        ..      STR      r0,[sp,#4]
        0x0000c4d6:    f2480004    H...    MOV      r0,#0x8004
        0x0000c4da:    f2c40001    ....    MOVT     r0,#0x4001
        0x0000c4de:    f8501c04    P...    LDR      r1,[r0,#-4]
        0x0000c4e2:    f0217180    !..q    BIC      r1,r1,#0x1000000
        0x0000c4e6:    f8401c04    @...    STR      r1,[r0,#-4]
        0x0000c4ea:    e0e0        ..      B        0xc6ae ; am_hal_cachectrl_control + 622
        0x0000c4ec:    f000ffec    ....    BL       am_hal_interrupt_master_disable ; 0xd4c8
        0x0000c4f0:    f2480404    H...    MOV      r4,#0x8004
        0x0000c4f4:    f2c40401    ....    MOVT     r4,#0x4001
        0x0000c4f8:    9001        ..      STR      r0,[sp,#4]
        0x0000c4fa:    4620         F      MOV      r0,r4
        0x0000c4fc:    f000fe1c    ....    BL       am_hal_flash_load_ui32 ; 0xd138
        0x0000c500:    4601        .F      MOV      r1,r0
        0x0000c502:    2007        .       MOVS     r0,#7
        0x0000c504:    f360210d    `..!    BFI      r1,r0,#8,#6
        0x0000c508:    4620         F      MOV      r0,r4
        0x0000c50a:    f000fe19    ....    BL       am_hal_flash_store_ui32 ; 0xd140
        0x0000c50e:    9801        ..      LDR      r0,[sp,#4]
        0x0000c510:    f000ffde    ....    BL       am_hal_interrupt_master_set ; 0xd4d0
        0x0000c514:    f000ffd8    ....    BL       am_hal_interrupt_master_disable ; 0xd4c8
        0x0000c518:    9001        ..      STR      r0,[sp,#4]
        0x0000c51a:    4620         F      MOV      r0,r4
        0x0000c51c:    f000fe0c    ....    BL       am_hal_flash_load_ui32 ; 0xd138
        0x0000c520:    f4206077     .w`    BIC      r0,r0,#0xf70
        0x0000c524:    f50061ee    ...a    ADD      r1,r0,#0x770
        0x0000c528:    4620         F      MOV      r0,r4
        0x0000c52a:    f000fe09    ....    BL       am_hal_flash_store_ui32 ; 0xd140
        0x0000c52e:    9801        ..      LDR      r0,[sp,#4]
        0x0000c530:    f000ffce    ....    BL       am_hal_interrupt_master_set ; 0xd4d0
        0x0000c534:    2003        .       MOVS     r0,#3
        0x0000c536:    f002fbdb    ....    BL       set_RDWAIT ; 0xecf0
        0x0000c53a:    2800        .(      CMP      r0,#0
        0x0000c53c:    f04080ba    @...    BNE.W    0xc6b4 ; am_hal_cachectrl_control + 628
        0x0000c540:    2401        .$      MOVS     r4,#1
        0x0000c542:    4620         F      MOV      r0,r4
        0x0000c544:    b002        ..      ADD      sp,sp,#8
        0x0000c546:    bdb0        ..      POP      {r4,r5,r7,pc}
        0x0000c548:    f000ffbe    ....    BL       am_hal_interrupt_master_disable ; 0xd4c8
        0x0000c54c:    f2480404    H...    MOV      r4,#0x8004
        0x0000c550:    f2c40401    ....    MOVT     r4,#0x4001
        0x0000c554:    9001        ..      STR      r0,[sp,#4]
        0x0000c556:    4620         F      MOV      r0,r4
        0x0000c558:    f000fdee    ....    BL       am_hal_flash_load_ui32 ; 0xd138
        0x0000c55c:    4601        .F      MOV      r1,r0
        0x0000c55e:    2017        .       MOVS     r0,#0x17
        0x0000c560:    f360210d    `..!    BFI      r1,r0,#8,#6
        0x0000c564:    4620         F      MOV      r0,r4
        0x0000c566:    f000fdeb    ....    BL       am_hal_flash_store_ui32 ; 0xd140
        0x0000c56a:    9801        ..      LDR      r0,[sp,#4]
        0x0000c56c:    f000ffb0    ....    BL       am_hal_interrupt_master_set ; 0xd4d0
        0x0000c570:    f000ffaa    ....    BL       am_hal_interrupt_master_disable ; 0xd4c8
        0x0000c574:    9001        ..      STR      r0,[sp,#4]
        0x0000c576:    4620         F      MOV      r0,r4
        0x0000c578:    f000fdde    ....    BL       am_hal_flash_load_ui32 ; 0xd138
        0x0000c57c:    f4206077     .w`    BIC      r0,r0,#0xf70
        0x0000c580:    f50061ea    ...a    ADD      r1,r0,#0x750
        0x0000c584:    e01e        ..      B        0xc5c4 ; am_hal_cachectrl_control + 388
        0x0000c586:    bf00        ..      NOP      
        0x0000c588:    f000ff9e    ....    BL       am_hal_interrupt_master_disable ; 0xd4c8
        0x0000c58c:    f2480404    H...    MOV      r4,#0x8004
        0x0000c590:    f2c40401    ....    MOVT     r4,#0x4001
        0x0000c594:    9001        ..      STR      r0,[sp,#4]
        0x0000c596:    4620         F      MOV      r0,r4
        0x0000c598:    f000fdce    ....    BL       am_hal_flash_load_ui32 ; 0xd138
        0x0000c59c:    4601        .F      MOV      r1,r0
        0x0000c59e:    2017        .       MOVS     r0,#0x17
        0x0000c5a0:    f360210d    `..!    BFI      r1,r0,#8,#6
        0x0000c5a4:    4620         F      MOV      r0,r4
        0x0000c5a6:    f000fdcb    ....    BL       am_hal_flash_store_ui32 ; 0xd140
        0x0000c5aa:    9801        ..      LDR      r0,[sp,#4]
        0x0000c5ac:    f000ff90    ....    BL       am_hal_interrupt_master_set ; 0xd4d0
        0x0000c5b0:    f000ff8a    ....    BL       am_hal_interrupt_master_disable ; 0xd4c8
        0x0000c5b4:    9001        ..      STR      r0,[sp,#4]
        0x0000c5b6:    4620         F      MOV      r0,r4
        0x0000c5b8:    f000fdbe    ....    BL       am_hal_flash_load_ui32 ; 0xd138
        0x0000c5bc:    f4206077     .w`    BIC      r0,r0,#0xf70
        0x0000c5c0:    f50061ec    ...a    ADD      r1,r0,#0x760
        0x0000c5c4:    4620         F      MOV      r0,r4
        0x0000c5c6:    f000fdbb    ....    BL       am_hal_flash_store_ui32 ; 0xd140
        0x0000c5ca:    9801        ..      LDR      r0,[sp,#4]
        0x0000c5cc:    f000ff80    ....    BL       am_hal_interrupt_master_set ; 0xd4d0
        0x0000c5d0:    2001        .       MOVS     r0,#1
        0x0000c5d2:    2401        .$      MOVS     r4,#1
        0x0000c5d4:    f002fb8c    ....    BL       set_RDWAIT ; 0xecf0
        0x0000c5d8:    2800        .(      CMP      r0,#0
        0x0000c5da:    bf18        ..      IT       NE
        0x0000c5dc:    2400        .$      MOVNE    r4,#0
        0x0000c5de:    4620         F      MOV      r0,r4
        0x0000c5e0:    b002        ..      ADD      sp,sp,#8
        0x0000c5e2:    bdb0        ..      POP      {r4,r5,r7,pc}
        0x0000c5e4:    b301        ..      CBZ      r1,0xc628 ; am_hal_cachectrl_control + 488
        0x0000c5e6:    680d        .h      LDR      r5,[r1,#0]
        0x0000c5e8:    2d03        .-      CMP      r5,#3
        0x0000c5ea:    d92b        +.      BLS      0xc644 ; am_hal_cachectrl_control + 516
        0x0000c5ec:    2401        .$      MOVS     r4,#1
        0x0000c5ee:    4620         F      MOV      r0,r4
        0x0000c5f0:    b002        ..      ADD      sp,sp,#8
        0x0000c5f2:    bdb0        ..      POP      {r4,r5,r7,pc}
        0x0000c5f4:    b1c1        ..      CBZ      r1,0xc628 ; am_hal_cachectrl_control + 488
        0x0000c5f6:    680d        .h      LDR      r5,[r1,#0]
        0x0000c5f8:    2d07        .-      CMP      r5,#7
        0x0000c5fa:    d933        3.      BLS      0xc664 ; am_hal_cachectrl_control + 548
        0x0000c5fc:    2401        .$      MOVS     r4,#1
        0x0000c5fe:    4620         F      MOV      r0,r4
        0x0000c600:    b002        ..      ADD      sp,sp,#8
        0x0000c602:    bdb0        ..      POP      {r4,r5,r7,pc}
        0x0000c604:    b181        ..      CBZ      r1,0xc628 ; am_hal_cachectrl_control + 488
        0x0000c606:    680d        .h      LDR      r5,[r1,#0]
        0x0000c608:    2d0f        .-      CMP      r5,#0xf
        0x0000c60a:    d93d        =.      BLS      0xc688 ; am_hal_cachectrl_control + 584
        0x0000c60c:    2401        .$      MOVS     r4,#1
        0x0000c60e:    4620         F      MOV      r0,r4
        0x0000c610:    b002        ..      ADD      sp,sp,#8
        0x0000c612:    bdb0        ..      POP      {r4,r5,r7,pc}
        0x0000c614:    b141        A.      CBZ      r1,0xc628 ; am_hal_cachectrl_control + 488
        0x0000c616:    6848        Hh      LDR      r0,[r1,#4]
        0x0000c618:    220f        ."      MOVS     r2,#0xf
        0x0000c61a:    f6cf0200    ....    MOVT     r2,#0xf800
        0x0000c61e:    4210        .B      TST      r0,r2
        0x0000c620:    d102        ..      BNE      0xc628 ; am_hal_cachectrl_control + 488
        0x0000c622:    688b        .h      LDR      r3,[r1,#8]
        0x0000c624:    4213        .B      TST      r3,r2
        0x0000c626:    d049        I.      BEQ      0xc6bc ; am_hal_cachectrl_control + 636
        0x0000c628:    2406        .$      MOVS     r4,#6
        0x0000c62a:    4620         F      MOV      r0,r4
        0x0000c62c:    b002        ..      ADD      sp,sp,#8
        0x0000c62e:    bdb0        ..      POP      {r4,r5,r7,pc}
        0x0000c630:    2002        .       MOVS     r0,#2
        0x0000c632:    f2480104    H...    MOV      r1,#0x8004
        0x0000c636:    f2c40101    ....    MOVT     r1,#0x4001
        0x0000c63a:    2400        .$      MOVS     r4,#0
        0x0000c63c:    6048        H`      STR      r0,[r1,#4]
        0x0000c63e:    4620         F      MOV      r0,r4
        0x0000c640:    b002        ..      ADD      sp,sp,#8
        0x0000c642:    bdb0        ..      POP      {r4,r5,r7,pc}
        0x0000c644:    f000ff40    ..@.    BL       am_hal_interrupt_master_disable ; 0xd4c8
        0x0000c648:    f2480404    H...    MOV      r4,#0x8004
        0x0000c64c:    f2c40401    ....    MOVT     r4,#0x4001
        0x0000c650:    9001        ..      STR      r0,[sp,#4]
        0x0000c652:    4620         F      MOV      r0,r4
        0x0000c654:    f000fd70    ..p.    BL       am_hal_flash_load_ui32 ; 0xd138
        0x0000c658:    f420507c     .|P    BIC      r0,r0,#0x3f00
        0x0000c65c:    f365300d    e..0    BFI      r0,r5,#12,#2
        0x0000c660:    e00e        ..      B        0xc680 ; am_hal_cachectrl_control + 576
        0x0000c662:    bf00        ..      NOP      
        0x0000c664:    f000ff30    ..0.    BL       am_hal_interrupt_master_disable ; 0xd4c8
        0x0000c668:    f2480404    H...    MOV      r4,#0x8004
        0x0000c66c:    f2c40401    ....    MOVT     r4,#0x4001
        0x0000c670:    9001        ..      STR      r0,[sp,#4]
        0x0000c672:    4620         F      MOV      r0,r4
        0x0000c674:    f000fd60    ..`.    BL       am_hal_flash_load_ui32 ; 0xd138
        0x0000c678:    f4206077     .w`    BIC      r0,r0,#0xf70
        0x0000c67c:    f3651006    e...    BFI      r0,r5,#4,#3
        0x0000c680:    f50061e0    ...a    ADD      r1,r0,#0x700
        0x0000c684:    e010        ..      B        0xc6a8 ; am_hal_cachectrl_control + 616
        0x0000c686:    bf00        ..      NOP      
        0x0000c688:    f000ff1e    ....    BL       am_hal_interrupt_master_disable ; 0xd4c8
        0x0000c68c:    f2480404    H...    MOV      r4,#0x8004
        0x0000c690:    f2c40401    ....    MOVT     r4,#0x4001
        0x0000c694:    9001        ..      STR      r0,[sp,#4]
        0x0000c696:    4620         F      MOV      r0,r4
        0x0000c698:    f000fd4e    ..N.    BL       am_hal_flash_load_ui32 ; 0xd138
        0x0000c69c:    f640710f    @..q    MOV      r1,#0xf0f
        0x0000c6a0:    4388        .C      BICS     r0,r0,r1
        0x0000c6a2:    4328        (C      ORRS     r0,r0,r5
        0x0000c6a4:    f44061e0    @..a    ORR      r1,r0,#0x700
        0x0000c6a8:    4620         F      MOV      r0,r4
        0x0000c6aa:    f000fd49    ..I.    BL       am_hal_flash_store_ui32 ; 0xd140
        0x0000c6ae:    9801        ..      LDR      r0,[sp,#4]
        0x0000c6b0:    f000ff0e    ....    BL       am_hal_interrupt_master_set ; 0xd4d0
        0x0000c6b4:    2400        .$      MOVS     r4,#0
        0x0000c6b6:    4620         F      MOV      r0,r4
        0x0000c6b8:    b002        ..      ADD      sp,sp,#8
        0x0000c6ba:    bdb0        ..      POP      {r4,r5,r7,pc}
        0x0000c6bc:    780a        .x      LDRB     r2,[r1,#0]
        0x0000c6be:    2a01        .*      CMP      r2,#1
        0x0000c6c0:    d018        ..      BEQ      0xc6f4 ; am_hal_cachectrl_control + 692
        0x0000c6c2:    2a00        .*      CMP      r2,#0
        0x0000c6c4:    d1b0        ..      BNE      0xc628 ; am_hal_cachectrl_control + 488
        0x0000c6c6:    f2480204    H...    MOV      r2,#0x8004
        0x0000c6ca:    f2c40201    ....    MOVT     r2,#0x4001
        0x0000c6ce:    60d0        .`      STR      r0,[r2,#0xc]
        0x0000c6d0:    6888        .h      LDR      r0,[r1,#8]
        0x0000c6d2:    2400        .$      MOVS     r4,#0
        0x0000c6d4:    6110        .a      STR      r0,[r2,#0x10]
        0x0000c6d6:    7848        Hx      LDRB     r0,[r1,#1]
        0x0000c6d8:    f8521c04    R...    LDR      r1,[r2,#-4]
        0x0000c6dc:    f000003f    ..?.    AND      r0,r0,#0x3f
        0x0000c6e0:    f0210104    !...    BIC      r1,r1,#4
        0x0000c6e4:    ea410080    A...    ORR      r0,r1,r0,LSL #2
        0x0000c6e8:    f8420c04    B...    STR      r0,[r2,#-4]
        0x0000c6ec:    4620         F      MOV      r0,r4
        0x0000c6ee:    b002        ..      ADD      sp,sp,#8
        0x0000c6f0:    bdb0        ..      POP      {r4,r5,r7,pc}
        0x0000c6f2:    bf00        ..      NOP      
        0x0000c6f4:    f2480204    H...    MOV      r2,#0x8004
        0x0000c6f8:    f2c40201    ....    MOVT     r2,#0x4001
        0x0000c6fc:    6150        Pa      STR      r0,[r2,#0x14]
        0x0000c6fe:    6888        .h      LDR      r0,[r1,#8]
        0x0000c700:    2400        .$      MOVS     r4,#0
        0x0000c702:    6190        .a      STR      r0,[r2,#0x18]
        0x0000c704:    7848        Hx      LDRB     r0,[r1,#1]
        0x0000c706:    f8521c04    R...    LDR      r1,[r2,#-4]
        0x0000c70a:    f000001f    ....    AND      r0,r0,#0x1f
        0x0000c70e:    f0210108    !...    BIC      r1,r1,#8
        0x0000c712:    ea4100c0    A...    ORR      r0,r1,r0,LSL #3
        0x0000c716:    f8420c04    B...    STR      r0,[r2,#-4]
        0x0000c71a:    4620         F      MOV      r0,r4
        0x0000c71c:    b002        ..      ADD      sp,sp,#8
        0x0000c71e:    bdb0        ..      POP      {r4,r5,r7,pc}
    am_hal_cachectrl_enable
        0x0000c720:    f2480100    H...    MOVW     r1,#0x8000
        0x0000c724:    f2c40101    ....    MOVT     r1,#0x4001
        0x0000c728:    6808        .h      LDR      r0,[r1,#0]
        0x0000c72a:    f0400201    @...    ORR      r2,r0,#1
        0x0000c72e:    2000        .       MOVS     r0,#0
        0x0000c730:    600a        .`      STR      r2,[r1,#0]
        0x0000c732:    4770        pG      BX       lr
    am_hal_clkgen_control
        0x0000c734:    b510        ..      PUSH     {r4,lr}
        0x0000c736:    f24102a0    A...    MOVW     r2,#0x10a0
        0x0000c73a:    f2c10200    ....    MOVT     r2,#0x1000
        0x0000c73e:    6813        .h      LDR      r3,[r2,#0]
        0x0000c740:    460c        .F      MOV      r4,r1
        0x0000c742:    b92b        +.      CBNZ     r3,0xc750 ; am_hal_clkgen_control + 28
        0x0000c744:    f24f0100    O...    MOVW     r1,#0xf000
        0x0000c748:    f6c471ff    ...q    MOVT     r1,#0x4fff
        0x0000c74c:    6809        .h      LDR      r1,[r1,#0]
        0x0000c74e:    6011        .`      STR      r1,[r2,#0]
        0x0000c750:    2809        .(      CMP      r0,#9
        0x0000c752:    d811        ..      BHI      0xc778 ; am_hal_clkgen_control + 68
        0x0000c754:    e8dff000    ....    TBB      [pc,r0]
    $d.1
        0x0000c758:    261c1206    ...&    DCD    639373830
        0x0000c75c:    62584c42    BLXb    DCD    1649953858
        0x0000c760:    bf00866c    l...    DCD    3204482668
    $t.2
        0x0000c764:    f244010c    D...    MOV      r1,#0x400c
        0x0000c768:    f2c40100    ....    MOVT     r1,#0x4000
        0x0000c76c:    2047        G       MOVS     r0,#0x47
        0x0000c76e:    6088        .`      STR      r0,[r1,#8]
        0x0000c770:    2000        .       MOVS     r0,#0
        0x0000c772:    60c8        .`      STR      r0,[r1,#0xc]
        0x0000c774:    6088        .`      STR      r0,[r1,#8]
        0x0000c776:    bd10        ..      POP      {r4,pc}
        0x0000c778:    2006        .       MOVS     r0,#6
        0x0000c77a:    bd10        ..      POP      {r4,pc}
        0x0000c77c:    f244000c    D...    MOV      r0,#0x400c
        0x0000c780:    f2c40000    ....    MOVT     r0,#0x4000
        0x0000c784:    6801        .h      LDR      r1,[r0,#0]
        0x0000c786:    f0210101    !...    BIC      r1,r1,#1
        0x0000c78a:    6001        .`      STR      r1,[r0,#0]
        0x0000c78c:    2000        .       MOVS     r0,#0
        0x0000c78e:    bd10        ..      POP      {r4,pc}
        0x0000c790:    f244000c    D...    MOV      r0,#0x400c
        0x0000c794:    f2c40000    ....    MOVT     r0,#0x4000
        0x0000c798:    6801        .h      LDR      r1,[r0,#0]
        0x0000c79a:    f0210102    !...    BIC      r1,r1,#2
        0x0000c79e:    6001        .`      STR      r1,[r0,#0]
        0x0000c7a0:    2000        .       MOVS     r0,#0
        0x0000c7a2:    bd10        ..      POP      {r4,pc}
        0x0000c7a4:    f2401020    @. .    MOVW     r0,#0x120
        0x0000c7a8:    f64f61ec    O..a    MOV      r1,#0xfeec
        0x0000c7ac:    f2c40002    ....    MOVT     r0,#0x4002
        0x0000c7b0:    f6cf71ff    ...q    MOVT     r1,#0xffff
        0x0000c7b4:    5841        AX      LDR      r1,[r0,r1]
        0x0000c7b6:    b2c9        ..      UXTB     r1,r1
        0x0000c7b8:    2921        !)      CMP      r1,#0x21
        0x0000c7ba:    d104        ..      BNE      0xc7c6 ; am_hal_clkgen_control + 146
        0x0000c7bc:    6801        .h      LDR      r1,[r0,#0]
        0x0000c7be:    2201        ."      MOVS     r2,#1
        0x0000c7c0:    f3622109    b..!    BFI      r1,r2,#8,#2
        0x0000c7c4:    6001        .`      STR      r1,[r0,#0]
        0x0000c7c6:    f244000c    D...    MOV      r0,#0x400c
        0x0000c7ca:    f2c40000    ....    MOVT     r0,#0x4000
        0x0000c7ce:    6801        .h      LDR      r1,[r0,#0]
        0x0000c7d0:    f0410101    A...    ORR      r1,r1,#1
        0x0000c7d4:    6001        .`      STR      r1,[r0,#0]
        0x0000c7d6:    2000        .       MOVS     r0,#0
        0x0000c7d8:    bd10        ..      POP      {r4,pc}
        0x0000c7da:    bf00        ..      NOP      
        0x0000c7dc:    f244000c    D...    MOV      r0,#0x400c
        0x0000c7e0:    f2c40000    ....    MOVT     r0,#0x4000
        0x0000c7e4:    6801        .h      LDR      r1,[r0,#0]
        0x0000c7e6:    f0410102    A...    ORR      r1,r1,#2
        0x0000c7ea:    6001        .`      STR      r1,[r0,#0]
        0x0000c7ec:    2000        .       MOVS     r0,#0
        0x0000c7ee:    bd10        ..      POP      {r4,pc}
        0x0000c7f0:    f244010c    D...    MOV      r1,#0x400c
        0x0000c7f4:    f2c40100    ....    MOVT     r1,#0x4000
        0x0000c7f8:    2047        G       MOVS     r0,#0x47
        0x0000c7fa:    6088        .`      STR      r0,[r1,#8]
        0x0000c7fc:    2001        .       MOVS     r0,#1
        0x0000c7fe:    60c8        .`      STR      r0,[r1,#0xc]
        0x0000c800:    2000        .       MOVS     r0,#0
        0x0000c802:    6088        .`      STR      r0,[r1,#8]
        0x0000c804:    bd10        ..      POP      {r4,pc}
        0x0000c806:    bf00        ..      NOP      
        0x0000c808:    f244000c    D...    MOV      r0,#0x400c
        0x0000c80c:    f2c40000    ....    MOVT     r0,#0x4000
        0x0000c810:    6801        .h      LDR      r1,[r0,#0]
        0x0000c812:    f0210180    !...    BIC      r1,r1,#0x80
        0x0000c816:    6001        .`      STR      r1,[r0,#0]
        0x0000c818:    2000        .       MOVS     r0,#0
        0x0000c81a:    bd10        ..      POP      {r4,pc}
        0x0000c81c:    f244000c    D...    MOV      r0,#0x400c
        0x0000c820:    f2c40000    ....    MOVT     r0,#0x4000
        0x0000c824:    6801        .h      LDR      r1,[r0,#0]
        0x0000c826:    f0410180    A...    ORR      r1,r1,#0x80
        0x0000c82a:    6001        .`      STR      r1,[r0,#0]
        0x0000c82c:    2000        .       MOVS     r0,#0
        0x0000c82e:    bd10        ..      POP      {r4,pc}
        0x0000c830:    f2401020    @. .    MOVW     r0,#0x120
        0x0000c834:    f64f61ec    O..a    MOV      r1,#0xfeec
        0x0000c838:    f2c40002    ....    MOVT     r0,#0x4002
        0x0000c83c:    f6cf71ff    ...q    MOVT     r1,#0xffff
        0x0000c840:    5841        AX      LDR      r1,[r0,r1]
        0x0000c842:    b2c9        ..      UXTB     r1,r1
        0x0000c844:    2921        !)      CMP      r1,#0x21
        0x0000c846:    d107        ..      BNE      0xc858 ; am_hal_clkgen_control + 292
        0x0000c848:    6801        .h      LDR      r1,[r0,#0]
        0x0000c84a:    f4417140    A.@q    ORR      r1,r1,#0x300
        0x0000c84e:    6001        .`      STR      r1,[r0,#0]
        0x0000c850:    f44f507a    O.zP    MOV      r0,#0x3e80
        0x0000c854:    f000fbfe    ....    BL       am_hal_flash_delay ; 0xd054
        0x0000c858:    b174        t.      CBZ      r4,0xc878 ; am_hal_clkgen_control + 324
        0x0000c85a:    6820         h      LDR      r0,[r4,#0]
        0x0000c85c:    f0400001    @...    ORR      r0,r0,#1
        0x0000c860:    e00e        ..      B        0xc880 ; am_hal_clkgen_control + 332
        0x0000c862:    bf00        ..      NOP      
        0x0000c864:    f244000c    D...    MOV      r0,#0x400c
        0x0000c868:    f2c40000    ....    MOVT     r0,#0x4000
        0x0000c86c:    6941        Ai      LDR      r1,[r0,#0x14]
        0x0000c86e:    f0210101    !...    BIC      r1,r1,#1
        0x0000c872:    6141        Aa      STR      r1,[r0,#0x14]
        0x0000c874:    2000        .       MOVS     r0,#0
        0x0000c876:    bd10        ..      POP      {r4,pc}
        0x0000c878:    f64b0001    K...    MOV      r0,#0xb801
        0x0000c87c:    f2c00025    ..%.    MOVT     r0,#0x25
        0x0000c880:    f244010c    D...    MOV      r1,#0x400c
        0x0000c884:    f2c40100    ....    MOVT     r1,#0x4000
        0x0000c888:    6148        Ha      STR      r0,[r1,#0x14]
        0x0000c88a:    2000        .       MOVS     r0,#0
        0x0000c88c:    bd10        ..      POP      {r4,pc}
        0x0000c88e:    0000        ..      MOVS     r0,r0
    am_hal_clkgen_status_get
        0x0000c890:    2800        .(      CMP      r0,#0
        0x0000c892:    bf04        ..      ITT      EQ
        0x0000c894:    2006        .       MOVEQ    r0,#6
        0x0000c896:    4770        pG      BXEQ     lr
        0x0000c898:    f2440118    D...    MOV      r1,#0x4018
        0x0000c89c:    f2c40100    ....    MOVT     r1,#0x4000
        0x0000c8a0:    680a        .h      LDR      r2,[r1,#0]
        0x0000c8a2:    07d2        ..      LSLS     r2,r2,#31
        0x0000c8a4:    f2436200    C..b    MOVW     r2,#0x3600
        0x0000c8a8:    f2c0126e    ..n.    MOVT     r2,#0x16e
        0x0000c8ac:    bf04        ..      ITT      EQ
        0x0000c8ae:    f6464200    F..B    MOVWEQ   r2,#0x6c00
        0x0000c8b2:    f2c022dc    ..."    MOVTEQ   r2,#0x2dc
        0x0000c8b6:    6002        .`      STR      r2,[r0,#0]
        0x0000c8b8:    6849        Ih      LDR      r1,[r1,#4]
        0x0000c8ba:    f0010201    ....    AND      r2,r1,#1
        0x0000c8be:    f3c10140    ..@.    UBFX     r1,r1,#1,#1
        0x0000c8c2:    6042        B`      STR      r2,[r0,#4]
        0x0000c8c4:    7201        .r      STRB     r1,[r0,#8]
        0x0000c8c6:    2000        .       MOVS     r0,#0
        0x0000c8c8:    4770        pG      BX       lr
        0x0000c8ca:    0000        ..      MOVS     r0,r0
    am_hal_ctimer_aux_compare_set
        0x0000c8cc:    e92d4ff0    -..O    PUSH     {r4-r11,lr}
        0x0000c8d0:    b083        ..      SUB      sp,sp,#0xc
        0x0000c8d2:    f2480914    H...    MOV      r9,#0x8014
        0x0000c8d6:    fa1ffa83    ....    UXTH     r10,r3
        0x0000c8da:    f2c40900    ....    MOVT     r9,#0x4000
        0x0000c8de:    0147        G.      LSLS     r7,r0,#5
        0x0000c8e0:    1c48        H.      ADDS     r0,r1,#1
        0x0000c8e2:    4654        TF      MOV      r4,r10
        0x0000c8e4:    461d        .F      MOV      r5,r3
        0x0000c8e6:    4616        .F      MOV      r6,r2
        0x0000c8e8:    468b        .F      MOV      r11,r1
        0x0000c8ea:    f1090804    ....    ADD      r8,r9,#4
        0x0000c8ee:    9001        ..      STR      r0,[sp,#4]
        0x0000c8f0:    bf08        ..      IT       EQ
        0x0000c8f2:    0c1c        ..      LSREQ    r4,r3,#16
        0x0000c8f4:    f000fde8    ....    BL       am_hal_interrupt_master_disable ; 0xd4c8
        0x0000c8f8:    9002        ..      STR      r0,[sp,#8]
        0x0000c8fa:    f8590007    Y...    LDR      r0,[r9,r7]
        0x0000c8fe:    f8581007    X...    LDR      r1,[r8,r7]
        0x0000c902:    2e01        ..      CMP      r6,#1
        0x0000c904:    d114        ..      BNE      0xc930 ; am_hal_ctimer_aux_compare_set + 100
        0x0000c906:    eac04005    ...@    PKHBT    r0,r0,r5,LSL #16
        0x0000c90a:    eac14104    ...A    PKHBT    r1,r1,r4,LSL #16
        0x0000c90e:    f51b3f80    ...?    CMN      r11,#0x10000
        0x0000c912:    d017        ..      BEQ      0xc944 ; am_hal_ctimer_aux_compare_set + 120
        0x0000c914:    9a01        ..      LDR      r2,[sp,#4]
        0x0000c916:    f8490007    I...    STR      r0,[r9,r7]
        0x0000c91a:    2a00        .*      CMP      r2,#0
        0x0000c91c:    bf08        ..      IT       EQ
        0x0000c91e:    f8471008    G...    STREQ    r1,[r7,r8]
        0x0000c922:    9802        ..      LDR      r0,[sp,#8]
        0x0000c924:    b003        ..      ADD      sp,sp,#0xc
        0x0000c926:    e8bd4ff0    ...O    POP      {r4-r11,lr}
        0x0000c92a:    f000bdd1    ....    B.W      am_hal_interrupt_master_set ; 0xd4d0
        0x0000c92e:    bf00        ..      NOP      
        0x0000c930:    f64f72ff    O..r    MOV      r2,#0xffff
        0x0000c934:    4390        .C      BICS     r0,r0,r2
        0x0000c936:    f36f010f    o...    BFC      r1,#0,#16
        0x0000c93a:    4450        PD      ADD      r0,r0,r10
        0x0000c93c:    4421        !D      ADD      r1,r1,r4
        0x0000c93e:    f51b3f80    ...?    CMN      r11,#0x10000
        0x0000c942:    d1e7        ..      BNE      0xc914 ; am_hal_ctimer_aux_compare_set + 72
        0x0000c944:    f8471008    G...    STR      r1,[r7,r8]
        0x0000c948:    9802        ..      LDR      r0,[sp,#8]
        0x0000c94a:    b003        ..      ADD      sp,sp,#0xc
        0x0000c94c:    e8bd4ff0    ...O    POP      {r4-r11,lr}
        0x0000c950:    f000bdbe    ....    B.W      am_hal_interrupt_master_set ; 0xd4d0
    am_hal_ctimer_clear
        0x0000c954:    b5b0        ..      PUSH     {r4,r5,r7,lr}
        0x0000c956:    b082        ..      SUB      sp,sp,#8
        0x0000c958:    460c        .F      MOV      r4,r1
        0x0000c95a:    0145        E.      LSLS     r5,r0,#5
        0x0000c95c:    f000fdb4    ....    BL       am_hal_interrupt_master_disable ; 0xd4c8
        0x0000c960:    9001        ..      STR      r0,[sp,#4]
        0x0000c962:    f248000c    H...    MOV      r0,#0x800c
        0x0000c966:    f2c40000    ....    MOVT     r0,#0x4000
        0x0000c96a:    5941        AY      LDR      r1,[r0,r5]
        0x0000c96c:    f0042208    ..."    AND      r2,r4,#0x8000800
        0x0000c970:    4311        .C      ORRS     r1,r1,r2
        0x0000c972:    5141        AQ      STR      r1,[r0,r5]
        0x0000c974:    9801        ..      LDR      r0,[sp,#4]
        0x0000c976:    b002        ..      ADD      sp,sp,#8
        0x0000c978:    e8bd40b0    ...@    POP      {r4,r5,r7,lr}
        0x0000c97c:    f000bda8    ....    B.W      am_hal_interrupt_master_set ; 0xd4d0
    am_hal_ctimer_compare_set
        0x0000c980:    e92d4ff0    -..O    PUSH     {r4-r11,lr}
        0x0000c984:    b083        ..      SUB      sp,sp,#0xc
        0x0000c986:    f2480904    H...    MOV      r9,#0x8004
        0x0000c98a:    fa1ffa83    ....    UXTH     r10,r3
        0x0000c98e:    f2c40900    ....    MOVT     r9,#0x4000
        0x0000c992:    0147        G.      LSLS     r7,r0,#5
        0x0000c994:    1c48        H.      ADDS     r0,r1,#1
        0x0000c996:    4654        TF      MOV      r4,r10
        0x0000c998:    461d        .F      MOV      r5,r3
        0x0000c99a:    4616        .F      MOV      r6,r2
        0x0000c99c:    468b        .F      MOV      r11,r1
        0x0000c99e:    f1090804    ....    ADD      r8,r9,#4
        0x0000c9a2:    9001        ..      STR      r0,[sp,#4]
        0x0000c9a4:    bf08        ..      IT       EQ
        0x0000c9a6:    0c1c        ..      LSREQ    r4,r3,#16
        0x0000c9a8:    f000fd8e    ....    BL       am_hal_interrupt_master_disable ; 0xd4c8
        0x0000c9ac:    9002        ..      STR      r0,[sp,#8]
        0x0000c9ae:    f8590007    Y...    LDR      r0,[r9,r7]
        0x0000c9b2:    f8581007    X...    LDR      r1,[r8,r7]
        0x0000c9b6:    2e01        ..      CMP      r6,#1
        0x0000c9b8:    d114        ..      BNE      0xc9e4 ; am_hal_ctimer_compare_set + 100
        0x0000c9ba:    eac04005    ...@    PKHBT    r0,r0,r5,LSL #16
        0x0000c9be:    eac14104    ...A    PKHBT    r1,r1,r4,LSL #16
        0x0000c9c2:    f51b3f80    ...?    CMN      r11,#0x10000
        0x0000c9c6:    d017        ..      BEQ      0xc9f8 ; am_hal_ctimer_compare_set + 120
        0x0000c9c8:    9a01        ..      LDR      r2,[sp,#4]
        0x0000c9ca:    f8490007    I...    STR      r0,[r9,r7]
        0x0000c9ce:    2a00        .*      CMP      r2,#0
        0x0000c9d0:    bf08        ..      IT       EQ
        0x0000c9d2:    f8471008    G...    STREQ    r1,[r7,r8]
        0x0000c9d6:    9802        ..      LDR      r0,[sp,#8]
        0x0000c9d8:    b003        ..      ADD      sp,sp,#0xc
        0x0000c9da:    e8bd4ff0    ...O    POP      {r4-r11,lr}
        0x0000c9de:    f000bd77    ..w.    B.W      am_hal_interrupt_master_set ; 0xd4d0
        0x0000c9e2:    bf00        ..      NOP      
        0x0000c9e4:    f64f72ff    O..r    MOV      r2,#0xffff
        0x0000c9e8:    4390        .C      BICS     r0,r0,r2
        0x0000c9ea:    f36f010f    o...    BFC      r1,#0,#16
        0x0000c9ee:    4450        PD      ADD      r0,r0,r10
        0x0000c9f0:    4421        !D      ADD      r1,r1,r4
        0x0000c9f2:    f51b3f80    ...?    CMN      r11,#0x10000
        0x0000c9f6:    d1e7        ..      BNE      0xc9c8 ; am_hal_ctimer_compare_set + 72
        0x0000c9f8:    f8471008    G...    STR      r1,[r7,r8]
        0x0000c9fc:    9802        ..      LDR      r0,[sp,#8]
        0x0000c9fe:    b003        ..      ADD      sp,sp,#0xc
        0x0000ca00:    e8bd4ff0    ...O    POP      {r4-r11,lr}
        0x0000ca04:    f000bd64    ..d.    B.W      am_hal_interrupt_master_set ; 0xd4d0
    am_hal_ctimer_config_single
        0x0000ca08:    e92d43f0    -..C    PUSH     {r4-r9,lr}
        0x0000ca0c:    b083        ..      SUB      sp,sp,#0xc
        0x0000ca0e:    4615        .F      MOV      r5,r2
        0x0000ca10:    460e        .F      MOV      r6,r1
        0x0000ca12:    4680        .F      MOV      r8,r0
        0x0000ca14:    0147        G.      LSLS     r7,r0,#5
        0x0000ca16:    f000fd57    ..W.    BL       am_hal_interrupt_master_disable ; 0xd4c8
        0x0000ca1a:    f248040c    H...    MOV      r4,#0x800c
        0x0000ca1e:    9002        ..      STR      r0,[sp,#8]
        0x0000ca20:    f2c40400    ....    MOVT     r4,#0x4000
        0x0000ca24:    59e0        .Y      LDR      r0,[r4,r7]
        0x0000ca26:    f0062108    ...!    AND      r1,r6,#0x8000800
        0x0000ca2a:    4308        .C      ORRS     r0,r0,r1
        0x0000ca2c:    51e0        .Q      STR      r0,[r4,r7]
        0x0000ca2e:    9802        ..      LDR      r0,[sp,#8]
        0x0000ca30:    f000fd4e    ..N.    BL       am_hal_interrupt_master_set ; 0xd4d0
        0x0000ca34:    f000fd48    ..H.    BL       am_hal_interrupt_master_disable ; 0xd4c8
        0x0000ca38:    9001        ..      STR      r0,[sp,#4]
        0x0000ca3a:    59e0        .Y      LDR      r0,[r4,r7]
        0x0000ca3c:    f5163f80    ...?    CMN      r6,#0x10000
        0x0000ca40:    ea200006     ...    BIC      r0,r0,r6
        0x0000ca44:    bf08        ..      IT       EQ
        0x0000ca46:    042d        -.      LSLEQ    r5,r5,#16
        0x0000ca48:    4328        (C      ORRS     r0,r0,r5
        0x0000ca4a:    f1160901    ....    ADDS     r9,r6,#1
        0x0000ca4e:    bf08        ..      IT       EQ
        0x0000ca50:    f0404000    @..@    ORREQ    r0,r0,#0x80000000
        0x0000ca54:    51e0        .Q      STR      r0,[r4,r7]
        0x0000ca56:    9801        ..      LDR      r0,[sp,#4]
        0x0000ca58:    f000fd3a    ..:.    BL       am_hal_interrupt_master_set ; 0xd4d0
        0x0000ca5c:    f64f70ff    O..p    MOV      r0,#0xffff
        0x0000ca60:    4286        .B      CMP      r6,r0
        0x0000ca62:    f04f0000    O...    MOV      r0,#0
        0x0000ca66:    bf18        ..      IT       NE
        0x0000ca68:    f1b90f00    ....    CMPNE    r9,#0
        0x0000ca6c:    d10c        ..      BNE      0xca88 ; am_hal_ctimer_config_single + 128
        0x0000ca6e:    f2400228    @.(.    MOVW     r2,#0x28
        0x0000ca72:    f2c10200    ....    MOVT     r2,#0x1000
        0x0000ca76:    f3c50144    ..D.    UBFX     r1,r5,#1,#5
        0x0000ca7a:    eb020248    ..H.    ADD      r2,r2,r8,LSL #1
        0x0000ca7e:    5411        .T      STRB     r1,[r2,r0]
        0x0000ca80:    b003        ..      ADD      sp,sp,#0xc
        0x0000ca82:    e8bd83f0    ....    POP      {r4-r9,pc}
        0x0000ca86:    bf00        ..      NOP      
        0x0000ca88:    f5163f80    ...?    CMN      r6,#0x10000
        0x0000ca8c:    d1f8        ..      BNE      0xca80 ; am_hal_ctimer_config_single + 120
        0x0000ca8e:    2001        .       MOVS     r0,#1
        0x0000ca90:    e7ed        ..      B        0xca6e ; am_hal_ctimer_config_single + 102
        0x0000ca92:    0000        ..      MOVS     r0,r0
    am_hal_ctimer_config_trigger
        0x0000ca94:    b570        p.      PUSH     {r4-r6,lr}
        0x0000ca96:    b082        ..      SUB      sp,sp,#8
        0x0000ca98:    4614        .F      MOV      r4,r2
        0x0000ca9a:    460d        .F      MOV      r5,r1
        0x0000ca9c:    0146        F.      LSLS     r6,r0,#5
        0x0000ca9e:    f000fd13    ....    BL       am_hal_interrupt_master_disable ; 0xd4c8
        0x0000caa2:    9001        ..      STR      r0,[sp,#4]
        0x0000caa4:    f248001c    H...    MOV      r0,#0x801c
        0x0000caa8:    f2c40000    ....    MOVT     r0,#0x4000
        0x0000caac:    5981        .Y      LDR      r1,[r0,r6]
        0x0000caae:    f5153f80    ...?    CMN      r5,#0x10000
        0x0000cab2:    ea210105    !...    BIC      r1,r1,r5
        0x0000cab6:    bf08        ..      IT       EQ
        0x0000cab8:    0424        $.      LSLEQ    r4,r4,#16
        0x0000caba:    4321        !C      ORRS     r1,r1,r4
        0x0000cabc:    5181        .Q      STR      r1,[r0,r6]
        0x0000cabe:    9801        ..      LDR      r0,[sp,#4]
        0x0000cac0:    b002        ..      ADD      sp,sp,#8
        0x0000cac2:    e8bd4070    ..p@    POP      {r4-r6,lr}
        0x0000cac6:    f000bd03    ....    B.W      am_hal_interrupt_master_set ; 0xd4d0
        0x0000caca:    0000        ..      MOVS     r0,r0
    am_hal_ctimer_output_config
        0x0000cacc:    e92d4ff0    -..O    PUSH     {r4-r11,lr}
        0x0000cad0:    b081        ..      SUB      sp,sp,#4
        0x0000cad2:    4614        .F      MOV      r4,r2
        0x0000cad4:    2807        .(      CMP      r0,#7
        0x0000cad6:    f04f0206    O...    MOV      r2,#6
        0x0000cada:    bf98        ..      IT       LS
        0x0000cadc:    2c32        2,      CMPLS    r4,#0x32
        0x0000cade:    d903        ..      BLS      0xcae8 ; am_hal_ctimer_output_config + 28
        0x0000cae0:    4610        .F      MOV      r0,r2
        0x0000cae2:    b001        ..      ADD      sp,sp,#4
        0x0000cae4:    e8bd8ff0    ....    POP      {r4-r11,pc}
        0x0000cae8:    2b03        .+      CMP      r3,#3
        0x0000caea:    d8f9        ..      BHI      0xcae0 ; am_hal_ctimer_output_config + 20
        0x0000caec:    f5113f80    ...?    CMN      r1,#0x10000
        0x0000caf0:    d006        ..      BEQ      0xcb00 ; am_hal_ctimer_output_config + 52
        0x0000caf2:    f64f72ff    O..r    MOV      r2,#0xffff
        0x0000caf6:    4291        .B      CMP      r1,r2
        0x0000caf8:    bf18        ..      IT       NE
        0x0000cafa:    f1110201    ....    ADDSNE   r2,r1,#1
        0x0000cafe:    d143        C.      BNE      0xcb88 ; am_hal_ctimer_output_config + 188
        0x0000cb00:    1f27        '.      SUBS     r7,r4,#4
        0x0000cb02:    2f2d        -/      CMP      r7,#0x2d
        0x0000cb04:    f04f0205    O...    MOV      r2,#5
        0x0000cb08:    d8ea        ..      BHI      0xcae0 ; am_hal_ctimer_output_config + 20
        0x0000cb0a:    f04f0b00    O...    MOV      r11,#0
        0x0000cb0e:    f04f0a01    O...    MOV      r10,#1
        0x0000cb12:    f04f0901    O...    MOV      r9,#1
        0x0000cb16:    f04f0801    O...    MOV      r8,#1
        0x0000cb1a:    e8dff017    ....    TBH      [pc,r7,LSL #1]
    $d.15
        0x0000cb1e:    0031        1.      DCW    49
        0x0000cb20:    003f003b    ;.?.    DCD    4128827
        0x0000cb24:    002f0043    C./.    DCD    3080259
        0x0000cb28:    002f002f    /./.    DCD    3080239
        0x0000cb2c:    00cb0047    G...    DCD    13303879
        0x0000cb30:    002f004b    K./.    DCD    3080267
        0x0000cb34:    002f002f    /./.    DCD    3080239
        0x0000cb38:    004f002f    /.O.    DCD    5177391
        0x0000cb3c:    002f0053    S./.    DCD    3080275
        0x0000cb40:    0057002f    /.W.    DCD    5701679
        0x0000cb44:    005f005b    [._.    DCD    6226011
        0x0000cb48:    006f0063    c.o.    DCD    7274595
        0x0000cb4c:    00770073    s.w.    DCD    7798899
        0x0000cb50:    0087007b    {...    DCD    8847483
        0x0000cb54:    008f008b    ....    DCD    9371787
        0x0000cb58:    002f0093    ../.    DCD    3080339
        0x0000cb5c:    002f0097    ../.    DCD    3080343
        0x0000cb60:    002f009b    ../.    DCD    3080347
        0x0000cb64:    002f009f    ../.    DCD    3080351
        0x0000cb68:    00a3002f    /...    DCD    10682415
        0x0000cb6c:    00b300a7    ....    DCD    11731111
        0x0000cb70:    00bb00b7    ....    DCD    12255415
        0x0000cb74:    00c300bf    ....    DCD    12779711
        0x0000cb78:    bf0001fd    ....    DCD    3204448765
    $t.16
        0x0000cb7c:    e7b0        ..      B        0xcae0 ; am_hal_ctimer_output_config + 20
        0x0000cb7e:    bf00        ..      NOP      
        0x0000cb80:    f04f0b11    O...    MOV      r11,#0x11
        0x0000cb84:    e074        t.      B        0xcc70 ; am_hal_ctimer_output_config + 420
        0x0000cb86:    bf00        ..      NOP      
        0x0000cb88:    2206        ."      MOVS     r2,#6
        0x0000cb8a:    4610        .F      MOV      r0,r2
        0x0000cb8c:    b001        ..      ADD      sp,sp,#4
        0x0000cb8e:    e8bd8ff0    ....    POP      {r4-r11,pc}
        0x0000cb92:    bf00        ..      NOP      
        0x0000cb94:    f04f0b08    O...    MOV      r11,#8
        0x0000cb98:    e03e        >.      B        0xcc18 ; am_hal_ctimer_output_config + 332
        0x0000cb9a:    bf00        ..      NOP      
        0x0000cb9c:    f04f0b0a    O...    MOV      r11,#0xa
        0x0000cba0:    e066        f.      B        0xcc70 ; am_hal_ctimer_output_config + 420
        0x0000cba2:    bf00        ..      NOP      
        0x0000cba4:    f04f0b13    O...    MOV      r11,#0x13
        0x0000cba8:    e062        b.      B        0xcc70 ; am_hal_ctimer_output_config + 420
        0x0000cbaa:    bf00        ..      NOP      
        0x0000cbac:    f04f0b1f    O...    MOV      r11,#0x1f
        0x0000cbb0:    e1b4        ..      B        0xcf1c ; am_hal_ctimer_output_config + 1104
        0x0000cbb2:    bf00        ..      NOP      
        0x0000cbb4:    f04f0b02    O...    MOV      r11,#2
        0x0000cbb8:    e02e        ..      B        0xcc18 ; am_hal_ctimer_output_config + 332
        0x0000cbba:    bf00        ..      NOP      
        0x0000cbbc:    f04f0b04    O...    MOV      r11,#4
        0x0000cbc0:    e02a        *.      B        0xcc18 ; am_hal_ctimer_output_config + 332
        0x0000cbc2:    bf00        ..      NOP      
        0x0000cbc4:    f04f0b06    O...    MOV      r11,#6
        0x0000cbc8:    e026        &.      B        0xcc18 ; am_hal_ctimer_output_config + 332
        0x0000cbca:    bf00        ..      NOP      
        0x0000cbcc:    f04f0b0c    O...    MOV      r11,#0xc
        0x0000cbd0:    e04e        N.      B        0xcc70 ; am_hal_ctimer_output_config + 420
        0x0000cbd2:    bf00        ..      NOP      
        0x0000cbd4:    f04f0b0e    O...    MOV      r11,#0xe
        0x0000cbd8:    e04a        J.      B        0xcc70 ; am_hal_ctimer_output_config + 420
        0x0000cbda:    bf00        ..      NOP      
        0x0000cbdc:    f04f0b15    O...    MOV      r11,#0x15
        0x0000cbe0:    e062        b.      B        0xcca8 ; am_hal_ctimer_output_config + 476
        0x0000cbe2:    bf00        ..      NOP      
        0x0000cbe4:    f04f0a01    O...    MOV      r10,#1
        0x0000cbe8:    f04f0901    O...    MOV      r9,#1
        0x0000cbec:    f04f0801    O...    MOV      r8,#1
        0x0000cbf0:    f04f0b01    O...    MOV      r11,#1
        0x0000cbf4:    2806        .(      CMP      r0,#6
        0x0000cbf6:    d25f        _.      BCS      0xccb8 ; am_hal_ctimer_output_config + 492
        0x0000cbf8:    e064        d.      B        0xccc4 ; am_hal_ctimer_output_config + 504
        0x0000cbfa:    bf00        ..      NOP      
        0x0000cbfc:    f04f0b03    O...    MOV      r11,#3
        0x0000cc00:    e00a        ..      B        0xcc18 ; am_hal_ctimer_output_config + 332
        0x0000cc02:    bf00        ..      NOP      
        0x0000cc04:    f04f0b05    O...    MOV      r11,#5
        0x0000cc08:    e006        ..      B        0xcc18 ; am_hal_ctimer_output_config + 332
        0x0000cc0a:    bf00        ..      NOP      
        0x0000cc0c:    f04f0b07    O...    MOV      r11,#7
        0x0000cc10:    e002        ..      B        0xcc18 ; am_hal_ctimer_output_config + 332
        0x0000cc12:    bf00        ..      NOP      
        0x0000cc14:    f04f0b09    O...    MOV      r11,#9
        0x0000cc18:    f04f0a01    O...    MOV      r10,#1
        0x0000cc1c:    f04f0901    O...    MOV      r9,#1
        0x0000cc20:    f04f0801    O...    MOV      r8,#1
        0x0000cc24:    2806        .(      CMP      r0,#6
        0x0000cc26:    d247        G.      BCS      0xccb8 ; am_hal_ctimer_output_config + 492
        0x0000cc28:    e04c        L.      B        0xccc4 ; am_hal_ctimer_output_config + 504
        0x0000cc2a:    bf00        ..      NOP      
        0x0000cc2c:    f04f0b0b    O...    MOV      r11,#0xb
        0x0000cc30:    e01e        ..      B        0xcc70 ; am_hal_ctimer_output_config + 420
        0x0000cc32:    bf00        ..      NOP      
        0x0000cc34:    f04f0b0d    O...    MOV      r11,#0xd
        0x0000cc38:    e01a        ..      B        0xcc70 ; am_hal_ctimer_output_config + 420
        0x0000cc3a:    bf00        ..      NOP      
        0x0000cc3c:    f04f0b0f    O...    MOV      r11,#0xf
        0x0000cc40:    e016        ..      B        0xcc70 ; am_hal_ctimer_output_config + 420
        0x0000cc42:    bf00        ..      NOP      
        0x0000cc44:    f04f0b17    O...    MOV      r11,#0x17
        0x0000cc48:    e02e        ..      B        0xcca8 ; am_hal_ctimer_output_config + 476
        0x0000cc4a:    bf00        ..      NOP      
        0x0000cc4c:    f04f0b1b    O...    MOV      r11,#0x1b
        0x0000cc50:    e02a        *.      B        0xcca8 ; am_hal_ctimer_output_config + 476
        0x0000cc52:    bf00        ..      NOP      
        0x0000cc54:    f04f0b1d    O...    MOV      r11,#0x1d
        0x0000cc58:    e026        &.      B        0xcca8 ; am_hal_ctimer_output_config + 476
        0x0000cc5a:    bf00        ..      NOP      
        0x0000cc5c:    f04f0b19    O...    MOV      r11,#0x19
        0x0000cc60:    e022        ".      B        0xcca8 ; am_hal_ctimer_output_config + 476
        0x0000cc62:    bf00        ..      NOP      
        0x0000cc64:    f04f0b10    O...    MOV      r11,#0x10
        0x0000cc68:    e002        ..      B        0xcc70 ; am_hal_ctimer_output_config + 420
        0x0000cc6a:    bf00        ..      NOP      
        0x0000cc6c:    f04f0b12    O...    MOV      r11,#0x12
        0x0000cc70:    f04f0901    O...    MOV      r9,#1
        0x0000cc74:    f04f0a00    O...    MOV      r10,#0
        0x0000cc78:    f04f0801    O...    MOV      r8,#1
        0x0000cc7c:    2806        .(      CMP      r0,#6
        0x0000cc7e:    d21b        ..      BCS      0xccb8 ; am_hal_ctimer_output_config + 492
        0x0000cc80:    e020         .      B        0xccc4 ; am_hal_ctimer_output_config + 504
        0x0000cc82:    bf00        ..      NOP      
        0x0000cc84:    f04f0b14    O...    MOV      r11,#0x14
        0x0000cc88:    e00e        ..      B        0xcca8 ; am_hal_ctimer_output_config + 476
        0x0000cc8a:    bf00        ..      NOP      
        0x0000cc8c:    f04f0b16    O...    MOV      r11,#0x16
        0x0000cc90:    e00a        ..      B        0xcca8 ; am_hal_ctimer_output_config + 476
        0x0000cc92:    bf00        ..      NOP      
        0x0000cc94:    f04f0b18    O...    MOV      r11,#0x18
        0x0000cc98:    e006        ..      B        0xcca8 ; am_hal_ctimer_output_config + 476
        0x0000cc9a:    bf00        ..      NOP      
        0x0000cc9c:    f04f0b1a    O...    MOV      r11,#0x1a
        0x0000cca0:    e002        ..      B        0xcca8 ; am_hal_ctimer_output_config + 476
        0x0000cca2:    bf00        ..      NOP      
        0x0000cca4:    f04f0b1c    O...    MOV      r11,#0x1c
        0x0000cca8:    f04f0801    O...    MOV      r8,#1
        0x0000ccac:    f04f0a00    O...    MOV      r10,#0
        0x0000ccb0:    f04f0900    O...    MOV      r9,#0
        0x0000ccb4:    2806        .(      CMP      r0,#6
        0x0000ccb6:    d305        ..      BCC      0xccc4 ; am_hal_ctimer_output_config + 504
        0x0000ccb8:    f64f72ff    O..r    MOV      r2,#0xffff
        0x0000ccbc:    4291        .B      CMP      r1,r2
        0x0000ccbe:    d101        ..      BNE      0xccc4 ; am_hal_ctimer_output_config + 504
        0x0000ccc0:    2b01        .+      CMP      r3,#1
        0x0000ccc2:    d002        ..      BEQ      0xccca ; am_hal_ctimer_output_config + 510
        0x0000ccc4:    2b01        .+      CMP      r3,#1
        0x0000ccc6:    d933        3.      BLS      0xcd30 ; am_hal_ctimer_output_config + 612
        0x0000ccc8:    1e98        ..      SUBS     r0,r3,#2
        0x0000ccca:    f64c41cd    L..A    MOV      r1,#0xcccd
        0x0000ccce:    f6cc41cc    ...A    MOVT     r1,#0xcccc
        0x0000ccd2:    fbab1201    ....    UMULL    r1,r2,r11,r1
        0x0000ccd6:    08d1        ..      LSRS     r1,r2,#3
        0x0000ccd8:    eb010181    ....    ADD      r1,r1,r1,LSL #2
        0x0000ccdc:    ebab0141    ..A.    SUB      r1,r11,r1,LSL #1
        0x0000cce0:    9f0a        ..      LDR      r7,[sp,#0x28]
        0x0000cce2:    eb010241    ..A.    ADD      r2,r1,r1,LSL #1
        0x0000cce6:    2904        .)      CMP      r1,#4
        0x0000cce8:    f04f0107    O...    MOV      r1,#7
        0x0000ccec:    bf88        ..      IT       HI
        0x0000ccee:    3201        .2      ADDHI    r2,#1
        0x0000ccf0:    fa01f502    ....    LSL      r5,r1,r2
        0x0000ccf4:    fa00f602    ....    LSL      r6,r0,r2
        0x0000ccf8:    f000fbe6    ....    BL       am_hal_interrupt_master_disable ; 0xd4c8
        0x0000ccfc:    f1ba0f00    ....    CMP      r10,#0
        0x0000cd00:    9000        ..      STR      r0,[sp,#0]
        0x0000cd02:    d009        ..      BEQ      0xcd18 ; am_hal_ctimer_output_config + 588
        0x0000cd04:    f2481004    H...    MOV      r0,#0x8104
        0x0000cd08:    f2c40000    ....    MOVT     r0,#0x4000
        0x0000cd0c:    6801        .h      LDR      r1,[r0,#0]
        0x0000cd0e:    43a9        .C      BICS     r1,r1,r5
        0x0000cd10:    4331        1C      ORRS     r1,r1,r6
        0x0000cd12:    6001        .`      STR      r1,[r0,#0]
        0x0000cd14:    e0d8        ..      B        0xcec8 ; am_hal_ctimer_output_config + 1020
        0x0000cd16:    bf00        ..      NOP      
        0x0000cd18:    f1b90f00    ....    CMP      r9,#0
        0x0000cd1c:    d05e        ^.      BEQ      0xcddc ; am_hal_ctimer_output_config + 784
        0x0000cd1e:    f2481004    H...    MOV      r0,#0x8104
        0x0000cd22:    f2c40000    ....    MOVT     r0,#0x4000
        0x0000cd26:    6841        Ah      LDR      r1,[r0,#4]
        0x0000cd28:    43a9        .C      BICS     r1,r1,r5
        0x0000cd2a:    4331        1C      ORRS     r1,r1,r6
        0x0000cd2c:    6041        A`      STR      r1,[r0,#4]
        0x0000cd2e:    e0cb        ..      B        0xcec8 ; am_hal_ctimer_output_config + 1020
        0x0000cd30:    f24f2216    O.."    MOV      r2,#0xf216
        0x0000cd34:    f2c00200    ....    MOVT     r2,#0
        0x0000cd38:    f812702b    ..+p    LDRB     r7,[r2,r11,LSL #2]
        0x0000cd3c:    f64f76ff    O..v    MOV      r6,#0xffff
        0x0000cd40:    42b1        .B      CMP      r1,r6
        0x0000cd42:    f0070607    ....    AND      r6,r7,#7
        0x0000cd46:    d157        W.      BNE      0xcdf8 ; am_hal_ctimer_output_config + 812
        0x0000cd48:    4286        .B      CMP      r6,r0
        0x0000cd4a:    d10d        ..      BNE      0xcd68 ; am_hal_ctimer_output_config + 668
        0x0000cd4c:    0739        9.      LSLS     r1,r7,#28
        0x0000cd4e:    d40b        ..      BMI      0xcd68 ; am_hal_ctimer_output_config + 668
        0x0000cd50:    1e59        Y.      SUBS     r1,r3,#1
        0x0000cd52:    fab1f181    ....    CLZ      r1,r1
        0x0000cd56:    f0070710    ....    AND      r7,r7,#0x10
        0x0000cd5a:    2601        .&      MOVS     r6,#1
        0x0000cd5c:    0949        I.      LSRS     r1,r1,#5
        0x0000cd5e:    ea861717    ....    EOR      r7,r6,r7,LSR #4
        0x0000cd62:    4079        y@      EORS     r1,r1,r7
        0x0000cd64:    f04080d4    @...    BNE.W    0xcf10 ; am_hal_ctimer_output_config + 1092
        0x0000cd68:    eb02018b    ....    ADD      r1,r2,r11,LSL #2
        0x0000cd6c:    784a        Jx      LDRB     r2,[r1,#1]
        0x0000cd6e:    f0020707    ....    AND      r7,r2,#7
        0x0000cd72:    4287        .B      CMP      r7,r0
        0x0000cd74:    d10d        ..      BNE      0xcd92 ; am_hal_ctimer_output_config + 710
        0x0000cd76:    0717        ..      LSLS     r7,r2,#28
        0x0000cd78:    d40b        ..      BMI      0xcd92 ; am_hal_ctimer_output_config + 710
        0x0000cd7a:    1e5f        _.      SUBS     r7,r3,#1
        0x0000cd7c:    fab7f787    ....    CLZ      r7,r7
        0x0000cd80:    f0020210    ....    AND      r2,r2,#0x10
        0x0000cd84:    2601        .&      MOVS     r6,#1
        0x0000cd86:    097f        ..      LSRS     r7,r7,#5
        0x0000cd88:    ea861212    ....    EOR      r2,r6,r2,LSR #4
        0x0000cd8c:    407a        z@      EORS     r2,r2,r7
        0x0000cd8e:    f04080c1    @...    BNE.W    0xcf14 ; am_hal_ctimer_output_config + 1096
        0x0000cd92:    788a        .x      LDRB     r2,[r1,#2]
        0x0000cd94:    f0020707    ....    AND      r7,r2,#7
        0x0000cd98:    4287        .B      CMP      r7,r0
        0x0000cd9a:    d10d        ..      BNE      0xcdb8 ; am_hal_ctimer_output_config + 748
        0x0000cd9c:    0717        ..      LSLS     r7,r2,#28
        0x0000cd9e:    d40b        ..      BMI      0xcdb8 ; am_hal_ctimer_output_config + 748
        0x0000cda0:    1e5f        _.      SUBS     r7,r3,#1
        0x0000cda2:    fab7f787    ....    CLZ      r7,r7
        0x0000cda6:    f0020210    ....    AND      r2,r2,#0x10
        0x0000cdaa:    2601        .&      MOVS     r6,#1
        0x0000cdac:    097f        ..      LSRS     r7,r7,#5
        0x0000cdae:    ea861212    ....    EOR      r2,r6,r2,LSR #4
        0x0000cdb2:    407a        z@      EORS     r2,r2,r7
        0x0000cdb4:    f04080bc    @...    BNE.W    0xcf30 ; am_hal_ctimer_output_config + 1124
        0x0000cdb8:    78c9        .x      LDRB     r1,[r1,#3]
        0x0000cdba:    f0010207    ....    AND      r2,r1,#7
        0x0000cdbe:    4282        .B      CMP      r2,r0
        0x0000cdc0:    f04080a0    @...    BNE.W    0xcf04 ; am_hal_ctimer_output_config + 1080
        0x0000cdc4:    0708        ..      LSLS     r0,r1,#28
        0x0000cdc6:    f04f0207    O...    MOV      r2,#7
        0x0000cdca:    f53fae89    ?...    BMI      0xcae0 ; am_hal_ctimer_output_config + 20
        0x0000cdce:    1e58        X.      SUBS     r0,r3,#1
        0x0000cdd0:    fab0f080    ....    CLZ      r0,r0
        0x0000cdd4:    0940        @.      LSRS     r0,r0,#5
        0x0000cdd6:    f0010110    ....    AND      r1,r1,#0x10
        0x0000cdda:    e069        i.      B        0xceb0 ; am_hal_ctimer_output_config + 996
        0x0000cddc:    f2481104    H...    MOV      r1,#0x8104
        0x0000cde0:    f1b80f00    ....    CMP      r8,#0
        0x0000cde4:    ea6f0005    o...    MVN      r0,r5
        0x0000cde8:    f2c40100    ....    MOVT     r1,#0x4000
        0x0000cdec:    d068        h.      BEQ      0xcec0 ; am_hal_ctimer_output_config + 1012
        0x0000cdee:    688a        .h      LDR      r2,[r1,#8]
        0x0000cdf0:    4010        .@      ANDS     r0,r0,r2
        0x0000cdf2:    4330        0C      ORRS     r0,r0,r6
        0x0000cdf4:    6088        .`      STR      r0,[r1,#8]
        0x0000cdf6:    e067        g.      B        0xcec8 ; am_hal_ctimer_output_config + 1020
        0x0000cdf8:    4286        .B      CMP      r6,r0
        0x0000cdfa:    bf08        ..      IT       EQ
        0x0000cdfc:    f5113f80    ...?    CMNEQ    r1,#0x10000
        0x0000ce00:    d10f        ..      BNE      0xce22 ; am_hal_ctimer_output_config + 854
        0x0000ce02:    f0170608    ....    ANDS     r6,r7,#8
        0x0000ce06:    bf1f        ..      ITTTT    NE
        0x0000ce08:    1e5e        ^.      SUBNE    r6,r3,#1
        0x0000ce0a:    fab6f686    ....    CLZNE    r6,r6
        0x0000ce0e:    0976        v.      LSRNE    r6,r6,#5
        0x0000ce10:    f0070710    ....    ANDNE    r7,r7,#0x10
        0x0000ce14:    bf1e        ..      ITTT     NE
        0x0000ce16:    2501        .%      MOVNE    r5,#1
        0x0000ce18:    ea851717    ....    EORNE    r7,r5,r7,LSR #4
        0x0000ce1c:    ea970706    ....    EORSNE   r7,r7,r6
        0x0000ce20:    d176        v.      BNE      0xcf10 ; am_hal_ctimer_output_config + 1092
        0x0000ce22:    eb02028b    ....    ADD      r2,r2,r11,LSL #2
        0x0000ce26:    7857        Wx      LDRB     r7,[r2,#1]
        0x0000ce28:    f0070607    ....    AND      r6,r7,#7
        0x0000ce2c:    4286        .B      CMP      r6,r0
        0x0000ce2e:    bf08        ..      IT       EQ
        0x0000ce30:    f5113f80    ...?    CMNEQ    r1,#0x10000
        0x0000ce34:    d10f        ..      BNE      0xce56 ; am_hal_ctimer_output_config + 906
        0x0000ce36:    f0170608    ....    ANDS     r6,r7,#8
        0x0000ce3a:    bf1f        ..      ITTTT    NE
        0x0000ce3c:    1e5e        ^.      SUBNE    r6,r3,#1
        0x0000ce3e:    fab6f686    ....    CLZNE    r6,r6
        0x0000ce42:    0976        v.      LSRNE    r6,r6,#5
        0x0000ce44:    f0070710    ....    ANDNE    r7,r7,#0x10
        0x0000ce48:    bf1e        ..      ITTT     NE
        0x0000ce4a:    2501        .%      MOVNE    r5,#1
        0x0000ce4c:    ea851717    ....    EORNE    r7,r5,r7,LSR #4
        0x0000ce50:    ea970706    ....    EORSNE   r7,r7,r6
        0x0000ce54:    d15e        ^.      BNE      0xcf14 ; am_hal_ctimer_output_config + 1096
        0x0000ce56:    7897        .x      LDRB     r7,[r2,#2]
        0x0000ce58:    f0070607    ....    AND      r6,r7,#7
        0x0000ce5c:    4286        .B      CMP      r6,r0
        0x0000ce5e:    bf08        ..      IT       EQ
        0x0000ce60:    f5113f80    ...?    CMNEQ    r1,#0x10000
        0x0000ce64:    d10f        ..      BNE      0xce86 ; am_hal_ctimer_output_config + 954
        0x0000ce66:    f0170608    ....    ANDS     r6,r7,#8
        0x0000ce6a:    bf1f        ..      ITTTT    NE
        0x0000ce6c:    1e5e        ^.      SUBNE    r6,r3,#1
        0x0000ce6e:    fab6f686    ....    CLZNE    r6,r6
        0x0000ce72:    0976        v.      LSRNE    r6,r6,#5
        0x0000ce74:    f0070710    ....    ANDNE    r7,r7,#0x10
        0x0000ce78:    bf1e        ..      ITTT     NE
        0x0000ce7a:    2501        .%      MOVNE    r5,#1
        0x0000ce7c:    ea851717    ....    EORNE    r7,r5,r7,LSR #4
        0x0000ce80:    ea970706    ....    EORSNE   r7,r7,r6
        0x0000ce84:    d154        T.      BNE      0xcf30 ; am_hal_ctimer_output_config + 1124
        0x0000ce86:    78d7        .x      LDRB     r7,[r2,#3]
        0x0000ce88:    f0070207    ....    AND      r2,r7,#7
        0x0000ce8c:    4282        .B      CMP      r2,r0
        0x0000ce8e:    d139        9.      BNE      0xcf04 ; am_hal_ctimer_output_config + 1080
        0x0000ce90:    f5113f80    ...?    CMN      r1,#0x10000
        0x0000ce94:    f04f0207    O...    MOV      r2,#7
        0x0000ce98:    f47fae22    ..".    BNE      0xcae0 ; am_hal_ctimer_output_config + 20
        0x0000ce9c:    f0170008    ....    ANDS     r0,r7,#8
        0x0000cea0:    f43fae1e    ?...    BEQ      0xcae0 ; am_hal_ctimer_output_config + 20
        0x0000cea4:    1e58        X.      SUBS     r0,r3,#1
        0x0000cea6:    fab0f080    ....    CLZ      r0,r0
        0x0000ceaa:    0940        @.      LSRS     r0,r0,#5
        0x0000ceac:    f0070110    ....    AND      r1,r7,#0x10
        0x0000ceb0:    2301        .#      MOVS     r3,#1
        0x0000ceb2:    ea831111    ....    EOR      r1,r3,r1,LSR #4
        0x0000ceb6:    4048        H@      EORS     r0,r0,r1
        0x0000ceb8:    f43fae12    ?...    BEQ      0xcae0 ; am_hal_ctimer_output_config + 20
        0x0000cebc:    2005        .       MOVS     r0,#5
        0x0000cebe:    e704        ..      B        0xccca ; am_hal_ctimer_output_config + 510
        0x0000cec0:    690a        .i      LDR      r2,[r1,#0x10]
        0x0000cec2:    4010        .@      ANDS     r0,r0,r2
        0x0000cec4:    4330        0C      ORRS     r0,r0,r6
        0x0000cec6:    6108        .a      STR      r0,[r1,#0x10]
        0x0000cec8:    f2401118    @...    MOVW     r1,#0x118
        0x0000cecc:    f2c40101    ....    MOVT     r1,#0x4001
        0x0000ced0:    2001        .       MOVS     r0,#1
        0x0000ced2:    680a        .h      LDR      r2,[r1,#0]
        0x0000ced4:    fa00f00b    ....    LSL      r0,r0,r11
        0x0000ced8:    ea220000    "...    BIC      r0,r2,r0
        0x0000cedc:    6008        .`      STR      r0,[r1,#0]
        0x0000cede:    9800        ..      LDR      r0,[sp,#0]
        0x0000cee0:    f000faf6    ....    BL       am_hal_interrupt_master_set ; 0xd4d0
        0x0000cee4:    a013        ..      ADR      r0,{pc}+0x50 ; 0xcf34
        0x0000cee6:    eb00004b    ..K.    ADD      r0,r0,r11,LSL #1
        0x0000ceea:    7840        @x      LDRB     r0,[r0,#1]
        0x0000ceec:    f0000107    ....    AND      r1,r0,#7
        0x0000cef0:    f3672109    g..!    BFI      r1,r7,#8,#2
        0x0000cef4:    4620         F      MOV      r0,r4
        0x0000cef6:    f000f939    ..9.    BL       am_hal_gpio_pinconfig ; 0xd16c
        0x0000cefa:    2200        ."      MOVS     r2,#0
        0x0000cefc:    4610        .F      MOV      r0,r2
        0x0000cefe:    b001        ..      ADD      sp,sp,#4
        0x0000cf00:    e8bd8ff0    ....    POP      {r4-r11,pc}
        0x0000cf04:    2207        ."      MOVS     r2,#7
        0x0000cf06:    4610        .F      MOV      r0,r2
        0x0000cf08:    b001        ..      ADD      sp,sp,#4
        0x0000cf0a:    e8bd8ff0    ....    POP      {r4-r11,pc}
        0x0000cf0e:    bf00        ..      NOP      
        0x0000cf10:    2002        .       MOVS     r0,#2
        0x0000cf12:    e6da        ..      B        0xccca ; am_hal_ctimer_output_config + 510
        0x0000cf14:    2003        .       MOVS     r0,#3
        0x0000cf16:    e6d8        ..      B        0xccca ; am_hal_ctimer_output_config + 510
        0x0000cf18:    f04f0b1e    O...    MOV      r11,#0x1e
        0x0000cf1c:    f04f0a00    O...    MOV      r10,#0
        0x0000cf20:    f04f0900    O...    MOV      r9,#0
        0x0000cf24:    f04f0800    O...    MOV      r8,#0
        0x0000cf28:    2806        .(      CMP      r0,#6
        0x0000cf2a:    f4bfaec5    ....    BCS      0xccb8 ; am_hal_ctimer_output_config + 492
        0x0000cf2e:    e6c9        ..      B        0xccc4 ; am_hal_ctimer_output_config + 504
        0x0000cf30:    2004        .       MOVS     r0,#4
        0x0000cf32:    e6ca        ..      B        0xccca ; am_hal_ctimer_output_config + 510
    $d.17
    CTx_tbl
        0x0000cf34:    0219020c    ....    DCD    35193356
        0x0000cf38:    021a020d    ....    DCD    35258893
        0x0000cf3c:    021b0212    ....    DCD    35324434
        0x0000cf40:    021c0213    ....    DCD    35389971
        0x0000cf44:    021d0705    ....    DCD    35456773
        0x0000cf48:    021e0506    ....    DCD    35521798
        0x0000cf4c:    021f0216    ....    DCD    35586582
        0x0000cf50:    02200217    .. .    DCD    35652119
        0x0000cf54:    0604022a    *...    DCD    100925994
        0x0000cf58:    0707022b    +...    DCD    117899819
        0x0000cf5c:    0518022c    ,...    DCD    85459500
        0x0000cf60:    0621022d    -.!.    DCD    102826541
        0x0000cf64:    0227022e    ..'.    DCD    36110894
        0x0000cf68:    0523022f    /.#.    DCD    86180399
        0x0000cf6c:    07250230    0.%.    DCD    119865904
        0x0000cf70:    020b0231    1...    DCD    34275889
    $t.21
    am_hal_ctimer_period_set
        0x0000cf74:    e92d43f0    -..C    PUSH     {r4-r9,lr}
        0x0000cf78:    b081        ..      SUB      sp,sp,#4
        0x0000cf7a:    f2480804    H...    MOV      r8,#0x8004
        0x0000cf7e:    f2c40800    ....    MOVT     r8,#0x4000
        0x0000cf82:    461e        .F      MOV      r6,r3
        0x0000cf84:    4614        .F      MOV      r4,r2
        0x0000cf86:    460d        .F      MOV      r5,r1
        0x0000cf88:    ea4f1940    O.@.    LSL      r9,r0,#5
        0x0000cf8c:    eb081740    ..@.    ADD      r7,r8,r0,LSL #5
        0x0000cf90:    f000fa9a    ....    BL       am_hal_interrupt_master_disable ; 0xd4c8
        0x0000cf94:    9000        ..      STR      r0,[sp,#0]
        0x0000cf96:    68b8        .h      LDR      r0,[r7,#8]
        0x0000cf98:    f5153f80    ...?    CMN      r5,#0x10000
        0x0000cf9c:    bf08        ..      IT       EQ
        0x0000cf9e:    0c00        ..      LSREQ    r0,r0,#16
        0x0000cfa0:    f40070c0    ...p    AND      r0,r0,#0x180
        0x0000cfa4:    2880        .(      CMP      r0,#0x80
        0x0000cfa6:    4620         F      MOV      r0,r4
        0x0000cfa8:    f64f71ff    O..q    MOV      r1,#0xffff
        0x0000cfac:    bf0c        ..      ITE      EQ
        0x0000cfae:    1b80        ..      SUBEQ    r0,r0,r6
        0x0000cfb0:    2400        .$      MOVNE    r4,#0
        0x0000cfb2:    428d        .B      CMP      r5,r1
        0x0000cfb4:    eac04104    ...A    PKHBT    r1,r0,r4,LSL #16
        0x0000cfb8:    d108        ..      BNE      0xcfcc ; am_hal_ctimer_period_set + 88
        0x0000cfba:    f8481009    H...    STR      r1,[r8,r9]
        0x0000cfbe:    9800        ..      LDR      r0,[sp,#0]
        0x0000cfc0:    b001        ..      ADD      sp,sp,#4
        0x0000cfc2:    e8bd43f0    ...C    POP      {r4-r9,lr}
        0x0000cfc6:    f000ba83    ....    B.W      am_hal_interrupt_master_set ; 0xd4d0
        0x0000cfca:    bf00        ..      NOP      
        0x0000cfcc:    f5153f80    ...?    CMN      r5,#0x10000
        0x0000cfd0:    f1080204    ....    ADD      r2,r8,#4
        0x0000cfd4:    bf0f        ..      ITEEE    EQ
        0x0000cfd6:    f8491002    I...    STREQ    r1,[r9,r2]
        0x0000cfda:    f8481009    H...    STRNE    r1,[r8,r9]
        0x0000cfde:    eac44020    .. @    PKHTBNE  r0,r4,r0,ASR #16
        0x0000cfe2:    f8490002    I...    STRNE    r0,[r9,r2]
        0x0000cfe6:    9800        ..      LDR      r0,[sp,#0]
        0x0000cfe8:    b001        ..      ADD      sp,sp,#4
        0x0000cfea:    e8bd43f0    ...C    POP      {r4-r9,lr}
        0x0000cfee:    f000ba6f    ..o.    B.W      am_hal_interrupt_master_set ; 0xd4d0
        0x0000cff2:    0000        ..      MOVS     r0,r0
    am_hal_ctimer_start
        0x0000cff4:    b570        p.      PUSH     {r4-r6,lr}
        0x0000cff6:    b082        ..      SUB      sp,sp,#8
        0x0000cff8:    460c        .F      MOV      r4,r1
        0x0000cffa:    4605        .F      MOV      r5,r0
        0x0000cffc:    0146        F.      LSLS     r6,r0,#5
        0x0000cffe:    f000fa63    ..c.    BL       am_hal_interrupt_master_disable ; 0xd4c8
        0x0000d002:    9001        ..      STR      r0,[sp,#4]
        0x0000d004:    f248000c    H...    MOV      r0,#0x800c
        0x0000d008:    f2c40000    ....    MOVT     r0,#0x4000
        0x0000d00c:    5981        .Y      LDR      r1,[r0,r6]
        0x0000d00e:    2201        ."      MOVS     r2,#1
        0x0000d010:    f06f2308    o..#    MVN      r3,#0x8000800
        0x0000d014:    f5143f80    ...?    CMN      r4,#0x10000
        0x0000d018:    bf08        ..      IT       EQ
        0x0000d01a:    2211        ."      MOVEQ    r2,#0x11
        0x0000d01c:    ea630304    c...    ORN      r3,r3,r4
        0x0000d020:    fa21f202    !...    LSR      r2,r1,r2
        0x0000d024:    4019        .@      ANDS     r1,r1,r3
        0x0000d026:    f0041301    ....    AND      r3,r4,#0x10001
        0x0000d02a:    4319        .C      ORRS     r1,r1,r3
        0x0000d02c:    f2400328    @.(.    MOVW     r3,#0x28
        0x0000d030:    f2c10300    ....    MOVT     r3,#0x1000
        0x0000d034:    f002021f    ....    AND      r2,r2,#0x1f
        0x0000d038:    eb030345    ..E.    ADD      r3,r3,r5,LSL #1
        0x0000d03c:    f5143f80    ...?    CMN      r4,#0x10000
        0x0000d040:    bf08        ..      IT       EQ
        0x0000d042:    3301        .3      ADDEQ    r3,#1
        0x0000d044:    701a        .p      STRB     r2,[r3,#0]
        0x0000d046:    5181        .Q      STR      r1,[r0,r6]
        0x0000d048:    9801        ..      LDR      r0,[sp,#4]
        0x0000d04a:    b002        ..      ADD      sp,sp,#8
        0x0000d04c:    e8bd4070    ..p@    POP      {r4-r6,lr}
        0x0000d050:    f000ba3e    ..>.    B.W      am_hal_interrupt_master_set ; 0xd4d0
    am_hal_flash_delay
        0x0000d054:    f2440134    D.4.    MOV      r1,#0x4034
        0x0000d058:    f2c40100    ....    MOVT     r1,#0x4000
        0x0000d05c:    680a        .h      LDR      r2,[r1,#0]
        0x0000d05e:    f3c20180    ....    UBFX     r1,r2,#2,#1
        0x0000d062:    4088        .@      LSLS     r0,r0,r1
        0x0000d064:    210e        .!      MOVS     r1,#0xe
        0x0000d066:    f0120f04    ....    TST      r2,#4
        0x0000d06a:    bf08        ..      IT       EQ
        0x0000d06c:    210b        .!      MOVEQ    r1,#0xb
        0x0000d06e:    4281        .B      CMP      r1,r0
        0x0000d070:    bf28        (.      IT       CS
        0x0000d072:    4770        pG      BXCS     lr
        0x0000d074:    1a40        @.      SUBS     r0,r0,r1
        0x0000d076:    219d        .!      MOVS     r1,#0x9d
        0x0000d078:    f6c00100    ....    MOVT     r1,#0x800
        0x0000d07c:    4708        .G      BX       r1
        0x0000d07e:    0000        ..      MOVS     r0,r0
    am_hal_flash_delay_status_check
        0x0000d080:    e92d47f0    -..G    PUSH     {r4-r10,lr}
        0x0000d084:    460e        .F      MOV      r6,r1
        0x0000d086:    4615        .F      MOV      r5,r2
        0x0000d088:    9908        ..      LDR      r1,[sp,#0x20]
        0x0000d08a:    6832        2h      LDR      r2,[r6,#0]
        0x0000d08c:    461c        .F      MOV      r4,r3
        0x0000d08e:    2900        .)      CMP      r1,#0
        0x0000d090:    ea020105    ....    AND      r1,r2,r5
        0x0000d094:    d024        $.      BEQ      0xd0e0 ; am_hal_flash_delay_status_check + 96
        0x0000d096:    42a1        .B      CMP      r1,r4
        0x0000d098:    d047        G.      BEQ      0xd12a ; am_hal_flash_delay_status_check + 170
        0x0000d09a:    f2440834    D.4.    MOV      r8,#0x4034
        0x0000d09e:    f2400a9d    @...    MOVW     r10,#0x9d
        0x0000d0a2:    f2c40800    ....    MOVT     r8,#0x4000
        0x0000d0a6:    1c47        G.      ADDS     r7,r0,#1
        0x0000d0a8:    f04f0910    O...    MOV      r9,#0x10
        0x0000d0ac:    f6c00a00    ....    MOVT     r10,#0x800
        0x0000d0b0:    3f01        .?      SUBS     r7,#1
        0x0000d0b2:    d03d        =.      BEQ      0xd130 ; am_hal_flash_delay_status_check + 176
        0x0000d0b4:    f8d80000    ....    LDR      r0,[r8,#0]
        0x0000d0b8:    f3c00180    ....    UBFX     r1,r0,#2,#1
        0x0000d0bc:    f0100f04    ....    TST      r0,#4
        0x0000d0c0:    f06f000d    o...    MVN      r0,#0xd
        0x0000d0c4:    bf08        ..      IT       EQ
        0x0000d0c6:    f06f000a    o...    MVNEQ    r0,#0xa
        0x0000d0ca:    fa09f101    ....    LSL      r1,r9,r1
        0x0000d0ce:    4408        .D      ADD      r0,r0,r1
        0x0000d0d0:    47d0        .G      BLX      r10
        0x0000d0d2:    6830        0h      LDR      r0,[r6,#0]
        0x0000d0d4:    4028        (@      ANDS     r0,r0,r5
        0x0000d0d6:    42a0        .B      CMP      r0,r4
        0x0000d0d8:    d1ea        ..      BNE      0xd0b0 ; am_hal_flash_delay_status_check + 48
        0x0000d0da:    2000        .       MOVS     r0,#0
        0x0000d0dc:    e8bd87f0    ....    POP      {r4-r10,pc}
        0x0000d0e0:    42a1        .B      CMP      r1,r4
        0x0000d0e2:    bf1c        ..      ITT      NE
        0x0000d0e4:    2000        .       MOVNE    r0,#0
        0x0000d0e6:    e8bd87f0    ....    POPNE    {r4-r10,pc}
        0x0000d0ea:    f2440834    D.4.    MOV      r8,#0x4034
        0x0000d0ee:    f2400a9d    @...    MOVW     r10,#0x9d
        0x0000d0f2:    f2c40800    ....    MOVT     r8,#0x4000
        0x0000d0f6:    1c47        G.      ADDS     r7,r0,#1
        0x0000d0f8:    f04f0910    O...    MOV      r9,#0x10
        0x0000d0fc:    f6c00a00    ....    MOVT     r10,#0x800
        0x0000d100:    3f01        .?      SUBS     r7,#1
        0x0000d102:    d015        ..      BEQ      0xd130 ; am_hal_flash_delay_status_check + 176
        0x0000d104:    f8d80000    ....    LDR      r0,[r8,#0]
        0x0000d108:    f3c00180    ....    UBFX     r1,r0,#2,#1
        0x0000d10c:    f0100f04    ....    TST      r0,#4
        0x0000d110:    f06f000d    o...    MVN      r0,#0xd
        0x0000d114:    bf08        ..      IT       EQ
        0x0000d116:    f06f000a    o...    MVNEQ    r0,#0xa
        0x0000d11a:    fa09f101    ....    LSL      r1,r9,r1
        0x0000d11e:    4408        .D      ADD      r0,r0,r1
        0x0000d120:    47d0        .G      BLX      r10
        0x0000d122:    6830        0h      LDR      r0,[r6,#0]
        0x0000d124:    4028        (@      ANDS     r0,r0,r5
        0x0000d126:    42a0        .B      CMP      r0,r4
        0x0000d128:    d0ea        ..      BEQ      0xd100 ; am_hal_flash_delay_status_check + 128
        0x0000d12a:    2000        .       MOVS     r0,#0
        0x0000d12c:    e8bd87f0    ....    POP      {r4-r10,pc}
        0x0000d130:    2004        .       MOVS     r0,#4
        0x0000d132:    e8bd87f0    ....    POP      {r4-r10,pc}
        0x0000d136:    0000        ..      MOVS     r0,r0
    am_hal_flash_load_ui32
        0x0000d138:    2175        u!      MOVS     r1,#0x75
        0x0000d13a:    f6c00100    ....    MOVT     r1,#0x800
        0x0000d13e:    4708        .G      BX       r1
    am_hal_flash_store_ui32
        0x0000d140:    b580        ..      PUSH     {r7,lr}
        0x0000d142:    b084        ..      SUB      sp,sp,#0x10
        0x0000d144:    f2447270    D.pr    MOV      r2,#0x4770
        0x0000d148:    f6cb7200    ...r    MOVT     r2,#0xbf00
        0x0000d14c:    9203        ..      STR      r2,[sp,#0xc]
        0x0000d14e:    f6460200    F...    MOVW     r2,#0x6800
        0x0000d152:    f6cb7200    ...r    MOVT     r2,#0xbf00
        0x0000d156:    9202        ..      STR      r2,[sp,#8]
        0x0000d158:    f2460201    F...    MOV      r2,#0x6001
        0x0000d15c:    f6cb7200    ...r    MOVT     r2,#0xbf00
        0x0000d160:    9201        ..      STR      r2,[sp,#4]
        0x0000d162:    aa01        ..      ADD      r2,sp,#4
        0x0000d164:    3201        .2      ADDS     r2,#1
        0x0000d166:    4790        .G      BLX      r2
        0x0000d168:    b004        ..      ADD      sp,sp,#0x10
        0x0000d16a:    bd80        ..      POP      {r7,pc}
    am_hal_gpio_pinconfig
        0x0000d16c:    e92d4ff0    -..O    PUSH     {r4-r11,lr}
        0x0000d170:    b087        ..      SUB      sp,sp,#0x1c
        0x0000d172:    2831        1(      CMP      r0,#0x31
        0x0000d174:    d904        ..      BLS      0xd180 ; am_hal_gpio_pinconfig + 20
        0x0000d176:    2506        .%      MOVS     r5,#6
        0x0000d178:    4628        (F      MOV      r0,r5
        0x0000d17a:    b007        ..      ADD      sp,sp,#0x1c
        0x0000d17c:    e8bd8ff0    ....    POP      {r4-r11,pc}
        0x0000d180:    f2401502    @...    MOVW     r5,#0x102
        0x0000d184:    f0010207    ....    AND      r2,r1,#7
        0x0000d188:    f3c11342    ..B.    UBFX     r3,r1,#5,#3
        0x0000d18c:    4604        .F      MOV      r4,r0
        0x0000d18e:    f6c00500    ....    MOVT     r5,#0x800
        0x0000d192:    ea4f00c2    O...    LSL      r0,r2,#3
        0x0000d196:    b1eb        ..      CBZ      r3,0xd1d4 ; am_hal_gpio_pinconfig + 104
        0x0000d198:    f1a10740    ..@.    SUB      r7,r1,#0x40
        0x0000d19c:    b27f        ..      SXTB     r7,r7
        0x0000d19e:    2f00        ./      CMP      r7,#0
        0x0000d1a0:    f0400001    @...    ORR      r0,r0,#1
        0x0000d1a4:    d408        ..      BMI      0xd1b8 ; am_hal_gpio_pinconfig + 76
        0x0000d1a6:    a781        ..      ADR      r7,{pc}+0x206 ; 0xd3ac
        0x0000d1a8:    5d3f        ?]      LDRB     r7,[r7,r4]
        0x0000d1aa:    07ff        ..      LSLS     r7,r7,#31
        0x0000d1ac:    d020         .      BEQ      0xd1f0 ; am_hal_gpio_pinconfig + 132
        0x0000d1ae:    ea401083    @...    ORR      r0,r0,r3,LSL #6
        0x0000d1b2:    3880        .8      SUBS     r0,r0,#0x80
        0x0000d1b4:    e00e        ..      B        0xd1d4 ; am_hal_gpio_pinconfig + 104
        0x0000d1b6:    bf00        ..      NOP      
        0x0000d1b8:    2b06        .+      CMP      r3,#6
        0x0000d1ba:    d107        ..      BNE      0xd1cc ; am_hal_gpio_pinconfig + 96
        0x0000d1bc:    2c14        .,      CMP      r4,#0x14
        0x0000d1be:    d009        ..      BEQ      0xd1d4 ; am_hal_gpio_pinconfig + 104
        0x0000d1c0:    3d01        .=      SUBS     r5,#1
        0x0000d1c2:    4628        (F      MOV      r0,r5
        0x0000d1c4:    b007        ..      ADD      sp,sp,#0x1c
        0x0000d1c6:    e8bd8ff0    ....    POP      {r4-r11,pc}
        0x0000d1ca:    bf00        ..      NOP      
        0x0000d1cc:    2c14        .,      CMP      r4,#0x14
        0x0000d1ce:    bf08        ..      IT       EQ
        0x0000d1d0:    2b01        .+      CMPEQ    r3,#1
        0x0000d1d2:    d00d        ..      BEQ      0xd1f0 ; am_hal_gpio_pinconfig + 132
        0x0000d1d4:    f3c103c1    ....    UBFX     r3,r1,#3,#2
        0x0000d1d8:    b1b3        ..      CBZ      r3,0xd208 ; am_hal_gpio_pinconfig + 156
        0x0000d1da:    2b02        .+      CMP      r3,#2
        0x0000d1dc:    d00e        ..      BEQ      0xd1fc ; am_hal_gpio_pinconfig + 144
        0x0000d1de:    2b01        .+      CMP      r3,#1
        0x0000d1e0:    d1ca        ..      BNE      0xd178 ; am_hal_gpio_pinconfig + 12
        0x0000d1e2:    2c24        $,      CMP      r4,#0x24
        0x0000d1e4:    d001        ..      BEQ      0xd1ea ; am_hal_gpio_pinconfig + 126
        0x0000d1e6:    2c03        .,      CMP      r4,#3
        0x0000d1e8:    d1c6        ..      BNE      0xd178 ; am_hal_gpio_pinconfig + 12
        0x0000d1ea:    f0400040    @.@.    ORR      r0,r0,#0x40
        0x0000d1ee:    e00b        ..      B        0xd208 ; am_hal_gpio_pinconfig + 156
        0x0000d1f0:    3d02        .=      SUBS     r5,#2
        0x0000d1f2:    4628        (F      MOV      r0,r5
        0x0000d1f4:    b007        ..      ADD      sp,sp,#0x1c
        0x0000d1f6:    e8bd8ff0    ....    POP      {r4-r11,pc}
        0x0000d1fa:    bf00        ..      NOP      
        0x0000d1fc:    2c29        ),      CMP      r4,#0x29
        0x0000d1fe:    d001        ..      BEQ      0xd204 ; am_hal_gpio_pinconfig + 152
        0x0000d200:    2c25        %,      CMP      r4,#0x25
        0x0000d202:    d1b9        ..      BNE      0xd178 ; am_hal_gpio_pinconfig + 12
        0x0000d204:    f0400080    @...    ORR      r0,r0,#0x80
        0x0000d208:    f24f131c    O...    MOV      r3,#0xf11c
        0x0000d20c:    f2c00300    ....    MOVT     r3,#0
        0x0000d210:    5d1b        .]      LDRB     r3,[r3,r4]
        0x0000d212:    40d3        .@      LSRS     r3,r3,r2
        0x0000d214:    07db        ..      LSLS     r3,r3,#31
        0x0000d216:    a372        r.      ADR      r3,{pc}+0x1ca ; 0xd3e0
        0x0000d218:    5d1b        .]      LDRB     r3,[r3,r4]
        0x0000d21a:    bf18        ..      IT       NE
        0x0000d21c:    f0400002    @...    ORRNE    r0,r0,#2
        0x0000d220:    4293        .B      CMP      r3,r2
        0x0000d222:    d109        ..      BNE      0xd238 ; am_hal_gpio_pinconfig + 204
        0x0000d224:    0c0b        ..      LSRS     r3,r1,#16
        0x0000d226:    f0030207    ....    AND      r2,r3,#7
        0x0000d22a:    2a07        .*      CMP      r2,#7
        0x0000d22c:    d12a        *.      BNE      0xd284 ; am_hal_gpio_pinconfig + 280
        0x0000d22e:    3501        .5      ADDS     r5,#1
        0x0000d230:    4628        (F      MOV      r0,r5
        0x0000d232:    b007        ..      ADD      sp,sp,#0x1c
        0x0000d234:    e8bd8ff0    ....    POP      {r4-r11,pc}
        0x0000d238:    2202        ."      MOVS     r2,#2
        0x0000d23a:    ea0222d1    ..."    AND      r2,r2,r1,LSR #11
        0x0000d23e:    f3c12307    ...#    UBFX     r3,r1,#8,#8
        0x0000d242:    4310        .C      ORRS     r0,r0,r2
        0x0000d244:    2208        ."      MOVS     r2,#8
        0x0000d246:    f3c30781    ....    UBFX     r7,r3,#2,#2
        0x0000d24a:    ea022291    ..."    AND      r2,r2,r1,LSR #10
        0x0000d24e:    ea420247    B.G.    ORR      r2,r2,r7,LSL #1
        0x0000d252:    3f01        .?      SUBS     r7,#1
        0x0000d254:    1ece        ..      SUBS     r6,r1,#3
        0x0000d256:    fab7f787    ....    CLZ      r7,r7
        0x0000d25a:    fab6f686    ....    CLZ      r6,r6
        0x0000d25e:    097f        ..      LSRS     r7,r7,#5
        0x0000d260:    0976        v.      LSRS     r6,r6,#5
        0x0000d262:    f0030360    ..`.    AND      r3,r3,#0x60
        0x0000d266:    2b40        @+      CMP      r3,#0x40
        0x0000d268:    ea470306    G...    ORR      r3,r7,r6
        0x0000d26c:    9301        ..      STR      r3,[sp,#4]
        0x0000d26e:    bf07        ..      ITTEE    EQ
        0x0000d270:    f3c133c0    ...3    UBFXEQ   r3,r1,#15,#1
        0x0000d274:    ea420c03    B...    ORREQ    r12,r2,r3
        0x0000d278:    f3c13380    ...3    UBFXNE   r3,r1,#14,#1
        0x0000d27c:    eb020c03    ....    ADDNE    r12,r2,r3
        0x0000d280:    e027        '.      B        0xd2d2 ; am_hal_gpio_pinconfig + 358
        0x0000d282:    bf00        ..      NOP      
        0x0000d284:    f3c307c1    ....    UBFX     r7,r3,#3,#2
        0x0000d288:    f24f134e    O.N.    MOV      r3,#0xf14e
        0x0000d28c:    f2c00300    ....    MOVT     r3,#0
        0x0000d290:    f8136024    ..$`    LDRB     r6,[r3,r4,LSL #2]
        0x0000d294:    ea471202    G...    ORR      r2,r7,r2,LSL #4
        0x0000d298:    42b2        .B      CMP      r2,r6
        0x0000d29a:    d101        ..      BNE      0xd2a0 ; am_hal_gpio_pinconfig + 308
        0x0000d29c:    2200        ."      MOVS     r2,#0
        0x0000d29e:    e011        ..      B        0xd2c4 ; am_hal_gpio_pinconfig + 344
        0x0000d2a0:    eb030384    ....    ADD      r3,r3,r4,LSL #2
        0x0000d2a4:    785f        _x      LDRB     r7,[r3,#1]
        0x0000d2a6:    42ba        .B      CMP      r2,r7
        0x0000d2a8:    d102        ..      BNE      0xd2b0 ; am_hal_gpio_pinconfig + 324
        0x0000d2aa:    2202        ."      MOVS     r2,#2
        0x0000d2ac:    e00a        ..      B        0xd2c4 ; am_hal_gpio_pinconfig + 344
        0x0000d2ae:    bf00        ..      NOP      
        0x0000d2b0:    789f        .x      LDRB     r7,[r3,#2]
        0x0000d2b2:    42ba        .B      CMP      r2,r7
        0x0000d2b4:    d102        ..      BNE      0xd2bc ; am_hal_gpio_pinconfig + 336
        0x0000d2b6:    2204        ."      MOVS     r2,#4
        0x0000d2b8:    e004        ..      B        0xd2c4 ; am_hal_gpio_pinconfig + 344
        0x0000d2ba:    bf00        ..      NOP      
        0x0000d2bc:    78db        .x      LDRB     r3,[r3,#3]
        0x0000d2be:    429a        .B      CMP      r2,r3
        0x0000d2c0:    d16e        n.      BNE      0xd3a0 ; am_hal_gpio_pinconfig + 564
        0x0000d2c2:    2206        ."      MOVS     r2,#6
        0x0000d2c4:    2308        .#      MOVS     r3,#8
        0x0000d2c6:    ea034391    ...C    AND      r3,r3,r1,LSR #18
        0x0000d2ca:    eb020c03    ....    ADD      r12,r2,r3
        0x0000d2ce:    2200        ."      MOVS     r2,#0
        0x0000d2d0:    9201        ..      STR      r2,[sp,#4]
        0x0000d2d2:    0a09        ..      LSRS     r1,r1,#8
        0x0000d2d4:    f0010103    ....    AND      r1,r1,#3
        0x0000d2d8:    e8dff001    ....    TBB      [pc,r1]
    $d.2
        0x0000d2dc:    06080209    ....    DCD    101188105
    $t.3
        0x0000d2e0:    f0400004    @...    ORR      r0,r0,#4
        0x0000d2e4:    2100        .!      MOVS     r1,#0
        0x0000d2e6:    e002        ..      B        0xd2ee ; am_hal_gpio_pinconfig + 386
        0x0000d2e8:    f0400004    @...    ORR      r0,r0,#4
        0x0000d2ec:    2101        .!      MOVS     r1,#1
        0x0000d2ee:    f06f0303    o...    MVN      r3,#3
        0x0000d2f2:    ea030254    ..T.    AND      r2,r3,r4,LSR #1
        0x0000d2f6:    231c        .#      MOVS     r3,#0x1c
        0x0000d2f8:    ea030384    ....    AND      r3,r3,r4,LSL #2
        0x0000d2fc:    260f        .&      MOVS     r6,#0xf
        0x0000d2fe:    409e        .@      LSLS     r6,r6,r3
        0x0000d300:    9205        ..      STR      r2,[sp,#0x14]
        0x0000d302:    2218        ."      MOVS     r2,#0x18
        0x0000d304:    43f6        .C      MVNS     r6,r6
        0x0000d306:    ea0202c4    ....    AND      r2,r2,r4,LSL #3
        0x0000d30a:    9604        ..      STR      r6,[sp,#0x10]
        0x0000d30c:    26ff        .&      MOVS     r6,#0xff
        0x0000d30e:    4096        .@      LSLS     r6,r6,r2
        0x0000d310:    f2400a60    @.`.    MOVW     r10,#0x60
        0x0000d314:    ea6f0806    o...    MVN      r8,r6
        0x0000d318:    fa00f602    ....    LSL      r6,r0,r2
        0x0000d31c:    fa01f002    ....    LSL      r0,r1,r2
        0x0000d320:    f2c40a01    ....    MOVT     r10,#0x4001
        0x0000d324:    9003        ..      STR      r0,[sp,#0xc]
        0x0000d326:    fa0cf003    ....    LSL      r0,r12,r3
        0x0000d32a:    f1aa0920    .. .    SUB      r9,r10,#0x20
        0x0000d32e:    f0240703    $...    BIC      r7,r4,#3
        0x0000d332:    f1aa0560    ..`.    SUB      r5,r10,#0x60
        0x0000d336:    f10a0b80    ....    ADD      r11,r10,#0x80
        0x0000d33a:    9002        ..      STR      r0,[sp,#8]
        0x0000d33c:    f000f8c4    ....    BL       am_hal_interrupt_master_disable ; 0xd4c8
        0x0000d340:    9901        ..      LDR      r1,[sp,#4]
        0x0000d342:    9006        ..      STR      r0,[sp,#0x18]
        0x0000d344:    b149        I.      CBZ      r1,0xd35a ; am_hal_gpio_pinconfig + 494
        0x0000d346:    f004001f    ....    AND      r0,r4,#0x1f
        0x0000d34a:    2101        .!      MOVS     r1,#1
        0x0000d34c:    fa01f000    ....    LSL      r0,r1,r0
        0x0000d350:    f3c41140    ..@.    UBFX     r1,r4,#5,#1
        0x0000d354:    eb0a0181    ....    ADD      r1,r10,r1,LSL #2
        0x0000d358:    6548        He      STR      r0,[r1,#0x54]
        0x0000d35a:    2073        s       MOVS     r0,#0x73
        0x0000d35c:    f8ca0000    ....    STR      r0,[r10,#0]
        0x0000d360:    5978        xY      LDR      r0,[r7,r5]
        0x0000d362:    ea000008    ....    AND      r0,r0,r8
        0x0000d366:    4330        0C      ORRS     r0,r0,r6
        0x0000d368:    5178        xQ      STR      r0,[r7,r5]
        0x0000d36a:    9905        ..      LDR      r1,[sp,#0x14]
        0x0000d36c:    2500        .%      MOVS     r5,#0
        0x0000d36e:    f8510009    Q...    LDR      r0,[r1,r9]
        0x0000d372:    9b04        ..      LDR      r3,[sp,#0x10]
        0x0000d374:    4018        .@      ANDS     r0,r0,r3
        0x0000d376:    9b02        ..      LDR      r3,[sp,#8]
        0x0000d378:    4318        .C      ORRS     r0,r0,r3
        0x0000d37a:    f8410009    A...    STR      r0,[r1,r9]
        0x0000d37e:    f857000b    W...    LDR      r0,[r7,r11]
        0x0000d382:    9903        ..      LDR      r1,[sp,#0xc]
        0x0000d384:    ea000008    ....    AND      r0,r0,r8
        0x0000d388:    4308        .C      ORRS     r0,r0,r1
        0x0000d38a:    f847000b    G...    STR      r0,[r7,r11]
        0x0000d38e:    f8ca5000    ...P    STR      r5,[r10,#0]
        0x0000d392:    9806        ..      LDR      r0,[sp,#0x18]
        0x0000d394:    f000f89c    ....    BL       am_hal_interrupt_master_set ; 0xd4d0
        0x0000d398:    4628        (F      MOV      r0,r5
        0x0000d39a:    b007        ..      ADD      sp,sp,#0x1c
        0x0000d39c:    e8bd8ff0    ....    POP      {r4-r11,pc}
        0x0000d3a0:    3502        .5      ADDS     r5,#2
        0x0000d3a2:    4628        (F      MOV      r0,r5
        0x0000d3a4:    b007        ..      ADD      sp,sp,#0x1c
        0x0000d3a6:    e8bd8ff0    ....    POP      {r4-r11,pc}
        0x0000d3aa:    bf00        ..      NOP      
    $d.4
    g_ui8Bit76Capabilities
        0x0000d3ac:    02800101    ....    DCD    41943297
        0x0000d3b0:    80010180    ....    DCD    2147549568
        0x0000d3b4:    80800101    ....    DCD    2155872513
        0x0000d3b8:    80808080    ....    DCD    2155905152
        0x0000d3bc:    80808080    ....    DCD    2155905152
        0x0000d3c0:    80808008    ....    DCD    2155905032
        0x0000d3c4:    01800180    ....    DCD    25166208
        0x0000d3c8:    80808080    ....    DCD    2155905152
        0x0000d3cc:    80808080    ....    DCD    2155905152
        0x0000d3d0:    01800402    ....    DCD    25166850
        0x0000d3d4:    01010401    ....    DCD    16843777
        0x0000d3d8:    80808080    ....    DCD    2155905152
        0x0000d3dc:    00000101    ....    DCD    257
    g_ui8nCEpins
        0x0000d3e0:    02070707    ....    DCD    34014983
        0x0000d3e4:    00080802    ....    DCD    526338
        0x0000d3e8:    01020202    ....    DCD    16908802
        0x0000d3ec:    01010101    ....    DCD    16843009
        0x0000d3f0:    01010101    ....    DCD    16843009
        0x0000d3f4:    01010101    ....    DCD    16843009
        0x0000d3f8:    01010101    ....    DCD    16843009
        0x0000d3fc:    01010101    ....    DCD    16843009
        0x0000d400:    01010101    ....    DCD    16843009
        0x0000d404:    08010101    ....    DCD    134283521
        0x0000d408:    01010008    ....    DCD    16842760
        0x0000d40c:    01010101    ....    DCD    16843009
        0x0000d410:    00000101    ....    DCD    257
    $t.8
    am_hal_gpio_state_write
        0x0000d414:    b5b0        ..      PUSH     {r4,r5,r7,lr}
        0x0000d416:    b082        ..      SUB      sp,sp,#8
        0x0000d418:    2831        1(      CMP      r0,#0x31
        0x0000d41a:    d903        ..      BLS      0xd424 ; am_hal_gpio_state_write + 16
        0x0000d41c:    2405        .$      MOVS     r4,#5
        0x0000d41e:    4620         F      MOV      r0,r4
        0x0000d420:    b002        ..      ADD      sp,sp,#8
        0x0000d422:    bdb0        ..      POP      {r4,r5,r7,pc}
        0x0000d424:    460d        .F      MOV      r5,r1
        0x0000d426:    2905        .)      CMP      r1,#5
        0x0000d428:    d904        ..      BLS      0xd434 ; am_hal_gpio_state_write + 32
        0x0000d42a:    2406        .$      MOVS     r4,#6
        0x0000d42c:    4620         F      MOV      r0,r4
        0x0000d42e:    b002        ..      ADD      sp,sp,#8
        0x0000d430:    bdb0        ..      POP      {r4,r5,r7,pc}
        0x0000d432:    bf00        ..      NOP      
        0x0000d434:    4604        .F      MOV      r4,r0
        0x0000d436:    f000f847    ..G.    BL       am_hal_interrupt_master_disable ; 0xd4c8
        0x0000d43a:    2d05        .-      CMP      r5,#5
        0x0000d43c:    9001        ..      STR      r0,[sp,#4]
        0x0000d43e:    d841        A.      BHI      0xd4c4 ; am_hal_gpio_state_write + 176
        0x0000d440:    f004001f    ....    AND      r0,r4,#0x1f
        0x0000d444:    2101        .!      MOVS     r1,#1
        0x0000d446:    fa01f000    ....    LSL      r0,r1,r0
        0x0000d44a:    2104        .!      MOVS     r1,#4
        0x0000d44c:    ea0101d4    ....    AND      r1,r1,r4,LSR #3
        0x0000d450:    e8dff005    ....    TBB      [pc,r5]
    $d.9
        0x0000d454:    1e140c04    ....    DCD    504630276
        0x0000d458:    bf002a22    "*..    DCD    3204459042
    $t.10
        0x0000d45c:    22b4        ."      MOVS     r2,#0xb4
        0x0000d45e:    f2c40201    ....    MOVT     r2,#0x4001
        0x0000d462:    4411        .D      ADD      r1,r1,r2
        0x0000d464:    f8410c1c    A...    STR      r0,[r1,#-0x1c]
        0x0000d468:    e024        $.      B        0xd4b4 ; am_hal_gpio_state_write + 160
        0x0000d46a:    bf00        ..      NOP      
        0x0000d46c:    22b4        ."      MOVS     r2,#0xb4
        0x0000d46e:    f2c40201    ....    MOVT     r2,#0x4001
        0x0000d472:    4411        .D      ADD      r1,r1,r2
        0x0000d474:    f8410c24    A.$.    STR      r0,[r1,#-0x24]
        0x0000d478:    e01c        ..      B        0xd4b4 ; am_hal_gpio_state_write + 160
        0x0000d47a:    bf00        ..      NOP      
        0x0000d47c:    22b4        ."      MOVS     r2,#0xb4
        0x0000d47e:    f2c40201    ....    MOVT     r2,#0x4001
        0x0000d482:    4411        .D      ADD      r1,r1,r2
        0x0000d484:    f8512c2c    Q.,,    LDR      r2,[r1,#-0x2c]
        0x0000d488:    4050        P@      EORS     r0,r0,r2
        0x0000d48a:    f8410c2c    A.,.    STR      r0,[r1,#-0x2c]
        0x0000d48e:    e011        ..      B        0xd4b4 ; am_hal_gpio_state_write + 160
        0x0000d490:    22b4        ."      MOVS     r2,#0xb4
        0x0000d492:    f2c40201    ....    MOVT     r2,#0x4001
        0x0000d496:    e00c        ..      B        0xd4b2 ; am_hal_gpio_state_write + 158
        0x0000d498:    22b4        ."      MOVS     r2,#0xb4
        0x0000d49a:    f2c40201    ....    MOVT     r2,#0x4001
        0x0000d49e:    4411        .D      ADD      r1,r1,r2
        0x0000d4a0:    f8410c0c    A...    STR      r0,[r1,#-0xc]
        0x0000d4a4:    e006        ..      B        0xd4b4 ; am_hal_gpio_state_write + 160
        0x0000d4a6:    bf00        ..      NOP      
        0x0000d4a8:    22b4        ."      MOVS     r2,#0xb4
        0x0000d4aa:    f2c40201    ....    MOVT     r2,#0x4001
        0x0000d4ae:    588b        .X      LDR      r3,[r1,r2]
        0x0000d4b0:    4058        X@      EORS     r0,r0,r3
        0x0000d4b2:    5088        .P      STR      r0,[r1,r2]
        0x0000d4b4:    2400        .$      MOVS     r4,#0
        0x0000d4b6:    9801        ..      LDR      r0,[sp,#4]
        0x0000d4b8:    f000f80a    ....    BL       am_hal_interrupt_master_set ; 0xd4d0
        0x0000d4bc:    4620         F      MOV      r0,r4
        0x0000d4be:    b002        ..      ADD      sp,sp,#8
        0x0000d4c0:    bdb0        ..      POP      {r4,r5,r7,pc}
        0x0000d4c2:    bf00        ..      NOP      
        0x0000d4c4:    2406        .$      MOVS     r4,#6
        0x0000d4c6:    e7f6        ..      B        0xd4b6 ; am_hal_gpio_state_write + 162
    am_hal_interrupt_master_disable
        0x0000d4c8:    f3ef8010    ....    MRS      r0,PRIMASK
        0x0000d4cc:    b672        r.      CPSID    i
        0x0000d4ce:    4770        pG      BX       lr
    am_hal_interrupt_master_set
        0x0000d4d0:    f3808810    ....    MSR      PRIMASK,r0
        0x0000d4d4:    4770        pG      BX       lr
        0x0000d4d6:    0000        ..      MOVS     r0,r0
    am_hal_itm_disable
        0x0000d4d8:    e92d41f0    -..A    PUSH     {r4-r8,lr}
        0x0000d4dc:    f2402450    @.P$    MOVW     r4,#0x250
        0x0000d4e0:    f2c40402    ....    MOVT     r4,#0x4002
        0x0000d4e4:    6820         h      LDR      r0,[r4,#0]
        0x0000d4e6:    f64e55fc    N..U    MOV      r5,#0xedfc
        0x0000d4ea:    f6406680    @..f    MOVW     r6,#0xe80
        0x0000d4ee:    f64c6855    L.Uh    MOV      r8,#0xce55
        0x0000d4f2:    f2ce0500    ....    MOVT     r5,#0xe000
        0x0000d4f6:    f2ce0600    ....    MOVT     r6,#0xe000
        0x0000d4fa:    f2cc58ac    ...X    MOVT     r8,#0xc5ac
        0x0000d4fe:    b9f8        ..      CBNZ     r0,0xd540 ; am_hal_itm_disable + 104
        0x0000d500:    6828        (h      LDR      r0,[r5,#0]
        0x0000d502:    f0407080    @..p    ORR      r0,r0,#0x1000000
        0x0000d506:    6028        (`      STR      r0,[r5,#0]
        0x0000d508:    6828        (h      LDR      r0,[r5,#0]
        0x0000d50a:    01c0        ..      LSLS     r0,r0,#7
        0x0000d50c:    d409        ..      BMI      0xd522 ; am_hal_itm_disable + 74
        0x0000d50e:    6828        (h      LDR      r0,[r5,#0]
        0x0000d510:    01c0        ..      LSLS     r0,r0,#7
        0x0000d512:    bf5c        \.      ITT      PL
        0x0000d514:    6828        (h      LDRPL    r0,[r5,#0]
        0x0000d516:    ea5f10c0    _...    LSLSPL   r0,r0,#7
        0x0000d51a:    d402        ..      BMI      0xd522 ; am_hal_itm_disable + 74
        0x0000d51c:    6828        (h      LDR      r0,[r5,#0]
        0x0000d51e:    01c0        ..      LSLS     r0,r0,#7
        0x0000d520:    d5f2        ..      BPL      0xd508 ; am_hal_itm_disable + 48
        0x0000d522:    200f        .       MOVS     r0,#0xf
        0x0000d524:    f8c68130    ..0.    STR      r8,[r6,#0x130]
        0x0000d528:    f8460c40    F.@.    STR      r0,[r6,#-0x40]
        0x0000d52c:    f04f30ff    O..0    MOV      r0,#0xffffffff
        0x0000d530:    f8460c80    F...    STR      r0,[r6,#-0x80]
        0x0000d534:    f2405011    @..P    MOV      r0,#0x511
        0x0000d538:    f2c00015    ....    MOVT     r0,#0x15
        0x0000d53c:    6030        0`      STR      r0,[r6,#0]
        0x0000d53e:    bf00        ..      NOP      
        0x0000d540:    6830        0h      LDR      r0,[r6,#0]
        0x0000d542:    0200        ..      LSLS     r0,r0,#8
        0x0000d544:    d509        ..      BPL      0xd55a ; am_hal_itm_disable + 130
        0x0000d546:    6830        0h      LDR      r0,[r6,#0]
        0x0000d548:    0200        ..      LSLS     r0,r0,#8
        0x0000d54a:    bf44        D.      ITT      MI
        0x0000d54c:    6830        0h      LDRMI    r0,[r6,#0]
        0x0000d54e:    ea5f2000    _..     LSLSMI   r0,r0,#8
        0x0000d552:    d502        ..      BPL      0xd55a ; am_hal_itm_disable + 130
        0x0000d554:    6830        0h      LDR      r0,[r6,#0]
        0x0000d556:    0200        ..      LSLS     r0,r0,#8
        0x0000d558:    d4f2        ..      BMI      0xd540 ; am_hal_itm_disable + 104
        0x0000d55a:    2701        .'      MOVS     r7,#1
        0x0000d55c:    f44f7048    O.Hp    MOV      r0,#0x320
        0x0000d560:    f2c00780    ....    MOVT     r7,#0x80
        0x0000d564:    f7fffd76    ..v.    BL       am_hal_flash_delay ; 0xd054
        0x0000d568:    2000        .       MOVS     r0,#0
        0x0000d56a:    f8c68130    ..0.    STR      r8,[r6,#0x130]
        0x0000d56e:    e002        ..      B        0xd576 ; am_hal_itm_disable + 158
        0x0000d570:    3005        .0      ADDS     r0,#5
        0x0000d572:    2864        d(      CMP      r0,#0x64
        0x0000d574:    d052        R.      BEQ      0xd61c ; am_hal_itm_disable + 324
        0x0000d576:    6831        1h      LDR      r1,[r6,#0]
        0x0000d578:    f0210101    !...    BIC      r1,r1,#1
        0x0000d57c:    6031        1`      STR      r1,[r6,#0]
        0x0000d57e:    bf00        ..      NOP      
        0x0000d580:    6831        1h      LDR      r1,[r6,#0]
        0x0000d582:    4239        9B      TST      r1,r7
        0x0000d584:    d008        ..      BEQ      0xd598 ; am_hal_itm_disable + 192
        0x0000d586:    6831        1h      LDR      r1,[r6,#0]
        0x0000d588:    4239        9B      TST      r1,r7
        0x0000d58a:    d005        ..      BEQ      0xd598 ; am_hal_itm_disable + 192
        0x0000d58c:    6831        1h      LDR      r1,[r6,#0]
        0x0000d58e:    4239        9B      TST      r1,r7
        0x0000d590:    d002        ..      BEQ      0xd598 ; am_hal_itm_disable + 192
        0x0000d592:    6831        1h      LDR      r1,[r6,#0]
        0x0000d594:    4239        9B      TST      r1,r7
        0x0000d596:    d1f3        ..      BNE      0xd580 ; am_hal_itm_disable + 168
        0x0000d598:    6831        1h      LDR      r1,[r6,#0]
        0x0000d59a:    f0210101    !...    BIC      r1,r1,#1
        0x0000d59e:    6031        1`      STR      r1,[r6,#0]
        0x0000d5a0:    6831        1h      LDR      r1,[r6,#0]
        0x0000d5a2:    4239        9B      TST      r1,r7
        0x0000d5a4:    d008        ..      BEQ      0xd5b8 ; am_hal_itm_disable + 224
        0x0000d5a6:    6831        1h      LDR      r1,[r6,#0]
        0x0000d5a8:    4239        9B      TST      r1,r7
        0x0000d5aa:    d005        ..      BEQ      0xd5b8 ; am_hal_itm_disable + 224
        0x0000d5ac:    6831        1h      LDR      r1,[r6,#0]
        0x0000d5ae:    4239        9B      TST      r1,r7
        0x0000d5b0:    d002        ..      BEQ      0xd5b8 ; am_hal_itm_disable + 224
        0x0000d5b2:    6831        1h      LDR      r1,[r6,#0]
        0x0000d5b4:    4239        9B      TST      r1,r7
        0x0000d5b6:    d1f3        ..      BNE      0xd5a0 ; am_hal_itm_disable + 200
        0x0000d5b8:    6831        1h      LDR      r1,[r6,#0]
        0x0000d5ba:    f0210101    !...    BIC      r1,r1,#1
        0x0000d5be:    6031        1`      STR      r1,[r6,#0]
        0x0000d5c0:    6831        1h      LDR      r1,[r6,#0]
        0x0000d5c2:    4239        9B      TST      r1,r7
        0x0000d5c4:    d008        ..      BEQ      0xd5d8 ; am_hal_itm_disable + 256
        0x0000d5c6:    6831        1h      LDR      r1,[r6,#0]
        0x0000d5c8:    4239        9B      TST      r1,r7
        0x0000d5ca:    d005        ..      BEQ      0xd5d8 ; am_hal_itm_disable + 256
        0x0000d5cc:    6831        1h      LDR      r1,[r6,#0]
        0x0000d5ce:    4239        9B      TST      r1,r7
        0x0000d5d0:    d002        ..      BEQ      0xd5d8 ; am_hal_itm_disable + 256
        0x0000d5d2:    6831        1h      LDR      r1,[r6,#0]
        0x0000d5d4:    4239        9B      TST      r1,r7
        0x0000d5d6:    d1f3        ..      BNE      0xd5c0 ; am_hal_itm_disable + 232
        0x0000d5d8:    6831        1h      LDR      r1,[r6,#0]
        0x0000d5da:    f0210101    !...    BIC      r1,r1,#1
        0x0000d5de:    6031        1`      STR      r1,[r6,#0]
        0x0000d5e0:    6831        1h      LDR      r1,[r6,#0]
        0x0000d5e2:    4239        9B      TST      r1,r7
        0x0000d5e4:    d008        ..      BEQ      0xd5f8 ; am_hal_itm_disable + 288
        0x0000d5e6:    6831        1h      LDR      r1,[r6,#0]
        0x0000d5e8:    4239        9B      TST      r1,r7
        0x0000d5ea:    d005        ..      BEQ      0xd5f8 ; am_hal_itm_disable + 288
        0x0000d5ec:    6831        1h      LDR      r1,[r6,#0]
        0x0000d5ee:    4239        9B      TST      r1,r7
        0x0000d5f0:    d002        ..      BEQ      0xd5f8 ; am_hal_itm_disable + 288
        0x0000d5f2:    6831        1h      LDR      r1,[r6,#0]
        0x0000d5f4:    4239        9B      TST      r1,r7
        0x0000d5f6:    d1f3        ..      BNE      0xd5e0 ; am_hal_itm_disable + 264
        0x0000d5f8:    6831        1h      LDR      r1,[r6,#0]
        0x0000d5fa:    f0210101    !...    BIC      r1,r1,#1
        0x0000d5fe:    6031        1`      STR      r1,[r6,#0]
        0x0000d600:    6831        1h      LDR      r1,[r6,#0]
        0x0000d602:    4239        9B      TST      r1,r7
        0x0000d604:    d0b4        ..      BEQ      0xd570 ; am_hal_itm_disable + 152
        0x0000d606:    6831        1h      LDR      r1,[r6,#0]
        0x0000d608:    4239        9B      TST      r1,r7
        0x0000d60a:    d0b1        ..      BEQ      0xd570 ; am_hal_itm_disable + 152
        0x0000d60c:    6831        1h      LDR      r1,[r6,#0]
        0x0000d60e:    4239        9B      TST      r1,r7
        0x0000d610:    d0ae        ..      BEQ      0xd570 ; am_hal_itm_disable + 152
        0x0000d612:    6831        1h      LDR      r1,[r6,#0]
        0x0000d614:    4239        9B      TST      r1,r7
        0x0000d616:    d1f3        ..      BNE      0xd600 ; am_hal_itm_disable + 296
        0x0000d618:    e7aa        ..      B        0xd570 ; am_hal_itm_disable + 152
        0x0000d61a:    bf00        ..      NOP      
        0x0000d61c:    6828        (h      LDR      r0,[r5,#0]
        0x0000d61e:    f0207080     ..p    BIC      r0,r0,#0x1000000
        0x0000d622:    6028        (`      STR      r0,[r5,#0]
        0x0000d624:    6828        (h      LDR      r0,[r5,#0]
        0x0000d626:    01c0        ..      LSLS     r0,r0,#7
        0x0000d628:    d509        ..      BPL      0xd63e ; am_hal_itm_disable + 358
        0x0000d62a:    6828        (h      LDR      r0,[r5,#0]
        0x0000d62c:    01c0        ..      LSLS     r0,r0,#7
        0x0000d62e:    bf44        D.      ITT      MI
        0x0000d630:    6828        (h      LDRMI    r0,[r5,#0]
        0x0000d632:    ea5f10c0    _...    LSLSMI   r0,r0,#7
        0x0000d636:    d502        ..      BPL      0xd63e ; am_hal_itm_disable + 358
        0x0000d638:    6828        (h      LDR      r0,[r5,#0]
        0x0000d63a:    01c0        ..      LSLS     r0,r0,#7
        0x0000d63c:    d4f2        ..      BMI      0xd624 ; am_hal_itm_disable + 332
        0x0000d63e:    2000        .       MOVS     r0,#0
        0x0000d640:    6020         `      STR      r0,[r4,#0]
        0x0000d642:    e006        ..      B        0xd652 ; am_hal_itm_disable + 378
        0x0000d644:    6820         h      LDR      r0,[r4,#0]
        0x0000d646:    2800        .(      CMP      r0,#0
        0x0000d648:    bf08        ..      IT       EQ
        0x0000d64a:    e8bd81f0    ....    POPEQ    {r4-r8,pc}
        0x0000d64e:    6820         h      LDR      r0,[r4,#0]
        0x0000d650:    b120         .      CBZ      r0,0xd65c ; am_hal_itm_disable + 388
        0x0000d652:    6820         h      LDR      r0,[r4,#0]
        0x0000d654:    b110        ..      CBZ      r0,0xd65c ; am_hal_itm_disable + 388
        0x0000d656:    6820         h      LDR      r0,[r4,#0]
        0x0000d658:    2800        .(      CMP      r0,#0
        0x0000d65a:    d1f3        ..      BNE      0xd644 ; am_hal_itm_disable + 364
        0x0000d65c:    e8bd81f0    ....    POP      {r4-r8,pc}
    am_hal_itm_enable
        0x0000d660:    f64e50fc    N..P    MOV      r0,#0xedfc
        0x0000d664:    f2ce0000    ....    MOVT     r0,#0xe000
        0x0000d668:    6801        .h      LDR      r1,[r0,#0]
        0x0000d66a:    f0417180    A..q    ORR      r1,r1,#0x1000000
        0x0000d66e:    6001        .`      STR      r1,[r0,#0]
        0x0000d670:    6801        .h      LDR      r1,[r0,#0]
        0x0000d672:    01c9        ..      LSLS     r1,r1,#7
        0x0000d674:    d409        ..      BMI      0xd68a ; am_hal_itm_enable + 42
        0x0000d676:    6801        .h      LDR      r1,[r0,#0]
        0x0000d678:    01c9        ..      LSLS     r1,r1,#7
        0x0000d67a:    bf5c        \.      ITT      PL
        0x0000d67c:    6801        .h      LDRPL    r1,[r0,#0]
        0x0000d67e:    ea5f11c1    _...    LSLSPL   r1,r1,#7
        0x0000d682:    d402        ..      BMI      0xd68a ; am_hal_itm_enable + 42
        0x0000d684:    6801        .h      LDR      r1,[r0,#0]
        0x0000d686:    01c9        ..      LSLS     r1,r1,#7
        0x0000d688:    d5f2        ..      BPL      0xd670 ; am_hal_itm_enable + 16
        0x0000d68a:    f6406000    @..`    MOVW     r0,#0xe00
        0x0000d68e:    f64c6155    L.Ua    MOV      r1,#0xce55
        0x0000d692:    f2ce0000    ....    MOVT     r0,#0xe000
        0x0000d696:    f2cc51ac    ...Q    MOVT     r1,#0xc5ac
        0x0000d69a:    f8c011b0    ....    STR      r1,[r0,#0x1b0]
        0x0000d69e:    210f        .!      MOVS     r1,#0xf
        0x0000d6a0:    6401        .d      STR      r1,[r0,#0x40]
        0x0000d6a2:    f04f31ff    O..1    MOV      r1,#0xffffffff
        0x0000d6a6:    6001        .`      STR      r1,[r0,#0]
        0x0000d6a8:    f2405111    @..Q    MOV      r1,#0x511
        0x0000d6ac:    f2c00115    ....    MOVT     r1,#0x15
        0x0000d6b0:    f8c01080    ....    STR      r1,[r0,#0x80]
        0x0000d6b4:    4770        pG      BX       lr
        0x0000d6b6:    0000        ..      MOVS     r0,r0
    am_hal_itm_print
        0x0000d6b8:    b510        ..      PUSH     {r4,lr}
        0x0000d6ba:    f04f31ff    O..1    MOV      r1,#0xffffffff
        0x0000d6be:    bf00        ..      NOP      
        0x0000d6c0:    1842        B.      ADDS     r2,r0,r1
        0x0000d6c2:    7853        Sx      LDRB     r3,[r2,#1]
        0x0000d6c4:    b143        C.      CBZ      r3,0xd6d8 ; am_hal_itm_print + 32
        0x0000d6c6:    7893        .x      LDRB     r3,[r2,#2]
        0x0000d6c8:    b153        S.      CBZ      r3,0xd6e0 ; am_hal_itm_print + 40
        0x0000d6ca:    78d3        .x      LDRB     r3,[r2,#3]
        0x0000d6cc:    b333        3.      CBZ      r3,0xd71c ; am_hal_itm_print + 100
        0x0000d6ce:    7912        .y      LDRB     r2,[r2,#4]
        0x0000d6d0:    3104        .1      ADDS     r1,#4
        0x0000d6d2:    2a00        .*      CMP      r2,#0
        0x0000d6d4:    d1f4        ..      BNE      0xd6c0 ; am_hal_itm_print + 8
        0x0000d6d6:    e004        ..      B        0xd6e2 ; am_hal_itm_print + 42
        0x0000d6d8:    3101        .1      ADDS     r1,#1
        0x0000d6da:    b919        ..      CBNZ     r1,0xd6e4 ; am_hal_itm_print + 44
        0x0000d6dc:    e021        !.      B        0xd722 ; am_hal_itm_print + 106
        0x0000d6de:    bf00        ..      NOP      
        0x0000d6e0:    3102        .1      ADDS     r1,#2
        0x0000d6e2:    b1f1        ..      CBZ      r1,0xd722 ; am_hal_itm_print + 106
        0x0000d6e4:    f0110e03    ....    ANDS     lr,r1,#3
        0x0000d6e8:    f1a10c01    ....    SUB      r12,r1,#1
        0x0000d6ec:    d040        @.      BEQ      0xd770 ; am_hal_itm_print + 184
        0x0000d6ee:    7802        .x      LDRB     r2,[r0,#0]
        0x0000d6f0:    f04f4360    O.`C    MOV      r3,#0xe0000000
        0x0000d6f4:    681c        .h      LDR      r4,[r3,#0]
        0x0000d6f6:    b934        4.      CBNZ     r4,0xd706 ; am_hal_itm_print + 78
        0x0000d6f8:    681c        .h      LDR      r4,[r3,#0]
        0x0000d6fa:    b924        $.      CBNZ     r4,0xd706 ; am_hal_itm_print + 78
        0x0000d6fc:    681c        .h      LDR      r4,[r3,#0]
        0x0000d6fe:    b914        ..      CBNZ     r4,0xd706 ; am_hal_itm_print + 78
        0x0000d700:    681c        .h      LDR      r4,[r3,#0]
        0x0000d702:    2c00        .,      CMP      r4,#0
        0x0000d704:    d0f6        ..      BEQ      0xd6f4 ; am_hal_itm_print + 60
        0x0000d706:    1c44        D.      ADDS     r4,r0,#1
        0x0000d708:    f04f4360    O.`C    MOV      r3,#0xe0000000
        0x0000d70c:    f1be0f01    ....    CMP      lr,#1
        0x0000d710:    701a        .p      STRB     r2,[r3,#0]
        0x0000d712:    d107        ..      BNE      0xd724 ; am_hal_itm_print + 108
        0x0000d714:    4661        aF      MOV      r1,r12
        0x0000d716:    4620         F      MOV      r0,r4
        0x0000d718:    e02a        *.      B        0xd770 ; am_hal_itm_print + 184
        0x0000d71a:    bf00        ..      NOP      
        0x0000d71c:    3103        .1      ADDS     r1,#3
        0x0000d71e:    2900        .)      CMP      r1,#0
        0x0000d720:    d1e0        ..      BNE      0xd6e4 ; am_hal_itm_print + 44
        0x0000d722:    bd10        ..      POP      {r4,pc}
        0x0000d724:    7822        "x      LDRB     r2,[r4,#0]
        0x0000d726:    bf00        ..      NOP      
        0x0000d728:    681c        .h      LDR      r4,[r3,#0]
        0x0000d72a:    b934        4.      CBNZ     r4,0xd73a ; am_hal_itm_print + 130
        0x0000d72c:    681c        .h      LDR      r4,[r3,#0]
        0x0000d72e:    b924        $.      CBNZ     r4,0xd73a ; am_hal_itm_print + 130
        0x0000d730:    681c        .h      LDR      r4,[r3,#0]
        0x0000d732:    b914        ..      CBNZ     r4,0xd73a ; am_hal_itm_print + 130
        0x0000d734:    681c        .h      LDR      r4,[r3,#0]
        0x0000d736:    2c00        .,      CMP      r4,#0
        0x0000d738:    d0f6        ..      BEQ      0xd728 ; am_hal_itm_print + 112
        0x0000d73a:    1c84        ..      ADDS     r4,r0,#2
        0x0000d73c:    f04f4360    O.`C    MOV      r3,#0xe0000000
        0x0000d740:    f1be0f02    ....    CMP      lr,#2
        0x0000d744:    701a        .p      STRB     r2,[r3,#0]
        0x0000d746:    d103        ..      BNE      0xd750 ; am_hal_itm_print + 152
        0x0000d748:    3902        .9      SUBS     r1,#2
        0x0000d74a:    4620         F      MOV      r0,r4
        0x0000d74c:    e010        ..      B        0xd770 ; am_hal_itm_print + 184
        0x0000d74e:    bf00        ..      NOP      
        0x0000d750:    7822        "x      LDRB     r2,[r4,#0]
        0x0000d752:    bf00        ..      NOP      
        0x0000d754:    681c        .h      LDR      r4,[r3,#0]
        0x0000d756:    b934        4.      CBNZ     r4,0xd766 ; am_hal_itm_print + 174
        0x0000d758:    681c        .h      LDR      r4,[r3,#0]
        0x0000d75a:    b924        $.      CBNZ     r4,0xd766 ; am_hal_itm_print + 174
        0x0000d75c:    681c        .h      LDR      r4,[r3,#0]
        0x0000d75e:    b914        ..      CBNZ     r4,0xd766 ; am_hal_itm_print + 174
        0x0000d760:    681c        .h      LDR      r4,[r3,#0]
        0x0000d762:    2c00        .,      CMP      r4,#0
        0x0000d764:    d0f6        ..      BEQ      0xd754 ; am_hal_itm_print + 156
        0x0000d766:    3003        .0      ADDS     r0,#3
        0x0000d768:    f04f4360    O.`C    MOV      r3,#0xe0000000
        0x0000d76c:    3903        .9      SUBS     r1,#3
        0x0000d76e:    701a        .p      STRB     r2,[r3,#0]
        0x0000d770:    f1bc0f03    ....    CMP      r12,#3
        0x0000d774:    bf38        8.      IT       CC
        0x0000d776:    bd10        ..      POPCC    {r4,pc}
        0x0000d778:    f04f4260    O.`B    MOV      r2,#0xe0000000
        0x0000d77c:    e004        ..      B        0xd788 ; am_hal_itm_print + 208
        0x0000d77e:    bf00        ..      NOP      
        0x0000d780:    3004        .0      ADDS     r0,#4
        0x0000d782:    3904        .9      SUBS     r1,#4
        0x0000d784:    7013        .p      STRB     r3,[r2,#0]
        0x0000d786:    d0cc        ..      BEQ      0xd722 ; am_hal_itm_print + 106
        0x0000d788:    7803        .x      LDRB     r3,[r0,#0]
        0x0000d78a:    bf00        ..      NOP      
        0x0000d78c:    6814        .h      LDR      r4,[r2,#0]
        0x0000d78e:    b934        4.      CBNZ     r4,0xd79e ; am_hal_itm_print + 230
        0x0000d790:    6814        .h      LDR      r4,[r2,#0]
        0x0000d792:    b924        $.      CBNZ     r4,0xd79e ; am_hal_itm_print + 230
        0x0000d794:    6814        .h      LDR      r4,[r2,#0]
        0x0000d796:    b914        ..      CBNZ     r4,0xd79e ; am_hal_itm_print + 230
        0x0000d798:    6814        .h      LDR      r4,[r2,#0]
        0x0000d79a:    2c00        .,      CMP      r4,#0
        0x0000d79c:    d0f6        ..      BEQ      0xd78c ; am_hal_itm_print + 212
        0x0000d79e:    7013        .p      STRB     r3,[r2,#0]
        0x0000d7a0:    7843        Cx      LDRB     r3,[r0,#1]
        0x0000d7a2:    bf00        ..      NOP      
        0x0000d7a4:    6814        .h      LDR      r4,[r2,#0]
        0x0000d7a6:    b934        4.      CBNZ     r4,0xd7b6 ; am_hal_itm_print + 254
        0x0000d7a8:    6814        .h      LDR      r4,[r2,#0]
        0x0000d7aa:    b924        $.      CBNZ     r4,0xd7b6 ; am_hal_itm_print + 254
        0x0000d7ac:    6814        .h      LDR      r4,[r2,#0]
        0x0000d7ae:    b914        ..      CBNZ     r4,0xd7b6 ; am_hal_itm_print + 254
        0x0000d7b0:    6814        .h      LDR      r4,[r2,#0]
        0x0000d7b2:    2c00        .,      CMP      r4,#0
        0x0000d7b4:    d0f6        ..      BEQ      0xd7a4 ; am_hal_itm_print + 236
        0x0000d7b6:    7013        .p      STRB     r3,[r2,#0]
        0x0000d7b8:    7883        .x      LDRB     r3,[r0,#2]
        0x0000d7ba:    bf00        ..      NOP      
        0x0000d7bc:    6814        .h      LDR      r4,[r2,#0]
        0x0000d7be:    b934        4.      CBNZ     r4,0xd7ce ; am_hal_itm_print + 278
        0x0000d7c0:    6814        .h      LDR      r4,[r2,#0]
        0x0000d7c2:    b924        $.      CBNZ     r4,0xd7ce ; am_hal_itm_print + 278
        0x0000d7c4:    6814        .h      LDR      r4,[r2,#0]
        0x0000d7c6:    b914        ..      CBNZ     r4,0xd7ce ; am_hal_itm_print + 278
        0x0000d7c8:    6814        .h      LDR      r4,[r2,#0]
        0x0000d7ca:    2c00        .,      CMP      r4,#0
        0x0000d7cc:    d0f6        ..      BEQ      0xd7bc ; am_hal_itm_print + 260
        0x0000d7ce:    7013        .p      STRB     r3,[r2,#0]
        0x0000d7d0:    78c3        .x      LDRB     r3,[r0,#3]
        0x0000d7d2:    bf00        ..      NOP      
        0x0000d7d4:    6814        .h      LDR      r4,[r2,#0]
        0x0000d7d6:    2c00        .,      CMP      r4,#0
        0x0000d7d8:    d1d2        ..      BNE      0xd780 ; am_hal_itm_print + 200
        0x0000d7da:    6814        .h      LDR      r4,[r2,#0]
        0x0000d7dc:    2c00        .,      CMP      r4,#0
        0x0000d7de:    d1cf        ..      BNE      0xd780 ; am_hal_itm_print + 200
        0x0000d7e0:    6814        .h      LDR      r4,[r2,#0]
        0x0000d7e2:    2c00        .,      CMP      r4,#0
        0x0000d7e4:    d1cc        ..      BNE      0xd780 ; am_hal_itm_print + 200
        0x0000d7e6:    6814        .h      LDR      r4,[r2,#0]
        0x0000d7e8:    2c00        .,      CMP      r4,#0
        0x0000d7ea:    d0f3        ..      BEQ      0xd7d4 ; am_hal_itm_print + 284
        0x0000d7ec:    e7c8        ..      B        0xd780 ; am_hal_itm_print + 200
        0x0000d7ee:    0000        ..      MOVS     r0,r0
    am_hal_mcuctrl_info_get
        0x0000d7f0:    b1e1        ..      CBZ      r1,0xd82c ; am_hal_mcuctrl_info_get + 60
        0x0000d7f2:    2802        .(      CMP      r0,#2
        0x0000d7f4:    d01c        ..      BEQ      0xd830 ; am_hal_mcuctrl_info_get + 64
        0x0000d7f6:    2801        .(      CMP      r0,#1
        0x0000d7f8:    d038        8.      BEQ      0xd86c ; am_hal_mcuctrl_info_get + 124
        0x0000d7fa:    b9b8        ..      CBNZ     r0,0xd82c ; am_hal_mcuctrl_info_get + 60
        0x0000d7fc:    2014        .       MOVS     r0,#0x14
        0x0000d7fe:    f2c40002    ....    MOVT     r0,#0x4002
        0x0000d802:    6842        Bh      LDR      r2,[r0,#4]
        0x0000d804:    f3c21380    ....    UBFX     r3,r2,#6,#1
        0x0000d808:    f3c20280    ....    UBFX     r2,r2,#2,#1
        0x0000d80c:    700b        .p      STRB     r3,[r1,#0]
        0x0000d80e:    704a        Jp      STRB     r2,[r1,#1]
        0x0000d810:    f8d0218c    ...!    LDR      r2,[r0,#0x18c]
        0x0000d814:    f3c26281    ...b    UBFX     r2,r2,#26,#2
        0x0000d818:    710a        .q      STRB     r2,[r1,#4]
        0x0000d81a:    6800        .h      LDR      r0,[r0,#0]
        0x0000d81c:    f3c00240    ..@.    UBFX     r2,r0,#1,#1
        0x0000d820:    f0000001    ....    AND      r0,r0,#1
        0x0000d824:    70c8        .p      STRB     r0,[r1,#3]
        0x0000d826:    2000        .       MOVS     r0,#0
        0x0000d828:    708a        .p      STRB     r2,[r1,#2]
        0x0000d82a:    4770        pG      BX       lr
        0x0000d82c:    2006        .       MOVS     r0,#6
        0x0000d82e:    4770        pG      BX       lr
        0x0000d830:    2014        .       MOVS     r0,#0x14
        0x0000d832:    f2c40002    ....    MOVT     r0,#0x4002
        0x0000d836:    f8d021b8    ...!    LDR      r2,[r0,#0x1b8]
        0x0000d83a:    f0020301    ....    AND      r3,r2,#1
        0x0000d83e:    700b        .p      STRB     r3,[r1,#0]
        0x0000d840:    f3c20340    ..@.    UBFX     r3,r2,#1,#1
        0x0000d844:    f3c20280    ....    UBFX     r2,r2,#2,#1
        0x0000d848:    720b        .r      STRB     r3,[r1,#8]
        0x0000d84a:    740a        .t      STRB     r2,[r1,#0x10]
        0x0000d84c:    f8d021b0    ...!    LDR      r2,[r0,#0x1b0]
        0x0000d850:    60ca        .`      STR      r2,[r1,#0xc]
        0x0000d852:    f8d021ac    ...!    LDR      r2,[r0,#0x1ac]
        0x0000d856:    684b        Kh      LDR      r3,[r1,#4]
        0x0000d858:    431a        .C      ORRS     r2,r2,r3
        0x0000d85a:    604a        J`      STR      r2,[r1,#4]
        0x0000d85c:    f8d001b4    ....    LDR      r0,[r0,#0x1b4]
        0x0000d860:    694a        Ji      LDR      r2,[r1,#0x14]
        0x0000d862:    4310        .C      ORRS     r0,r0,r2
        0x0000d864:    6148        Ha      STR      r0,[r1,#0x14]
        0x0000d866:    2000        .       MOVS     r0,#0
        0x0000d868:    4770        pG      BX       lr
        0x0000d86a:    bf00        ..      NOP      
        0x0000d86c:    2014        .       MOVS     r0,#0x14
        0x0000d86e:    f2c40002    ....    MOVT     r0,#0x4002
        0x0000d872:    f8502c14    P..,    LDR      r2,[r0,#-0x14]
        0x0000d876:    600a        .`      STR      r2,[r1,#0]
        0x0000d878:    f8503c10    P..<    LDR      r3,[r0,#-0x10]
        0x0000d87c:    604b        K`      STR      r3,[r1,#4]
        0x0000d87e:    f8503c0c    P..<    LDR      r3,[r0,#-0xc]
        0x0000d882:    608b        .`      STR      r3,[r1,#8]
        0x0000d884:    f8503c08    P..<    LDR      r3,[r0,#-8]
        0x0000d888:    60cb        .`      STR      r3,[r1,#0xc]
        0x0000d88a:    f8503c04    P..<    LDR      r3,[r0,#-4]
        0x0000d88e:    610b        .a      STR      r3,[r1,#0x10]
        0x0000d890:    6800        .h      LDR      r0,[r0,#0]
        0x0000d892:    f24f039c    O...    MOV      r3,#0xf09c
        0x0000d896:    6148        Ha      STR      r0,[r1,#0x14]
        0x0000d898:    2001        .       MOVS     r0,#1
        0x0000d89a:    6188        .a      STR      r0,[r1,#0x18]
        0x0000d89c:    f3c25003    ...P    UBFX     r0,r2,#20,#4
        0x0000d8a0:    f2c00300    ....    MOVT     r3,#0
        0x0000d8a4:    f8530020    S. .    LDR      r0,[r3,r0,LSL #2]
        0x0000d8a8:    f24f03dc    O...    MOV      r3,#0xf0dc
        0x0000d8ac:    f3c24203    ...B    UBFX     r2,r2,#16,#4
        0x0000d8b0:    f2c00300    ....    MOVT     r3,#0
        0x0000d8b4:    f8532022    S."     LDR      r2,[r3,r2,LSL #2]
        0x0000d8b8:    e9c10207    ....    STRD     r0,r2,[r1,#0x1c]
        0x0000d8bc:    f64070e4    @..p    MOV      r0,#0xfe4
        0x0000d8c0:    f2cf0000    ....    MOVT     r0,#0xf000
        0x0000d8c4:    f8502c04    P..,    LDR      r2,[r0,#-4]
        0x0000d8c8:    b2d2        ..      UXTB     r2,r2
        0x0000d8ca:    624a        Jb      STR      r2,[r1,#0x24]
        0x0000d8cc:    6803        .h      LDR      r3,[r0,#0]
        0x0000d8ce:    f363220b    c.."    BFI      r2,r3,#8,#4
        0x0000d8d2:    624a        Jb      STR      r2,[r1,#0x24]
        0x0000d8d4:    6802        .h      LDR      r2,[r0,#0]
        0x0000d8d6:    f3c21203    ....    UBFX     r2,r2,#4,#4
        0x0000d8da:    628a        .b      STR      r2,[r1,#0x28]
        0x0000d8dc:    6843        Ch      LDR      r3,[r0,#4]
        0x0000d8de:    f3631207    c...    BFI      r2,r3,#4,#4
        0x0000d8e2:    628a        .b      STR      r2,[r1,#0x28]
        0x0000d8e4:    6842        Bh      LDR      r2,[r0,#4]
        0x0000d8e6:    f00202f0    ....    AND      r2,r2,#0xf0
        0x0000d8ea:    62ca        .b      STR      r2,[r1,#0x2c]
        0x0000d8ec:    6883        .h      LDR      r3,[r0,#8]
        0x0000d8ee:    f3c31303    ....    UBFX     r3,r3,#4,#4
        0x0000d8f2:    441a        .D      ADD      r2,r2,r3
        0x0000d8f4:    62ca        .b      STR      r2,[r1,#0x2c]
        0x0000d8f6:    6982        .i      LDR      r2,[r0,#0x18]
        0x0000d8f8:    0612        ..      LSLS     r2,r2,#24
        0x0000d8fa:    630a        .c      STR      r2,[r1,#0x30]
        0x0000d8fc:    6943        Ci      LDR      r3,[r0,#0x14]
        0x0000d8fe:    f3634217    c..B    BFI      r2,r3,#16,#8
        0x0000d902:    630a        .c      STR      r2,[r1,#0x30]
        0x0000d904:    6903        .i      LDR      r3,[r0,#0x10]
        0x0000d906:    f363220f    c.."    BFI      r2,r3,#8,#8
        0x0000d90a:    630a        .c      STR      r2,[r1,#0x30]
        0x0000d90c:    68c0        .h      LDR      r0,[r0,#0xc]
        0x0000d90e:    b2c0        ..      UXTB     r0,r0
        0x0000d910:    4410        .D      ADD      r0,r0,r2
        0x0000d912:    6308        .c      STR      r0,[r1,#0x30]
        0x0000d914:    2000        .       MOVS     r0,#0
        0x0000d916:    4770        pG      BX       lr
    am_hal_pwrctrl_low_power_init
        0x0000d918:    b5f0        ..      PUSH     {r4-r7,lr}
        0x0000d91a:    b083        ..      SUB      sp,sp,#0xc
        0x0000d91c:    f24100a0    A...    MOVW     r0,#0x10a0
        0x0000d920:    f2c10000    ....    MOVT     r0,#0x1000
        0x0000d924:    6801        .h      LDR      r1,[r0,#0]
        0x0000d926:    b929        ).      CBNZ     r1,0xd934 ; am_hal_pwrctrl_low_power_init + 28
        0x0000d928:    f24f0100    O...    MOVW     r1,#0xf000
        0x0000d92c:    f6c471ff    ...q    MOVT     r1,#0x4fff
        0x0000d930:    6809        .h      LDR      r1,[r1,#0]
        0x0000d932:    6001        .`      STR      r1,[r0,#0]
        0x0000d934:    f2403558    @.X5    MOVW     r5,#0x358
        0x0000d938:    f64f46b4    O..F    MOV      r6,#0xfcb4
        0x0000d93c:    f2c40502    ....    MOVT     r5,#0x4002
        0x0000d940:    f6cf76ff    ...v    MOVT     r6,#0xffff
        0x0000d944:    59a8        .Y      LDR      r0,[r5,r6]
        0x0000d946:    f2410700    A...    MOVW     r7,#0x1000
        0x0000d94a:    b2c0        ..      UXTB     r0,r0
        0x0000d94c:    2812        .(      CMP      r0,#0x12
        0x0000d94e:    f2c40702    ....    MOVT     r7,#0x4002
        0x0000d952:    d10b        ..      BNE      0xd96c ; am_hal_pwrctrl_low_power_init + 84
        0x0000d954:    6878        xh      LDR      r0,[r7,#4]
        0x0000d956:    07c0        ..      LSLS     r0,r0,#31
        0x0000d958:    d008        ..      BEQ      0xd96c ; am_hal_pwrctrl_low_power_init + 84
        0x0000d95a:    200d        .       MOVS     r0,#0xd
        0x0000d95c:    f000f8e0    ....    BL       am_hal_pwrctrl_periph_enable ; 0xdb20
        0x0000d960:    4604        .F      MOV      r4,r0
        0x0000d962:    b118        ..      CBZ      r0,0xd96c ; am_hal_pwrctrl_low_power_init + 84
        0x0000d964:    4620         F      MOV      r0,r4
        0x0000d966:    b003        ..      ADD      sp,sp,#0xc
        0x0000d968:    bdf0        ..      POP      {r4-r7,pc}
        0x0000d96a:    bf00        ..      NOP      
        0x0000d96c:    59a8        .Y      LDR      r0,[r5,r6]
        0x0000d96e:    b2c0        ..      UXTB     r0,r0
        0x0000d970:    2821        !(      CMP      r0,#0x21
        0x0000d972:    d328        (.      BCC      0xd9c6 ; am_hal_pwrctrl_low_power_init + 174
        0x0000d974:    f8550c04    U...    LDR      r0,[r5,#-4]
        0x0000d978:    2102        .!      MOVS     r1,#2
        0x0000d97a:    f3614013    a..@    BFI      r0,r1,#16,#4
        0x0000d97e:    f8450c04    E...    STR      r0,[r5,#-4]
        0x0000d982:    f8552c04    U..,    LDR      r2,[r5,#-4]
        0x0000d986:    2003        .       MOVS     r0,#3
        0x0000d988:    f3605217    `..R    BFI      r2,r0,#20,#4
        0x0000d98c:    f8452c04    E..,    STR      r2,[r5,#-4]
        0x0000d990:    682a        *h      LDR      r2,[r5,#0]
        0x0000d992:    2305        .#      MOVS     r3,#5
        0x0000d994:    f3630203    c...    BFI      r2,r3,#0,#4
        0x0000d998:    602a        *`      STR      r2,[r5,#0]
        0x0000d99a:    682a        *h      LDR      r2,[r5,#0]
        0x0000d99c:    f3611207    a...    BFI      r2,r1,#4,#4
        0x0000d9a0:    602a        *`      STR      r2,[r5,#0]
        0x0000d9a2:    6829        )h      LDR      r1,[r5,#0]
        0x0000d9a4:    2206        ."      MOVS     r2,#6
        0x0000d9a6:    f362210b    b..!    BFI      r1,r2,#8,#4
        0x0000d9aa:    6029        )`      STR      r1,[r5,#0]
        0x0000d9ac:    6829        )h      LDR      r1,[r5,#0]
        0x0000d9ae:    2201        ."      MOVS     r2,#1
        0x0000d9b0:    f362310f    b..1    BFI      r1,r2,#12,#4
        0x0000d9b4:    6029        )`      STR      r1,[r5,#0]
        0x0000d9b6:    6829        )h      LDR      r1,[r5,#0]
        0x0000d9b8:    f36061de    `..a    BFI      r1,r0,#27,#4
        0x0000d9bc:    6029        )`      STR      r1,[r5,#0]
        0x0000d9be:    6869        ih      LDR      r1,[r5,#4]
        0x0000d9c0:    f3600103    `...    BFI      r1,r0,#0,#4
        0x0000d9c4:    6069        i`      STR      r1,[r5,#4]
        0x0000d9c6:    59a8        .Y      LDR      r0,[r5,r6]
        0x0000d9c8:    f00000fe    ....    AND      r0,r0,#0xfe
        0x0000d9cc:    2812        .(      CMP      r0,#0x12
        0x0000d9ce:    d303        ..      BCC      0xd9d8 ; am_hal_pwrctrl_low_power_init + 192
        0x0000d9d0:    6868        hh      LDR      r0,[r5,#4]
        0x0000d9d2:    f0207080     ..p    BIC      r0,r0,#0x1000000
        0x0000d9d6:    6068        h`      STR      r0,[r5,#4]
        0x0000d9d8:    200c        .       MOVS     r0,#0xc
        0x0000d9da:    2100        .!      MOVS     r1,#0
        0x0000d9dc:    2400        .$      MOVS     r4,#0
        0x0000d9de:    f7fefd2f    ../.    BL       am_hal_cachectrl_control ; 0xc440
        0x0000d9e2:    69b8        .i      LDR      r0,[r7,#0x18]
        0x0000d9e4:    05c0        ..      LSLS     r0,r0,#23
        0x0000d9e6:    d4bd        ..      BMI      0xd964 ; am_hal_pwrctrl_low_power_init + 76
        0x0000d9e8:    59a8        .Y      LDR      r0,[r5,r6]
        0x0000d9ea:    f00000fe    ....    AND      r0,r0,#0xfe
        0x0000d9ee:    2812        .(      CMP      r0,#0x12
        0x0000d9f0:    d317        ..      BCC      0xda22 ; am_hal_pwrctrl_low_power_init + 266
        0x0000d9f2:    f7fffd69    ..i.    BL       am_hal_interrupt_master_disable ; 0xd4c8
        0x0000d9f6:    9002        ..      STR      r0,[sp,#8]
        0x0000d9f8:    6928        (i      LDR      r0,[r5,#0x10]
        0x0000d9fa:    2119        .!      MOVS     r1,#0x19
        0x0000d9fc:    f361108b    a...    BFI      r0,r1,#6,#6
        0x0000da00:    6128        (a      STR      r0,[r5,#0x10]
        0x0000da02:    6928        (i      LDR      r0,[r5,#0x10]
        0x0000da04:    210c        .!      MOVS     r1,#0xc
        0x0000da06:    f3610005    a...    BFI      r0,r1,#0,#6
        0x0000da0a:    6128        (a      STR      r0,[r5,#0x10]
        0x0000da0c:    f244003c    D.<.    MOV      r0,#0x403c
        0x0000da10:    f2c40000    ....    MOVT     r0,#0x4000
        0x0000da14:    6801        .h      LDR      r1,[r0,#0]
        0x0000da16:    f4210180    !...    BIC      r1,r1,#0x400000
        0x0000da1a:    6001        .`      STR      r1,[r0,#0]
        0x0000da1c:    9802        ..      LDR      r0,[sp,#8]
        0x0000da1e:    f7fffd57    ..W.    BL       am_hal_interrupt_master_set ; 0xd4d0
        0x0000da22:    f64f40c0    O..@    MOV      r0,#0xfcc0
        0x0000da26:    f6cf70ff    ...p    MOVT     r0,#0xffff
        0x0000da2a:    582a        *X      LDR      r2,[r5,r0]
        0x0000da2c:    f5a57150    ..Pq    SUB      r1,r5,#0x340
        0x0000da30:    f0420201    B...    ORR      r2,r2,#1
        0x0000da34:    502a        *P      STR      r2,[r5,r0]
        0x0000da36:    2401        .$      MOVS     r4,#1
        0x0000da38:    f2427010    B..p    MOV      r0,#0x2710
        0x0000da3c:    2207        ."      MOVS     r2,#7
        0x0000da3e:    2307        .#      MOVS     r3,#7
        0x0000da40:    9400        ..      STR      r4,[sp,#0]
        0x0000da42:    f7fffb1d    ....    BL       am_hal_flash_delay_status_check ; 0xd080
        0x0000da46:    b118        ..      CBZ      r0,0xda50 ; am_hal_pwrctrl_low_power_init + 312
        0x0000da48:    2404        .$      MOVS     r4,#4
        0x0000da4a:    4620         F      MOV      r0,r4
        0x0000da4c:    b003        ..      ADD      sp,sp,#0xc
        0x0000da4e:    bdf0        ..      POP      {r4-r7,pc}
        0x0000da50:    6838        8h      LDR      r0,[r7,#0]
        0x0000da52:    f0400001    @...    ORR      r0,r0,#1
        0x0000da56:    6038        8`      STR      r0,[r7,#0]
        0x0000da58:    6a78        xj      LDR      r0,[r7,#0x24]
        0x0000da5a:    f0400040    @.@.    ORR      r0,r0,#0x40
        0x0000da5e:    6278        xb      STR      r0,[r7,#0x24]
        0x0000da60:    59a8        .Y      LDR      r0,[r5,r6]
        0x0000da62:    b2c0        ..      UXTB     r0,r0
        0x0000da64:    2811        .(      CMP      r0,#0x11
        0x0000da66:    d111        ..      BNE      0xda8c ; am_hal_pwrctrl_low_power_init + 372
        0x0000da68:    6868        hh      LDR      r0,[r5,#4]
        0x0000da6a:    210f        .!      MOVS     r1,#0xf
        0x0000da6c:    f42000c0     ...    BIC      r0,r0,#0x600000
        0x0000da70:    6068        h`      STR      r0,[r5,#4]
        0x0000da72:    6928        (i      LDR      r0,[r5,#0x10]
        0x0000da74:    2400        .$      MOVS     r4,#0
        0x0000da76:    f361108b    a...    BFI      r0,r1,#6,#6
        0x0000da7a:    6128        (a      STR      r0,[r5,#0x10]
        0x0000da7c:    6928        (i      LDR      r0,[r5,#0x10]
        0x0000da7e:    f3610005    a...    BFI      r0,r1,#0,#6
        0x0000da82:    6128        (a      STR      r0,[r5,#0x10]
        0x0000da84:    4620         F      MOV      r0,r4
        0x0000da86:    b003        ..      ADD      sp,sp,#0xc
        0x0000da88:    bdf0        ..      POP      {r4-r7,pc}
        0x0000da8a:    bf00        ..      NOP      
        0x0000da8c:    2400        .$      MOVS     r4,#0
        0x0000da8e:    4620         F      MOV      r0,r4
        0x0000da90:    b003        ..      ADD      sp,sp,#0xc
        0x0000da92:    bdf0        ..      POP      {r4-r7,pc}
    am_hal_pwrctrl_periph_disable
        0x0000da94:    b570        p.      PUSH     {r4-r6,lr}
        0x0000da96:    b082        ..      SUB      sp,sp,#8
        0x0000da98:    f2410508    A...    MOV      r5,#0x1008
        0x0000da9c:    4604        .F      MOV      r4,r0
        0x0000da9e:    f2c40502    ....    MOVT     r5,#0x4002
        0x0000daa2:    f7fffd11    ....    BL       am_hal_interrupt_master_disable ; 0xd4c8
        0x0000daa6:    f64e72dc    N..r    MOV      r2,#0xefdc
        0x0000daaa:    9001        ..      STR      r0,[sp,#4]
        0x0000daac:    eb040144    ..D.    ADD      r1,r4,r4,LSL #1
        0x0000dab0:    f2c00200    ....    MOVT     r2,#0
        0x0000dab4:    f8524021    R.!@    LDR      r4,[r2,r1,LSL #2]
        0x0000dab8:    6828        (h      LDR      r0,[r5,#0]
        0x0000daba:    eb020681    ....    ADD      r6,r2,r1,LSL #2
        0x0000dabe:    43a0        .C      BICS     r0,r0,r4
        0x0000dac0:    6028        (`      STR      r0,[r5,#0]
        0x0000dac2:    9801        ..      LDR      r0,[sp,#4]
        0x0000dac4:    f7fffd04    ....    BL       am_hal_interrupt_master_set ; 0xd4d0
        0x0000dac8:    20a0        .       MOVS     r0,#0xa0
        0x0000daca:    f7fffac3    ....    BL       am_hal_flash_delay ; 0xd054
        0x0000dace:    6928        (i      LDR      r0,[r5,#0x10]
        0x0000dad0:    6876        vh      LDR      r6,[r6,#4]
        0x0000dad2:    4206        .B      TST      r6,r0
        0x0000dad4:    d003        ..      BEQ      0xdade ; am_hal_pwrctrl_periph_disable + 74
        0x0000dad6:    20a0        .       MOVS     r0,#0xa0
        0x0000dad8:    f7fffabc    ....    BL       am_hal_flash_delay ; 0xd054
        0x0000dadc:    6928        (i      LDR      r0,[r5,#0x10]
        0x0000dade:    6928        (i      LDR      r0,[r5,#0x10]
        0x0000dae0:    4206        .B      TST      r6,r0
        0x0000dae2:    d00b        ..      BEQ      0xdafc ; am_hal_pwrctrl_periph_disable + 104
        0x0000dae4:    6828        (h      LDR      r0,[r5,#0]
        0x0000dae6:    2e10        ..      CMP      r6,#0x10
        0x0000dae8:    d00c        ..      BEQ      0xdb04 ; am_hal_pwrctrl_periph_disable + 112
        0x0000daea:    2e08        ..      CMP      r6,#8
        0x0000daec:    d012        ..      BEQ      0xdb14 ; am_hal_pwrctrl_periph_disable + 128
        0x0000daee:    2e04        ..      CMP      r6,#4
        0x0000daf0:    d113        ..      BNE      0xdb1a ; am_hal_pwrctrl_periph_disable + 134
        0x0000daf2:    f2405181    @..Q    MOV      r1,#0x581
        0x0000daf6:    4208        .B      TST      r0,r1
        0x0000daf8:    d107        ..      BNE      0xdb0a ; am_hal_pwrctrl_periph_disable + 118
        0x0000dafa:    e00e        ..      B        0xdb1a ; am_hal_pwrctrl_periph_disable + 134
        0x0000dafc:    2000        .       MOVS     r0,#0
        0x0000dafe:    b002        ..      ADD      sp,sp,#8
        0x0000db00:    bd70        p.      POP      {r4-r6,pc}
        0x0000db02:    bf00        ..      NOP      
        0x0000db04:    f0100f70    ..p.    TST      r0,#0x70
        0x0000db08:    d007        ..      BEQ      0xdb1a ; am_hal_pwrctrl_periph_disable + 134
        0x0000db0a:    4020         @      ANDS     r0,r0,r4
        0x0000db0c:    bf18        ..      IT       NE
        0x0000db0e:    2001        .       MOVNE    r0,#1
        0x0000db10:    b002        ..      ADD      sp,sp,#8
        0x0000db12:    bd70        p.      POP      {r4-r6,pc}
        0x0000db14:    f0100f0e    ....    TST      r0,#0xe
        0x0000db18:    d1f7        ..      BNE      0xdb0a ; am_hal_pwrctrl_periph_disable + 118
        0x0000db1a:    2001        .       MOVS     r0,#1
        0x0000db1c:    b002        ..      ADD      sp,sp,#8
        0x0000db1e:    bd70        p.      POP      {r4-r6,pc}
    am_hal_pwrctrl_periph_enable
        0x0000db20:    b570        p.      PUSH     {r4-r6,lr}
        0x0000db22:    b082        ..      SUB      sp,sp,#8
        0x0000db24:    f2410508    A...    MOV      r5,#0x1008
        0x0000db28:    4604        .F      MOV      r4,r0
        0x0000db2a:    f2c40502    ....    MOVT     r5,#0x4002
        0x0000db2e:    f7fffccb    ....    BL       am_hal_interrupt_master_disable ; 0xd4c8
        0x0000db32:    f64e72dc    N..r    MOV      r2,#0xefdc
        0x0000db36:    9001        ..      STR      r0,[sp,#4]
        0x0000db38:    eb040144    ..D.    ADD      r1,r4,r4,LSL #1
        0x0000db3c:    f2c00200    ....    MOVT     r2,#0
        0x0000db40:    f8524021    R.!@    LDR      r4,[r2,r1,LSL #2]
        0x0000db44:    6828        (h      LDR      r0,[r5,#0]
        0x0000db46:    eb020681    ....    ADD      r6,r2,r1,LSL #2
        0x0000db4a:    4320         C      ORRS     r0,r0,r4
        0x0000db4c:    6028        (`      STR      r0,[r5,#0]
        0x0000db4e:    9801        ..      LDR      r0,[sp,#4]
        0x0000db50:    f7fffcbe    ....    BL       am_hal_interrupt_master_set ; 0xd4d0
        0x0000db54:    20a0        .       MOVS     r0,#0xa0
        0x0000db56:    f7fffa7d    ..}.    BL       am_hal_flash_delay ; 0xd054
        0x0000db5a:    6928        (i      LDR      r0,[r5,#0x10]
        0x0000db5c:    6876        vh      LDR      r6,[r6,#4]
        0x0000db5e:    4206        .B      TST      r6,r0
        0x0000db60:    d006        ..      BEQ      0xdb70 ; am_hal_pwrctrl_periph_enable + 80
        0x0000db62:    6928        (i      LDR      r0,[r5,#0x10]
        0x0000db64:    4206        .B      TST      r6,r0
        0x0000db66:    d00a        ..      BEQ      0xdb7e ; am_hal_pwrctrl_periph_enable + 94
        0x0000db68:    2000        .       MOVS     r0,#0
        0x0000db6a:    b002        ..      ADD      sp,sp,#8
        0x0000db6c:    bd70        p.      POP      {r4-r6,pc}
        0x0000db6e:    bf00        ..      NOP      
        0x0000db70:    20a0        .       MOVS     r0,#0xa0
        0x0000db72:    f7fffa6f    ..o.    BL       am_hal_flash_delay ; 0xd054
        0x0000db76:    6928        (i      LDR      r0,[r5,#0x10]
        0x0000db78:    6928        (i      LDR      r0,[r5,#0x10]
        0x0000db7a:    4206        .B      TST      r6,r0
        0x0000db7c:    d1f4        ..      BNE      0xdb68 ; am_hal_pwrctrl_periph_enable + 72
        0x0000db7e:    f7fffca3    ....    BL       am_hal_interrupt_master_disable ; 0xd4c8
        0x0000db82:    9000        ..      STR      r0,[sp,#0]
        0x0000db84:    6828        (h      LDR      r0,[r5,#0]
        0x0000db86:    43a0        .C      BICS     r0,r0,r4
        0x0000db88:    6028        (`      STR      r0,[r5,#0]
        0x0000db8a:    9800        ..      LDR      r0,[sp,#0]
        0x0000db8c:    f7fffca0    ....    BL       am_hal_interrupt_master_set ; 0xd4d0
        0x0000db90:    2001        .       MOVS     r0,#1
        0x0000db92:    b002        ..      ADD      sp,sp,#8
        0x0000db94:    bd70        p.      POP      {r4-r6,pc}
        0x0000db96:    0000        ..      MOVS     r0,r0
    am_hal_rtc_osc_disable
        0x0000db98:    f2442050    D.P     MOV      r0,#0x4250
        0x0000db9c:    f2c40000    ....    MOVT     r0,#0x4000
        0x0000dba0:    6801        .h      LDR      r1,[r0,#0]
        0x0000dba2:    f0410110    A...    ORR      r1,r1,#0x10
        0x0000dba6:    6001        .`      STR      r1,[r0,#0]
        0x0000dba8:    4770        pG      BX       lr
        0x0000dbaa:    0000        ..      MOVS     r0,r0
    am_hal_sysctrl_sleep
        0x0000dbac:    b570        p.      PUSH     {r4-r6,lr}
        0x0000dbae:    b082        ..      SUB      sp,sp,#8
        0x0000dbb0:    f64e5510    N..U    MOV      r5,#0xed10
        0x0000dbb4:    4604        .F      MOV      r4,r0
        0x0000dbb6:    f2ce0500    ....    MOVT     r5,#0xe000
        0x0000dbba:    f7fffc85    ....    BL       am_hal_interrupt_master_disable ; 0xd4c8
        0x0000dbbe:    9001        ..      STR      r0,[sp,#4]
        0x0000dbc0:    f24120a8    A..     MOV      r0,#0x12a8
        0x0000dbc4:    f2c10000    ....    MOVT     r0,#0x1000
        0x0000dbc8:    6801        .h      LDR      r1,[r0,#0]
        0x0000dbca:    f1010101    ....    ADD      r1,r1,#1
        0x0000dbce:    6001        .`      STR      r1,[r0,#0]
        0x0000dbd0:    b3d4        ..      CBZ      r4,0xdc48 ; am_hal_sysctrl_sleep + 156
        0x0000dbd2:    f2403450    @.P4    MOVW     r4,#0x350
        0x0000dbd6:    f2c40402    ....    MOVT     r4,#0x4002
        0x0000dbda:    f06f00ff    o...    MVN      r0,#0xff
        0x0000dbde:    5820         X      LDR      r0,[r4,r0]
        0x0000dbe0:    07c0        ..      LSLS     r0,r0,#31
        0x0000dbe2:    d131        1.      BNE      0xdc48 ; am_hal_sysctrl_sleep + 156
        0x0000dbe4:    f24100a0    A...    MOVW     r0,#0x10a0
        0x0000dbe8:    f2c10000    ....    MOVT     r0,#0x1000
        0x0000dbec:    6801        .h      LDR      r1,[r0,#0]
        0x0000dbee:    b929        ).      CBNZ     r1,0xdbfc ; am_hal_sysctrl_sleep + 80
        0x0000dbf0:    f24f0100    O...    MOVW     r1,#0xf000
        0x0000dbf4:    f6c471ff    ...q    MOVT     r1,#0x4fff
        0x0000dbf8:    6809        .h      LDR      r1,[r1,#0]
        0x0000dbfa:    6001        .`      STR      r1,[r0,#0]
        0x0000dbfc:    6826        &h      LDR      r6,[r4,#0]
        0x0000dbfe:    f44f2110    O..!    MOV      r1,#0x90000
        0x0000dc02:    f3c64005    ...@    UBFX     r0,r6,#16,#6
        0x0000dc06:    2836        6(      CMP      r0,#0x36
        0x0000dc08:    bf28        (.      IT       CS
        0x0000dc0a:    2036        6       MOVCS    r0,#0x36
        0x0000dc0c:    eb014000    ...@    ADD      r0,r1,r0,LSL #16
        0x0000dc10:    4631        1F      MOV      r1,r6
        0x0000dc12:    f36f219f    o..!    BFC      r1,#10,#22
        0x0000dc16:    f24032e7    @..2    MOV      r2,#0x3e7
        0x0000dc1a:    4291        .B      CMP      r1,r2
        0x0000dc1c:    bf28        (.      IT       CS
        0x0000dc1e:    4611        .F      MOVCS    r1,r2
        0x0000dc20:    f64f4200    O..B    MOVW     r2,#0xfc00
        0x0000dc24:    f6cf72c0    ...r    MOVT     r2,#0xffc0
        0x0000dc28:    3118        .1      ADDS     r1,r1,#0x18
        0x0000dc2a:    4032        2@      ANDS     r2,r2,r6
        0x0000dc2c:    f400107c    ..|.    AND      r0,r0,#0x3f0000
        0x0000dc30:    4311        .C      ORRS     r1,r1,r2
        0x0000dc32:    4408        .D      ADD      r0,r0,r1
        0x0000dc34:    6020         `      STR      r0,[r4,#0]
        0x0000dc36:    f44f70a0    O..p    MOV      r0,#0x140
        0x0000dc3a:    f7fffa0b    ....    BL       am_hal_flash_delay ; 0xd054
        0x0000dc3e:    6026        &`      STR      r6,[r4,#0]
        0x0000dc40:    6828        (h      LDR      r0,[r5,#0]
        0x0000dc42:    f0400004    @...    ORR      r0,r0,#4
        0x0000dc46:    e002        ..      B        0xdc4e ; am_hal_sysctrl_sleep + 162
        0x0000dc48:    6828        (h      LDR      r0,[r5,#0]
        0x0000dc4a:    f0200004     ...    BIC      r0,r0,#4
        0x0000dc4e:    6028        (`      STR      r0,[r5,#0]
        0x0000dc50:    2000        .       MOVS     r0,#0
        0x0000dc52:    f3bf8f4f    ..O.    DSB      
        0x0000dc56:    f6c570ff    ...p    MOVT     r0,#0x5fff
        0x0000dc5a:    6800        .h      LDR      r0,[r0,#0]
        0x0000dc5c:    bf30        0.      WFI      
        0x0000dc5e:    f3bf8f6f    ..o.    ISB      
        0x0000dc62:    9801        ..      LDR      r0,[sp,#4]
        0x0000dc64:    b002        ..      ADD      sp,sp,#8
        0x0000dc66:    e8bd4070    ..p@    POP      {r4-r6,lr}
        0x0000dc6a:    f7ffbc31    ..1.    B.W      am_hal_interrupt_master_set ; 0xd4d0
        0x0000dc6e:    0000        ..      MOVS     r0,r0
    am_hal_tpiu_enable
        0x0000dc70:    b570        p.      PUSH     {r4-r6,lr}
        0x0000dc72:    b084        ..      SUB      sp,sp,#0x10
        0x0000dc74:    6806        .h      LDR      r6,[r0,#0]
        0x0000dc76:    f6407400    @..t    MOVW     r4,#0xf00
        0x0000dc7a:    2504        .%      MOVS     r5,#4
        0x0000dc7c:    f2ce0404    ....    MOVT     r4,#0xe004
        0x0000dc80:    f2ce0504    ....    MOVT     r5,#0xe004
        0x0000dc84:    2200        ."      MOVS     r2,#0
        0x0000dc86:    f8c52300    ...#    STR      r2,[r5,#0x300]
        0x0000dc8a:    b1de        ..      CBZ      r6,0xdcc4 ; am_hal_tpiu_enable + 84
        0x0000dc8c:    2001        .       MOVS     r0,#1
        0x0000dc8e:    6028        (`      STR      r0,[r5,#0]
        0x0000dc90:    a801        ..      ADD      r0,sp,#4
        0x0000dc92:    f7fefdfd    ....    BL       am_hal_clkgen_status_get ; 0xc890
        0x0000dc96:    9801        ..      LDR      r0,[sp,#4]
        0x0000dc98:    1c41        A.      ADDS     r1,r0,#1
        0x0000dc9a:    d021        !.      BEQ      0xdce0 ; am_hal_tpiu_enable + 112
        0x0000dc9c:    f647317f    G..1    MOV      r1,#0x7b7f
        0x0000dca0:    f6cf71e1    ...q    MOVT     r1,#0xffe1
        0x0000dca4:    1872        r.      ADDS     r2,r6,r1
        0x0000dca6:    f5014161    ..aA    ADD      r1,r1,#0xe100
        0x0000dcaa:    08c0        ..      LSRS     r0,r0,#3
        0x0000dcac:    428a        .B      CMP      r2,r1
        0x0000dcae:    bf3c        <.      ITT      CC
        0x0000dcb0:    f2442640    D.@&    MOVCC    r6,#0x4240
        0x0000dcb4:    f2c0060f    ....    MOVTCC   r6,#0xf
        0x0000dcb8:    fbb0f0f6    ....    UDIV     r0,r0,r6
        0x0000dcbc:    3801        .8      SUBS     r0,#1
        0x0000dcbe:    b280        ..      UXTH     r0,r0
        0x0000dcc0:    e00f        ..      B        0xdce2 ; am_hal_tpiu_enable + 114
        0x0000dcc2:    bf00        ..      NOP      
        0x0000dcc4:    e9d01301    ....    LDRD     r1,r3,[r0,#4]
        0x0000dcc8:    e9d00603    ....    LDRD     r0,r6,[r0,#0xc]
        0x0000dccc:    60ee        .`      STR      r6,[r5,#0xc]
        0x0000dcce:    f8c530ec    ...0    STR      r3,[r5,#0xec]
        0x0000dcd2:    3801        .8      SUBS     r0,#1
        0x0000dcd4:    2301        .#      MOVS     r3,#1
        0x0000dcd6:    fa03f000    ....    LSL      r0,r3,r0
        0x0000dcda:    6028        (`      STR      r0,[r5,#0]
        0x0000dcdc:    6022        "`      STR      r2,[r4,#0]
        0x0000dcde:    e008        ..      B        0xdcf2 ; am_hal_tpiu_enable + 130
        0x0000dce0:    2005        .       MOVS     r0,#5
        0x0000dce2:    60e8        .`      STR      r0,[r5,#0xc]
        0x0000dce4:    2002        .       MOVS     r0,#2
        0x0000dce6:    f8c500ec    ....    STR      r0,[r5,#0xec]
        0x0000dcea:    2000        .       MOVS     r0,#0
        0x0000dcec:    6020         `      STR      r0,[r4,#0]
        0x0000dcee:    f2402101    @..!    MOV      r1,#0x201
        0x0000dcf2:    f2402050    @.P     MOVW     r0,#0x250
        0x0000dcf6:    f2c40002    ....    MOVT     r0,#0x4002
        0x0000dcfa:    6001        .`      STR      r1,[r0,#0]
        0x0000dcfc:    f44f7048    O.Hp    MOV      r0,#0x320
        0x0000dd00:    f7fff9a8    ....    BL       am_hal_flash_delay ; 0xd054
        0x0000dd04:    b004        ..      ADD      sp,sp,#0x10
        0x0000dd06:    bd70        p.      POP      {r4-r6,pc}
    am_hal_uart_deinitialize
        0x0000dd08:    b180        ..      CBZ      r0,0xdd2c ; am_hal_uart_deinitialize + 36
        0x0000dd0a:    4601        .F      MOV      r1,r0
        0x0000dd0c:    6800        .h      LDR      r0,[r0,#0]
        0x0000dd0e:    f6496306    I..c    MOV      r3,#0x9e06
        0x0000dd12:    f020427e     .~B    BIC      r2,r0,#0xfe000000
        0x0000dd16:    f2c013ea    ....    MOVT     r3,#0x1ea
        0x0000dd1a:    429a        .B      CMP      r2,r3
        0x0000dd1c:    d106        ..      BNE      0xdd2c ; am_hal_uart_deinitialize + 36
        0x0000dd1e:    f0207080     ..p    BIC      r0,r0,#0x1000000
        0x0000dd22:    6008        .`      STR      r0,[r1,#0]
        0x0000dd24:    2000        .       MOVS     r0,#0
        0x0000dd26:    6248        Hb      STR      r0,[r1,#0x24]
        0x0000dd28:    7108        .q      STRB     r0,[r1,#4]
        0x0000dd2a:    4770        pG      BX       lr
        0x0000dd2c:    2002        .       MOVS     r0,#2
        0x0000dd2e:    4770        pG      BX       lr
    am_hal_uart_power_control
        0x0000dd30:    e92d41f0    -..A    PUSH     {r4-r8,lr}
        0x0000dd34:    b082        ..      SUB      sp,sp,#8
        0x0000dd36:    4604        .F      MOV      r4,r0
        0x0000dd38:    6800        .h      LDR      r0,[r0,#0]
        0x0000dd3a:    f6496706    I..g    MOV      r7,#0x9e06
        0x0000dd3e:    f2c017ea    ....    MOVT     r7,#0x1ea
        0x0000dd42:    f020437e     .~C    BIC      r3,r0,#0xfe000000
        0x0000dd46:    42bb        .B      CMP      r3,r7
        0x0000dd48:    d138        8.      BNE      0xddbc ; am_hal_uart_power_control + 140
        0x0000dd4a:    6a65        ej      LDR      r5,[r4,#0x24]
        0x0000dd4c:    1e4b        K.      SUBS     r3,r1,#1
        0x0000dd4e:    2b02        .+      CMP      r3,#2
        0x0000dd50:    f1050608    ....    ADD      r6,r5,#8
        0x0000dd54:    d238        8.      BCS      0xddc8 ; am_hal_uart_power_control + 152
        0x0000dd56:    f24c0800    L...    MOVW     r8,#0xc000
        0x0000dd5a:    f2c40801    ....    MOVT     r8,#0x4001
        0x0000dd5e:    b1c2        ..      CBZ      r2,0xdd92 ; am_hal_uart_power_control + 98
        0x0000dd60:    f7fffbb2    ....    BL       am_hal_interrupt_master_disable ; 0xd4c8
        0x0000dd64:    9000        ..      STR      r0,[sp,#0]
        0x0000dd66:    eb083005    ...0    ADD      r0,r8,r5,LSL #12
        0x0000dd6a:    6a01        .j      LDR      r1,[r0,#0x20]
        0x0000dd6c:    60a1        .`      STR      r1,[r4,#8]
        0x0000dd6e:    6a41        Aj      LDR      r1,[r0,#0x24]
        0x0000dd70:    60e1        .`      STR      r1,[r4,#0xc]
        0x0000dd72:    6a81        .j      LDR      r1,[r0,#0x28]
        0x0000dd74:    6121        !a      STR      r1,[r4,#0x10]
        0x0000dd76:    6ac1        .j      LDR      r1,[r0,#0x2c]
        0x0000dd78:    6161        aa      STR      r1,[r4,#0x14]
        0x0000dd7a:    6b01        .k      LDR      r1,[r0,#0x30]
        0x0000dd7c:    61a1        .a      STR      r1,[r4,#0x18]
        0x0000dd7e:    6b41        Ak      LDR      r1,[r0,#0x34]
        0x0000dd80:    61e1        .a      STR      r1,[r4,#0x1c]
        0x0000dd82:    6b80        .k      LDR      r0,[r0,#0x38]
        0x0000dd84:    6220         b      STR      r0,[r4,#0x20]
        0x0000dd86:    2001        .       MOVS     r0,#1
        0x0000dd88:    7120         q      STRB     r0,[r4,#4]
        0x0000dd8a:    9800        ..      LDR      r0,[sp,#0]
        0x0000dd8c:    f7fffba0    ....    BL       am_hal_interrupt_master_set ; 0xd4d0
        0x0000dd90:    6820         h      LDR      r0,[r4,#0]
        0x0000dd92:    f020407e     .~@    BIC      r0,r0,#0xfe000000
        0x0000dd96:    42b8        .B      CMP      r0,r7
        0x0000dd98:    d105        ..      BNE      0xdda6 ; am_hal_uart_power_control + 118
        0x0000dd9a:    6a60        `j      LDR      r0,[r4,#0x24]
        0x0000dd9c:    f04f31ff    O..1    MOV      r1,#0xffffffff
        0x0000dda0:    eb083000    ...0    ADD      r0,r8,r0,LSL #12
        0x0000dda4:    6441        Ad      STR      r1,[r0,#0x44]
        0x0000dda6:    eb083005    ...0    ADD      r0,r8,r5,LSL #12
        0x0000ddaa:    2500        .%      MOVS     r5,#0
        0x0000ddac:    6305        .c      STR      r5,[r0,#0x30]
        0x0000ddae:    b2f0        ..      UXTB     r0,r6
        0x0000ddb0:    f7fffe70    ..p.    BL       am_hal_pwrctrl_periph_disable ; 0xda94
        0x0000ddb4:    4628        (F      MOV      r0,r5
        0x0000ddb6:    b002        ..      ADD      sp,sp,#8
        0x0000ddb8:    e8bd81f0    ....    POP      {r4-r8,pc}
        0x0000ddbc:    2502        .%      MOVS     r5,#2
        0x0000ddbe:    4628        (F      MOV      r0,r5
        0x0000ddc0:    b002        ..      ADD      sp,sp,#8
        0x0000ddc2:    e8bd81f0    ....    POP      {r4-r8,pc}
        0x0000ddc6:    bf00        ..      NOP      
        0x0000ddc8:    bb31        1.      CBNZ     r1,0xde18 ; am_hal_uart_power_control + 232
        0x0000ddca:    b35a        Z.      CBZ      r2,0xde24 ; am_hal_uart_power_control + 244
        0x0000ddcc:    7920         y      LDRB     r0,[r4,#4]
        0x0000ddce:    b388        ..      CBZ      r0,0xde34 ; am_hal_uart_power_control + 260
        0x0000ddd0:    b2f0        ..      UXTB     r0,r6
        0x0000ddd2:    f7fffea5    ....    BL       am_hal_pwrctrl_periph_enable ; 0xdb20
        0x0000ddd6:    f7fffb77    ..w.    BL       am_hal_interrupt_master_disable ; 0xd4c8
        0x0000ddda:    9001        ..      STR      r0,[sp,#4]
        0x0000dddc:    f24c0100    L...    MOVW     r1,#0xc000
        0x0000dde0:    68a0        .h      LDR      r0,[r4,#8]
        0x0000dde2:    f2c40101    ....    MOVT     r1,#0x4001
        0x0000dde6:    eb013105    ...1    ADD      r1,r1,r5,LSL #12
        0x0000ddea:    6208        .b      STR      r0,[r1,#0x20]
        0x0000ddec:    68e0        .h      LDR      r0,[r4,#0xc]
        0x0000ddee:    2500        .%      MOVS     r5,#0
        0x0000ddf0:    6248        Hb      STR      r0,[r1,#0x24]
        0x0000ddf2:    6920         i      LDR      r0,[r4,#0x10]
        0x0000ddf4:    6288        .b      STR      r0,[r1,#0x28]
        0x0000ddf6:    6960        `i      LDR      r0,[r4,#0x14]
        0x0000ddf8:    62c8        .b      STR      r0,[r1,#0x2c]
        0x0000ddfa:    69a0        .i      LDR      r0,[r4,#0x18]
        0x0000ddfc:    6308        .c      STR      r0,[r1,#0x30]
        0x0000ddfe:    69e0        .i      LDR      r0,[r4,#0x1c]
        0x0000de00:    6348        Hc      STR      r0,[r1,#0x34]
        0x0000de02:    6a20         j      LDR      r0,[r4,#0x20]
        0x0000de04:    6388        .c      STR      r0,[r1,#0x38]
        0x0000de06:    7125        %q      STRB     r5,[r4,#4]
        0x0000de08:    9801        ..      LDR      r0,[sp,#4]
        0x0000de0a:    f7fffb61    ..a.    BL       am_hal_interrupt_master_set ; 0xd4d0
        0x0000de0e:    4628        (F      MOV      r0,r5
        0x0000de10:    b002        ..      ADD      sp,sp,#8
        0x0000de12:    e8bd81f0    ....    POP      {r4-r8,pc}
        0x0000de16:    bf00        ..      NOP      
        0x0000de18:    2506        .%      MOVS     r5,#6
        0x0000de1a:    4628        (F      MOV      r0,r5
        0x0000de1c:    b002        ..      ADD      sp,sp,#8
        0x0000de1e:    e8bd81f0    ....    POP      {r4-r8,pc}
        0x0000de22:    bf00        ..      NOP      
        0x0000de24:    b2f0        ..      UXTB     r0,r6
        0x0000de26:    f7fffe7b    ..{.    BL       am_hal_pwrctrl_periph_enable ; 0xdb20
        0x0000de2a:    2500        .%      MOVS     r5,#0
        0x0000de2c:    4628        (F      MOV      r0,r5
        0x0000de2e:    b002        ..      ADD      sp,sp,#8
        0x0000de30:    e8bd81f0    ....    POP      {r4-r8,pc}
        0x0000de34:    2507        .%      MOVS     r5,#7
        0x0000de36:    4628        (F      MOV      r0,r5
        0x0000de38:    b002        ..      ADD      sp,sp,#8
        0x0000de3a:    e8bd81f0    ....    POP      {r4-r8,pc}
        0x0000de3e:    0000        ..      MOVS     r0,r0
    am_hal_uart_tx_flush
        0x0000de40:    b570        p.      PUSH     {r4-r6,lr}
        0x0000de42:    4604        .F      MOV      r4,r0
        0x0000de44:    f890005d    ..].    LDRB     r0,[r0,#0x5d]
        0x0000de48:    6a65        ej      LDR      r5,[r4,#0x24]
        0x0000de4a:    b170        p.      CBZ      r0,0xde6a ; am_hal_uart_tx_flush + 42
        0x0000de4c:    6b20         k      LDR      r0,[r4,#0x30]
        0x0000de4e:    b160        `.      CBZ      r0,0xde6a ; am_hal_uart_tx_flush + 42
        0x0000de50:    f6413600    A..6    MOVW     r6,#0x1b00
        0x0000de54:    f2c006b7    ....    MOVT     r6,#0xb7
        0x0000de58:    6da0        .m      LDR      r0,[r4,#0x58]
        0x0000de5a:    fbb6f0f0    ....    UDIV     r0,r6,r0
        0x0000de5e:    0100        ..      LSLS     r0,r0,#4
        0x0000de60:    f7fff8f8    ....    BL       am_hal_flash_delay ; 0xd054
        0x0000de64:    6b20         k      LDR      r0,[r4,#0x30]
        0x0000de66:    2800        .(      CMP      r0,#0
        0x0000de68:    d1f6        ..      BNE      0xde58 ; am_hal_uart_tx_flush + 24
        0x0000de6a:    f24c0000    L...    MOVW     r0,#0xc000
        0x0000de6e:    f2c40001    ....    MOVT     r0,#0x4001
        0x0000de72:    eb003505    ...5    ADD      r5,r0,r5,LSL #12
        0x0000de76:    69a8        .i      LDR      r0,[r5,#0x18]
        0x0000de78:    0700        ..      LSLS     r0,r0,#28
        0x0000de7a:    d50c        ..      BPL      0xde96 ; am_hal_uart_tx_flush + 86
        0x0000de7c:    f6413600    A..6    MOVW     r6,#0x1b00
        0x0000de80:    f2c006b7    ....    MOVT     r6,#0xb7
        0x0000de84:    6da0        .m      LDR      r0,[r4,#0x58]
        0x0000de86:    fbb6f0f0    ....    UDIV     r0,r6,r0
        0x0000de8a:    0100        ..      LSLS     r0,r0,#4
        0x0000de8c:    f7fff8e2    ....    BL       am_hal_flash_delay ; 0xd054
        0x0000de90:    69a8        .i      LDR      r0,[r5,#0x18]
        0x0000de92:    0700        ..      LSLS     r0,r0,#28
        0x0000de94:    d4f6        ..      BMI      0xde84 ; am_hal_uart_tx_flush + 68
        0x0000de96:    2000        .       MOVS     r0,#0
        0x0000de98:    bd70        p.      POP      {r4-r6,pc}
        0x0000de9a:    0000        ..      MOVS     r0,r0
    am_util_faultisr_collect_data
        0x0000de9c:    b580        ..      PUSH     {r7,lr}
        0x0000de9e:    b096        ..      SUB      sp,sp,#0x58
        0x0000dea0:    9015        ..      STR      r0,[sp,#0x54]
        0x0000dea2:    2000        .       MOVS     r0,#0
        0x0000dea4:    9008        ..      STR      r0,[sp,#0x20]
        0x0000dea6:    9007        ..      STR      r0,[sp,#0x1c]
        0x0000dea8:    9006        ..      STR      r0,[sp,#0x18]
        0x0000deaa:    9005        ..      STR      r0,[sp,#0x14]
        0x0000deac:    9004        ..      STR      r0,[sp,#0x10]
        0x0000deae:    9003        ..      STR      r0,[sp,#0xc]
        0x0000deb0:    9002        ..      STR      r0,[sp,#8]
        0x0000deb2:    9802        ..      LDR      r0,[sp,#8]
        0x0000deb4:    9013        ..      STR      r0,[sp,#0x4c]
        0x0000deb6:    f64e5028    N.(P    MOV      r0,#0xed28
        0x0000deba:    f2ce0000    ....    MOVT     r0,#0xe000
        0x0000debe:    6800        .h      LDR      r0,[r0,#0]
        0x0000dec0:    9013        ..      STR      r0,[sp,#0x4c]
        0x0000dec2:    9813        ..      LDR      r0,[sp,#0x4c]
        0x0000dec4:    f88d0050    ..P.    STRB     r0,[sp,#0x50]
        0x0000dec8:    9813        ..      LDR      r0,[sp,#0x4c]
        0x0000deca:    0a00        ..      LSRS     r0,r0,#8
        0x0000decc:    f88d0051    ..Q.    STRB     r0,[sp,#0x51]
        0x0000ded0:    9813        ..      LDR      r0,[sp,#0x4c]
        0x0000ded2:    0c00        ..      LSRS     r0,r0,#16
        0x0000ded4:    f8ad0052    ..R.    STRH     r0,[sp,#0x52]
        0x0000ded8:    f64e5038    N.8P    MOV      r0,#0xed38
        0x0000dedc:    f2ce0000    ....    MOVT     r0,#0xe000
        0x0000dee0:    6800        .h      LDR      r0,[r0,#0]
        0x0000dee2:    9012        ..      STR      r0,[sp,#0x48]
        0x0000dee4:    9815        ..      LDR      r0,[sp,#0x54]
        0x0000dee6:    f000fbaf    ....    BL       am_valid_sp ; 0xe648
        0x0000deea:    b3d8        ..      CBZ      r0,0xdf64 ; am_util_faultisr_collect_data + 200
        0x0000deec:    e7ff        ..      B        0xdeee ; am_util_faultisr_collect_data + 82
        0x0000deee:    f89d0051    ..Q.    LDRB     r0,[sp,#0x51]
        0x0000def2:    0780        ..      LSLS     r0,r0,#30
        0x0000def4:    2800        .(      CMP      r0,#0
        0x0000def6:    d506        ..      BPL      0xdf06 ; am_util_faultisr_collect_data + 106
        0x0000def8:    e7ff        ..      B        0xdefa ; am_util_faultisr_collect_data + 94
        0x0000defa:    9915        ..      LDR      r1,[sp,#0x54]
        0x0000defc:    2006        .       MOVS     r0,#6
        0x0000defe:    f7fefa71    ..q.    BL       am_getStackedReg ; 0xc3e4
        0x0000df02:    9001        ..      STR      r0,[sp,#4]
        0x0000df04:    e003        ..      B        0xdf0e ; am_util_faultisr_collect_data + 114
        0x0000df06:    f04f30ff    O..0    MOV      r0,#0xffffffff
        0x0000df0a:    9001        ..      STR      r0,[sp,#4]
        0x0000df0c:    e7ff        ..      B        0xdf0e ; am_util_faultisr_collect_data + 114
        0x0000df0e:    9801        ..      LDR      r0,[sp,#4]
        0x0000df10:    9011        ..      STR      r0,[sp,#0x44]
        0x0000df12:    9915        ..      LDR      r1,[sp,#0x54]
        0x0000df14:    2000        .       MOVS     r0,#0
        0x0000df16:    f7fefa65    ..e.    BL       am_getStackedReg ; 0xc3e4
        0x0000df1a:    9009        ..      STR      r0,[sp,#0x24]
        0x0000df1c:    9915        ..      LDR      r1,[sp,#0x54]
        0x0000df1e:    2001        .       MOVS     r0,#1
        0x0000df20:    f7fefa60    ..`.    BL       am_getStackedReg ; 0xc3e4
        0x0000df24:    900a        ..      STR      r0,[sp,#0x28]
        0x0000df26:    9915        ..      LDR      r1,[sp,#0x54]
        0x0000df28:    2002        .       MOVS     r0,#2
        0x0000df2a:    f7fefa5b    ..[.    BL       am_getStackedReg ; 0xc3e4
        0x0000df2e:    900b        ..      STR      r0,[sp,#0x2c]
        0x0000df30:    9915        ..      LDR      r1,[sp,#0x54]
        0x0000df32:    2003        .       MOVS     r0,#3
        0x0000df34:    f7fefa56    ..V.    BL       am_getStackedReg ; 0xc3e4
        0x0000df38:    900c        ..      STR      r0,[sp,#0x30]
        0x0000df3a:    9915        ..      LDR      r1,[sp,#0x54]
        0x0000df3c:    2004        .       MOVS     r0,#4
        0x0000df3e:    f7fefa51    ..Q.    BL       am_getStackedReg ; 0xc3e4
        0x0000df42:    900d        ..      STR      r0,[sp,#0x34]
        0x0000df44:    9915        ..      LDR      r1,[sp,#0x54]
        0x0000df46:    2005        .       MOVS     r0,#5
        0x0000df48:    f7fefa4c    ..L.    BL       am_getStackedReg ; 0xc3e4
        0x0000df4c:    900e        ..      STR      r0,[sp,#0x38]
        0x0000df4e:    9915        ..      LDR      r1,[sp,#0x54]
        0x0000df50:    2006        .       MOVS     r0,#6
        0x0000df52:    f7fefa47    ..G.    BL       am_getStackedReg ; 0xc3e4
        0x0000df56:    900f        ..      STR      r0,[sp,#0x3c]
        0x0000df58:    9915        ..      LDR      r1,[sp,#0x54]
        0x0000df5a:    2007        .       MOVS     r0,#7
        0x0000df5c:    f7fefa42    ..B.    BL       am_getStackedReg ; 0xc3e4
        0x0000df60:    9010        ..      STR      r0,[sp,#0x40]
        0x0000df62:    e7ff        ..      B        0xdf64 ; am_util_faultisr_collect_data + 200
        0x0000df64:    2002        .       MOVS     r0,#2
        0x0000df66:    a903        ..      ADD      r1,sp,#0xc
        0x0000df68:    f7fffc42    ..B.    BL       am_hal_mcuctrl_info_get ; 0xd7f0
        0x0000df6c:    2000        .       MOVS     r0,#0
        0x0000df6e:    9002        ..      STR      r0,[sp,#8]
        0x0000df70:    e7ff        ..      B        0xdf72 ; am_util_faultisr_collect_data + 214
        0x0000df72:    e7fe        ..      B        0xdf72 ; am_util_faultisr_collect_data + 214
    am_util_stdio_printf
        0x0000df74:    b083        ..      SUB      sp,sp,#0xc
        0x0000df76:    b580        ..      PUSH     {r7,lr}
        0x0000df78:    b085        ..      SUB      sp,sp,#0x14
        0x0000df7a:    9309        ..      STR      r3,[sp,#0x24]
        0x0000df7c:    9208        ..      STR      r2,[sp,#0x20]
        0x0000df7e:    9107        ..      STR      r1,[sp,#0x1c]
        0x0000df80:    9003        ..      STR      r0,[sp,#0xc]
        0x0000df82:    f24120b0    A..     MOV      r0,#0x12b0
        0x0000df86:    f2c10000    ....    MOVT     r0,#0x1000
        0x0000df8a:    6800        .h      LDR      r0,[r0,#0]
        0x0000df8c:    b918        ..      CBNZ     r0,0xdf96 ; am_util_stdio_printf + 34
        0x0000df8e:    e7ff        ..      B        0xdf90 ; am_util_stdio_printf + 28
        0x0000df90:    2000        .       MOVS     r0,#0
        0x0000df92:    9004        ..      STR      r0,[sp,#0x10]
        0x0000df94:    e016        ..      B        0xdfc4 ; am_util_stdio_printf + 80
        0x0000df96:    a807        ..      ADD      r0,sp,#0x1c
        0x0000df98:    9001        ..      STR      r0,[sp,#4]
        0x0000df9a:    9903        ..      LDR      r1,[sp,#0xc]
        0x0000df9c:    9a01        ..      LDR      r2,[sp,#4]
        0x0000df9e:    f24120b4    A..     MOV      r0,#0x12b4
        0x0000dfa2:    f2c10000    ....    MOVT     r0,#0x1000
        0x0000dfa6:    9000        ..      STR      r0,[sp,#0]
        0x0000dfa8:    f000f824    ..$.    BL       am_util_stdio_vsprintf ; 0xdff4
        0x0000dfac:    4601        .F      MOV      r1,r0
        0x0000dfae:    9800        ..      LDR      r0,[sp,#0]
        0x0000dfb0:    9102        ..      STR      r1,[sp,#8]
        0x0000dfb2:    f24121b0    A..!    MOV      r1,#0x12b0
        0x0000dfb6:    f2c10100    ....    MOVT     r1,#0x1000
        0x0000dfba:    6809        .h      LDR      r1,[r1,#0]
        0x0000dfbc:    4788        .G      BLX      r1
        0x0000dfbe:    9802        ..      LDR      r0,[sp,#8]
        0x0000dfc0:    9004        ..      STR      r0,[sp,#0x10]
        0x0000dfc2:    e7ff        ..      B        0xdfc4 ; am_util_stdio_printf + 80
        0x0000dfc4:    9804        ..      LDR      r0,[sp,#0x10]
        0x0000dfc6:    b005        ..      ADD      sp,sp,#0x14
        0x0000dfc8:    e8bd4080    ...@    POP      {r7,lr}
        0x0000dfcc:    b003        ..      ADD      sp,sp,#0xc
        0x0000dfce:    4770        pG      BX       lr
    am_util_stdio_printf_init
        0x0000dfd0:    b081        ..      SUB      sp,sp,#4
        0x0000dfd2:    9000        ..      STR      r0,[sp,#0]
        0x0000dfd4:    9800        ..      LDR      r0,[sp,#0]
        0x0000dfd6:    f24121b0    A..!    MOV      r1,#0x12b0
        0x0000dfda:    f2c10100    ....    MOVT     r1,#0x1000
        0x0000dfde:    6008        .`      STR      r0,[r1,#0]
        0x0000dfe0:    b001        ..      ADD      sp,sp,#4
        0x0000dfe2:    4770        pG      BX       lr
    am_util_stdio_terminal_clear
        0x0000dfe4:    b580        ..      PUSH     {r7,lr}
        0x0000dfe6:    f24f20b6    O..     MOV      r0,#0xf2b6
        0x0000dfea:    f2c00000    ....    MOVT     r0,#0
        0x0000dfee:    f7ffffc1    ....    BL       am_util_stdio_printf ; 0xdf74
        0x0000dff2:    bd80        ..      POP      {r7,pc}
    am_util_stdio_vsprintf
        0x0000dff4:    b580        ..      PUSH     {r7,lr}
        0x0000dff6:    b09e        ..      SUB      sp,sp,#0x78
        0x0000dff8:    921d        ..      STR      r2,[sp,#0x74]
        0x0000dffa:    901c        ..      STR      r0,[sp,#0x70]
        0x0000dffc:    911b        ..      STR      r1,[sp,#0x6c]
        0x0000dffe:    2000        .       MOVS     r0,#0
        0x0000e000:    9014        ..      STR      r0,[sp,#0x50]
        0x0000e002:    900e        ..      STR      r0,[sp,#0x38]
        0x0000e004:    e7ff        ..      B        0xe006 ; am_util_stdio_vsprintf + 18
        0x0000e006:    981b        ..      LDR      r0,[sp,#0x6c]
        0x0000e008:    7800        .x      LDRB     r0,[r0,#0]
        0x0000e00a:    2800        .(      CMP      r0,#0
        0x0000e00c:    f0008312    ....    BEQ.W    0xe634 ; am_util_stdio_vsprintf + 1600
        0x0000e010:    e7ff        ..      B        0xe012 ; am_util_stdio_vsprintf + 30
        0x0000e012:    2006        .       MOVS     r0,#6
        0x0000e014:    9011        ..      STR      r0,[sp,#0x44]
        0x0000e016:    981b        ..      LDR      r0,[sp,#0x6c]
        0x0000e018:    7800        .x      LDRB     r0,[r0,#0]
        0x0000e01a:    2825        %(      CMP      r0,#0x25
        0x0000e01c:    d027        '.      BEQ      0xe06e ; am_util_stdio_vsprintf + 122
        0x0000e01e:    e7ff        ..      B        0xe020 ; am_util_stdio_vsprintf + 44
        0x0000e020:    981c        ..      LDR      r0,[sp,#0x70]
        0x0000e022:    b1e8        ..      CBZ      r0,0xe060 ; am_util_stdio_vsprintf + 108
        0x0000e024:    e7ff        ..      B        0xe026 ; am_util_stdio_vsprintf + 50
        0x0000e026:    981b        ..      LDR      r0,[sp,#0x6c]
        0x0000e028:    7800        .x      LDRB     r0,[r0,#0]
        0x0000e02a:    280a        .(      CMP      r0,#0xa
        0x0000e02c:    d111        ..      BNE      0xe052 ; am_util_stdio_vsprintf + 94
        0x0000e02e:    e7ff        ..      B        0xe030 ; am_util_stdio_vsprintf + 60
        0x0000e030:    f24120ac    A..     MOV      r0,#0x12ac
        0x0000e034:    f2c10000    ....    MOVT     r0,#0x1000
        0x0000e038:    7800        .x      LDRB     r0,[r0,#0]
        0x0000e03a:    07c0        ..      LSLS     r0,r0,#31
        0x0000e03c:    b148        H.      CBZ      r0,0xe052 ; am_util_stdio_vsprintf + 94
        0x0000e03e:    e7ff        ..      B        0xe040 ; am_util_stdio_vsprintf + 76
        0x0000e040:    991c        ..      LDR      r1,[sp,#0x70]
        0x0000e042:    1c48        H.      ADDS     r0,r1,#1
        0x0000e044:    901c        ..      STR      r0,[sp,#0x70]
        0x0000e046:    200d        .       MOVS     r0,#0xd
        0x0000e048:    7008        .p      STRB     r0,[r1,#0]
        0x0000e04a:    9814        ..      LDR      r0,[sp,#0x50]
        0x0000e04c:    3001        .0      ADDS     r0,#1
        0x0000e04e:    9014        ..      STR      r0,[sp,#0x50]
        0x0000e050:    e7ff        ..      B        0xe052 ; am_util_stdio_vsprintf + 94
        0x0000e052:    981b        ..      LDR      r0,[sp,#0x6c]
        0x0000e054:    7800        .x      LDRB     r0,[r0,#0]
        0x0000e056:    991c        ..      LDR      r1,[sp,#0x70]
        0x0000e058:    1c4a        J.      ADDS     r2,r1,#1
        0x0000e05a:    921c        ..      STR      r2,[sp,#0x70]
        0x0000e05c:    7008        .p      STRB     r0,[r1,#0]
        0x0000e05e:    e7ff        ..      B        0xe060 ; am_util_stdio_vsprintf + 108
        0x0000e060:    981b        ..      LDR      r0,[sp,#0x6c]
        0x0000e062:    3001        .0      ADDS     r0,#1
        0x0000e064:    901b        ..      STR      r0,[sp,#0x6c]
        0x0000e066:    9814        ..      LDR      r0,[sp,#0x50]
        0x0000e068:    3001        .0      ADDS     r0,#1
        0x0000e06a:    9014        ..      STR      r0,[sp,#0x50]
        0x0000e06c:    e7cb        ..      B        0xe006 ; am_util_stdio_vsprintf + 18
        0x0000e06e:    981b        ..      LDR      r0,[sp,#0x6c]
        0x0000e070:    3001        .0      ADDS     r0,#1
        0x0000e072:    901b        ..      STR      r0,[sp,#0x6c]
        0x0000e074:    2000        .       MOVS     r0,#0
        0x0000e076:    f88d0040    ..@.    STRB     r0,[sp,#0x40]
        0x0000e07a:    f88d0041    ..A.    STRB     r0,[sp,#0x41]
        0x0000e07e:    2020                MOVS     r0,#0x20
        0x0000e080:    f88d0042    ..B.    STRB     r0,[sp,#0x42]
        0x0000e084:    981b        ..      LDR      r0,[sp,#0x6c]
        0x0000e086:    7800        .x      LDRB     r0,[r0,#0]
        0x0000e088:    2830        0(      CMP      r0,#0x30
        0x0000e08a:    d107        ..      BNE      0xe09c ; am_util_stdio_vsprintf + 168
        0x0000e08c:    e7ff        ..      B        0xe08e ; am_util_stdio_vsprintf + 154
        0x0000e08e:    2030        0       MOVS     r0,#0x30
        0x0000e090:    f88d0042    ..B.    STRB     r0,[sp,#0x42]
        0x0000e094:    981b        ..      LDR      r0,[sp,#0x6c]
        0x0000e096:    3001        .0      ADDS     r0,#1
        0x0000e098:    901b        ..      STR      r0,[sp,#0x6c]
        0x0000e09a:    e7ff        ..      B        0xe09c ; am_util_stdio_vsprintf + 168
        0x0000e09c:    981b        ..      LDR      r0,[sp,#0x6c]
        0x0000e09e:    a915        ..      ADD      r1,sp,#0x54
        0x0000e0a0:    f000faee    ....    BL       decstr_to_int ; 0xe680
        0x0000e0a4:    9013        ..      STR      r0,[sp,#0x4c]
        0x0000e0a6:    9915        ..      LDR      r1,[sp,#0x54]
        0x0000e0a8:    981b        ..      LDR      r0,[sp,#0x6c]
        0x0000e0aa:    4408        .D      ADD      r0,r0,r1
        0x0000e0ac:    901b        ..      STR      r0,[sp,#0x6c]
        0x0000e0ae:    981b        ..      LDR      r0,[sp,#0x6c]
        0x0000e0b0:    7800        .x      LDRB     r0,[r0,#0]
        0x0000e0b2:    2873        s(      CMP      r0,#0x73
        0x0000e0b4:    d009        ..      BEQ      0xe0ca ; am_util_stdio_vsprintf + 214
        0x0000e0b6:    e7ff        ..      B        0xe0b8 ; am_util_stdio_vsprintf + 196
        0x0000e0b8:    9813        ..      LDR      r0,[sp,#0x4c]
        0x0000e0ba:    f1b03fff    ...?    CMP      r0,#0xffffffff
        0x0000e0be:    dc04        ..      BGT      0xe0ca ; am_util_stdio_vsprintf + 214
        0x0000e0c0:    e7ff        ..      B        0xe0c2 ; am_util_stdio_vsprintf + 206
        0x0000e0c2:    9813        ..      LDR      r0,[sp,#0x4c]
        0x0000e0c4:    4240        @B      RSBS     r0,r0,#0
        0x0000e0c6:    9013        ..      STR      r0,[sp,#0x4c]
        0x0000e0c8:    e7ff        ..      B        0xe0ca ; am_util_stdio_vsprintf + 214
        0x0000e0ca:    981b        ..      LDR      r0,[sp,#0x6c]
        0x0000e0cc:    7800        .x      LDRB     r0,[r0,#0]
        0x0000e0ce:    282e        .(      CMP      r0,#0x2e
        0x0000e0d0:    d10d        ..      BNE      0xe0ee ; am_util_stdio_vsprintf + 250
        0x0000e0d2:    e7ff        ..      B        0xe0d4 ; am_util_stdio_vsprintf + 224
        0x0000e0d4:    981b        ..      LDR      r0,[sp,#0x6c]
        0x0000e0d6:    3001        .0      ADDS     r0,#1
        0x0000e0d8:    901b        ..      STR      r0,[sp,#0x6c]
        0x0000e0da:    981b        ..      LDR      r0,[sp,#0x6c]
        0x0000e0dc:    a915        ..      ADD      r1,sp,#0x54
        0x0000e0de:    f000facf    ....    BL       decstr_to_int ; 0xe680
        0x0000e0e2:    9011        ..      STR      r0,[sp,#0x44]
        0x0000e0e4:    9915        ..      LDR      r1,[sp,#0x54]
        0x0000e0e6:    981b        ..      LDR      r0,[sp,#0x6c]
        0x0000e0e8:    4408        .D      ADD      r0,r0,r1
        0x0000e0ea:    901b        ..      STR      r0,[sp,#0x6c]
        0x0000e0ec:    e7ff        ..      B        0xe0ee ; am_util_stdio_vsprintf + 250
        0x0000e0ee:    981b        ..      LDR      r0,[sp,#0x6c]
        0x0000e0f0:    7800        .x      LDRB     r0,[r0,#0]
        0x0000e0f2:    286c        l(      CMP      r0,#0x6c
        0x0000e0f4:    d110        ..      BNE      0xe118 ; am_util_stdio_vsprintf + 292
        0x0000e0f6:    e7ff        ..      B        0xe0f8 ; am_util_stdio_vsprintf + 260
        0x0000e0f8:    981b        ..      LDR      r0,[sp,#0x6c]
        0x0000e0fa:    3001        .0      ADDS     r0,#1
        0x0000e0fc:    901b        ..      STR      r0,[sp,#0x6c]
        0x0000e0fe:    981b        ..      LDR      r0,[sp,#0x6c]
        0x0000e100:    7800        .x      LDRB     r0,[r0,#0]
        0x0000e102:    286c        l(      CMP      r0,#0x6c
        0x0000e104:    d107        ..      BNE      0xe116 ; am_util_stdio_vsprintf + 290
        0x0000e106:    e7ff        ..      B        0xe108 ; am_util_stdio_vsprintf + 276
        0x0000e108:    981b        ..      LDR      r0,[sp,#0x6c]
        0x0000e10a:    3001        .0      ADDS     r0,#1
        0x0000e10c:    901b        ..      STR      r0,[sp,#0x6c]
        0x0000e10e:    2001        .       MOVS     r0,#1
        0x0000e110:    f88d0040    ..@.    STRB     r0,[sp,#0x40]
        0x0000e114:    e7ff        ..      B        0xe116 ; am_util_stdio_vsprintf + 290
        0x0000e116:    e7ff        ..      B        0xe118 ; am_util_stdio_vsprintf + 292
        0x0000e118:    981b        ..      LDR      r0,[sp,#0x6c]
        0x0000e11a:    7800        .x      LDRB     r0,[r0,#0]
        0x0000e11c:    3846        F8      SUBS     r0,r0,#0x46
        0x0000e11e:    4601        .F      MOV      r1,r0
        0x0000e120:    910b        ..      STR      r1,[sp,#0x2c]
        0x0000e122:    2832        2(      CMP      r0,#0x32
        0x0000e124:    f2008273    ..s.    BHI.W    0xe60e ; am_util_stdio_vsprintf + 1562
        0x0000e128:    990b        ..      LDR      r1,[sp,#0x2c]
        0x0000e12a:    e8dff011    ....    TBH      [pc,r1,LSL #1]
    $d.4
        0x0000e12e:    0224        $.      DCW    548
        0x0000e130:    02700270    p.p.    DCD    40895088
        0x0000e134:    02700270    p.p.    DCD    40895088
        0x0000e138:    02700270    p.p.    DCD    40895088
        0x0000e13c:    02700270    p.p.    DCD    40895088
        0x0000e140:    02700270    p.p.    DCD    40895088
        0x0000e144:    02700270    p.p.    DCD    40895088
        0x0000e148:    02700270    p.p.    DCD    40895088
        0x0000e14c:    02700270    p.p.    DCD    40895088
        0x0000e150:    00bf0270    p...    DCD    12518000
        0x0000e154:    02700270    p.p.    DCD    40895088
        0x0000e158:    02700270    p.p.    DCD    40895088
        0x0000e15c:    02700270    p.p.    DCD    40895088
        0x0000e160:    02700270    p.p.    DCD    40895088
        0x0000e164:    02700270    p.p.    DCD    40895088
        0x0000e168:    016f0033    3.o.    DCD    24051763
        0x0000e16c:    02240270    p.$.    DCD    35914352
        0x0000e170:    02700270    p.p.    DCD    40895088
        0x0000e174:    0270016f    o.p.    DCD    40894831
        0x0000e178:    02700270    p.p.    DCD    40895088
        0x0000e17c:    02700270    p.p.    DCD    40895088
        0x0000e180:    02700270    p.p.    DCD    40895088
        0x0000e184:    02700270    p.p.    DCD    40895088
        0x0000e188:    02700047    G.p.    DCD    40894535
        0x0000e18c:    02700119    ..p.    DCD    40894745
        0x0000e190:    00bb0270    p...    DCD    12255856
    $t.5
        0x0000e194:    981d        ..      LDR      r0,[sp,#0x74]
        0x0000e196:    1d01        ..      ADDS     r1,r0,#4
        0x0000e198:    911d        ..      STR      r1,[sp,#0x74]
        0x0000e19a:    6800        .h      LDR      r0,[r0,#0]
        0x0000e19c:    f88d0043    ..C.    STRB     r0,[sp,#0x43]
        0x0000e1a0:    981c        ..      LDR      r0,[sp,#0x70]
        0x0000e1a2:    b138        8.      CBZ      r0,0xe1b4 ; am_util_stdio_vsprintf + 448
        0x0000e1a4:    e7ff        ..      B        0xe1a6 ; am_util_stdio_vsprintf + 434
        0x0000e1a6:    f89d0043    ..C.    LDRB     r0,[sp,#0x43]
        0x0000e1aa:    991c        ..      LDR      r1,[sp,#0x70]
        0x0000e1ac:    1c4a        J.      ADDS     r2,r1,#1
        0x0000e1ae:    921c        ..      STR      r2,[sp,#0x70]
        0x0000e1b0:    7008        .p      STRB     r0,[r1,#0]
        0x0000e1b2:    e7ff        ..      B        0xe1b4 ; am_util_stdio_vsprintf + 448
        0x0000e1b4:    9814        ..      LDR      r0,[sp,#0x50]
        0x0000e1b6:    3001        .0      ADDS     r0,#1
        0x0000e1b8:    9014        ..      STR      r0,[sp,#0x50]
        0x0000e1ba:    e236        6.      B        0xe62a ; am_util_stdio_vsprintf + 1590
        0x0000e1bc:    981d        ..      LDR      r0,[sp,#0x74]
        0x0000e1be:    1d01        ..      ADDS     r1,r0,#4
        0x0000e1c0:    911d        ..      STR      r1,[sp,#0x74]
        0x0000e1c2:    6800        .h      LDR      r0,[r0,#0]
        0x0000e1c4:    901a        ..      STR      r0,[sp,#0x68]
        0x0000e1c6:    981a        ..      LDR      r0,[sp,#0x68]
        0x0000e1c8:    f000fdb4    ....    BL       simple_strlen ; 0xed34
        0x0000e1cc:    900e        ..      STR      r0,[sp,#0x38]
        0x0000e1ce:    9813        ..      LDR      r0,[sp,#0x4c]
        0x0000e1d0:    2801        .(      CMP      r0,#1
        0x0000e1d2:    db25        %.      BLT      0xe220 ; am_util_stdio_vsprintf + 556
        0x0000e1d4:    e7ff        ..      B        0xe1d6 ; am_util_stdio_vsprintf + 482
        0x0000e1d6:    980e        ..      LDR      r0,[sp,#0x38]
        0x0000e1d8:    9913        ..      LDR      r1,[sp,#0x4c]
        0x0000e1da:    4288        .B      CMP      r0,r1
        0x0000e1dc:    d21f        ..      BCS      0xe21e ; am_util_stdio_vsprintf + 554
        0x0000e1de:    e7ff        ..      B        0xe1e0 ; am_util_stdio_vsprintf + 492
        0x0000e1e0:    990e        ..      LDR      r1,[sp,#0x38]
        0x0000e1e2:    9813        ..      LDR      r0,[sp,#0x4c]
        0x0000e1e4:    1a40        @.      SUBS     r0,r0,r1
        0x0000e1e6:    9013        ..      STR      r0,[sp,#0x4c]
        0x0000e1e8:    981c        ..      LDR      r0,[sp,#0x70]
        0x0000e1ea:    f89d1042    ..B.    LDRB     r1,[sp,#0x42]
        0x0000e1ee:    9a13        ..      LDR      r2,[sp,#0x4c]
        0x0000e1f0:    f000fd56    ..V.    BL       padbuffer ; 0xeca0
        0x0000e1f4:    9013        ..      STR      r0,[sp,#0x4c]
        0x0000e1f6:    981c        ..      LDR      r0,[sp,#0x70]
        0x0000e1f8:    b118        ..      CBZ      r0,0xe202 ; am_util_stdio_vsprintf + 526
        0x0000e1fa:    e7ff        ..      B        0xe1fc ; am_util_stdio_vsprintf + 520
        0x0000e1fc:    9813        ..      LDR      r0,[sp,#0x4c]
        0x0000e1fe:    900a        ..      STR      r0,[sp,#0x28]
        0x0000e200:    e002        ..      B        0xe208 ; am_util_stdio_vsprintf + 532
        0x0000e202:    2000        .       MOVS     r0,#0
        0x0000e204:    900a        ..      STR      r0,[sp,#0x28]
        0x0000e206:    e7ff        ..      B        0xe208 ; am_util_stdio_vsprintf + 532
        0x0000e208:    990a        ..      LDR      r1,[sp,#0x28]
        0x0000e20a:    981c        ..      LDR      r0,[sp,#0x70]
        0x0000e20c:    4408        .D      ADD      r0,r0,r1
        0x0000e20e:    901c        ..      STR      r0,[sp,#0x70]
        0x0000e210:    9913        ..      LDR      r1,[sp,#0x4c]
        0x0000e212:    9814        ..      LDR      r0,[sp,#0x50]
        0x0000e214:    4408        .D      ADD      r0,r0,r1
        0x0000e216:    9014        ..      STR      r0,[sp,#0x50]
        0x0000e218:    2000        .       MOVS     r0,#0
        0x0000e21a:    9013        ..      STR      r0,[sp,#0x4c]
        0x0000e21c:    e7ff        ..      B        0xe21e ; am_util_stdio_vsprintf + 554
        0x0000e21e:    e7ff        ..      B        0xe220 ; am_util_stdio_vsprintf + 556
        0x0000e220:    e7ff        ..      B        0xe222 ; am_util_stdio_vsprintf + 558
        0x0000e222:    981a        ..      LDR      r0,[sp,#0x68]
        0x0000e224:    7800        .x      LDRB     r0,[r0,#0]
        0x0000e226:    b188        ..      CBZ      r0,0xe24c ; am_util_stdio_vsprintf + 600
        0x0000e228:    e7ff        ..      B        0xe22a ; am_util_stdio_vsprintf + 566
        0x0000e22a:    981c        ..      LDR      r0,[sp,#0x70]
        0x0000e22c:    b138        8.      CBZ      r0,0xe23e ; am_util_stdio_vsprintf + 586
        0x0000e22e:    e7ff        ..      B        0xe230 ; am_util_stdio_vsprintf + 572
        0x0000e230:    981a        ..      LDR      r0,[sp,#0x68]
        0x0000e232:    7800        .x      LDRB     r0,[r0,#0]
        0x0000e234:    991c        ..      LDR      r1,[sp,#0x70]
        0x0000e236:    1c4a        J.      ADDS     r2,r1,#1
        0x0000e238:    921c        ..      STR      r2,[sp,#0x70]
        0x0000e23a:    7008        .p      STRB     r0,[r1,#0]
        0x0000e23c:    e7ff        ..      B        0xe23e ; am_util_stdio_vsprintf + 586
        0x0000e23e:    981a        ..      LDR      r0,[sp,#0x68]
        0x0000e240:    3001        .0      ADDS     r0,#1
        0x0000e242:    901a        ..      STR      r0,[sp,#0x68]
        0x0000e244:    9814        ..      LDR      r0,[sp,#0x50]
        0x0000e246:    3001        .0      ADDS     r0,#1
        0x0000e248:    9014        ..      STR      r0,[sp,#0x50]
        0x0000e24a:    e7ea        ..      B        0xe222 ; am_util_stdio_vsprintf + 558
        0x0000e24c:    9813        ..      LDR      r0,[sp,#0x4c]
        0x0000e24e:    b340        @.      CBZ      r0,0xe2a2 ; am_util_stdio_vsprintf + 686
        0x0000e250:    e7ff        ..      B        0xe252 ; am_util_stdio_vsprintf + 606
        0x0000e252:    9813        ..      LDR      r0,[sp,#0x4c]
        0x0000e254:    4240        @B      RSBS     r0,r0,#0
        0x0000e256:    9013        ..      STR      r0,[sp,#0x4c]
        0x0000e258:    980e        ..      LDR      r0,[sp,#0x38]
        0x0000e25a:    9913        ..      LDR      r1,[sp,#0x4c]
        0x0000e25c:    4288        .B      CMP      r0,r1
        0x0000e25e:    d21f        ..      BCS      0xe2a0 ; am_util_stdio_vsprintf + 684
        0x0000e260:    e7ff        ..      B        0xe262 ; am_util_stdio_vsprintf + 622
        0x0000e262:    990e        ..      LDR      r1,[sp,#0x38]
        0x0000e264:    9813        ..      LDR      r0,[sp,#0x4c]
        0x0000e266:    1a40        @.      SUBS     r0,r0,r1
        0x0000e268:    9013        ..      STR      r0,[sp,#0x4c]
        0x0000e26a:    981c        ..      LDR      r0,[sp,#0x70]
        0x0000e26c:    f89d1042    ..B.    LDRB     r1,[sp,#0x42]
        0x0000e270:    9a13        ..      LDR      r2,[sp,#0x4c]
        0x0000e272:    f000fd15    ....    BL       padbuffer ; 0xeca0
        0x0000e276:    9013        ..      STR      r0,[sp,#0x4c]
        0x0000e278:    981c        ..      LDR      r0,[sp,#0x70]
        0x0000e27a:    b118        ..      CBZ      r0,0xe284 ; am_util_stdio_vsprintf + 656
        0x0000e27c:    e7ff        ..      B        0xe27e ; am_util_stdio_vsprintf + 650
        0x0000e27e:    9813        ..      LDR      r0,[sp,#0x4c]
        0x0000e280:    9009        ..      STR      r0,[sp,#0x24]
        0x0000e282:    e002        ..      B        0xe28a ; am_util_stdio_vsprintf + 662
        0x0000e284:    2000        .       MOVS     r0,#0
        0x0000e286:    9009        ..      STR      r0,[sp,#0x24]
        0x0000e288:    e7ff        ..      B        0xe28a ; am_util_stdio_vsprintf + 662
        0x0000e28a:    9909        ..      LDR      r1,[sp,#0x24]
        0x0000e28c:    981c        ..      LDR      r0,[sp,#0x70]
        0x0000e28e:    4408        .D      ADD      r0,r0,r1
        0x0000e290:    901c        ..      STR      r0,[sp,#0x70]
        0x0000e292:    9913        ..      LDR      r1,[sp,#0x4c]
        0x0000e294:    9814        ..      LDR      r0,[sp,#0x50]
        0x0000e296:    4408        .D      ADD      r0,r0,r1
        0x0000e298:    9014        ..      STR      r0,[sp,#0x50]
        0x0000e29a:    2000        .       MOVS     r0,#0
        0x0000e29c:    9013        ..      STR      r0,[sp,#0x4c]
        0x0000e29e:    e7ff        ..      B        0xe2a0 ; am_util_stdio_vsprintf + 684
        0x0000e2a0:    e7ff        ..      B        0xe2a2 ; am_util_stdio_vsprintf + 686
        0x0000e2a2:    e1c2        ..      B        0xe62a ; am_util_stdio_vsprintf + 1590
        0x0000e2a4:    2001        .       MOVS     r0,#1
        0x0000e2a6:    f88d0041    ..A.    STRB     r0,[sp,#0x41]
        0x0000e2aa:    e7ff        ..      B        0xe2ac ; am_util_stdio_vsprintf + 696
        0x0000e2ac:    f89d0040    ..@.    LDRB     r0,[sp,#0x40]
        0x0000e2b0:    07c0        ..      LSLS     r0,r0,#31
        0x0000e2b2:    b160        `.      CBZ      r0,0xe2ce ; am_util_stdio_vsprintf + 730
        0x0000e2b4:    e7ff        ..      B        0xe2b6 ; am_util_stdio_vsprintf + 706
        0x0000e2b6:    981d        ..      LDR      r0,[sp,#0x74]
        0x0000e2b8:    3007        .0      ADDS     r0,#7
        0x0000e2ba:    f0200007     ...    BIC      r0,r0,#7
        0x0000e2be:    f1000108    ....    ADD      r1,r0,#8
        0x0000e2c2:    911d        ..      STR      r1,[sp,#0x74]
        0x0000e2c4:    6801        .h      LDR      r1,[r0,#0]
        0x0000e2c6:    6840        @h      LDR      r0,[r0,#4]
        0x0000e2c8:    9107        ..      STR      r1,[sp,#0x1c]
        0x0000e2ca:    9008        ..      STR      r0,[sp,#0x20]
        0x0000e2cc:    e007        ..      B        0xe2de ; am_util_stdio_vsprintf + 746
        0x0000e2ce:    981d        ..      LDR      r0,[sp,#0x74]
        0x0000e2d0:    1d01        ..      ADDS     r1,r0,#4
        0x0000e2d2:    911d        ..      STR      r1,[sp,#0x74]
        0x0000e2d4:    6801        .h      LDR      r1,[r0,#0]
        0x0000e2d6:    2000        .       MOVS     r0,#0
        0x0000e2d8:    9107        ..      STR      r1,[sp,#0x1c]
        0x0000e2da:    9008        ..      STR      r0,[sp,#0x20]
        0x0000e2dc:    e7ff        ..      B        0xe2de ; am_util_stdio_vsprintf + 746
        0x0000e2de:    9907        ..      LDR      r1,[sp,#0x1c]
        0x0000e2e0:    9808        ..      LDR      r0,[sp,#0x20]
        0x0000e2e2:    9118        ..      STR      r1,[sp,#0x60]
        0x0000e2e4:    9019        ..      STR      r0,[sp,#0x64]
        0x0000e2e6:    9813        ..      LDR      r0,[sp,#0x4c]
        0x0000e2e8:    b318        ..      CBZ      r0,0xe332 ; am_util_stdio_vsprintf + 830
        0x0000e2ea:    e7ff        ..      B        0xe2ec ; am_util_stdio_vsprintf + 760
        0x0000e2ec:    9818        ..      LDR      r0,[sp,#0x60]
        0x0000e2ee:    9919        ..      LDR      r1,[sp,#0x64]
        0x0000e2f0:    f000fc80    ....    BL       ndigits_in_hex ; 0xebf4
        0x0000e2f4:    4601        .F      MOV      r1,r0
        0x0000e2f6:    9813        ..      LDR      r0,[sp,#0x4c]
        0x0000e2f8:    1a40        @.      SUBS     r0,r0,r1
        0x0000e2fa:    9013        ..      STR      r0,[sp,#0x4c]
        0x0000e2fc:    981c        ..      LDR      r0,[sp,#0x70]
        0x0000e2fe:    f89d1042    ..B.    LDRB     r1,[sp,#0x42]
        0x0000e302:    9a13        ..      LDR      r2,[sp,#0x4c]
        0x0000e304:    f000fccc    ....    BL       padbuffer ; 0xeca0
        0x0000e308:    9013        ..      STR      r0,[sp,#0x4c]
        0x0000e30a:    981c        ..      LDR      r0,[sp,#0x70]
        0x0000e30c:    b118        ..      CBZ      r0,0xe316 ; am_util_stdio_vsprintf + 802
        0x0000e30e:    e7ff        ..      B        0xe310 ; am_util_stdio_vsprintf + 796
        0x0000e310:    9813        ..      LDR      r0,[sp,#0x4c]
        0x0000e312:    9006        ..      STR      r0,[sp,#0x18]
        0x0000e314:    e002        ..      B        0xe31c ; am_util_stdio_vsprintf + 808
        0x0000e316:    2000        .       MOVS     r0,#0
        0x0000e318:    9006        ..      STR      r0,[sp,#0x18]
        0x0000e31a:    e7ff        ..      B        0xe31c ; am_util_stdio_vsprintf + 808
        0x0000e31c:    9906        ..      LDR      r1,[sp,#0x18]
        0x0000e31e:    981c        ..      LDR      r0,[sp,#0x70]
        0x0000e320:    4408        .D      ADD      r0,r0,r1
        0x0000e322:    901c        ..      STR      r0,[sp,#0x70]
        0x0000e324:    9913        ..      LDR      r1,[sp,#0x4c]
        0x0000e326:    9814        ..      LDR      r0,[sp,#0x50]
        0x0000e328:    4408        .D      ADD      r0,r0,r1
        0x0000e32a:    9014        ..      STR      r0,[sp,#0x50]
        0x0000e32c:    2000        .       MOVS     r0,#0
        0x0000e32e:    9013        ..      STR      r0,[sp,#0x4c]
        0x0000e330:    e7ff        ..      B        0xe332 ; am_util_stdio_vsprintf + 830
        0x0000e332:    9818        ..      LDR      r0,[sp,#0x60]
        0x0000e334:    9919        ..      LDR      r1,[sp,#0x64]
        0x0000e336:    9a1c        ..      LDR      r2,[sp,#0x70]
        0x0000e338:    f89d3041    ..A0    LDRB     r3,[sp,#0x41]
        0x0000e33c:    f0030301    ....    AND      r3,r3,#1
        0x0000e340:    f000fd14    ....    BL       uint64_to_hexstr ; 0xed6c
        0x0000e344:    9012        ..      STR      r0,[sp,#0x48]
        0x0000e346:    981c        ..      LDR      r0,[sp,#0x70]
        0x0000e348:    b128        (.      CBZ      r0,0xe356 ; am_util_stdio_vsprintf + 866
        0x0000e34a:    e7ff        ..      B        0xe34c ; am_util_stdio_vsprintf + 856
        0x0000e34c:    9912        ..      LDR      r1,[sp,#0x48]
        0x0000e34e:    981c        ..      LDR      r0,[sp,#0x70]
        0x0000e350:    4408        .D      ADD      r0,r0,r1
        0x0000e352:    901c        ..      STR      r0,[sp,#0x70]
        0x0000e354:    e7ff        ..      B        0xe356 ; am_util_stdio_vsprintf + 866
        0x0000e356:    9912        ..      LDR      r1,[sp,#0x48]
        0x0000e358:    9814        ..      LDR      r0,[sp,#0x50]
        0x0000e35a:    4408        .D      ADD      r0,r0,r1
        0x0000e35c:    9014        ..      STR      r0,[sp,#0x50]
        0x0000e35e:    e164        d.      B        0xe62a ; am_util_stdio_vsprintf + 1590
        0x0000e360:    f89d0040    ..@.    LDRB     r0,[sp,#0x40]
        0x0000e364:    07c0        ..      LSLS     r0,r0,#31
        0x0000e366:    b160        `.      CBZ      r0,0xe382 ; am_util_stdio_vsprintf + 910
        0x0000e368:    e7ff        ..      B        0xe36a ; am_util_stdio_vsprintf + 886
        0x0000e36a:    981d        ..      LDR      r0,[sp,#0x74]
        0x0000e36c:    3007        .0      ADDS     r0,#7
        0x0000e36e:    f0200007     ...    BIC      r0,r0,#7
        0x0000e372:    f1000108    ....    ADD      r1,r0,#8
        0x0000e376:    911d        ..      STR      r1,[sp,#0x74]
        0x0000e378:    6801        .h      LDR      r1,[r0,#0]
        0x0000e37a:    6840        @h      LDR      r0,[r0,#4]
        0x0000e37c:    9104        ..      STR      r1,[sp,#0x10]
        0x0000e37e:    9005        ..      STR      r0,[sp,#0x14]
        0x0000e380:    e007        ..      B        0xe392 ; am_util_stdio_vsprintf + 926
        0x0000e382:    981d        ..      LDR      r0,[sp,#0x74]
        0x0000e384:    1d01        ..      ADDS     r1,r0,#4
        0x0000e386:    911d        ..      STR      r1,[sp,#0x74]
        0x0000e388:    6801        .h      LDR      r1,[r0,#0]
        0x0000e38a:    2000        .       MOVS     r0,#0
        0x0000e38c:    9104        ..      STR      r1,[sp,#0x10]
        0x0000e38e:    9005        ..      STR      r0,[sp,#0x14]
        0x0000e390:    e7ff        ..      B        0xe392 ; am_util_stdio_vsprintf + 926
        0x0000e392:    9904        ..      LDR      r1,[sp,#0x10]
        0x0000e394:    9805        ..      LDR      r0,[sp,#0x14]
        0x0000e396:    9118        ..      STR      r1,[sp,#0x60]
        0x0000e398:    9019        ..      STR      r0,[sp,#0x64]
        0x0000e39a:    9813        ..      LDR      r0,[sp,#0x4c]
        0x0000e39c:    b318        ..      CBZ      r0,0xe3e6 ; am_util_stdio_vsprintf + 1010
        0x0000e39e:    e7ff        ..      B        0xe3a0 ; am_util_stdio_vsprintf + 940
        0x0000e3a0:    9818        ..      LDR      r0,[sp,#0x60]
        0x0000e3a2:    9919        ..      LDR      r1,[sp,#0x64]
        0x0000e3a4:    f000fc5e    ..^.    BL       ndigits_in_u64 ; 0xec64
        0x0000e3a8:    4601        .F      MOV      r1,r0
        0x0000e3aa:    9813        ..      LDR      r0,[sp,#0x4c]
        0x0000e3ac:    1a40        @.      SUBS     r0,r0,r1
        0x0000e3ae:    9013        ..      STR      r0,[sp,#0x4c]
        0x0000e3b0:    981c        ..      LDR      r0,[sp,#0x70]
        0x0000e3b2:    f89d1042    ..B.    LDRB     r1,[sp,#0x42]
        0x0000e3b6:    9a13        ..      LDR      r2,[sp,#0x4c]
        0x0000e3b8:    f000fc72    ..r.    BL       padbuffer ; 0xeca0
        0x0000e3bc:    9013        ..      STR      r0,[sp,#0x4c]
        0x0000e3be:    981c        ..      LDR      r0,[sp,#0x70]
        0x0000e3c0:    b118        ..      CBZ      r0,0xe3ca ; am_util_stdio_vsprintf + 982
        0x0000e3c2:    e7ff        ..      B        0xe3c4 ; am_util_stdio_vsprintf + 976
        0x0000e3c4:    9813        ..      LDR      r0,[sp,#0x4c]
        0x0000e3c6:    9003        ..      STR      r0,[sp,#0xc]
        0x0000e3c8:    e002        ..      B        0xe3d0 ; am_util_stdio_vsprintf + 988
        0x0000e3ca:    2000        .       MOVS     r0,#0
        0x0000e3cc:    9003        ..      STR      r0,[sp,#0xc]
        0x0000e3ce:    e7ff        ..      B        0xe3d0 ; am_util_stdio_vsprintf + 988
        0x0000e3d0:    9903        ..      LDR      r1,[sp,#0xc]
        0x0000e3d2:    981c        ..      LDR      r0,[sp,#0x70]
        0x0000e3d4:    4408        .D      ADD      r0,r0,r1
        0x0000e3d6:    901c        ..      STR      r0,[sp,#0x70]
        0x0000e3d8:    9913        ..      LDR      r1,[sp,#0x4c]
        0x0000e3da:    9814        ..      LDR      r0,[sp,#0x50]
        0x0000e3dc:    4408        .D      ADD      r0,r0,r1
        0x0000e3de:    9014        ..      STR      r0,[sp,#0x50]
        0x0000e3e0:    2000        .       MOVS     r0,#0
        0x0000e3e2:    9013        ..      STR      r0,[sp,#0x4c]
        0x0000e3e4:    e7ff        ..      B        0xe3e6 ; am_util_stdio_vsprintf + 1010
        0x0000e3e6:    9818        ..      LDR      r0,[sp,#0x60]
        0x0000e3e8:    9919        ..      LDR      r1,[sp,#0x64]
        0x0000e3ea:    9a1c        ..      LDR      r2,[sp,#0x70]
        0x0000e3ec:    f000fd1e    ....    BL       uint64_to_str ; 0xee2c
        0x0000e3f0:    9012        ..      STR      r0,[sp,#0x48]
        0x0000e3f2:    981c        ..      LDR      r0,[sp,#0x70]
        0x0000e3f4:    b128        (.      CBZ      r0,0xe402 ; am_util_stdio_vsprintf + 1038
        0x0000e3f6:    e7ff        ..      B        0xe3f8 ; am_util_stdio_vsprintf + 1028
        0x0000e3f8:    9912        ..      LDR      r1,[sp,#0x48]
        0x0000e3fa:    981c        ..      LDR      r0,[sp,#0x70]
        0x0000e3fc:    4408        .D      ADD      r0,r0,r1
        0x0000e3fe:    901c        ..      STR      r0,[sp,#0x70]
        0x0000e400:    e7ff        ..      B        0xe402 ; am_util_stdio_vsprintf + 1038
        0x0000e402:    9912        ..      LDR      r1,[sp,#0x48]
        0x0000e404:    9814        ..      LDR      r0,[sp,#0x50]
        0x0000e406:    4408        .D      ADD      r0,r0,r1
        0x0000e408:    9014        ..      STR      r0,[sp,#0x50]
        0x0000e40a:    e10e        ..      B        0xe62a ; am_util_stdio_vsprintf + 1590
        0x0000e40c:    f89d0040    ..@.    LDRB     r0,[sp,#0x40]
        0x0000e410:    07c0        ..      LSLS     r0,r0,#31
        0x0000e412:    b160        `.      CBZ      r0,0xe42e ; am_util_stdio_vsprintf + 1082
        0x0000e414:    e7ff        ..      B        0xe416 ; am_util_stdio_vsprintf + 1058
        0x0000e416:    981d        ..      LDR      r0,[sp,#0x74]
        0x0000e418:    3007        .0      ADDS     r0,#7
        0x0000e41a:    f0200007     ...    BIC      r0,r0,#7
        0x0000e41e:    f1000108    ....    ADD      r1,r0,#8
        0x0000e422:    911d        ..      STR      r1,[sp,#0x74]
        0x0000e424:    6801        .h      LDR      r1,[r0,#0]
        0x0000e426:    6840        @h      LDR      r0,[r0,#4]
        0x0000e428:    9101        ..      STR      r1,[sp,#4]
        0x0000e42a:    9002        ..      STR      r0,[sp,#8]
        0x0000e42c:    e007        ..      B        0xe43e ; am_util_stdio_vsprintf + 1098
        0x0000e42e:    981d        ..      LDR      r0,[sp,#0x74]
        0x0000e430:    1d01        ..      ADDS     r1,r0,#4
        0x0000e432:    911d        ..      STR      r1,[sp,#0x74]
        0x0000e434:    6801        .h      LDR      r1,[r0,#0]
        0x0000e436:    17c8        ..      ASRS     r0,r1,#31
        0x0000e438:    9101        ..      STR      r1,[sp,#4]
        0x0000e43a:    9002        ..      STR      r0,[sp,#8]
        0x0000e43c:    e7ff        ..      B        0xe43e ; am_util_stdio_vsprintf + 1098
        0x0000e43e:    9901        ..      LDR      r1,[sp,#4]
        0x0000e440:    9802        ..      LDR      r0,[sp,#8]
        0x0000e442:    9116        ..      STR      r1,[sp,#0x58]
        0x0000e444:    9017        ..      STR      r0,[sp,#0x5c]
        0x0000e446:    9817        ..      LDR      r0,[sp,#0x5c]
        0x0000e448:    f1b03fff    ...?    CMP      r0,#0xffffffff
        0x0000e44c:    dc0c        ..      BGT      0xe468 ; am_util_stdio_vsprintf + 1140
        0x0000e44e:    e7ff        ..      B        0xe450 ; am_util_stdio_vsprintf + 1116
        0x0000e450:    9816        ..      LDR      r0,[sp,#0x58]
        0x0000e452:    9a17        ..      LDR      r2,[sp,#0x5c]
        0x0000e454:    4241        AB      RSBS     r1,r0,#0
        0x0000e456:    f04f0000    O...    MOV      r0,#0
        0x0000e45a:    4190        .A      SBCS     r0,r0,r2
        0x0000e45c:    9118        ..      STR      r1,[sp,#0x60]
        0x0000e45e:    9019        ..      STR      r0,[sp,#0x64]
        0x0000e460:    2001        .       MOVS     r0,#1
        0x0000e462:    f88d003f    ..?.    STRB     r0,[sp,#0x3f]
        0x0000e466:    e007        ..      B        0xe478 ; am_util_stdio_vsprintf + 1156
        0x0000e468:    9816        ..      LDR      r0,[sp,#0x58]
        0x0000e46a:    9917        ..      LDR      r1,[sp,#0x5c]
        0x0000e46c:    9119        ..      STR      r1,[sp,#0x64]
        0x0000e46e:    9018        ..      STR      r0,[sp,#0x60]
        0x0000e470:    2000        .       MOVS     r0,#0
        0x0000e472:    f88d003f    ..?.    STRB     r0,[sp,#0x3f]
        0x0000e476:    e7ff        ..      B        0xe478 ; am_util_stdio_vsprintf + 1156
        0x0000e478:    9813        ..      LDR      r0,[sp,#0x4c]
        0x0000e47a:    2800        .(      CMP      r0,#0
        0x0000e47c:    d055        U.      BEQ      0xe52a ; am_util_stdio_vsprintf + 1334
        0x0000e47e:    e7ff        ..      B        0xe480 ; am_util_stdio_vsprintf + 1164
        0x0000e480:    9818        ..      LDR      r0,[sp,#0x60]
        0x0000e482:    9919        ..      LDR      r1,[sp,#0x64]
        0x0000e484:    f000fbd6    ....    BL       ndigits_in_i64 ; 0xec34
        0x0000e488:    4601        .F      MOV      r1,r0
        0x0000e48a:    9813        ..      LDR      r0,[sp,#0x4c]
        0x0000e48c:    1a40        @.      SUBS     r0,r0,r1
        0x0000e48e:    9013        ..      STR      r0,[sp,#0x4c]
        0x0000e490:    f89d003f    ..?.    LDRB     r0,[sp,#0x3f]
        0x0000e494:    07c0        ..      LSLS     r0,r0,#31
        0x0000e496:    b1b0        ..      CBZ      r0,0xe4c6 ; am_util_stdio_vsprintf + 1234
        0x0000e498:    e7ff        ..      B        0xe49a ; am_util_stdio_vsprintf + 1190
        0x0000e49a:    9813        ..      LDR      r0,[sp,#0x4c]
        0x0000e49c:    3801        .8      SUBS     r0,#1
        0x0000e49e:    9013        ..      STR      r0,[sp,#0x4c]
        0x0000e4a0:    f89d0042    ..B.    LDRB     r0,[sp,#0x42]
        0x0000e4a4:    2830        0(      CMP      r0,#0x30
        0x0000e4a6:    d10d        ..      BNE      0xe4c4 ; am_util_stdio_vsprintf + 1232
        0x0000e4a8:    e7ff        ..      B        0xe4aa ; am_util_stdio_vsprintf + 1206
        0x0000e4aa:    981c        ..      LDR      r0,[sp,#0x70]
        0x0000e4ac:    b130        0.      CBZ      r0,0xe4bc ; am_util_stdio_vsprintf + 1224
        0x0000e4ae:    e7ff        ..      B        0xe4b0 ; am_util_stdio_vsprintf + 1212
        0x0000e4b0:    991c        ..      LDR      r1,[sp,#0x70]
        0x0000e4b2:    1c48        H.      ADDS     r0,r1,#1
        0x0000e4b4:    901c        ..      STR      r0,[sp,#0x70]
        0x0000e4b6:    202d        -       MOVS     r0,#0x2d
        0x0000e4b8:    7008        .p      STRB     r0,[r1,#0]
        0x0000e4ba:    e7ff        ..      B        0xe4bc ; am_util_stdio_vsprintf + 1224
        0x0000e4bc:    9814        ..      LDR      r0,[sp,#0x50]
        0x0000e4be:    3001        .0      ADDS     r0,#1
        0x0000e4c0:    9014        ..      STR      r0,[sp,#0x50]
        0x0000e4c2:    e7ff        ..      B        0xe4c4 ; am_util_stdio_vsprintf + 1232
        0x0000e4c4:    e7ff        ..      B        0xe4c6 ; am_util_stdio_vsprintf + 1234
        0x0000e4c6:    981c        ..      LDR      r0,[sp,#0x70]
        0x0000e4c8:    f89d1042    ..B.    LDRB     r1,[sp,#0x42]
        0x0000e4cc:    9a13        ..      LDR      r2,[sp,#0x4c]
        0x0000e4ce:    f000fbe7    ....    BL       padbuffer ; 0xeca0
        0x0000e4d2:    9013        ..      STR      r0,[sp,#0x4c]
        0x0000e4d4:    981c        ..      LDR      r0,[sp,#0x70]
        0x0000e4d6:    b118        ..      CBZ      r0,0xe4e0 ; am_util_stdio_vsprintf + 1260
        0x0000e4d8:    e7ff        ..      B        0xe4da ; am_util_stdio_vsprintf + 1254
        0x0000e4da:    9813        ..      LDR      r0,[sp,#0x4c]
        0x0000e4dc:    9000        ..      STR      r0,[sp,#0]
        0x0000e4de:    e002        ..      B        0xe4e6 ; am_util_stdio_vsprintf + 1266
        0x0000e4e0:    2000        .       MOVS     r0,#0
        0x0000e4e2:    9000        ..      STR      r0,[sp,#0]
        0x0000e4e4:    e7ff        ..      B        0xe4e6 ; am_util_stdio_vsprintf + 1266
        0x0000e4e6:    9900        ..      LDR      r1,[sp,#0]
        0x0000e4e8:    981c        ..      LDR      r0,[sp,#0x70]
        0x0000e4ea:    4408        .D      ADD      r0,r0,r1
        0x0000e4ec:    901c        ..      STR      r0,[sp,#0x70]
        0x0000e4ee:    9913        ..      LDR      r1,[sp,#0x4c]
        0x0000e4f0:    9814        ..      LDR      r0,[sp,#0x50]
        0x0000e4f2:    4408        .D      ADD      r0,r0,r1
        0x0000e4f4:    9014        ..      STR      r0,[sp,#0x50]
        0x0000e4f6:    2000        .       MOVS     r0,#0
        0x0000e4f8:    9013        ..      STR      r0,[sp,#0x4c]
        0x0000e4fa:    f89d003f    ..?.    LDRB     r0,[sp,#0x3f]
        0x0000e4fe:    07c0        ..      LSLS     r0,r0,#31
        0x0000e500:    b190        ..      CBZ      r0,0xe528 ; am_util_stdio_vsprintf + 1332
        0x0000e502:    e7ff        ..      B        0xe504 ; am_util_stdio_vsprintf + 1296
        0x0000e504:    f89d0042    ..B.    LDRB     r0,[sp,#0x42]
        0x0000e508:    2820         (      CMP      r0,#0x20
        0x0000e50a:    d10d        ..      BNE      0xe528 ; am_util_stdio_vsprintf + 1332
        0x0000e50c:    e7ff        ..      B        0xe50e ; am_util_stdio_vsprintf + 1306
        0x0000e50e:    981c        ..      LDR      r0,[sp,#0x70]
        0x0000e510:    b130        0.      CBZ      r0,0xe520 ; am_util_stdio_vsprintf + 1324
        0x0000e512:    e7ff        ..      B        0xe514 ; am_util_stdio_vsprintf + 1312
        0x0000e514:    991c        ..      LDR      r1,[sp,#0x70]
        0x0000e516:    1c48        H.      ADDS     r0,r1,#1
        0x0000e518:    901c        ..      STR      r0,[sp,#0x70]
        0x0000e51a:    202d        -       MOVS     r0,#0x2d
        0x0000e51c:    7008        .p      STRB     r0,[r1,#0]
        0x0000e51e:    e7ff        ..      B        0xe520 ; am_util_stdio_vsprintf + 1324
        0x0000e520:    9814        ..      LDR      r0,[sp,#0x50]
        0x0000e522:    3001        .0      ADDS     r0,#1
        0x0000e524:    9014        ..      STR      r0,[sp,#0x50]
        0x0000e526:    e7ff        ..      B        0xe528 ; am_util_stdio_vsprintf + 1332
        0x0000e528:    e012        ..      B        0xe550 ; am_util_stdio_vsprintf + 1372
        0x0000e52a:    f89d003f    ..?.    LDRB     r0,[sp,#0x3f]
        0x0000e52e:    07c0        ..      LSLS     r0,r0,#31
        0x0000e530:    b168        h.      CBZ      r0,0xe54e ; am_util_stdio_vsprintf + 1370
        0x0000e532:    e7ff        ..      B        0xe534 ; am_util_stdio_vsprintf + 1344
        0x0000e534:    981c        ..      LDR      r0,[sp,#0x70]
        0x0000e536:    b130        0.      CBZ      r0,0xe546 ; am_util_stdio_vsprintf + 1362
        0x0000e538:    e7ff        ..      B        0xe53a ; am_util_stdio_vsprintf + 1350
        0x0000e53a:    991c        ..      LDR      r1,[sp,#0x70]
        0x0000e53c:    1c48        H.      ADDS     r0,r1,#1
        0x0000e53e:    901c        ..      STR      r0,[sp,#0x70]
        0x0000e540:    202d        -       MOVS     r0,#0x2d
        0x0000e542:    7008        .p      STRB     r0,[r1,#0]
        0x0000e544:    e7ff        ..      B        0xe546 ; am_util_stdio_vsprintf + 1362
        0x0000e546:    9814        ..      LDR      r0,[sp,#0x50]
        0x0000e548:    3001        .0      ADDS     r0,#1
        0x0000e54a:    9014        ..      STR      r0,[sp,#0x50]
        0x0000e54c:    e7ff        ..      B        0xe54e ; am_util_stdio_vsprintf + 1370
        0x0000e54e:    e7ff        ..      B        0xe550 ; am_util_stdio_vsprintf + 1372
        0x0000e550:    9818        ..      LDR      r0,[sp,#0x60]
        0x0000e552:    9919        ..      LDR      r1,[sp,#0x64]
        0x0000e554:    9a1c        ..      LDR      r2,[sp,#0x70]
        0x0000e556:    f000fc69    ..i.    BL       uint64_to_str ; 0xee2c
        0x0000e55a:    9012        ..      STR      r0,[sp,#0x48]
        0x0000e55c:    981c        ..      LDR      r0,[sp,#0x70]
        0x0000e55e:    b128        (.      CBZ      r0,0xe56c ; am_util_stdio_vsprintf + 1400
        0x0000e560:    e7ff        ..      B        0xe562 ; am_util_stdio_vsprintf + 1390
        0x0000e562:    9912        ..      LDR      r1,[sp,#0x48]
        0x0000e564:    981c        ..      LDR      r0,[sp,#0x70]
        0x0000e566:    4408        .D      ADD      r0,r0,r1
        0x0000e568:    901c        ..      STR      r0,[sp,#0x70]
        0x0000e56a:    e7ff        ..      B        0xe56c ; am_util_stdio_vsprintf + 1400
        0x0000e56c:    9912        ..      LDR      r1,[sp,#0x48]
        0x0000e56e:    9814        ..      LDR      r0,[sp,#0x50]
        0x0000e570:    4408        .D      ADD      r0,r0,r1
        0x0000e572:    9014        ..      STR      r0,[sp,#0x50]
        0x0000e574:    e059        Y.      B        0xe62a ; am_util_stdio_vsprintf + 1590
        0x0000e576:    981c        ..      LDR      r0,[sp,#0x70]
        0x0000e578:    2800        .(      CMP      r0,#0
        0x0000e57a:    d047        G.      BEQ      0xe60c ; am_util_stdio_vsprintf + 1560
        0x0000e57c:    e7ff        ..      B        0xe57e ; am_util_stdio_vsprintf + 1418
        0x0000e57e:    981d        ..      LDR      r0,[sp,#0x74]
        0x0000e580:    3007        .0      ADDS     r0,#7
        0x0000e582:    f0200007     ...    BIC      r0,r0,#7
        0x0000e586:    f1000108    ....    ADD      r1,r0,#8
        0x0000e58a:    911d        ..      STR      r1,[sp,#0x74]
        0x0000e58c:    ed900b00    ....    VLDR     d0,[r0,#0]
        0x0000e590:    ec510b10    Q...    VMOV     r0,r1,d0
        0x0000e594:    f000fc8e    ....    BL       __aeabi_d2f ; 0xeeb4
        0x0000e598:    900d        ..      STR      r0,[sp,#0x34]
        0x0000e59a:    991c        ..      LDR      r1,[sp,#0x70]
        0x0000e59c:    2014        .       MOVS     r0,#0x14
        0x0000e59e:    6008        .`      STR      r0,[r1,#0]
        0x0000e5a0:    ed9d0a0d    ....    VLDR     s0,[sp,#0x34]
        0x0000e5a4:    981c        ..      LDR      r0,[sp,#0x70]
        0x0000e5a6:    9911        ..      LDR      r1,[sp,#0x44]
        0x0000e5a8:    f000f94a    ..J.    BL       ftoa ; 0xe840
        0x0000e5ac:    9012        ..      STR      r0,[sp,#0x48]
        0x0000e5ae:    9812        ..      LDR      r0,[sp,#0x48]
        0x0000e5b0:    f1b03fff    ...?    CMP      r0,#0xffffffff
        0x0000e5b4:    dc21        !.      BGT      0xe5fa ; am_util_stdio_vsprintf + 1542
        0x0000e5b6:    e7ff        ..      B        0xe5b8 ; am_util_stdio_vsprintf + 1476
        0x0000e5b8:    9812        ..      LDR      r0,[sp,#0x48]
        0x0000e5ba:    3001        .0      ADDS     r0,#1
        0x0000e5bc:    b930        0.      CBNZ     r0,0xe5cc ; am_util_stdio_vsprintf + 1496
        0x0000e5be:    e7ff        ..      B        0xe5c0 ; am_util_stdio_vsprintf + 1484
        0x0000e5c0:    f6426030    B.0`    MOV      r0,#0x2e30
        0x0000e5c4:    f2c00030    ..0.    MOVT     r0,#0x30
        0x0000e5c8:    900c        ..      STR      r0,[sp,#0x30]
        0x0000e5ca:    e010        ..      B        0xe5ee ; am_util_stdio_vsprintf + 1530
        0x0000e5cc:    9812        ..      LDR      r0,[sp,#0x48]
        0x0000e5ce:    3002        .0      ADDS     r0,#2
        0x0000e5d0:    b930        0.      CBNZ     r0,0xe5e0 ; am_util_stdio_vsprintf + 1516
        0x0000e5d2:    e7ff        ..      B        0xe5d4 ; am_util_stdio_vsprintf + 1504
        0x0000e5d4:    f6426023    B.#`    MOV      r0,#0x2e23
        0x0000e5d8:    f2c00023    ..#.    MOVT     r0,#0x23
        0x0000e5dc:    900c        ..      STR      r0,[sp,#0x30]
        0x0000e5de:    e005        ..      B        0xe5ec ; am_util_stdio_vsprintf + 1528
        0x0000e5e0:    f642603f    B.?`    MOV      r0,#0x2e3f
        0x0000e5e4:    f2c0003f    ..?.    MOVT     r0,#0x3f
        0x0000e5e8:    900c        ..      STR      r0,[sp,#0x30]
        0x0000e5ea:    e7ff        ..      B        0xe5ec ; am_util_stdio_vsprintf + 1528
        0x0000e5ec:    e7ff        ..      B        0xe5ee ; am_util_stdio_vsprintf + 1530
        0x0000e5ee:    980c        ..      LDR      r0,[sp,#0x30]
        0x0000e5f0:    991c        ..      LDR      r1,[sp,#0x70]
        0x0000e5f2:    6008        .`      STR      r0,[r1,#0]
        0x0000e5f4:    2003        .       MOVS     r0,#3
        0x0000e5f6:    9012        ..      STR      r0,[sp,#0x48]
        0x0000e5f8:    e7ff        ..      B        0xe5fa ; am_util_stdio_vsprintf + 1542
        0x0000e5fa:    9912        ..      LDR      r1,[sp,#0x48]
        0x0000e5fc:    9814        ..      LDR      r0,[sp,#0x50]
        0x0000e5fe:    4408        .D      ADD      r0,r0,r1
        0x0000e600:    9014        ..      STR      r0,[sp,#0x50]
        0x0000e602:    9912        ..      LDR      r1,[sp,#0x48]
        0x0000e604:    981c        ..      LDR      r0,[sp,#0x70]
        0x0000e606:    4408        .D      ADD      r0,r0,r1
        0x0000e608:    901c        ..      STR      r0,[sp,#0x70]
        0x0000e60a:    e7ff        ..      B        0xe60c ; am_util_stdio_vsprintf + 1560
        0x0000e60c:    e00d        ..      B        0xe62a ; am_util_stdio_vsprintf + 1590
        0x0000e60e:    981c        ..      LDR      r0,[sp,#0x70]
        0x0000e610:    b138        8.      CBZ      r0,0xe622 ; am_util_stdio_vsprintf + 1582
        0x0000e612:    e7ff        ..      B        0xe614 ; am_util_stdio_vsprintf + 1568
        0x0000e614:    981b        ..      LDR      r0,[sp,#0x6c]
        0x0000e616:    7800        .x      LDRB     r0,[r0,#0]
        0x0000e618:    991c        ..      LDR      r1,[sp,#0x70]
        0x0000e61a:    1c4a        J.      ADDS     r2,r1,#1
        0x0000e61c:    921c        ..      STR      r2,[sp,#0x70]
        0x0000e61e:    7008        .p      STRB     r0,[r1,#0]
        0x0000e620:    e7ff        ..      B        0xe622 ; am_util_stdio_vsprintf + 1582
        0x0000e622:    9814        ..      LDR      r0,[sp,#0x50]
        0x0000e624:    3001        .0      ADDS     r0,#1
        0x0000e626:    9014        ..      STR      r0,[sp,#0x50]
        0x0000e628:    e7ff        ..      B        0xe62a ; am_util_stdio_vsprintf + 1590
        0x0000e62a:    981b        ..      LDR      r0,[sp,#0x6c]
        0x0000e62c:    3001        .0      ADDS     r0,#1
        0x0000e62e:    901b        ..      STR      r0,[sp,#0x6c]
        0x0000e630:    f7ffbce9    ....    B.W      0xe006 ; am_util_stdio_vsprintf + 18
        0x0000e634:    981c        ..      LDR      r0,[sp,#0x70]
        0x0000e636:    b120         .      CBZ      r0,0xe642 ; am_util_stdio_vsprintf + 1614
        0x0000e638:    e7ff        ..      B        0xe63a ; am_util_stdio_vsprintf + 1606
        0x0000e63a:    991c        ..      LDR      r1,[sp,#0x70]
        0x0000e63c:    2000        .       MOVS     r0,#0
        0x0000e63e:    7008        .p      STRB     r0,[r1,#0]
        0x0000e640:    e7ff        ..      B        0xe642 ; am_util_stdio_vsprintf + 1614
        0x0000e642:    9814        ..      LDR      r0,[sp,#0x50]
        0x0000e644:    b01e        ..      ADD      sp,sp,#0x78
        0x0000e646:    bd80        ..      POP      {r7,pc}
    am_valid_sp
        0x0000e648:    b082        ..      SUB      sp,sp,#8
        0x0000e64a:    9000        ..      STR      r0,[sp,#0]
        0x0000e64c:    9800        ..      LDR      r0,[sp,#0]
        0x0000e64e:    f1b05f80    ..._    CMP      r0,#0x10000000
        0x0000e652:    d30c        ..      BCC      0xe66e ; am_valid_sp + 38
        0x0000e654:    e7ff        ..      B        0xe656 ; am_valid_sp + 14
        0x0000e656:    9800        ..      LDR      r0,[sp,#0]
        0x0000e658:    f64f71ff    O..q    MOV      r1,#0xffff
        0x0000e65c:    f2c10105    ....    MOVT     r1,#0x1005
        0x0000e660:    4288        .B      CMP      r0,r1
        0x0000e662:    d804        ..      BHI      0xe66e ; am_valid_sp + 38
        0x0000e664:    e7ff        ..      B        0xe666 ; am_valid_sp + 30
        0x0000e666:    2001        .       MOVS     r0,#1
        0x0000e668:    f88d0007    ....    STRB     r0,[sp,#7]
        0x0000e66c:    e003        ..      B        0xe676 ; am_valid_sp + 46
        0x0000e66e:    2000        .       MOVS     r0,#0
        0x0000e670:    f88d0007    ....    STRB     r0,[sp,#7]
        0x0000e674:    e7ff        ..      B        0xe676 ; am_valid_sp + 46
        0x0000e676:    f89d0007    ....    LDRB     r0,[sp,#7]
        0x0000e67a:    b002        ..      ADD      sp,sp,#8
        0x0000e67c:    4770        pG      BX       lr
        0x0000e67e:    0000        ..      MOVS     r0,r0
    decstr_to_int
        0x0000e680:    b087        ..      SUB      sp,sp,#0x1c
        0x0000e682:    9006        ..      STR      r0,[sp,#0x18]
        0x0000e684:    9105        ..      STR      r1,[sp,#0x14]
        0x0000e686:    2000        .       MOVS     r0,#0
        0x0000e688:    f88d0013    ....    STRB     r0,[sp,#0x13]
        0x0000e68c:    9003        ..      STR      r0,[sp,#0xc]
        0x0000e68e:    9002        ..      STR      r0,[sp,#8]
        0x0000e690:    9806        ..      LDR      r0,[sp,#0x18]
        0x0000e692:    7800        .x      LDRB     r0,[r0,#0]
        0x0000e694:    282d        -(      CMP      r0,#0x2d
        0x0000e696:    d10a        ..      BNE      0xe6ae ; decstr_to_int + 46
        0x0000e698:    e7ff        ..      B        0xe69a ; decstr_to_int + 26
        0x0000e69a:    2001        .       MOVS     r0,#1
        0x0000e69c:    f88d0013    ....    STRB     r0,[sp,#0x13]
        0x0000e6a0:    9806        ..      LDR      r0,[sp,#0x18]
        0x0000e6a2:    3001        .0      ADDS     r0,#1
        0x0000e6a4:    9006        ..      STR      r0,[sp,#0x18]
        0x0000e6a6:    9802        ..      LDR      r0,[sp,#8]
        0x0000e6a8:    3001        .0      ADDS     r0,#1
        0x0000e6aa:    9002        ..      STR      r0,[sp,#8]
        0x0000e6ac:    e7ff        ..      B        0xe6ae ; decstr_to_int + 46
        0x0000e6ae:    e7ff        ..      B        0xe6b0 ; decstr_to_int + 48
        0x0000e6b0:    9806        ..      LDR      r0,[sp,#0x18]
        0x0000e6b2:    7801        .x      LDRB     r1,[r0,#0]
        0x0000e6b4:    2000        .       MOVS     r0,#0
        0x0000e6b6:    2930        0)      CMP      r1,#0x30
        0x0000e6b8:    9001        ..      STR      r0,[sp,#4]
        0x0000e6ba:    db08        ..      BLT      0xe6ce ; decstr_to_int + 78
        0x0000e6bc:    e7ff        ..      B        0xe6be ; decstr_to_int + 62
        0x0000e6be:    9806        ..      LDR      r0,[sp,#0x18]
        0x0000e6c0:    7801        .x      LDRB     r1,[r0,#0]
        0x0000e6c2:    2000        .       MOVS     r0,#0
        0x0000e6c4:    293a        :)      CMP      r1,#0x3a
        0x0000e6c6:    bfb8        ..      IT       LT
        0x0000e6c8:    2001        .       MOVLT    r0,#1
        0x0000e6ca:    9001        ..      STR      r0,[sp,#4]
        0x0000e6cc:    e7ff        ..      B        0xe6ce ; decstr_to_int + 78
        0x0000e6ce:    9801        ..      LDR      r0,[sp,#4]
        0x0000e6d0:    07c0        ..      LSLS     r0,r0,#31
        0x0000e6d2:    b190        ..      CBZ      r0,0xe6fa ; decstr_to_int + 122
        0x0000e6d4:    e7ff        ..      B        0xe6d6 ; decstr_to_int + 86
        0x0000e6d6:    9802        ..      LDR      r0,[sp,#8]
        0x0000e6d8:    3001        .0      ADDS     r0,#1
        0x0000e6da:    9002        ..      STR      r0,[sp,#8]
        0x0000e6dc:    9803        ..      LDR      r0,[sp,#0xc]
        0x0000e6de:    eb000080    ....    ADD      r0,r0,r0,LSL #2
        0x0000e6e2:    0040        @.      LSLS     r0,r0,#1
        0x0000e6e4:    9003        ..      STR      r0,[sp,#0xc]
        0x0000e6e6:    9806        ..      LDR      r0,[sp,#0x18]
        0x0000e6e8:    7800        .x      LDRB     r0,[r0,#0]
        0x0000e6ea:    9903        ..      LDR      r1,[sp,#0xc]
        0x0000e6ec:    4408        .D      ADD      r0,r0,r1
        0x0000e6ee:    3830        08      SUBS     r0,r0,#0x30
        0x0000e6f0:    9003        ..      STR      r0,[sp,#0xc]
        0x0000e6f2:    9806        ..      LDR      r0,[sp,#0x18]
        0x0000e6f4:    3001        .0      ADDS     r0,#1
        0x0000e6f6:    9006        ..      STR      r0,[sp,#0x18]
        0x0000e6f8:    e7da        ..      B        0xe6b0 ; decstr_to_int + 48
        0x0000e6fa:    9805        ..      LDR      r0,[sp,#0x14]
        0x0000e6fc:    b120         .      CBZ      r0,0xe708 ; decstr_to_int + 136
        0x0000e6fe:    e7ff        ..      B        0xe700 ; decstr_to_int + 128
        0x0000e700:    9802        ..      LDR      r0,[sp,#8]
        0x0000e702:    9905        ..      LDR      r1,[sp,#0x14]
        0x0000e704:    6008        .`      STR      r0,[r1,#0]
        0x0000e706:    e7ff        ..      B        0xe708 ; decstr_to_int + 136
        0x0000e708:    f89d0013    ....    LDRB     r0,[sp,#0x13]
        0x0000e70c:    07c0        ..      LSLS     r0,r0,#31
        0x0000e70e:    b120         .      CBZ      r0,0xe71a ; decstr_to_int + 154
        0x0000e710:    e7ff        ..      B        0xe712 ; decstr_to_int + 146
        0x0000e712:    9803        ..      LDR      r0,[sp,#0xc]
        0x0000e714:    4240        @B      RSBS     r0,r0,#0
        0x0000e716:    9000        ..      STR      r0,[sp,#0]
        0x0000e718:    e002        ..      B        0xe720 ; decstr_to_int + 160
        0x0000e71a:    9803        ..      LDR      r0,[sp,#0xc]
        0x0000e71c:    9000        ..      STR      r0,[sp,#0]
        0x0000e71e:    e7ff        ..      B        0xe720 ; decstr_to_int + 160
        0x0000e720:    9800        ..      LDR      r0,[sp,#0]
        0x0000e722:    b007        ..      ADD      sp,sp,#0x1c
        0x0000e724:    4770        pG      BX       lr
        0x0000e726:    0000        ..      MOVS     r0,r0
    divu64_10
        0x0000e728:    b08c        ..      SUB      sp,sp,#0x30
        0x0000e72a:    9109        ..      STR      r1,[sp,#0x24]
        0x0000e72c:    9008        ..      STR      r0,[sp,#0x20]
        0x0000e72e:    9809        ..      LDR      r0,[sp,#0x24]
        0x0000e730:    2800        .(      CMP      r0,#0
        0x0000e732:    d05b        [.      BEQ      0xe7ec ; divu64_10 + 196
        0x0000e734:    e7ff        ..      B        0xe736 ; divu64_10 + 14
        0x0000e736:    9b08        ..      LDR      r3,[sp,#0x20]
        0x0000e738:    9a09        ..      LDR      r2,[sp,#0x24]
        0x0000e73a:    ea5f0052    _.R.    LSRS.W   r0,r2,#1
        0x0000e73e:    ea4f0133    O.3.    RRX      r1,r3
        0x0000e742:    089b        ..      LSRS     r3,r3,#2
        0x0000e744:    ea437382    C..s    ORR      r3,r3,r2,LSL #30
        0x0000e748:    18c9        ..      ADDS     r1,r1,r3
        0x0000e74a:    eb400092    @...    ADC      r0,r0,r2,LSR #2
        0x0000e74e:    9106        ..      STR      r1,[sp,#0x18]
        0x0000e750:    9007        ..      STR      r0,[sp,#0x1c]
        0x0000e752:    9906        ..      LDR      r1,[sp,#0x18]
        0x0000e754:    9807        ..      LDR      r0,[sp,#0x1c]
        0x0000e756:    090a        ..      LSRS     r2,r1,#4
        0x0000e758:    ea427200    B..r    ORR      r2,r2,r0,LSL #28
        0x0000e75c:    1889        ..      ADDS     r1,r1,r2
        0x0000e75e:    eb401010    @...    ADC      r0,r0,r0,LSR #4
        0x0000e762:    9106        ..      STR      r1,[sp,#0x18]
        0x0000e764:    9007        ..      STR      r0,[sp,#0x1c]
        0x0000e766:    9906        ..      LDR      r1,[sp,#0x18]
        0x0000e768:    9807        ..      LDR      r0,[sp,#0x1c]
        0x0000e76a:    0a0a        ..      LSRS     r2,r1,#8
        0x0000e76c:    ea426200    B..b    ORR      r2,r2,r0,LSL #24
        0x0000e770:    1889        ..      ADDS     r1,r1,r2
        0x0000e772:    eb402010    @..     ADC      r0,r0,r0,LSR #8
        0x0000e776:    9106        ..      STR      r1,[sp,#0x18]
        0x0000e778:    9007        ..      STR      r0,[sp,#0x1c]
        0x0000e77a:    9906        ..      LDR      r1,[sp,#0x18]
        0x0000e77c:    9807        ..      LDR      r0,[sp,#0x1c]
        0x0000e77e:    0c0a        ..      LSRS     r2,r1,#16
        0x0000e780:    ea424200    B..B    ORR      r2,r2,r0,LSL #16
        0x0000e784:    1889        ..      ADDS     r1,r1,r2
        0x0000e786:    eb404010    @..@    ADC      r0,r0,r0,LSR #16
        0x0000e78a:    9106        ..      STR      r1,[sp,#0x18]
        0x0000e78c:    9007        ..      STR      r0,[sp,#0x1c]
        0x0000e78e:    9906        ..      LDR      r1,[sp,#0x18]
        0x0000e790:    9807        ..      LDR      r0,[sp,#0x1c]
        0x0000e792:    1809        ..      ADDS     r1,r1,r0
        0x0000e794:    f1400000    @...    ADC      r0,r0,#0
        0x0000e798:    9106        ..      STR      r1,[sp,#0x18]
        0x0000e79a:    9007        ..      STR      r0,[sp,#0x1c]
        0x0000e79c:    9806        ..      LDR      r0,[sp,#0x18]
        0x0000e79e:    9907        ..      LDR      r1,[sp,#0x1c]
        0x0000e7a0:    08c0        ..      LSRS     r0,r0,#3
        0x0000e7a2:    ea407041    @.Ap    ORR      r0,r0,r1,LSL #29
        0x0000e7a6:    08c9        ..      LSRS     r1,r1,#3
        0x0000e7a8:    9107        ..      STR      r1,[sp,#0x1c]
        0x0000e7aa:    9006        ..      STR      r0,[sp,#0x18]
        0x0000e7ac:    9908        ..      LDR      r1,[sp,#0x20]
        0x0000e7ae:    9809        ..      LDR      r0,[sp,#0x24]
        0x0000e7b0:    9a06        ..      LDR      r2,[sp,#0x18]
        0x0000e7b2:    f8ddc01c    ....    LDR      r12,[sp,#0x1c]
        0x0000e7b6:    230a        .#      MOVS     r3,#0xa
        0x0000e7b8:    fba23203    ...2    UMULL    r3,r2,r2,r3
        0x0000e7bc:    eb0c0c8c    ....    ADD      r12,r12,r12,LSL #2
        0x0000e7c0:    eb02024c    ..L.    ADD      r2,r2,r12,LSL #1
        0x0000e7c4:    1ac9        ..      SUBS     r1,r1,r3
        0x0000e7c6:    4190        .A      SBCS     r0,r0,r2
        0x0000e7c8:    9104        ..      STR      r1,[sp,#0x10]
        0x0000e7ca:    9005        ..      STR      r0,[sp,#0x14]
        0x0000e7cc:    9906        ..      LDR      r1,[sp,#0x18]
        0x0000e7ce:    9807        ..      LDR      r0,[sp,#0x1c]
        0x0000e7d0:    9b04        ..      LDR      r3,[sp,#0x10]
        0x0000e7d2:    9a05        ..      LDR      r2,[sp,#0x14]
        0x0000e7d4:    3306        .3      ADDS     r3,#6
        0x0000e7d6:    f1420200    B...    ADC      r2,r2,#0
        0x0000e7da:    091b        ..      LSRS     r3,r3,#4
        0x0000e7dc:    ea437302    C..s    ORR      r3,r3,r2,LSL #28
        0x0000e7e0:    18c9        ..      ADDS     r1,r1,r3
        0x0000e7e2:    eb401012    @...    ADC      r0,r0,r2,LSR #4
        0x0000e7e6:    910a        ..      STR      r1,[sp,#0x28]
        0x0000e7e8:    900b        ..      STR      r0,[sp,#0x2c]
        0x0000e7ea:    e025        %.      B        0xe838 ; divu64_10 + 272
        0x0000e7ec:    9808        ..      LDR      r0,[sp,#0x20]
        0x0000e7ee:    9001        ..      STR      r0,[sp,#4]
        0x0000e7f0:    9901        ..      LDR      r1,[sp,#4]
        0x0000e7f2:    0848        H.      LSRS     r0,r1,#1
        0x0000e7f4:    eb000091    ....    ADD      r0,r0,r1,LSR #2
        0x0000e7f8:    9003        ..      STR      r0,[sp,#0xc]
        0x0000e7fa:    9803        ..      LDR      r0,[sp,#0xc]
        0x0000e7fc:    eb001010    ....    ADD      r0,r0,r0,LSR #4
        0x0000e800:    9003        ..      STR      r0,[sp,#0xc]
        0x0000e802:    9803        ..      LDR      r0,[sp,#0xc]
        0x0000e804:    eb002010    ...     ADD      r0,r0,r0,LSR #8
        0x0000e808:    9003        ..      STR      r0,[sp,#0xc]
        0x0000e80a:    9803        ..      LDR      r0,[sp,#0xc]
        0x0000e80c:    eb004010    ...@    ADD      r0,r0,r0,LSR #16
        0x0000e810:    9003        ..      STR      r0,[sp,#0xc]
        0x0000e812:    9803        ..      LDR      r0,[sp,#0xc]
        0x0000e814:    08c0        ..      LSRS     r0,r0,#3
        0x0000e816:    9003        ..      STR      r0,[sp,#0xc]
        0x0000e818:    9801        ..      LDR      r0,[sp,#4]
        0x0000e81a:    9903        ..      LDR      r1,[sp,#0xc]
        0x0000e81c:    eb010181    ....    ADD      r1,r1,r1,LSL #2
        0x0000e820:    eba00041    ..A.    SUB      r0,r0,r1,LSL #1
        0x0000e824:    9002        ..      STR      r0,[sp,#8]
        0x0000e826:    9803        ..      LDR      r0,[sp,#0xc]
        0x0000e828:    9902        ..      LDR      r1,[sp,#8]
        0x0000e82a:    3106        .1      ADDS     r1,#6
        0x0000e82c:    eb001011    ....    ADD      r0,r0,r1,LSR #4
        0x0000e830:    2100        .!      MOVS     r1,#0
        0x0000e832:    910b        ..      STR      r1,[sp,#0x2c]
        0x0000e834:    900a        ..      STR      r0,[sp,#0x28]
        0x0000e836:    e7ff        ..      B        0xe838 ; divu64_10 + 272
        0x0000e838:    980a        ..      LDR      r0,[sp,#0x28]
        0x0000e83a:    990b        ..      LDR      r1,[sp,#0x2c]
        0x0000e83c:    b00c        ..      ADD      sp,sp,#0x30
        0x0000e83e:    4770        pG      BX       lr
    ftoa
        0x0000e840:    b580        ..      PUSH     {r7,lr}
        0x0000e842:    b090        ..      SUB      sp,sp,#0x40
        0x0000e844:    ed8d0a0e    ....    VSTR     s0,[sp,#0x38]
        0x0000e848:    900d        ..      STR      r0,[sp,#0x34]
        0x0000e84a:    910c        ..      STR      r1,[sp,#0x30]
        0x0000e84c:    980d        ..      LDR      r0,[sp,#0x34]
        0x0000e84e:    6800        .h      LDR      r0,[r0,#0]
        0x0000e850:    9009        ..      STR      r0,[sp,#0x24]
        0x0000e852:    9809        ..      LDR      r0,[sp,#0x24]
        0x0000e854:    2803        .(      CMP      r0,#3
        0x0000e856:    dc04        ..      BGT      0xe862 ; ftoa + 34
        0x0000e858:    e7ff        ..      B        0xe85a ; ftoa + 26
        0x0000e85a:    f06f0002    o...    MVN      r0,#2
        0x0000e85e:    900f        ..      STR      r0,[sp,#0x3c]
        0x0000e860:    e103        ..      B        0xea6a ; ftoa + 554
        0x0000e862:    ed9d0a0e    ....    VLDR     s0,[sp,#0x38]
        0x0000e866:    eeb50a40    ..@.    VCMP.F32 s0,#0.0
        0x0000e86a:    eef1fa10    ....    VMRS     APSR_nzcv,FPSCR
        0x0000e86e:    d109        ..      BNE      0xe884 ; ftoa + 68
        0x0000e870:    e7ff        ..      B        0xe872 ; ftoa + 50
        0x0000e872:    990d        ..      LDR      r1,[sp,#0x34]
        0x0000e874:    f6426030    B.0`    MOV      r0,#0x2e30
        0x0000e878:    f2c00030    ..0.    MOVT     r0,#0x30
        0x0000e87c:    6008        .`      STR      r0,[r1,#0]
        0x0000e87e:    2003        .       MOVS     r0,#3
        0x0000e880:    900f        ..      STR      r0,[sp,#0x3c]
        0x0000e882:    e0f2        ..      B        0xea6a ; ftoa + 554
        0x0000e884:    980d        ..      LDR      r0,[sp,#0x34]
        0x0000e886:    9005        ..      STR      r0,[sp,#0x14]
        0x0000e888:    980e        ..      LDR      r0,[sp,#0x38]
        0x0000e88a:    900b        ..      STR      r0,[sp,#0x2c]
        0x0000e88c:    980b        ..      LDR      r0,[sp,#0x2c]
        0x0000e88e:    0dc1        ..      LSRS     r1,r0,#23
        0x0000e890:    f06f007e    o.~.    MVN      r0,#0x7e
        0x0000e894:    fa50f081    P...    UXTAB    r0,r0,r1
        0x0000e898:    900a        ..      STR      r0,[sp,#0x28]
        0x0000e89a:    980b        ..      LDR      r0,[sp,#0x2c]
        0x0000e89c:    f4400000    @...    ORR      r0,r0,#0x800000
        0x0000e8a0:    f020407f     ..@    BIC      r0,r0,#0xff000000
        0x0000e8a4:    9008        ..      STR      r0,[sp,#0x20]
        0x0000e8a6:    2000        .       MOVS     r0,#0
        0x0000e8a8:    9006        ..      STR      r0,[sp,#0x18]
        0x0000e8aa:    9007        ..      STR      r0,[sp,#0x1c]
        0x0000e8ac:    980a        ..      LDR      r0,[sp,#0x28]
        0x0000e8ae:    281f        .(      CMP      r0,#0x1f
        0x0000e8b0:    db04        ..      BLT      0xe8bc ; ftoa + 124
        0x0000e8b2:    e7ff        ..      B        0xe8b4 ; ftoa + 116
        0x0000e8b4:    f06f0001    o...    MVN      r0,#1
        0x0000e8b8:    900f        ..      STR      r0,[sp,#0x3c]
        0x0000e8ba:    e0d6        ..      B        0xea6a ; ftoa + 554
        0x0000e8bc:    980a        ..      LDR      r0,[sp,#0x28]
        0x0000e8be:    f1100f18    ....    CMN      r0,#0x18
        0x0000e8c2:    dc04        ..      BGT      0xe8ce ; ftoa + 142
        0x0000e8c4:    e7ff        ..      B        0xe8c6 ; ftoa + 134
        0x0000e8c6:    f04f30ff    O..0    MOV      r0,#0xffffffff
        0x0000e8ca:    900f        ..      STR      r0,[sp,#0x3c]
        0x0000e8cc:    e0cd        ..      B        0xea6a ; ftoa + 554
        0x0000e8ce:    980a        ..      LDR      r0,[sp,#0x28]
        0x0000e8d0:    2817        .(      CMP      r0,#0x17
        0x0000e8d2:    db06        ..      BLT      0xe8e2 ; ftoa + 162
        0x0000e8d4:    e7ff        ..      B        0xe8d6 ; ftoa + 150
        0x0000e8d6:    9808        ..      LDR      r0,[sp,#0x20]
        0x0000e8d8:    990a        ..      LDR      r1,[sp,#0x28]
        0x0000e8da:    3917        .9      SUBS     r1,r1,#0x17
        0x0000e8dc:    4088        .@      LSLS     r0,r0,r1
        0x0000e8de:    9007        ..      STR      r0,[sp,#0x1c]
        0x0000e8e0:    e01a        ..      B        0xe918 ; ftoa + 216
        0x0000e8e2:    980a        ..      LDR      r0,[sp,#0x28]
        0x0000e8e4:    2800        .(      CMP      r0,#0
        0x0000e8e6:    d40e        ..      BMI      0xe906 ; ftoa + 198
        0x0000e8e8:    e7ff        ..      B        0xe8ea ; ftoa + 170
        0x0000e8ea:    9808        ..      LDR      r0,[sp,#0x20]
        0x0000e8ec:    990a        ..      LDR      r1,[sp,#0x28]
        0x0000e8ee:    f1c10117    ....    RSB      r1,r1,#0x17
        0x0000e8f2:    4108        .A      ASRS     r0,r0,r1
        0x0000e8f4:    9007        ..      STR      r0,[sp,#0x1c]
        0x0000e8f6:    9808        ..      LDR      r0,[sp,#0x20]
        0x0000e8f8:    990a        ..      LDR      r1,[sp,#0x28]
        0x0000e8fa:    3101        .1      ADDS     r1,#1
        0x0000e8fc:    4088        .@      LSLS     r0,r0,r1
        0x0000e8fe:    f020407f     ..@    BIC      r0,r0,#0xff000000
        0x0000e902:    9006        ..      STR      r0,[sp,#0x18]
        0x0000e904:    e007        ..      B        0xe916 ; ftoa + 214
        0x0000e906:    9808        ..      LDR      r0,[sp,#0x20]
        0x0000e908:    f020407f     ..@    BIC      r0,r0,#0xff000000
        0x0000e90c:    990a        ..      LDR      r1,[sp,#0x28]
        0x0000e90e:    43c9        .C      MVNS     r1,r1
        0x0000e910:    40c8        .@      LSRS     r0,r0,r1
        0x0000e912:    9006        ..      STR      r0,[sp,#0x18]
        0x0000e914:    e7ff        ..      B        0xe916 ; ftoa + 214
        0x0000e916:    e7ff        ..      B        0xe918 ; ftoa + 216
        0x0000e918:    e7ff        ..      B        0xe91a ; ftoa + 218
        0x0000e91a:    e7ff        ..      B        0xe91c ; ftoa + 220
        0x0000e91c:    980b        ..      LDR      r0,[sp,#0x2c]
        0x0000e91e:    f1b03fff    ...?    CMP      r0,#0xffffffff
        0x0000e922:    dc06        ..      BGT      0xe932 ; ftoa + 242
        0x0000e924:    e7ff        ..      B        0xe926 ; ftoa + 230
        0x0000e926:    990d        ..      LDR      r1,[sp,#0x34]
        0x0000e928:    1c48        H.      ADDS     r0,r1,#1
        0x0000e92a:    900d        ..      STR      r0,[sp,#0x34]
        0x0000e92c:    202d        -       MOVS     r0,#0x2d
        0x0000e92e:    7008        .p      STRB     r0,[r1,#0]
        0x0000e930:    e7ff        ..      B        0xe932 ; ftoa + 242
        0x0000e932:    9807        ..      LDR      r0,[sp,#0x1c]
        0x0000e934:    b930        0.      CBNZ     r0,0xe944 ; ftoa + 260
        0x0000e936:    e7ff        ..      B        0xe938 ; ftoa + 248
        0x0000e938:    990d        ..      LDR      r1,[sp,#0x34]
        0x0000e93a:    1c48        H.      ADDS     r0,r1,#1
        0x0000e93c:    900d        ..      STR      r0,[sp,#0x34]
        0x0000e93e:    2030        0       MOVS     r0,#0x30
        0x0000e940:    7008        .p      STRB     r0,[r1,#0]
        0x0000e942:    e01f        ..      B        0xe984 ; ftoa + 324
        0x0000e944:    9807        ..      LDR      r0,[sp,#0x1c]
        0x0000e946:    2801        .(      CMP      r0,#1
        0x0000e948:    db06        ..      BLT      0xe958 ; ftoa + 280
        0x0000e94a:    e7ff        ..      B        0xe94c ; ftoa + 268
        0x0000e94c:    9807        ..      LDR      r0,[sp,#0x1c]
        0x0000e94e:    17c1        ..      ASRS     r1,r0,#31
        0x0000e950:    9a0d        ..      LDR      r2,[sp,#0x34]
        0x0000e952:    f000fa6b    ..k.    BL       uint64_to_str ; 0xee2c
        0x0000e956:    e00b        ..      B        0xe970 ; ftoa + 304
        0x0000e958:    990d        ..      LDR      r1,[sp,#0x34]
        0x0000e95a:    1c48        H.      ADDS     r0,r1,#1
        0x0000e95c:    900d        ..      STR      r0,[sp,#0x34]
        0x0000e95e:    202d        -       MOVS     r0,#0x2d
        0x0000e960:    7008        .p      STRB     r0,[r1,#0]
        0x0000e962:    9807        ..      LDR      r0,[sp,#0x1c]
        0x0000e964:    4240        @B      RSBS     r0,r0,#0
        0x0000e966:    17c1        ..      ASRS     r1,r0,#31
        0x0000e968:    9a0d        ..      LDR      r2,[sp,#0x34]
        0x0000e96a:    f000fa5f    .._.    BL       uint64_to_str ; 0xee2c
        0x0000e96e:    e7ff        ..      B        0xe970 ; ftoa + 304
        0x0000e970:    e7ff        ..      B        0xe972 ; ftoa + 306
        0x0000e972:    980d        ..      LDR      r0,[sp,#0x34]
        0x0000e974:    7800        .x      LDRB     r0,[r0,#0]
        0x0000e976:    b120         .      CBZ      r0,0xe982 ; ftoa + 322
        0x0000e978:    e7ff        ..      B        0xe97a ; ftoa + 314
        0x0000e97a:    980d        ..      LDR      r0,[sp,#0x34]
        0x0000e97c:    3001        .0      ADDS     r0,#1
        0x0000e97e:    900d        ..      STR      r0,[sp,#0x34]
        0x0000e980:    e7f7        ..      B        0xe972 ; ftoa + 306
        0x0000e982:    e7ff        ..      B        0xe984 ; ftoa + 324
        0x0000e984:    990d        ..      LDR      r1,[sp,#0x34]
        0x0000e986:    1c48        H.      ADDS     r0,r1,#1
        0x0000e988:    900d        ..      STR      r0,[sp,#0x34]
        0x0000e98a:    202e        .       MOVS     r0,#0x2e
        0x0000e98c:    7008        .p      STRB     r0,[r1,#0]
        0x0000e98e:    9806        ..      LDR      r0,[sp,#0x18]
        0x0000e990:    b930        0.      CBNZ     r0,0xe9a0 ; ftoa + 352
        0x0000e992:    e7ff        ..      B        0xe994 ; ftoa + 340
        0x0000e994:    990d        ..      LDR      r1,[sp,#0x34]
        0x0000e996:    1c48        H.      ADDS     r0,r1,#1
        0x0000e998:    900d        ..      STR      r0,[sp,#0x34]
        0x0000e99a:    2030        0       MOVS     r0,#0x30
        0x0000e99c:    7008        .p      STRB     r0,[r1,#0]
        0x0000e99e:    e05c        \.      B        0xea5a ; ftoa + 538
        0x0000e9a0:    9909        ..      LDR      r1,[sp,#0x24]
        0x0000e9a2:    980d        ..      LDR      r0,[sp,#0x34]
        0x0000e9a4:    9a05        ..      LDR      r2,[sp,#0x14]
        0x0000e9a6:    1a80        ..      SUBS     r0,r0,r2
        0x0000e9a8:    43c0        .C      MVNS     r0,r0
        0x0000e9aa:    4408        .D      ADD      r0,r0,r1
        0x0000e9ac:    9002        ..      STR      r0,[sp,#8]
        0x0000e9ae:    9802        ..      LDR      r0,[sp,#8]
        0x0000e9b0:    990c        ..      LDR      r1,[sp,#0x30]
        0x0000e9b2:    4288        .B      CMP      r0,r1
        0x0000e9b4:    dd03        ..      BLE      0xe9be ; ftoa + 382
        0x0000e9b6:    e7ff        ..      B        0xe9b8 ; ftoa + 376
        0x0000e9b8:    980c        ..      LDR      r0,[sp,#0x30]
        0x0000e9ba:    9001        ..      STR      r0,[sp,#4]
        0x0000e9bc:    e002        ..      B        0xe9c4 ; ftoa + 388
        0x0000e9be:    9802        ..      LDR      r0,[sp,#8]
        0x0000e9c0:    9001        ..      STR      r0,[sp,#4]
        0x0000e9c2:    e7ff        ..      B        0xe9c4 ; ftoa + 388
        0x0000e9c4:    9801        ..      LDR      r0,[sp,#4]
        0x0000e9c6:    9002        ..      STR      r0,[sp,#8]
        0x0000e9c8:    2000        .       MOVS     r0,#0
        0x0000e9ca:    9003        ..      STR      r0,[sp,#0xc]
        0x0000e9cc:    e7ff        ..      B        0xe9ce ; ftoa + 398
        0x0000e9ce:    9803        ..      LDR      r0,[sp,#0xc]
        0x0000e9d0:    9902        ..      LDR      r1,[sp,#8]
        0x0000e9d2:    4288        .B      CMP      r0,r1
        0x0000e9d4:    da15        ..      BGE      0xea02 ; ftoa + 450
        0x0000e9d6:    e7ff        ..      B        0xe9d8 ; ftoa + 408
        0x0000e9d8:    9806        ..      LDR      r0,[sp,#0x18]
        0x0000e9da:    eb000080    ....    ADD      r0,r0,r0,LSL #2
        0x0000e9de:    0040        @.      LSLS     r0,r0,#1
        0x0000e9e0:    9006        ..      STR      r0,[sp,#0x18]
        0x0000e9e2:    f89d001b    ....    LDRB     r0,[sp,#0x1b]
        0x0000e9e6:    3030        00      ADDS     r0,r0,#0x30
        0x0000e9e8:    990d        ..      LDR      r1,[sp,#0x34]
        0x0000e9ea:    1c4a        J.      ADDS     r2,r1,#1
        0x0000e9ec:    920d        ..      STR      r2,[sp,#0x34]
        0x0000e9ee:    7008        .p      STRB     r0,[r1,#0]
        0x0000e9f0:    9806        ..      LDR      r0,[sp,#0x18]
        0x0000e9f2:    f020407f     ..@    BIC      r0,r0,#0xff000000
        0x0000e9f6:    9006        ..      STR      r0,[sp,#0x18]
        0x0000e9f8:    e7ff        ..      B        0xe9fa ; ftoa + 442
        0x0000e9fa:    9803        ..      LDR      r0,[sp,#0xc]
        0x0000e9fc:    3001        .0      ADDS     r0,#1
        0x0000e9fe:    9003        ..      STR      r0,[sp,#0xc]
        0x0000ea00:    e7e5        ..      B        0xe9ce ; ftoa + 398
        0x0000ea02:    9806        ..      LDR      r0,[sp,#0x18]
        0x0000ea04:    eb000080    ....    ADD      r0,r0,r0,LSL #2
        0x0000ea08:    f34050c7    @..P    SBFX     r0,r0,#23,#8
        0x0000ea0c:    2805        .(      CMP      r0,#5
        0x0000ea0e:    db23        #.      BLT      0xea58 ; ftoa + 536
        0x0000ea10:    e7ff        ..      B        0xea12 ; ftoa + 466
        0x0000ea12:    980d        ..      LDR      r0,[sp,#0x34]
        0x0000ea14:    3801        .8      SUBS     r0,#1
        0x0000ea16:    9004        ..      STR      r0,[sp,#0x10]
        0x0000ea18:    e7ff        ..      B        0xea1a ; ftoa + 474
        0x0000ea1a:    9804        ..      LDR      r0,[sp,#0x10]
        0x0000ea1c:    9905        ..      LDR      r1,[sp,#0x14]
        0x0000ea1e:    4288        .B      CMP      r0,r1
        0x0000ea20:    d319        ..      BCC      0xea56 ; ftoa + 534
        0x0000ea22:    e7ff        ..      B        0xea24 ; ftoa + 484
        0x0000ea24:    9804        ..      LDR      r0,[sp,#0x10]
        0x0000ea26:    7800        .x      LDRB     r0,[r0,#0]
        0x0000ea28:    282e        .(      CMP      r0,#0x2e
        0x0000ea2a:    d101        ..      BNE      0xea30 ; ftoa + 496
        0x0000ea2c:    e7ff        ..      B        0xea2e ; ftoa + 494
        0x0000ea2e:    e00e        ..      B        0xea4e ; ftoa + 526
        0x0000ea30:    9804        ..      LDR      r0,[sp,#0x10]
        0x0000ea32:    7800        .x      LDRB     r0,[r0,#0]
        0x0000ea34:    2839        9(      CMP      r0,#0x39
        0x0000ea36:    d104        ..      BNE      0xea42 ; ftoa + 514
        0x0000ea38:    e7ff        ..      B        0xea3a ; ftoa + 506
        0x0000ea3a:    9904        ..      LDR      r1,[sp,#0x10]
        0x0000ea3c:    2030        0       MOVS     r0,#0x30
        0x0000ea3e:    7008        .p      STRB     r0,[r1,#0]
        0x0000ea40:    e004        ..      B        0xea4c ; ftoa + 524
        0x0000ea42:    9904        ..      LDR      r1,[sp,#0x10]
        0x0000ea44:    7808        .x      LDRB     r0,[r1,#0]
        0x0000ea46:    3001        .0      ADDS     r0,#1
        0x0000ea48:    7008        .p      STRB     r0,[r1,#0]
        0x0000ea4a:    e004        ..      B        0xea56 ; ftoa + 534
        0x0000ea4c:    e7ff        ..      B        0xea4e ; ftoa + 526
        0x0000ea4e:    9804        ..      LDR      r0,[sp,#0x10]
        0x0000ea50:    3801        .8      SUBS     r0,#1
        0x0000ea52:    9004        ..      STR      r0,[sp,#0x10]
        0x0000ea54:    e7e1        ..      B        0xea1a ; ftoa + 474
        0x0000ea56:    e7ff        ..      B        0xea58 ; ftoa + 536
        0x0000ea58:    e7ff        ..      B        0xea5a ; ftoa + 538
        0x0000ea5a:    990d        ..      LDR      r1,[sp,#0x34]
        0x0000ea5c:    2000        .       MOVS     r0,#0
        0x0000ea5e:    7008        .p      STRB     r0,[r1,#0]
        0x0000ea60:    980d        ..      LDR      r0,[sp,#0x34]
        0x0000ea62:    9905        ..      LDR      r1,[sp,#0x14]
        0x0000ea64:    1a40        @.      SUBS     r0,r0,r1
        0x0000ea66:    900f        ..      STR      r0,[sp,#0x3c]
        0x0000ea68:    e7ff        ..      B        0xea6a ; ftoa + 554
        0x0000ea6a:    980f        ..      LDR      r0,[sp,#0x3c]
        0x0000ea6c:    b010        ..      ADD      sp,sp,#0x40
        0x0000ea6e:    bd80        ..      POP      {r7,pc}
    global_disable
        0x0000ea70:    f2481100    H...    MOVW     r1,#0x8100
        0x0000ea74:    f2c40100    ....    MOVT     r1,#0x4000
        0x0000ea78:    2000        .       MOVS     r0,#0
        0x0000ea7a:    6008        .`      STR      r0,[r1,#0]
        0x0000ea7c:    4770        pG      BX       lr
        0x0000ea7e:    0000        ..      MOVS     r0,r0
    global_enable
        0x0000ea80:    f2481100    H...    MOVW     r1,#0x8100
        0x0000ea84:    f2c40100    ....    MOVT     r1,#0x4000
        0x0000ea88:    f64f70ff    O..p    MOV      r0,#0xffff
        0x0000ea8c:    6008        .`      STR      r0,[r1,#0]
        0x0000ea8e:    4770        pG      BX       lr
    initialize_pattern_counter
        0x0000ea90:    b580        ..      PUSH     {r7,lr}
        0x0000ea92:    b088        ..      SUB      sp,sp,#0x20
        0x0000ea94:    f8ddc034    ..4.    LDR      r12,[sp,#0x34]
        0x0000ea98:    f8ddc030    ..0.    LDR      r12,[sp,#0x30]
        0x0000ea9c:    f8ddc02c    ..,.    LDR      r12,[sp,#0x2c]
        0x0000eaa0:    f8ddc028    ..(.    LDR      r12,[sp,#0x28]
        0x0000eaa4:    9007        ..      STR      r0,[sp,#0x1c]
        0x0000eaa6:    9106        ..      STR      r1,[sp,#0x18]
        0x0000eaa8:    9305        ..      STR      r3,[sp,#0x14]
        0x0000eaaa:    9204        ..      STR      r2,[sp,#0x10]
        0x0000eaac:    9807        ..      LDR      r0,[sp,#0x1c]
        0x0000eaae:    9906        ..      LDR      r1,[sp,#0x18]
        0x0000eab0:    f7fdff50    ..P.    BL       am_hal_ctimer_clear ; 0xc954
        0x0000eab4:    9807        ..      LDR      r0,[sp,#0x1c]
        0x0000eab6:    9906        ..      LDR      r1,[sp,#0x18]
        0x0000eab8:    9a0d        ..      LDR      r2,[sp,#0x34]
        0x0000eaba:    f4427280    B..r    ORR      r2,r2,#0x100
        0x0000eabe:    f7fdffa3    ....    BL       am_hal_ctimer_config_single ; 0xca08
        0x0000eac2:    9807        ..      LDR      r0,[sp,#0x1c]
        0x0000eac4:    9906        ..      LDR      r1,[sp,#0x18]
        0x0000eac6:    f8bd3010    ...0    LDRH     r3,[sp,#0x10]
        0x0000eaca:    2200        ."      MOVS     r2,#0
        0x0000eacc:    9203        ..      STR      r2,[sp,#0xc]
        0x0000eace:    f7fdff57    ..W.    BL       am_hal_ctimer_compare_set ; 0xc980
        0x0000ead2:    9807        ..      LDR      r0,[sp,#0x1c]
        0x0000ead4:    9906        ..      LDR      r1,[sp,#0x18]
        0x0000ead6:    f8bd3012    ...0    LDRH     r3,[sp,#0x12]
        0x0000eada:    2201        ."      MOVS     r2,#1
        0x0000eadc:    9202        ..      STR      r2,[sp,#8]
        0x0000eade:    f7fdff4f    ..O.    BL       am_hal_ctimer_compare_set ; 0xc980
        0x0000eae2:    9a03        ..      LDR      r2,[sp,#0xc]
        0x0000eae4:    9807        ..      LDR      r0,[sp,#0x1c]
        0x0000eae6:    9906        ..      LDR      r1,[sp,#0x18]
        0x0000eae8:    f8bd3014    ...0    LDRH     r3,[sp,#0x14]
        0x0000eaec:    f7fdfeee    ....    BL       am_hal_ctimer_aux_compare_set ; 0xc8cc
        0x0000eaf0:    9a02        ..      LDR      r2,[sp,#8]
        0x0000eaf2:    9807        ..      LDR      r0,[sp,#0x1c]
        0x0000eaf4:    9906        ..      LDR      r1,[sp,#0x18]
        0x0000eaf6:    f8bd3016    ...0    LDRH     r3,[sp,#0x16]
        0x0000eafa:    f7fdfee7    ....    BL       am_hal_ctimer_aux_compare_set ; 0xc8cc
        0x0000eafe:    9807        ..      LDR      r0,[sp,#0x1c]
        0x0000eb00:    9906        ..      LDR      r1,[sp,#0x18]
        0x0000eb02:    9a0a        ..      LDR      r2,[sp,#0x28]
        0x0000eb04:    9b0b        ..      LDR      r3,[sp,#0x2c]
        0x0000eb06:    ea4212c3    B...    ORR      r2,r2,r3,LSL #7
        0x0000eb0a:    f7fdffc3    ....    BL       am_hal_ctimer_config_trigger ; 0xca94
        0x0000eb0e:    9b03        ..      LDR      r3,[sp,#0xc]
        0x0000eb10:    9807        ..      LDR      r0,[sp,#0x1c]
        0x0000eb12:    9906        ..      LDR      r1,[sp,#0x18]
        0x0000eb14:    9a0c        ..      LDR      r2,[sp,#0x30]
        0x0000eb16:    46ee        .F      MOV      lr,sp
        0x0000eb18:    f04f0c03    O...    MOV      r12,#3
        0x0000eb1c:    f8cec000    ....    STR      r12,[lr,#0]
        0x0000eb20:    f7fdffd4    ....    BL       am_hal_ctimer_output_config ; 0xcacc
        0x0000eb24:    9807        ..      LDR      r0,[sp,#0x1c]
        0x0000eb26:    9906        ..      LDR      r1,[sp,#0x18]
        0x0000eb28:    f7fefa64    ..d.    BL       am_hal_ctimer_start ; 0xcff4
        0x0000eb2c:    b008        ..      ADD      sp,sp,#0x20
        0x0000eb2e:    bd80        ..      POP      {r7,pc}
    initialize_trigger_counter
        0x0000eb30:    b580        ..      PUSH     {r7,lr}
        0x0000eb32:    b084        ..      SUB      sp,sp,#0x10
        0x0000eb34:    2000        .       MOVS     r0,#0
        0x0000eb36:    9003        ..      STR      r0,[sp,#0xc]
        0x0000eb38:    f64f71ff    O..q    MOV      r1,#0xffff
        0x0000eb3c:    9102        ..      STR      r1,[sp,#8]
        0x0000eb3e:    f7fdff09    ....    BL       am_hal_ctimer_clear ; 0xc954
        0x0000eb42:    9803        ..      LDR      r0,[sp,#0xc]
        0x0000eb44:    9902        ..      LDR      r1,[sp,#8]
        0x0000eb46:    2256        V"      MOVS     r2,#0x56
        0x0000eb48:    f7fdff5e    ..^.    BL       am_hal_ctimer_config_single ; 0xca08
        0x0000eb4c:    9b03        ..      LDR      r3,[sp,#0xc]
        0x0000eb4e:    9902        ..      LDR      r1,[sp,#8]
        0x0000eb50:    2220         "      MOVS     r2,#0x20
        0x0000eb52:    4618        .F      MOV      r0,r3
        0x0000eb54:    f7fefa0e    ....    BL       am_hal_ctimer_period_set ; 0xcf74
        0x0000eb58:    9b03        ..      LDR      r3,[sp,#0xc]
        0x0000eb5a:    9902        ..      LDR      r1,[sp,#8]
        0x0000eb5c:    466a        jF      MOV      r2,sp
        0x0000eb5e:    2003        .       MOVS     r0,#3
        0x0000eb60:    6010        .`      STR      r0,[r2,#0]
        0x0000eb62:    220c        ."      MOVS     r2,#0xc
        0x0000eb64:    4618        .F      MOV      r0,r3
        0x0000eb66:    f7fdffb1    ....    BL       am_hal_ctimer_output_config ; 0xcacc
        0x0000eb6a:    9902        ..      LDR      r1,[sp,#8]
        0x0000eb6c:    9803        ..      LDR      r0,[sp,#0xc]
        0x0000eb6e:    f7fefa41    ..A.    BL       am_hal_ctimer_start ; 0xcff4
        0x0000eb72:    b004        ..      ADD      sp,sp,#0x10
        0x0000eb74:    bd80        ..      POP      {r7,pc}
        0x0000eb76:    0000        ..      MOVS     r0,r0
    main
        0x0000eb78:    b580        ..      PUSH     {r7,lr}
        0x0000eb7a:    b086        ..      SUB      sp,sp,#0x18
        0x0000eb7c:    2100        .!      MOVS     r1,#0
        0x0000eb7e:    9104        ..      STR      r1,[sp,#0x10]
        0x0000eb80:    9105        ..      STR      r1,[sp,#0x14]
        0x0000eb82:    4608        .F      MOV      r0,r1
        0x0000eb84:    f7fdfdd6    ....    BL       am_hal_clkgen_control ; 0xc734
        0x0000eb88:    f64e70d6    N..p    MOV      r0,#0xefd6
        0x0000eb8c:    f2c00000    ....    MOVT     r0,#0
        0x0000eb90:    f7fdfc32    ..2.    BL       am_hal_cachectrl_config ; 0xc3f8
        0x0000eb94:    f7fdfdc4    ....    BL       am_hal_cachectrl_enable ; 0xc720
        0x0000eb98:    f7fdfbd2    ....    BL       am_bsp_low_power_init ; 0xc340
        0x0000eb9c:    9904        ..      LDR      r1,[sp,#0x10]
        0x0000eb9e:    2002        .       MOVS     r0,#2
        0x0000eba0:    f7fdfdc8    ....    BL       am_hal_clkgen_control ; 0xc734
        0x0000eba4:    f7fdfbaa    ....    BL       am_bsp_itm_printf_enable ; 0xc2fc
        0x0000eba8:    f7fffa1c    ....    BL       am_util_stdio_terminal_clear ; 0xdfe4
        0x0000ebac:    f24f2096    O..     MOV      r0,#0xf296
        0x0000ebb0:    f2c00000    ....    MOVT     r0,#0
        0x0000ebb4:    f7fff9de    ....    BL       am_util_stdio_printf ; 0xdf74
        0x0000ebb8:    f7fdfb68    ..h.    BL       am_bsp_debug_printf_disable ; 0xc28c
        0x0000ebbc:    f7ffff58    ..X.    BL       global_disable ; 0xea70
        0x0000ebc0:    f7ffffb6    ....    BL       initialize_trigger_counter ; 0xeb30
        0x0000ebc4:    4669        iF      MOV      r1,sp
        0x0000ebc6:    2014        .       MOVS     r0,#0x14
        0x0000ebc8:    60c8        .`      STR      r0,[r1,#0xc]
        0x0000ebca:    2012        .       MOVS     r0,#0x12
        0x0000ebcc:    6088        .`      STR      r0,[r1,#8]
        0x0000ebce:    2004        .       MOVS     r0,#4
        0x0000ebd0:    6048        H`      STR      r0,[r1,#4]
        0x0000ebd2:    203f        ?       MOVS     r0,#0x3f
        0x0000ebd4:    6008        .`      STR      r0,[r1,#0]
        0x0000ebd6:    2001        .       MOVS     r0,#1
        0x0000ebd8:    f64f71ff    O..q    MOV      r1,#0xffff
        0x0000ebdc:    f04f3322    O."3    MOV      r3,#0x22222222
        0x0000ebe0:    461a        .F      MOV      r2,r3
        0x0000ebe2:    f7ffff55    ..U.    BL       initialize_pattern_counter ; 0xea90
        0x0000ebe6:    f7ffff4b    ..K.    BL       global_enable ; 0xea80
        0x0000ebea:    e7ff        ..      B        0xebec ; main + 116
        0x0000ebec:    2001        .       MOVS     r0,#1
        0x0000ebee:    f7feffdd    ....    BL       am_hal_sysctrl_sleep ; 0xdbac
        0x0000ebf2:    e7fb        ..      B        0xebec ; main + 116
    ndigits_in_hex
        0x0000ebf4:    b084        ..      SUB      sp,sp,#0x10
        0x0000ebf6:    9103        ..      STR      r1,[sp,#0xc]
        0x0000ebf8:    9002        ..      STR      r0,[sp,#8]
        0x0000ebfa:    9802        ..      LDR      r0,[sp,#8]
        0x0000ebfc:    9903        ..      LDR      r1,[sp,#0xc]
        0x0000ebfe:    4308        .C      ORRS     r0,r0,r1
        0x0000ec00:    fab0f080    ....    CLZ      r0,r0
        0x0000ec04:    0940        @.      LSRS     r0,r0,#5
        0x0000ec06:    9001        ..      STR      r0,[sp,#4]
        0x0000ec08:    e7ff        ..      B        0xec0a ; ndigits_in_hex + 22
        0x0000ec0a:    9802        ..      LDR      r0,[sp,#8]
        0x0000ec0c:    9903        ..      LDR      r1,[sp,#0xc]
        0x0000ec0e:    4308        .C      ORRS     r0,r0,r1
        0x0000ec10:    b160        `.      CBZ      r0,0xec2c ; ndigits_in_hex + 56
        0x0000ec12:    e7ff        ..      B        0xec14 ; ndigits_in_hex + 32
        0x0000ec14:    9802        ..      LDR      r0,[sp,#8]
        0x0000ec16:    9903        ..      LDR      r1,[sp,#0xc]
        0x0000ec18:    0900        ..      LSRS     r0,r0,#4
        0x0000ec1a:    ea407001    @..p    ORR      r0,r0,r1,LSL #28
        0x0000ec1e:    0909        ..      LSRS     r1,r1,#4
        0x0000ec20:    9103        ..      STR      r1,[sp,#0xc]
        0x0000ec22:    9002        ..      STR      r0,[sp,#8]
        0x0000ec24:    9801        ..      LDR      r0,[sp,#4]
        0x0000ec26:    3001        .0      ADDS     r0,#1
        0x0000ec28:    9001        ..      STR      r0,[sp,#4]
        0x0000ec2a:    e7ee        ..      B        0xec0a ; ndigits_in_hex + 22
        0x0000ec2c:    9801        ..      LDR      r0,[sp,#4]
        0x0000ec2e:    b004        ..      ADD      sp,sp,#0x10
        0x0000ec30:    4770        pG      BX       lr
        0x0000ec32:    0000        ..      MOVS     r0,r0
    ndigits_in_i64
        0x0000ec34:    b580        ..      PUSH     {r7,lr}
        0x0000ec36:    b082        ..      SUB      sp,sp,#8
        0x0000ec38:    9101        ..      STR      r1,[sp,#4]
        0x0000ec3a:    9000        ..      STR      r0,[sp,#0]
        0x0000ec3c:    9801        ..      LDR      r0,[sp,#4]
        0x0000ec3e:    f1b03fff    ...?    CMP      r0,#0xffffffff
        0x0000ec42:    dc09        ..      BGT      0xec58 ; ndigits_in_i64 + 36
        0x0000ec44:    e7ff        ..      B        0xec46 ; ndigits_in_i64 + 18
        0x0000ec46:    9800        ..      LDR      r0,[sp,#0]
        0x0000ec48:    9a01        ..      LDR      r2,[sp,#4]
        0x0000ec4a:    4241        AB      RSBS     r1,r0,#0
        0x0000ec4c:    f04f0000    O...    MOV      r0,#0
        0x0000ec50:    4190        .A      SBCS     r0,r0,r2
        0x0000ec52:    9100        ..      STR      r1,[sp,#0]
        0x0000ec54:    9001        ..      STR      r0,[sp,#4]
        0x0000ec56:    e7ff        ..      B        0xec58 ; ndigits_in_i64 + 36
        0x0000ec58:    9800        ..      LDR      r0,[sp,#0]
        0x0000ec5a:    9901        ..      LDR      r1,[sp,#4]
        0x0000ec5c:    f000f802    ....    BL       ndigits_in_u64 ; 0xec64
        0x0000ec60:    b002        ..      ADD      sp,sp,#8
        0x0000ec62:    bd80        ..      POP      {r7,pc}
    ndigits_in_u64
        0x0000ec64:    b580        ..      PUSH     {r7,lr}
        0x0000ec66:    b084        ..      SUB      sp,sp,#0x10
        0x0000ec68:    9103        ..      STR      r1,[sp,#0xc]
        0x0000ec6a:    9002        ..      STR      r0,[sp,#8]
        0x0000ec6c:    9802        ..      LDR      r0,[sp,#8]
        0x0000ec6e:    9903        ..      LDR      r1,[sp,#0xc]
        0x0000ec70:    4308        .C      ORRS     r0,r0,r1
        0x0000ec72:    fab0f080    ....    CLZ      r0,r0
        0x0000ec76:    0940        @.      LSRS     r0,r0,#5
        0x0000ec78:    9001        ..      STR      r0,[sp,#4]
        0x0000ec7a:    e7ff        ..      B        0xec7c ; ndigits_in_u64 + 24
        0x0000ec7c:    9802        ..      LDR      r0,[sp,#8]
        0x0000ec7e:    9903        ..      LDR      r1,[sp,#0xc]
        0x0000ec80:    4308        .C      ORRS     r0,r0,r1
        0x0000ec82:    b150        P.      CBZ      r0,0xec9a ; ndigits_in_u64 + 54
        0x0000ec84:    e7ff        ..      B        0xec86 ; ndigits_in_u64 + 34
        0x0000ec86:    9802        ..      LDR      r0,[sp,#8]
        0x0000ec88:    9903        ..      LDR      r1,[sp,#0xc]
        0x0000ec8a:    f7fffd4d    ..M.    BL       divu64_10 ; 0xe728
        0x0000ec8e:    9103        ..      STR      r1,[sp,#0xc]
        0x0000ec90:    9002        ..      STR      r0,[sp,#8]
        0x0000ec92:    9801        ..      LDR      r0,[sp,#4]
        0x0000ec94:    3001        .0      ADDS     r0,#1
        0x0000ec96:    9001        ..      STR      r0,[sp,#4]
        0x0000ec98:    e7f0        ..      B        0xec7c ; ndigits_in_u64 + 24
        0x0000ec9a:    9801        ..      LDR      r0,[sp,#4]
        0x0000ec9c:    b004        ..      ADD      sp,sp,#0x10
        0x0000ec9e:    bd80        ..      POP      {r7,pc}
    padbuffer
        0x0000eca0:    b085        ..      SUB      sp,sp,#0x14
        0x0000eca2:    9003        ..      STR      r0,[sp,#0xc]
        0x0000eca4:    f88d100b    ....    STRB     r1,[sp,#0xb]
        0x0000eca8:    9201        ..      STR      r2,[sp,#4]
        0x0000ecaa:    2000        .       MOVS     r0,#0
        0x0000ecac:    9000        ..      STR      r0,[sp,#0]
        0x0000ecae:    9801        ..      LDR      r0,[sp,#4]
        0x0000ecb0:    2800        .(      CMP      r0,#0
        0x0000ecb2:    dc03        ..      BGT      0xecbc ; padbuffer + 28
        0x0000ecb4:    e7ff        ..      B        0xecb6 ; padbuffer + 22
        0x0000ecb6:    9800        ..      LDR      r0,[sp,#0]
        0x0000ecb8:    9004        ..      STR      r0,[sp,#0x10]
        0x0000ecba:    e016        ..      B        0xecea ; padbuffer + 74
        0x0000ecbc:    e7ff        ..      B        0xecbe ; padbuffer + 30
        0x0000ecbe:    9801        ..      LDR      r0,[sp,#4]
        0x0000ecc0:    1e41        A.      SUBS     r1,r0,#1
        0x0000ecc2:    9101        ..      STR      r1,[sp,#4]
        0x0000ecc4:    b170        p.      CBZ      r0,0xece4 ; padbuffer + 68
        0x0000ecc6:    e7ff        ..      B        0xecc8 ; padbuffer + 40
        0x0000ecc8:    9803        ..      LDR      r0,[sp,#0xc]
        0x0000ecca:    b138        8.      CBZ      r0,0xecdc ; padbuffer + 60
        0x0000eccc:    e7ff        ..      B        0xecce ; padbuffer + 46
        0x0000ecce:    f89d000b    ....    LDRB     r0,[sp,#0xb]
        0x0000ecd2:    9903        ..      LDR      r1,[sp,#0xc]
        0x0000ecd4:    1c4a        J.      ADDS     r2,r1,#1
        0x0000ecd6:    9203        ..      STR      r2,[sp,#0xc]
        0x0000ecd8:    7008        .p      STRB     r0,[r1,#0]
        0x0000ecda:    e7ff        ..      B        0xecdc ; padbuffer + 60
        0x0000ecdc:    9800        ..      LDR      r0,[sp,#0]
        0x0000ecde:    3001        .0      ADDS     r0,#1
        0x0000ece0:    9000        ..      STR      r0,[sp,#0]
        0x0000ece2:    e7ec        ..      B        0xecbe ; padbuffer + 30
        0x0000ece4:    9800        ..      LDR      r0,[sp,#0]
        0x0000ece6:    9004        ..      STR      r0,[sp,#0x10]
        0x0000ece8:    e7ff        ..      B        0xecea ; padbuffer + 74
        0x0000ecea:    9804        ..      LDR      r0,[sp,#0x10]
        0x0000ecec:    b005        ..      ADD      sp,sp,#0x14
        0x0000ecee:    4770        pG      BX       lr
    set_RDWAIT
        0x0000ecf0:    b5b0        ..      PUSH     {r4,r5,r7,lr}
        0x0000ecf2:    b082        ..      SUB      sp,sp,#8
        0x0000ecf4:    4604        .F      MOV      r4,r0
        0x0000ecf6:    280f        .(      CMP      r0,#0xf
        0x0000ecf8:    d815        ..      BHI      0xed26 ; set_RDWAIT + 54
        0x0000ecfa:    f7fefbe5    ....    BL       am_hal_interrupt_master_disable ; 0xd4c8
        0x0000ecfe:    f2480504    H...    MOV      r5,#0x8004
        0x0000ed02:    f2c40501    ....    MOVT     r5,#0x4001
        0x0000ed06:    9001        ..      STR      r0,[sp,#4]
        0x0000ed08:    4628        (F      MOV      r0,r5
        0x0000ed0a:    f7fefa15    ....    BL       am_hal_flash_load_ui32 ; 0xd138
        0x0000ed0e:    f640710f    @..q    MOV      r1,#0xf0f
        0x0000ed12:    4388        .C      BICS     r0,r0,r1
        0x0000ed14:    4320         C      ORRS     r0,r0,r4
        0x0000ed16:    f44061e0    @..a    ORR      r1,r0,#0x700
        0x0000ed1a:    4628        (F      MOV      r0,r5
        0x0000ed1c:    f7fefa10    ....    BL       am_hal_flash_store_ui32 ; 0xd140
        0x0000ed20:    9801        ..      LDR      r0,[sp,#4]
        0x0000ed22:    f7fefbd5    ....    BL       am_hal_interrupt_master_set ; 0xd4d0
        0x0000ed26:    2000        .       MOVS     r0,#0
        0x0000ed28:    2c10        .,      CMP      r4,#0x10
        0x0000ed2a:    bf38        8.      IT       CC
        0x0000ed2c:    2001        .       MOVCC    r0,#1
        0x0000ed2e:    b002        ..      ADD      sp,sp,#8
        0x0000ed30:    bdb0        ..      POP      {r4,r5,r7,pc}
        0x0000ed32:    0000        ..      MOVS     r0,r0
    simple_strlen
        0x0000ed34:    b083        ..      SUB      sp,sp,#0xc
        0x0000ed36:    9001        ..      STR      r0,[sp,#4]
        0x0000ed38:    2000        .       MOVS     r0,#0
        0x0000ed3a:    9000        ..      STR      r0,[sp,#0]
        0x0000ed3c:    9801        ..      LDR      r0,[sp,#4]
        0x0000ed3e:    b918        ..      CBNZ     r0,0xed48 ; simple_strlen + 20
        0x0000ed40:    e7ff        ..      B        0xed42 ; simple_strlen + 14
        0x0000ed42:    9800        ..      LDR      r0,[sp,#0]
        0x0000ed44:    9002        ..      STR      r0,[sp,#8]
        0x0000ed46:    e00d        ..      B        0xed64 ; simple_strlen + 48
        0x0000ed48:    e7ff        ..      B        0xed4a ; simple_strlen + 22
        0x0000ed4a:    9801        ..      LDR      r0,[sp,#4]
        0x0000ed4c:    1c41        A.      ADDS     r1,r0,#1
        0x0000ed4e:    9101        ..      STR      r1,[sp,#4]
        0x0000ed50:    7800        .x      LDRB     r0,[r0,#0]
        0x0000ed52:    b120         .      CBZ      r0,0xed5e ; simple_strlen + 42
        0x0000ed54:    e7ff        ..      B        0xed56 ; simple_strlen + 34
        0x0000ed56:    9800        ..      LDR      r0,[sp,#0]
        0x0000ed58:    3001        .0      ADDS     r0,#1
        0x0000ed5a:    9000        ..      STR      r0,[sp,#0]
        0x0000ed5c:    e7f5        ..      B        0xed4a ; simple_strlen + 22
        0x0000ed5e:    9800        ..      LDR      r0,[sp,#0]
        0x0000ed60:    9002        ..      STR      r0,[sp,#8]
        0x0000ed62:    e7ff        ..      B        0xed64 ; simple_strlen + 48
        0x0000ed64:    9802        ..      LDR      r0,[sp,#8]
        0x0000ed66:    b003        ..      ADD      sp,sp,#0xc
        0x0000ed68:    4770        pG      BX       lr
        0x0000ed6a:    0000        ..      MOVS     r0,r0
    uint64_to_hexstr
        0x0000ed6c:    b08c        ..      SUB      sp,sp,#0x30
        0x0000ed6e:    910b        ..      STR      r1,[sp,#0x2c]
        0x0000ed70:    900a        ..      STR      r0,[sp,#0x28]
        0x0000ed72:    9209        ..      STR      r2,[sp,#0x24]
        0x0000ed74:    f88d3023    ..#0    STRB     r3,[sp,#0x23]
        0x0000ed78:    2000        .       MOVS     r0,#0
        0x0000ed7a:    9006        ..      STR      r0,[sp,#0x18]
        0x0000ed7c:    980a        ..      LDR      r0,[sp,#0x28]
        0x0000ed7e:    990b        ..      LDR      r1,[sp,#0x2c]
        0x0000ed80:    4308        .C      ORRS     r0,r0,r1
        0x0000ed82:    b940        @.      CBNZ     r0,0xed96 ; uint64_to_hexstr + 42
        0x0000ed84:    e7ff        ..      B        0xed86 ; uint64_to_hexstr + 26
        0x0000ed86:    9a06        ..      LDR      r2,[sp,#0x18]
        0x0000ed88:    1c50        P.      ADDS     r0,r2,#1
        0x0000ed8a:    9006        ..      STR      r0,[sp,#0x18]
        0x0000ed8c:    f10d0103    ....    ADD      r1,sp,#3
        0x0000ed90:    2030        0       MOVS     r0,#0x30
        0x0000ed92:    5488        .T      STRB     r0,[r1,r2]
        0x0000ed94:    e7ff        ..      B        0xed96 ; uint64_to_hexstr + 42
        0x0000ed96:    e7ff        ..      B        0xed98 ; uint64_to_hexstr + 44
        0x0000ed98:    980a        ..      LDR      r0,[sp,#0x28]
        0x0000ed9a:    990b        ..      LDR      r1,[sp,#0x2c]
        0x0000ed9c:    4308        .C      ORRS     r0,r0,r1
        0x0000ed9e:    b350        P.      CBZ      r0,0xedf6 ; uint64_to_hexstr + 138
        0x0000eda0:    e7ff        ..      B        0xeda2 ; uint64_to_hexstr + 54
        0x0000eda2:    f89d0028    ..(.    LDRB     r0,[sp,#0x28]
        0x0000eda6:    f000000f    ....    AND      r0,r0,#0xf
        0x0000edaa:    f88d0017    ....    STRB     r0,[sp,#0x17]
        0x0000edae:    f89d0017    ....    LDRB     r0,[sp,#0x17]
        0x0000edb2:    280a        .(      CMP      r0,#0xa
        0x0000edb4:    db0d        ..      BLT      0xedd2 ; uint64_to_hexstr + 102
        0x0000edb6:    e7ff        ..      B        0xedb8 ; uint64_to_hexstr + 76
        0x0000edb8:    f89d0023    ..#.    LDRB     r0,[sp,#0x23]
        0x0000edbc:    07c0        ..      LSLS     r0,r0,#31
        0x0000edbe:    2107        .!      MOVS     r1,#7
        0x0000edc0:    2800        .(      CMP      r0,#0
        0x0000edc2:    bf18        ..      IT       NE
        0x0000edc4:    2127        '!      MOVNE    r1,#0x27
        0x0000edc6:    f89d0017    ....    LDRB     r0,[sp,#0x17]
        0x0000edca:    4408        .D      ADD      r0,r0,r1
        0x0000edcc:    f88d0017    ....    STRB     r0,[sp,#0x17]
        0x0000edd0:    e7ff        ..      B        0xedd2 ; uint64_to_hexstr + 102
        0x0000edd2:    f89d0017    ....    LDRB     r0,[sp,#0x17]
        0x0000edd6:    3030        00      ADDS     r0,r0,#0x30
        0x0000edd8:    9a06        ..      LDR      r2,[sp,#0x18]
        0x0000edda:    1c51        Q.      ADDS     r1,r2,#1
        0x0000eddc:    9106        ..      STR      r1,[sp,#0x18]
        0x0000edde:    f10d0103    ....    ADD      r1,sp,#3
        0x0000ede2:    5488        .T      STRB     r0,[r1,r2]
        0x0000ede4:    980a        ..      LDR      r0,[sp,#0x28]
        0x0000ede6:    990b        ..      LDR      r1,[sp,#0x2c]
        0x0000ede8:    0900        ..      LSRS     r0,r0,#4
        0x0000edea:    ea407001    @..p    ORR      r0,r0,r1,LSL #28
        0x0000edee:    0909        ..      LSRS     r1,r1,#4
        0x0000edf0:    910b        ..      STR      r1,[sp,#0x2c]
        0x0000edf2:    900a        ..      STR      r0,[sp,#0x28]
        0x0000edf4:    e7d0        ..      B        0xed98 ; uint64_to_hexstr + 44
        0x0000edf6:    9806        ..      LDR      r0,[sp,#0x18]
        0x0000edf8:    9007        ..      STR      r0,[sp,#0x1c]
        0x0000edfa:    9809        ..      LDR      r0,[sp,#0x24]
        0x0000edfc:    b198        ..      CBZ      r0,0xee26 ; uint64_to_hexstr + 186
        0x0000edfe:    e7ff        ..      B        0xee00 ; uint64_to_hexstr + 148
        0x0000ee00:    e7ff        ..      B        0xee02 ; uint64_to_hexstr + 150
        0x0000ee02:    9806        ..      LDR      r0,[sp,#0x18]
        0x0000ee04:    1e41        A.      SUBS     r1,r0,#1
        0x0000ee06:    9106        ..      STR      r1,[sp,#0x18]
        0x0000ee08:    b148        H.      CBZ      r0,0xee1e ; uint64_to_hexstr + 178
        0x0000ee0a:    e7ff        ..      B        0xee0c ; uint64_to_hexstr + 160
        0x0000ee0c:    9906        ..      LDR      r1,[sp,#0x18]
        0x0000ee0e:    f10d0003    ....    ADD      r0,sp,#3
        0x0000ee12:    5c40        @\      LDRB     r0,[r0,r1]
        0x0000ee14:    9909        ..      LDR      r1,[sp,#0x24]
        0x0000ee16:    1c4a        J.      ADDS     r2,r1,#1
        0x0000ee18:    9209        ..      STR      r2,[sp,#0x24]
        0x0000ee1a:    7008        .p      STRB     r0,[r1,#0]
        0x0000ee1c:    e7f1        ..      B        0xee02 ; uint64_to_hexstr + 150
        0x0000ee1e:    9909        ..      LDR      r1,[sp,#0x24]
        0x0000ee20:    2000        .       MOVS     r0,#0
        0x0000ee22:    7008        .p      STRB     r0,[r1,#0]
        0x0000ee24:    e7ff        ..      B        0xee26 ; uint64_to_hexstr + 186
        0x0000ee26:    9807        ..      LDR      r0,[sp,#0x1c]
        0x0000ee28:    b00c        ..      ADD      sp,sp,#0x30
        0x0000ee2a:    4770        pG      BX       lr
    uint64_to_str
        0x0000ee2c:    b580        ..      PUSH     {r7,lr}
        0x0000ee2e:    b090        ..      SUB      sp,sp,#0x40
        0x0000ee30:    910f        ..      STR      r1,[sp,#0x3c]
        0x0000ee32:    900e        ..      STR      r0,[sp,#0x38]
        0x0000ee34:    920d        ..      STR      r2,[sp,#0x34]
        0x0000ee36:    2000        .       MOVS     r0,#0
        0x0000ee38:    9005        ..      STR      r0,[sp,#0x14]
        0x0000ee3a:    9004        ..      STR      r0,[sp,#0x10]
        0x0000ee3c:    e7ff        ..      B        0xee3e ; uint64_to_str + 18
        0x0000ee3e:    980e        ..      LDR      r0,[sp,#0x38]
        0x0000ee40:    990f        ..      LDR      r1,[sp,#0x3c]
        0x0000ee42:    f7fffc71    ..q.    BL       divu64_10 ; 0xe728
        0x0000ee46:    9101        ..      STR      r1,[sp,#4]
        0x0000ee48:    9000        ..      STR      r0,[sp,#0]
        0x0000ee4a:    980e        ..      LDR      r0,[sp,#0x38]
        0x0000ee4c:    9900        ..      LDR      r1,[sp,#0]
        0x0000ee4e:    eb010181    ....    ADD      r1,r1,r1,LSL #2
        0x0000ee52:    eba00041    ..A.    SUB      r0,r0,r1,LSL #1
        0x0000ee56:    9003        ..      STR      r0,[sp,#0xc]
        0x0000ee58:    9803        ..      LDR      r0,[sp,#0xc]
        0x0000ee5a:    3030        00      ADDS     r0,r0,#0x30
        0x0000ee5c:    9a05        ..      LDR      r2,[sp,#0x14]
        0x0000ee5e:    1c51        Q.      ADDS     r1,r2,#1
        0x0000ee60:    9105        ..      STR      r1,[sp,#0x14]
        0x0000ee62:    f10d011b    ....    ADD      r1,sp,#0x1b
        0x0000ee66:    5488        .T      STRB     r0,[r1,r2]
        0x0000ee68:    9800        ..      LDR      r0,[sp,#0]
        0x0000ee6a:    9901        ..      LDR      r1,[sp,#4]
        0x0000ee6c:    910f        ..      STR      r1,[sp,#0x3c]
        0x0000ee6e:    900e        ..      STR      r0,[sp,#0x38]
        0x0000ee70:    e7ff        ..      B        0xee72 ; uint64_to_str + 70
        0x0000ee72:    980e        ..      LDR      r0,[sp,#0x38]
        0x0000ee74:    990f        ..      LDR      r1,[sp,#0x3c]
        0x0000ee76:    4308        .C      ORRS     r0,r0,r1
        0x0000ee78:    2800        .(      CMP      r0,#0
        0x0000ee7a:    d1e0        ..      BNE      0xee3e ; uint64_to_str + 18
        0x0000ee7c:    e7ff        ..      B        0xee7e ; uint64_to_str + 82
        0x0000ee7e:    9805        ..      LDR      r0,[sp,#0x14]
        0x0000ee80:    9004        ..      STR      r0,[sp,#0x10]
        0x0000ee82:    980d        ..      LDR      r0,[sp,#0x34]
        0x0000ee84:    b198        ..      CBZ      r0,0xeeae ; uint64_to_str + 130
        0x0000ee86:    e7ff        ..      B        0xee88 ; uint64_to_str + 92
        0x0000ee88:    e7ff        ..      B        0xee8a ; uint64_to_str + 94
        0x0000ee8a:    9805        ..      LDR      r0,[sp,#0x14]
        0x0000ee8c:    1e41        A.      SUBS     r1,r0,#1
        0x0000ee8e:    9105        ..      STR      r1,[sp,#0x14]
        0x0000ee90:    b148        H.      CBZ      r0,0xeea6 ; uint64_to_str + 122
        0x0000ee92:    e7ff        ..      B        0xee94 ; uint64_to_str + 104
        0x0000ee94:    9905        ..      LDR      r1,[sp,#0x14]
        0x0000ee96:    f10d001b    ....    ADD      r0,sp,#0x1b
        0x0000ee9a:    5c40        @\      LDRB     r0,[r0,r1]
        0x0000ee9c:    990d        ..      LDR      r1,[sp,#0x34]
        0x0000ee9e:    1c4a        J.      ADDS     r2,r1,#1
        0x0000eea0:    920d        ..      STR      r2,[sp,#0x34]
        0x0000eea2:    7008        .p      STRB     r0,[r1,#0]
        0x0000eea4:    e7f1        ..      B        0xee8a ; uint64_to_str + 94
        0x0000eea6:    990d        ..      LDR      r1,[sp,#0x34]
        0x0000eea8:    2000        .       MOVS     r0,#0
        0x0000eeaa:    7008        .p      STRB     r0,[r1,#0]
        0x0000eeac:    e7ff        ..      B        0xeeae ; uint64_to_str + 130
        0x0000eeae:    9804        ..      LDR      r0,[sp,#0x10]
        0x0000eeb0:    b010        ..      ADD      sp,sp,#0x40
        0x0000eeb2:    bd80        ..      POP      {r7,pc}
    $t
    x$fpl$d2f
    $v0
    __aeabi_d2f
    _d2f
        0x0000eeb4:    f0214200    !..B    BIC      r2,r1,#0x80000000
        0x0000eeb8:    f0014300    ...C    AND      r3,r1,#0x80000000
        0x0000eebc:    f1a25260    ..`R    SUB      r2,r2,#0x38000000
        0x0000eec0:    f5b21f80    ....    CMP      r2,#0x100000
        0x0000eec4:    bf28        (.      IT       CS
        0x0000eec6:    f1d26c7f    ...l    RSBSCS   r12,r2,#0xff00000
        0x0000eeca:    d90b        ..      BLS      0xeee4 ; __aeabi_d2f + 48
        0x0000eecc:    ea5f1c00    _...    LSLS     r12,r0,#4
        0x0000eed0:    ea4302c2    C...    ORR      r2,r3,r2,LSL #3
        0x0000eed4:    eb427050    B.Pp    ADC      r0,r2,r0,LSR #29
        0x0000eed8:    bf18        ..      IT       NE
        0x0000eeda:    4770        pG      BXNE     lr
        0x0000eedc:    bf28        (.      IT       CS
        0x0000eede:    f0200001     ...    BICCS    r0,r0,#1
        0x0000eee2:    4770        pG      BX       lr
        0x0000eee4:    f5b21f80    ....    CMP      r2,#0x100000
        0x0000eee8:    bfbc        ..      ITT      LT
        0x0000eeea:    4618        .F      MOVLT    r0,r3
        0x0000eeec:    4770        pG      BXLT     lr
        0x0000eeee:    ea4f0c41    O.A.    LSL      r12,r1,#1
        0x0000eef2:    f51c1f00    ....    CMN      r12,#0x200000
        0x0000eef6:    d202        ..      BCS      0xeefe ; __aeabi_d2f + 74
        0x0000eef8:    4608        .F      MOV      r0,r1
        0x0000eefa:    f000b867    ..g.    B.W      __fpl_fretinf ; 0xefcc
        0x0000eefe:    b570        p.      PUSH     {r4-r6,lr}
        0x0000ef00:    f000f809    ....    BL       __fpl_dnaninf ; 0xef16
    $d
        0x0000ef04:    89000000    ....    DCD    2298478592
    $t
        0x0000ef08:    f7ffbff6    ....    B.W      0xeef8 ; __aeabi_d2f + 68
        0x0000ef0c:    f04f4000    O..@    MOV      r0,#0x80000000
        0x0000ef10:    f5a00080    ....    SUB      r0,r0,#0x400000
        0x0000ef14:    4770        pG      BX       lr
    x$fpl$dnaninf
    $v0
    __fpl_dnaninf
        0x0000ef16:    f10e0e02    ....    ADD      lr,lr,#2
        0x0000ef1a:    f02e0e03    ....    BIC      lr,lr,#3
        0x0000ef1e:    f85e6b04    ^..k    LDR      r6,[lr],#4
        0x0000ef22:    4236        6B      TST      r6,r6
        0x0000ef24:    d405        ..      BMI      0xef32 ; __fpl_dnaninf + 28
        0x0000ef26:    2a01        .*      CMP      r2,#1
        0x0000ef28:    eb430503    C...    ADC      r5,r3,r3
        0x0000ef2c:    f5151f00    ....    CMN      r5,#0x200000
        0x0000ef30:    d812        ..      BHI      0xef58 ; __fpl_dnaninf + 66
        0x0000ef32:    2801        .(      CMP      r0,#1
        0x0000ef34:    eb410c01    A...    ADC      r12,r1,r1
        0x0000ef38:    f51c1f00    ....    CMN      r12,#0x200000
        0x0000ef3c:    d80c        ..      BHI      0xef58 ; __fpl_dnaninf + 66
        0x0000ef3e:    d10e        ..      BNE      0xef5e ; __fpl_dnaninf + 72
        0x0000ef40:    ea4f7cd1    O..|    LSR      r12,r1,#31
        0x0000ef44:    eb0c0c4c    ..L.    ADD      r12,r12,r12,LSL #1
        0x0000ef48:    f10c0c02    ....    ADD      r12,r12,#2
        0x0000ef4c:    f5151f00    ....    CMN      r5,#0x200000
        0x0000ef50:    bf08        ..      IT       EQ
        0x0000ef52:    eb4c7cd3    L..|    ADCEQ    r12,r12,r3,LSR #31
        0x0000ef56:    e004        ..      B        0xef62 ; __fpl_dnaninf + 76
        0x0000ef58:    f04f0c08    O...    MOV      r12,#8
        0x0000ef5c:    e001        ..      B        0xef62 ; __fpl_dnaninf + 76
        0x0000ef5e:    ea4f7cd3    O..|    LSR      r12,r3,#31
        0x0000ef62:    eb0c054c    ..L.    ADD      r5,r12,r12,LSL #1
        0x0000ef66:    fa26f605    &...    LSR      r6,r6,r5
        0x0000ef6a:    f0060607    ....    AND      r6,r6,#7
        0x0000ef6e:    f1b60c04    ....    SUBS     r12,r6,#4
        0x0000ef72:    d206        ..      BCS      0xef82 ; __fpl_dnaninf + 108
        0x0000ef74:    eb0e0c86    ....    ADD      r12,lr,r6,LSL #2
        0x0000ef78:    e8bd4070    ..p@    POP      {r4-r6,lr}
        0x0000ef7c:    f04c0c01    L...    ORR      r12,r12,#1
        0x0000ef80:    4760        `G      BX       r12
        0x0000ef82:    e8dff00c    ....    TBB      [pc,r12]
    $d
        0x0000ef86:    0b09        ..      DCW    2825
        0x0000ef88:    0202        ..      DCW    514
    $t
        0x0000ef8a:    f04f4100    O..A    MOV      r1,#0x80000000
        0x0000ef8e:    f5a12100    ...!    SUB      r1,r1,#0x80000
        0x0000ef92:    f04f0000    O...    MOV      r0,#0
        0x0000ef96:    bd70        p.      POP      {r4-r6,pc}
        0x0000ef98:    4619        .F      MOV      r1,r3
        0x0000ef9a:    4610        .F      MOV      r0,r2
        0x0000ef9c:    2801        .(      CMP      r0,#1
        0x0000ef9e:    eb510401    Q...    ADCS     r4,r1,r1
        0x0000efa2:    bf18        ..      IT       NE
        0x0000efa4:    f5d41400    ....    RSBSNE   r4,r4,#0x200000
        0x0000efa8:    bf84        ..      ITT      HI
        0x0000efaa:    2000        .       MOVHI    r0,#0
        0x0000efac:    f0014100    ...A    ANDHI    r1,r1,#0x80000000
        0x0000efb0:    bd70        p.      POP      {r4-r6,pc}
    x$fpl$fpinit
    $v0
    _fp_init
        0x0000efb2:    eef10a10    ....    VMRS     r0,FPSCR
        0x0000efb6:    f64f71ff    O..q    MOV      r1,#0xffff
        0x0000efba:    f2c031c0    ...1    MOVT     r1,#0x3c0
        0x0000efbe:    ea200001     ...    BIC      r0,r0,r1
        0x0000efc2:    f0407040    @.@p    ORR      r0,r0,#0x3000000
        0x0000efc6:    eee10a10    ....    VMSR     FPSCR,r0
    __fplib_config_fpu_vfp
    __fplib_config_pureend_doubles
        0x0000efca:    4770        pG      BX       lr
    x$fpl$fretinf
    $v0
    __fpl_fretinf
        0x0000efcc:    21ff        .!      MOVS     r1,#0xff
        0x0000efce:    ea4150d0    A..P    ORR      r0,r1,r0,LSR #23
        0x0000efd2:    05c0        ..      LSLS     r0,r0,#23
        0x0000efd4:    4770        pG      BX       lr
    $d.realdata
    x$fpl$usenofp
    __I$use$fp
    am_hal_cachectrl_defaults
        0x0000efd6:    0308        ..      DCW    776
        0x0000efd8:    00000000    ....    DCD    0
    am_hal_pwrctrl_peripheral_control
        0x0000efdc:    00000000    ....    DCD    0
        0x0000efe0:    00000000    ....    DCD    0
        0x0000efe4:    00000000    ....    DCD    0
        0x0000efe8:    00000001    ....    DCD    1
        0x0000efec:    00000004    ....    DCD    4
        0x0000eff0:    00000004    ....    DCD    4
        0x0000eff4:    00000002    ....    DCD    2
        0x0000eff8:    00000008    ....    DCD    8
        0x0000effc:    00000008    ....    DCD    8
        0x0000f000:    00000004    ....    DCD    4
        0x0000f004:    00000008    ....    DCD    8
        0x0000f008:    00000008    ....    DCD    8
        0x0000f00c:    00000008    ....    DCD    8
        0x0000f010:    00000008    ....    DCD    8
        0x0000f014:    00000008    ....    DCD    8
        0x0000f018:    00000010    ....    DCD    16
        0x0000f01c:    00000010    ....    DCD    16
        0x0000f020:    00000010    ....    DCD    16
        0x0000f024:    00000020     ...    DCD    32
        0x0000f028:    00000010    ....    DCD    16
        0x0000f02c:    00000010    ....    DCD    16
        0x0000f030:    00000040    @...    DCD    64
        0x0000f034:    00000010    ....    DCD    16
        0x0000f038:    00000010    ....    DCD    16
        0x0000f03c:    00000080    ....    DCD    128
        0x0000f040:    00000004    ....    DCD    4
        0x0000f044:    00000004    ....    DCD    4
        0x0000f048:    00000100    ....    DCD    256
        0x0000f04c:    00000004    ....    DCD    4
        0x0000f050:    00000004    ....    DCD    4
        0x0000f054:    00000200    ....    DCD    512
        0x0000f058:    00000020     ...    DCD    32
        0x0000f05c:    00000020     ...    DCD    32
        0x0000f060:    00000400    ....    DCD    1024
        0x0000f064:    00000004    ....    DCD    4
        0x0000f068:    00000004    ....    DCD    4
        0x0000f06c:    00000800    ....    DCD    2048
        0x0000f070:    00000040    @...    DCD    64
        0x0000f074:    00000040    @...    DCD    64
        0x0000f078:    00001000    ....    DCD    4096
        0x0000f07c:    00000080    ....    DCD    128
        0x0000f080:    00000080    ....    DCD    128
        0x0000f084:    00002000    . ..    DCD    8192
        0x0000f088:    00000100    ....    DCD    256
        0x0000f08c:    00000100    ....    DCD    256
    g_AM_BSP_GPIO_ITM_SWO
        0x0000f090:    00000002    ....    DCD    2
    g_AM_HAL_GPIO_DISABLE
        0x0000f094:    00000003    ....    DCD    3
    g_AM_HAL_GPIO_OUTPUT
        0x0000f098:    00000403    ....    DCD    1027
    g_am_hal_mcuctrl_flash_size
        0x0000f09c:    00004000    .@..    DCD    16384
        0x0000f0a0:    00008000    ....    DCD    32768
        0x0000f0a4:    00010000    ....    DCD    65536
        0x0000f0a8:    00020000    ....    DCD    131072
        0x0000f0ac:    00040000    ....    DCD    262144
        0x0000f0b0:    00080000    ....    DCD    524288
        0x0000f0b4:    00100000    ....    DCD    1048576
        0x0000f0b8:    00200000    .. .    DCD    2097152
        0x0000f0bc:    00180000    ....    DCD    1572864
        0x0000f0c0:    00000000    ....    DCD    0
        0x0000f0c4:    00000000    ....    DCD    0
        0x0000f0c8:    00000000    ....    DCD    0
        0x0000f0cc:    00000000    ....    DCD    0
        0x0000f0d0:    00000000    ....    DCD    0
        0x0000f0d4:    00000000    ....    DCD    0
        0x0000f0d8:    00000000    ....    DCD    0
    g_am_hal_mcuctrl_sram_size
        0x0000f0dc:    00004000    .@..    DCD    16384
        0x0000f0e0:    00008000    ....    DCD    32768
        0x0000f0e4:    00010000    ....    DCD    65536
        0x0000f0e8:    00020000    ....    DCD    131072
        0x0000f0ec:    00040000    ....    DCD    262144
        0x0000f0f0:    00080000    ....    DCD    524288
        0x0000f0f4:    00100000    ....    DCD    1048576
        0x0000f0f8:    00060000    ....    DCD    393216
        0x0000f0fc:    000c0000    ....    DCD    786432
        0x0000f100:    00000000    ....    DCD    0
        0x0000f104:    00000000    ....    DCD    0
        0x0000f108:    00000000    ....    DCD    0
        0x0000f10c:    00000000    ....    DCD    0
        0x0000f110:    00000000    ....    DCD    0
        0x0000f114:    00000000    ....    DCD    0
        0x0000f118:    00000000    ....    DCD    0
    g_ui8Inpen
        0x0000f11c:    62272323    ##'b    DCD    1646732067
        0x0000f120:    108703a1    ....    DCD    277283745
        0x0000f124:    e1005303    .S..    DCD    3774894851
        0x0000f128:    55418151    Q.AU    DCD    1430356305
        0x0000f12c:    4080c405    ...@    DCD    1082180613
        0x0000f130:    4140b101    ..@A    DCD    1094758657
        0x0000f134:    31a03114    .1.1    DCD    832581908
        0x0000f138:    1180f100    ....    DCD    293662976
        0x0000f13c:    11c12191    .!..    DCD    297869713
        0x0000f140:    304511e5    ..E0    DCD    809832933
        0x0000f144:    31300037    7.01    DCD    825229367
        0x0000f148:    40007100    .q.@    DCD    1073770752
        0x0000f14c:    3130        01      DCW    12592
    g_ui8NCEtable
        0x0000f14e:    4232        2B      DCW    16946
        0x0000f150:    12021352    R...    DCD    302125906
        0x0000f154:    43336022    "`3C    DCD    1127440418
        0x0000f158:    40302153    S!0@    DCD    1076896083
        0x0000f15c:    41312050    P 1A    DCD    1093738576
        0x0000f160:    ffff1151    Q...    DCD    4294906193
        0x0000f164:    ffffffff    ....    DCD    4294967295
        0x0000f168:    4131ffff    ..1A    DCD    1093795839
        0x0000f16c:    40306051    Q`0@    DCD    1076912209
        0x0000f170:    43330050    P.3C    DCD    1127415888
        0x0000f174:    42322353    S#2B    DCD    1110582099
        0x0000f178:    10006052    R`..    DCD    268460114
        0x0000f17c:    40303020     00@    DCD    1076899872
        0x0000f180:    41316150    Pa1A    DCD    1093755216
        0x0000f184:    12020151    Q...    DCD    302121297
        0x0000f188:    13034222    "B..    DCD    318980642
        0x0000f18c:    10006023    #`..    DCD    268460067
        0x0000f190:    11015020     P..    DCD    285298720
        0x0000f194:    12024121    !A..    DCD    302137633
        0x0000f198:    13033222    "2..    DCD    318976546
        0x0000f19c:    41316033    3`1A    DCD    1093754931
        0x0000f1a0:    42322151    Q!2B    DCD    1110581585
        0x0000f1a4:    43332252    R"3C    DCD    1127424594
        0x0000f1a8:    10000353    S...    DCD    268436307
        0x0000f1ac:    11014020     @..    DCD    285294624
        0x0000f1b0:    42325121    !Q2B    DCD    1110593825
        0x0000f1b4:    43330252    R.3C    DCD    1127416402
        0x0000f1b8:    40301353    S.0@    DCD    1076892499
        0x0000f1bc:    41311050    P.1A    DCD    1093734480
        0x0000f1c0:    42326051    Q`2B    DCD    1110597713
        0x0000f1c4:    43331252    R.3C    DCD    1127420498
        0x0000f1c8:    10000353    S...    DCD    268436307
        0x0000f1cc:    11014020     @..    DCD    285294624
        0x0000f1d0:    12026121    !a..    DCD    302145825
        0x0000f1d4:    13035222    "R..    DCD    318984738
        0x0000f1d8:    10003323    #3..    DCD    268448547
        0x0000f1dc:    41313020     01A    DCD    1093742624
        0x0000f1e0:    42326151    Qa2B    DCD    1110597969
        0x0000f1e4:    13030252    R...    DCD    318964306
        0x0000f1e8:    ffff5333    3S..    DCD    4294923059
        0x0000f1ec:    ffffffff    ....    DCD    4294967295
        0x0000f1f0:    1101ffff    ....    DCD    285343743
        0x0000f1f4:    10006121    !a..    DCD    268460321
        0x0000f1f8:    11015020     P..    DCD    285298720
        0x0000f1fc:    12026121    !a..    DCD    302145825
        0x0000f200:    43335222    "R3C    DCD    1127436834
        0x0000f204:    40301353    S.0@    DCD    1076892499
        0x0000f208:    11016150    Pa..    DCD    285303120
        0x0000f20c:    12023121    !1..    DCD    302133537
        0x0000f210:    13033222    "2..    DCD    318976546
        0x0000f214:    4323        #C      DCW    17187
    outcfg_tbl
        0x0000f216:    1a00        ..      DCW    6656
        0x0000f218:    00100615    ....    DCD    1050133
        0x0000f21c:    19081f05    ....    DCD    419962629
        0x0000f220:    0818071e    ....    DCD    135792414
        0x0000f224:    12010601    ....    DCD    302056961
        0x0000f228:    01110d15    ....    DCD    17894677
        0x0000f22c:    0109070e    ....    DCD    17368846
        0x0000f230:    09190f1d    ....    DCD    152637213
        0x0000f234:    1302070d    ....    DCD    318899981
        0x0000f238:    02120e14    ....    DCD    34737684
        0x0000f23c:    1b0a0804    ....    DCD    453642244
        0x0000f240:    0a1a061c    ....    DCD    169477660
        0x0000f244:    09031d0c    ....    DCD    151198988
        0x0000f248:    03131e18    ....    DCD    51584536
        0x0000f24c:    090b1c06    ....    DCD    151723014
        0x0000f250:    0b1b071f    ....    DCD    186320671
        0x0000f254:    00041407    ....    DCD    267271
        0x0000f258:    0f141b10    ....    DCD    252975888
        0x0000f25c:    080c1104    ....    DCD    135008516
        0x0000f260:    021c1300    ....    DCD    35394304
        0x0000f264:    0105190c    ....    DCD    17111308
        0x0000f268:    01151a11    ....    DCD    18160145
        0x0000f26c:    060d100d    ....    DCD    101519373
        0x0000f270:    071d1201    ....    DCD    119345665
        0x0000f274:    02061805    ....    DCD    33953797
        0x0000f278:    0a1c1901    ....    DCD    169613569
        0x0000f27c:    0a0e1206    ....    DCD    168694278
        0x0000f280:    011e1105    ....    DCD    18747653
        0x0000f284:    03071a0e    ....    DCD    50797070
        0x0000f288:    011d1815    ....    DCD    18683925
        0x0000f28c:    0b0f1307    ....    DCD    185537287
        0x0000f290:    061f1014    ....    DCD    102699028
        0x0000f294:    1b0f        ..      DCW    6927
    .L.str
        0x0000f296:    5443        CT      DCW    21571
        0x0000f298:    72656d69    imer    DCD    1919249769
        0x0000f29c:    20343620     64     DCD    540292640
        0x0000f2a0:    73746962    bits    DCD    1937008994
        0x0000f2a4:    74617020     pat    DCD    1952542752
        0x0000f2a8:    6e726574    tern    DCD    1852990836
        0x0000f2ac:    61786520     exa    DCD    1635280160
        0x0000f2b0:    656c706d    mple    DCD    1701605485
        0x0000f2b4:    000a        ..      DCW    10
    .L.str
        0x0000f2b6:    0a0a        ..      DCW    2570
        0x0000f2b8:    0a0a0a0a    ....    DCD    168430090
        0x0000f2bc:    0a0a0a0a    ....    DCD    168430090
        0x0000f2c0:    0a0a0a0a    ....    DCD    168430090
        0x0000f2c4:    0a0a0a0a    ....    DCD    168430090
        0x0000f2c8:    00000000    ....    DCD    0
    Region$$Table$$Base
        0x0000f2cc:    0000f2f0    ....    DCD    62192
        0x0000f2d0:    10000000    ....    DCD    268435456
        0x0000f2d4:    00000038    8...    DCD    56
        0x0000f2d8:    0000c170    p...    DCD    49520
        0x0000f2dc:    0000f328    (...    DCD    62248
        0x0000f2e0:    10000038    8...    DCD    268435512
        0x0000f2e4:    00001680    ....    DCD    5760
        0x0000f2e8:    0000c18c    ....    DCD    49548
    Region$$Table$$Limit

** Section #2 'SRAM' (SHT_PROGBITS) [SHF_ALLOC + SHF_WRITE]
    Size   : 56 bytes (alignment 8)
    Address: 0x10000000

    0x10000000:   0a 00 00 00 03 00 00 00 1e 00 00 00 03 00 00 00    ................
    0x10000010:   0f 00 00 00 03 00 00 00 0e 00 00 00 03 00 00 00    ................
    0x10000020:   11 00 00 00 03 00 00 00 ff ff ff ff ff ff ff ff    ................
    0x10000030:   ff ff ff ff ff ff ff ff                            ........


** Section #3 'SRAM' (SHT_NOBITS) [SHF_ALLOC + SHF_WRITE]
    Size   : 5760 bytes (alignment 8)
    Address: 0x10000038


** Section #4 '.debug_abbrev' (SHT_PROGBITS)
    Size   : 1069 bytes


** Section #5 '.debug_frame' (SHT_PROGBITS)
    Size   : 5964 bytes


** Section #6 '.debug_info' (SHT_PROGBITS)
    Size   : 17975 bytes


** Section #7 '.debug_line' (SHT_PROGBITS)
    Size   : 5092 bytes


** Section #8 '.debug_ranges' (SHT_PROGBITS)
    Size   : 256 bytes


** Section #9 '.debug_str' (SHT_PROGBITS)
    Size   : 9017 bytes


** Section #10 '.symtab' (SHT_SYMTAB)
    Size   : 6336 bytes (alignment 4)
    String table #11 '.strtab'
    Last local symbol no. 214

    Symbol table .symtab (395 symbols, 214 local)

      #  Symbol Name                Value      Bind  Sec  Type  Vis  Size
    ========================================================================

      1  $d                         0x0000c000   Lc    1   --   De 
      2  $t                         0x0000c100   Lc    1   --   De 
      3  $d                         0x0000c130   Lc    1   --   De 
      4  $t                         0x0000c134   Lc    1   --   De 
      5  $d                         0x0000c168   Lc    1   --   De 
      6  $t                         0x0000c170   Lc    1   --   De 
      7  $d                         0x0000c1de   Lc    1   --   De 
      8  $t                         0x0000c1ec   Lc    1   --   De 
      9  $d                         0x0000c254   Lc    1   --   De 
     10  $t                         0x0000c258   Lc    1   --   De 
     11  $d                         0x0000c260   Lc    1   --   De 
     12  $t                         0x0000c264   Lc    1   --   De 
     13  $t.0                       0x0000c268   Lc    1   --   De 
     14  $d.4                       0x0000c288   Lc    1   --   De 
     15  $t.5                       0x0000c28c   Lc    1   --   De 
     16  $d.4                       0x0000c450   Lc    1   --   De 
     17  $t.5                       0x0000c474   Lc    1   --   De 
     18  $d.1                       0x0000c758   Lc    1   --   De 
     19  $t.2                       0x0000c764   Lc    1   --   De 
     20  $d.15                      0x0000cb1e   Lc    1   --   De 
     21  $t.16                      0x0000cb7c   Lc    1   --   De 
     22  $d.17                      0x0000cf34   Lc    1   --   De 
     23  $t.21                      0x0000cf74   Lc    1   --   De 
     24  $d.2                       0x0000d2dc   Lc    1   --   De 
     25  $t.3                       0x0000d2e0   Lc    1   --   De 
     26  $d.4                       0x0000d3ac   Lc    1   --   De 
     27  $t.8                       0x0000d414   Lc    1   --   De 
     28  $d.9                       0x0000d454   Lc    1   --   De 
     29  $t.10                      0x0000d45c   Lc    1   --   De 
     30  $d.4                       0x0000e12e   Lc    1   --   De 
     31  $t.5                       0x0000e194   Lc    1   --   De 
     32  $t                         0x0000eeb4   Lc    1   --   De 
     33  $d                         0x0000ef04   Lc    1   --   De 
     34  $t                         0x0000ef08   Lc    1   --   De 
     35  $d                         0x0000ef86   Lc    1   --   De 
     36  $t                         0x0000ef8a   Lc    1   --   De 
     37  $d.realdata                0x0000efd6   Lc    1   --   De 
     38  $d.realdata                0x10000000   Lc    2   --   De 
     39  ctimer_stepper_synch_64bit_pattern.c
                                    0x00000000   Lc  Abs  File  De 
     40  .L.str                     0x0000f296   Lc    1  Data  De   0x20
     41  am_util_delay.c            0x00000000   Lc  Abs  File  De 
     42  am_util_faultisr.c         0x00000000   Lc  Abs  File  De 
     43  am_util_stdio.c            0x00000000   Lc  Abs  File  De 
     44  decstr_to_int              0x0000e681   Lc    1  Code  De   0xa6
     45  simple_strlen              0x0000ed35   Lc    1  Code  De   0x36
     46  padbuffer                  0x0000eca1   Lc    1  Code  De   0x50
     47  ndigits_in_hex             0x0000ebf5   Lc    1  Code  De   0x3e
     48  uint64_to_hexstr           0x0000ed6d   Lc    1  Code  De   0xc0
     49  ndigits_in_u64             0x0000ec65   Lc    1  Code  De   0x3c
     50  uint64_to_str              0x0000ee2d   Lc    1  Code  De   0x88
     51  ndigits_in_i64             0x0000ec35   Lc    1  Code  De   0x30
     52  ftoa                       0x0000e841   Lc    1  Code  De   0x230
     53  divu64_10                  0x0000e729   Lc    1  Code  De   0x118
     54  g_bTxtXlate                0x100012ac   Lc    3  Data  De   0x1
     55  g_prfbuf                   0x100012b4   Lc    3  Data  De   0x400
     56  .L.str                     0x0000f2b6   Lc    1  Data  De   0x13
     57  ../keil6/startup_keil6.s   0x00000000   Lc  Abs  File  De 
     58  STACK                      0x10000038   Lc    3  Sect  De   0x1000
     59  StackMem                   0x10000038   Lc    3  Data  De 
     60  HEAP                       0x100016b8   Lc    3  Sect  De 
     61  HeapMem                    0x100016b8   Lc    3  Data  De 
     62  RESET                      0x0000c000   Lc    1  Sect  De   0x134
     63  $v0                        0x0000c100   Lc    1   --   De 
     64  .text                      0x0000c1d4   Lc    1  Sect  De   0x18
     65  $v0                        0x0000c1d4   Lc    1   --   De 
     66  am_bsp.c                   0x00000000   Lc  Abs  File  De 
     67  .L_MergedGlobals           0x10001098   Lc    3  Data  De   0x8
     68  g_ui32PrintInterface       0x10001098   Lc    3  Data  De   0x4
     69  g_sCOMUART                 0x1000109c   Lc    3  Data  De   0x4
     70  am_hal_cachectrl.c         0x00000000   Lc  Abs  File  De 
     71  set_RDWAIT                 0x0000ecf1   Lc    1  Code  De   0x42
     72  am_hal_clkgen.c            0x00000000   Lc  Abs  File  De 
     73  am_hal_ctimer.c            0x00000000   Lc  Abs  File  De 
     74  CTx_tbl                    0x0000cf34   Lc    1   --   De 
     75  g_ui8ClkSrc                0x10000028   Lc    2  Data  De   0x10
     76  outcfg_tbl                 0x0000f216   Lc    1  Data  De   0x80
     77  am_hal_flash.c             0x00000000   Lc  Abs  File  De 
     78  am_hal_mcuctrl.c           0x00000000   Lc  Abs  File  De 
     79  am_hal_sysctrl.c           0x00000000   Lc  Abs  File  De 
     80  am_bsp_pins.c              0x00000000   Lc  Abs  File  De 
     81  am_hal_debug.c             0x00000000   Lc  Abs  File  De 
     82  am_hal_global.c            0x00000000   Lc  Abs  File  De 
     83  am_hal_gpio.c              0x00000000   Lc  Abs  File  De 
     84  g_ui8Bit76Capabilities     0x0000d3ac   Lc    1   --   De 
     85  g_ui8nCEpins               0x0000d3e0   Lc    1   --   De 
     86  g_ui8Inpen                 0x0000f11c   Lc    1  Data  De   0x32
     87  g_ui8NCEtable              0x0000f14e   Lc    1  Data  De   0xc8
     88  am_hal_interrupt.c         0x00000000   Lc  Abs  File  De 
     89  am_hal_itm.c               0x00000000   Lc  Abs  File  De 
     90  am_hal_pwrctrl.c           0x00000000   Lc  Abs  File  De 
     91  am_hal_reset.c             0x00000000   Lc  Abs  File  De 
     92  am_hal_rtc.c               0x00000000   Lc  Abs  File  De 
     93  am_hal_tpiu.c              0x00000000   Lc  Abs  File  De 
     94  am_hal_uart.c              0x00000000   Lc  Abs  File  De 
     95  am_hal_queue.c             0x00000000   Lc  Abs  File  De 
     96  dc.s                       0x00000000   Lc  Abs  File  De 
     97  ../clib/heapaux.c          0x00000000   Lc  Abs  File  De 
     98  .text                      0x0000c1ec   Lc    1  Sect  De 
     99  ../clib/angel/startup.s    0x00000000   Lc  Abs  File  De 
    100  !!!main                    0x0000c134   Lc    1  Sect  De   0x8
    101  ../clib/angel/handlers.s   0x00000000   Lc  Abs  File  De 
    102  !!handler_copy             0x0000c170   Lc    1  Sect  De   0x1a
    103  ../fplib/d2f.s             0x00000000   Lc  Abs  File  De 
    104  x$fpl$d2f                  0x0000eeb4   Lc    1  Sect  De   0x62
    105  $v0                        0x0000eeb4   Lc    1   --   De 
    106  ../clib/angel/kernel.s     0x00000000   Lc  Abs  File  De 
    107  .ARM.Collect$$rtentry$$00000000
                                    0x0000c1b4   Lc    1  Sect  De 
    108  ../fplib/dnaninf.s         0x00000000   Lc  Abs  File  De 
    109  x$fpl$dnaninf              0x0000ef16   Lc    1  Sect  De   0x9c
    110  $v0                        0x0000ef16   Lc    1   --   De 
    111  ../fplib/fretinf.s         0x00000000   Lc  Abs  File  De 
    112  x$fpl$fretinf              0x0000efcc   Lc    1  Sect  De   0xa
    113  $v0                        0x0000efcc   Lc    1   --   De 
    114  ../fplib/usenofp.s         0x00000000   Lc  Abs  File  De 
    115  x$fpl$usenofp              0x0000efd6   Lc    1  Sect  De 
    116  ../clib/angel/kernel.s     0x00000000   Lc  Abs  File  De 
    117  .ARM.Collect$$rtentry$$00000002
                                    0x0000c1b4   Lc    1  Sect  De 
    118  .ARM.Collect$$rtentry$$00000009
                                    0x0000c1ba   Lc    1  Sect  De 
    119  .ARM.Collect$$rtentry$$0000000A
                                    0x0000c1ba   Lc    1  Sect  De   0x4
    120  .ARM.Collect$$rtentry$$0000000C
                                    0x0000c1be   Lc    1  Sect  De 
    121  .ARM.Collect$$rtentry$$0000000D
                                    0x0000c1be   Lc    1  Sect  De   0x8
    122  ../clib/angel/kernel.s     0x00000000   Lc  Abs  File  De 
    123  .ARM.Collect$$rtentry$$00000004
                                    0x0000c1b4   Lc    1  Sect  De   0x6
    124  ../clib/angel/sys.s        0x00000000   Lc  Abs  File  De 
    125  .text                      0x0000c1f2   Lc    1  Sect  De   0x4a
    126  ../clib/stdlib.c           0x00000000   Lc  Abs  File  De 
    127  .text                      0x0000c23c   Lc    1  Sect  De 
    128  ../clib/angel/boardlib.s   0x00000000   Lc  Abs  File  De 
    129  ../clib/angel/boardlib.s   0x00000000   Lc  Abs  File  De 
    130  ../clib/angel/boardlib.s   0x00000000   Lc  Abs  File  De 
    131  ../clib/libinit.s          0x00000000   Lc  Abs  File  De 
    132  .ARM.Collect$$libinit$$00000000
                                    0x0000c1a8   Lc    1  Sect  De   0x2
    133  ../clib/angel/sys.s        0x00000000   Lc  Abs  File  De 
    134  .text                      0x0000c250   Lc    1  Sect  De   0x8
    135  .bss                       0x10001038   Lc    3  Sect  De   0x60
    136  ../clib/angel/kernel.s     0x00000000   Lc  Abs  File  De 
    137  .ARM.Collect$$rtexit$$00000000
                                    0x0000c1c6   Lc    1  Sect  De   0x2
    138  ../clib/libinit.s          0x00000000   Lc  Abs  File  De 
    139  .ARM.Collect$$libinit$$00000001
                                    0x0000c1aa   Lc    1  Sect  De   0x4
    140  .ARM.Collect$$libinit$$00000004
                                    0x0000c1ae   Lc    1  Sect  De 
    141  .ARM.Collect$$libinit$$00000006
                                    0x0000c1ae   Lc    1  Sect  De 
    142  .ARM.Collect$$libinit$$0000000C
                                    0x0000c1ae   Lc    1  Sect  De 
    143  .ARM.Collect$$libinit$$0000000E
                                    0x0000c1ae   Lc    1  Sect  De 
    144  .ARM.Collect$$libinit$$00000010
                                    0x0000c1ae   Lc    1  Sect  De 
    145  .ARM.Collect$$libinit$$00000013
                                    0x0000c1ae   Lc    1  Sect  De 
    146  .ARM.Collect$$libinit$$00000015
                                    0x0000c1ae   Lc    1  Sect  De 
    147  .ARM.Collect$$libinit$$00000017
                                    0x0000c1ae   Lc    1  Sect  De 
    148  .ARM.Collect$$libinit$$00000019
                                    0x0000c1ae   Lc    1  Sect  De 
    149  .ARM.Collect$$libinit$$0000001B
                                    0x0000c1ae   Lc    1  Sect  De 
    150  .ARM.Collect$$libinit$$0000001D
                                    0x0000c1ae   Lc    1  Sect  De 
    151  .ARM.Collect$$libinit$$0000001F
                                    0x0000c1ae   Lc    1  Sect  De 
    152  .ARM.Collect$$libinit$$00000021
                                    0x0000c1ae   Lc    1  Sect  De 
    153  .ARM.Collect$$libinit$$00000023
                                    0x0000c1ae   Lc    1  Sect  De 
    154  .ARM.Collect$$libinit$$00000025
                                    0x0000c1ae   Lc    1  Sect  De 
    155  .ARM.Collect$$libinit$$00000027
                                    0x0000c1ae   Lc    1  Sect  De 
    156  .ARM.Collect$$libinit$$0000002E
                                    0x0000c1ae   Lc    1  Sect  De 
    157  .ARM.Collect$$libinit$$00000030
                                    0x0000c1ae   Lc    1  Sect  De 
    158  .ARM.Collect$$libinit$$00000032
                                    0x0000c1ae   Lc    1  Sect  De 
    159  .ARM.Collect$$libinit$$00000034
                                    0x0000c1ae   Lc    1  Sect  De 
    160  .ARM.Collect$$libinit$$00000035
                                    0x0000c1ae   Lc    1  Sect  De   0x2
    161  ../clib/angel/kernel.s     0x00000000   Lc  Abs  File  De 
    162  .ARM.Collect$$rtexit$$00000002
                                    0x0000c1c8   Lc    1  Sect  De 
    163  .ARM.Collect$$rtexit$$00000003
                                    0x0000c1c8   Lc    1  Sect  De   0x4
    164  .ARM.Collect$$rtexit$$00000004
                                    0x0000c1cc   Lc    1  Sect  De   0x6
    165  ../clib/armsys.c           0x00000000   Lc  Abs  File  De 
    166  ../clib/armsys.c           0x00000000   Lc  Abs  File  De 
    167  ../fplib/fpinit.s          0x00000000   Lc  Abs  File  De 
    168  x$fpl$fpinit               0x0000efb2   Lc    1  Sect  De   0x1a
    169  $v0                        0x0000efb2   Lc    1   --   De 
    170  ../clib/angel/sysapp.c     0x00000000   Lc  Abs  File  De 
    171  .text                      0x0000c258   Lc    1  Sect  De 
    172  ../clib/angel/sysapp.c     0x00000000   Lc  Abs  File  De 
    173  ../clib/angel/boardlib.s   0x00000000   Lc  Abs  File  De 
    174  ../clib/armsys.c           0x00000000   Lc  Abs  File  De 
    175  ../clib/armsys.c           0x00000000   Lc  Abs  File  De 
    176  ../clib/libinit.s          0x00000000   Lc  Abs  File  De 
    177  .ARM.Collect$$libshutdown$$00000000
                                    0x0000c1b0   Lc    1  Sect  De   0x2
    178  ../clib/angel/sysapp.c     0x00000000   Lc  Abs  File  De 
    179  ../clib/angel/sysapp.c     0x00000000   Lc  Abs  File  De 
    180  ../clib/angel/sys.s        0x00000000   Lc  Abs  File  De 
    181  .text                      0x0000c264   Lc    1  Sect  De   0x2
    182  ../clib/angel/sys.s        0x00000000   Lc  Abs  File  De 
    183  .text                      0x0000c266   Lc    1  Sect  De 
    184  ../clib/heapalloc.c        0x00000000   Lc  Abs  File  De 
    185  ../clib/signal.c           0x00000000   Lc  Abs  File  De 
    186  ../clib/signal.c           0x00000000   Lc  Abs  File  De 
    187  ../clib/libinit.s          0x00000000   Lc  Abs  File  De 
    188  .ARM.Collect$$libshutdown$$00000002
                                    0x0000c1b2   Lc    1  Sect  De 
    189  .ARM.Collect$$libshutdown$$00000004
                                    0x0000c1b2   Lc    1  Sect  De 
    190  .ARM.Collect$$libshutdown$$00000007
                                    0x0000c1b2   Lc    1  Sect  De 
    191  .ARM.Collect$$libshutdown$$0000000A
                                    0x0000c1b2   Lc    1  Sect  De 
    192  .ARM.Collect$$libshutdown$$0000000C
                                    0x0000c1b2   Lc    1  Sect  De 
    193  .ARM.Collect$$libshutdown$$0000000F
                                    0x0000c1b2   Lc    1  Sect  De 
    194  .ARM.Collect$$libshutdown$$00000010
                                    0x0000c1b2   Lc    1  Sect  De   0x2
    195  ../clib/angel/rt.s         0x00000000   Lc  Abs  File  De 
    196  ../clib/signal.c           0x00000000   Lc  Abs  File  De 
    197  ../clib/signal.c           0x00000000   Lc  Abs  File  De 
    198  ../clib/signal.c           0x00000000   Lc  Abs  File  De 
    199  ../clib/signal.c           0x00000000   Lc  Abs  File  De 
    200  ../clib/angel/sysapp.c     0x00000000   Lc  Abs  File  De 
    201  ../clib/angel/sysapp.c     0x00000000   Lc  Abs  File  De 
    202  ../clib/signal.s           0x00000000   Lc  Abs  File  De 
    203  ../clib/signal.c           0x00000000   Lc  Abs  File  De 
    204  ../clib/signal.c           0x00000000   Lc  Abs  File  De 
    205  ../clib/signal.c           0x00000000   Lc  Abs  File  De 
    206  ../clib/signal.c           0x00000000   Lc  Abs  File  De 
    207  ../clib/signal.c           0x00000000   Lc  Abs  File  De 
    208  ../clib/signal.c           0x00000000   Lc  Abs  File  De 
    209  ../clib/signal.c           0x00000000   Lc  Abs  File  De 
    210  ../clib/signal.c           0x00000000   Lc  Abs  File  De 
    211  ../clib/angel/scatter.s    0x00000000   Lc  Abs  File  De 
    212  !!!scatter                 0x0000c13c   Lc    1  Sect  De   0x34
    213  ../clib/angel/handlers.s   0x00000000   Lc  Abs  File  De 
    214  !!handler_zi               0x0000c18c   Lc    1  Sect  De   0x1c
    215  BuildAttributes$$THM_ISAv4$E$P$D$K$B$S$7EM$VFPi3$EXTD16$VFPS$VFMA$PE$A:L22UL41UL21$X:L11$S22US41US21$IEEE1$IW$~IW$USESV6$~STKCKD$USESV7$~SHL$OTIME$ROPI$EBA8$UX$STANDARDLIB$REQ8$PRES8$EABIv2
                                    0x00000000   Gb  Abs   --   Hi 
    216  __Vectors                  0x0000c000   Gb    1  Data  Hi 
    217  __Patchable                0x0000c0c0   Gb    1  Data  Hi 
    218  Reset_Handler              0x0000c101   Wk    1  Code  Hi   0x1c
    219  NMI_Handler                0x0000c11f   Wk    1  Code  Hi   0x2
    220  MemManage_Handler          0x0000c121   Wk    1  Code  Hi   0x2
    221  BusFault_Handler           0x0000c123   Wk    1  Code  Hi   0x2
    222  UsageFault_Handler         0x0000c125   Wk    1  Code  Hi   0x2
    223  SVC_Handler                0x0000c127   Wk    1  Code  Hi   0x2
    224  DebugMon_Handler           0x0000c129   Wk    1  Code  Hi   0x2
    225  PendSV_Handler             0x0000c12b   Wk    1  Code  Hi   0x2
    226  SysTick_Handler            0x0000c12d   Wk    1  Code  Hi   0x2
    227  am_adc_isr                 0x0000c12f   Wk    1  Code  Hi 
    228  am_ble_isr                 0x0000c12f   Wk    1  Code  Hi 
    229  am_brownout_isr            0x0000c12f   Wk    1  Code  Hi 
    230  am_clkgen_isr              0x0000c12f   Wk    1  Code  Hi 
    231  am_ctimer_isr              0x0000c12f   Wk    1  Code  Hi 
    232  am_gpio_isr                0x0000c12f   Wk    1  Code  Hi 
    233  am_iomaster0_isr           0x0000c12f   Wk    1  Code  Hi 
    234  am_iomaster1_isr           0x0000c12f   Wk    1  Code  Hi 
    235  am_iomaster2_isr           0x0000c12f   Wk    1  Code  Hi 
    236  am_iomaster3_isr           0x0000c12f   Wk    1  Code  Hi 
    237  am_iomaster4_isr           0x0000c12f   Wk    1  Code  Hi 
    238  am_iomaster5_isr           0x0000c12f   Wk    1  Code  Hi 
    239  am_ioslave_acc_isr         0x0000c12f   Wk    1  Code  Hi 
    240  am_ioslave_ios_isr         0x0000c12f   Wk    1  Code  Hi 
    241  am_mspi0_isr               0x0000c12f   Wk    1  Code  Hi 
    242  am_pdm0_isr                0x0000c12f   Wk    1  Code  Hi 
    243  am_rtc_isr                 0x0000c12f   Wk    1  Code  Hi 
    244  am_scard_isr               0x0000c12f   Wk    1  Code  Hi 
    245  am_software0_isr           0x0000c12f   Wk    1  Code  Hi 
    246  am_stimer_cmpr0_isr        0x0000c12f   Wk    1  Code  Hi 
    247  am_stimer_cmpr1_isr        0x0000c12f   Wk    1  Code  Hi 
    248  am_stimer_cmpr2_isr        0x0000c12f   Wk    1  Code  Hi 
    249  am_stimer_cmpr3_isr        0x0000c12f   Wk    1  Code  Hi 
    250  am_stimer_cmpr4_isr        0x0000c12f   Wk    1  Code  Hi 
    251  am_stimer_cmpr5_isr        0x0000c12f   Wk    1  Code  Hi 
    252  am_stimer_cmpr6_isr        0x0000c12f   Wk    1  Code  Hi 
    253  am_stimer_cmpr7_isr        0x0000c12f   Wk    1  Code  Hi 
    254  am_stimer_isr              0x0000c12f   Wk    1  Code  Hi 
    255  am_uart0_isr               0x0000c12f   Wk    1  Code  Hi 
    256  am_uart1_isr               0x0000c12f   Wk    1  Code  Hi 
    257  am_uart_isr                0x0000c12f   Wk    1  Code  Hi 
    258  am_vcomp_isr               0x0000c12f   Wk    1  Code  Hi 
    259  am_watchdog_isr            0x0000c12f   Wk    1  Code  Hi 
    260  __main                     0x0000c135   Gb    1  Code  Hi   0x8
    261  __scatterload              0x0000c13d   Gb    1  Code  Hi 
    262  __scatterload_rt2          0x0000c13d   Gb    1  Code  Hi   0x2c
    263  __scatterload_rt2_thumb_only
                                    0x0000c13d   Gb    1  Code  Hi 
    264  __scatterload_null         0x0000c14b   Gb    1  Code  Hi 
    265  __scatterload_copy         0x0000c171   Gb    1  Code  Hi   0x1a
    266  __scatterload_zeroinit     0x0000c18d   Gb    1  Code  Hi   0x1c
    267  __rt_lib_init              0x0000c1a9   Gb    1  Code  De 
    268  __rt_lib_init_fp_1         0x0000c1ab   Gb    1  Code  Hi 
    269  __rt_lib_init_alloca_1     0x0000c1af   Gb    1  Code  Hi 
    270  __rt_lib_init_argv_1       0x0000c1af   Gb    1  Code  Hi 
    271  __rt_lib_init_atexit_1     0x0000c1af   Gb    1  Code  Hi 
    272  __rt_lib_init_clock_1      0x0000c1af   Gb    1  Code  Hi 
    273  __rt_lib_init_cpp_1        0x0000c1af   Gb    1  Code  Hi 
    274  __rt_lib_init_exceptions_1 0x0000c1af   Gb    1  Code  Hi 
    275  __rt_lib_init_fp_trap_1    0x0000c1af   Gb    1  Code  Hi 
    276  __rt_lib_init_getenv_1     0x0000c1af   Gb    1  Code  Hi 
    277  __rt_lib_init_heap_1       0x0000c1af   Gb    1  Code  Hi 
    278  __rt_lib_init_lc_collate_1 0x0000c1af   Gb    1  Code  Hi 
    279  __rt_lib_init_lc_ctype_1   0x0000c1af   Gb    1  Code  Hi 
    280  __rt_lib_init_lc_monetary_1
                                    0x0000c1af   Gb    1  Code  Hi 
    281  __rt_lib_init_lc_numeric_1 0x0000c1af   Gb    1  Code  Hi 
    282  __rt_lib_init_lc_time_1    0x0000c1af   Gb    1  Code  Hi 
    283  __rt_lib_init_preinit_1    0x0000c1af   Gb    1  Code  Hi 
    284  __rt_lib_init_rand_1       0x0000c1af   Gb    1  Code  Hi 
    285  __rt_lib_init_relocate_pie_1
                                    0x0000c1af   Gb    1  Code  Hi 
    286  __rt_lib_init_return       0x0000c1af   Gb    1  Code  Hi 
    287  __rt_lib_init_signal_1     0x0000c1af   Gb    1  Code  Hi 
    288  __rt_lib_init_stdio_1      0x0000c1af   Gb    1  Code  Hi 
    289  __rt_lib_init_user_alloc_1 0x0000c1af   Gb    1  Code  Hi 
    290  __rt_lib_shutdown          0x0000c1b1   Gb    1  Code  De 
    291  __rt_lib_shutdown_cpp_1    0x0000c1b3   Gb    1  Code  Hi 
    292  __rt_lib_shutdown_fp_trap_1
                                    0x0000c1b3   Gb    1  Code  Hi 
    293  __rt_lib_shutdown_heap_1   0x0000c1b3   Gb    1  Code  Hi 
    294  __rt_lib_shutdown_return   0x0000c1b3   Gb    1  Code  Hi 
    295  __rt_lib_shutdown_signal_1 0x0000c1b3   Gb    1  Code  Hi 
    296  __rt_lib_shutdown_stdio_1  0x0000c1b3   Gb    1  Code  Hi 
    297  __rt_lib_shutdown_user_alloc_1
                                    0x0000c1b3   Gb    1  Code  Hi 
    298  __rt_entry                 0x0000c1b5   Gb    1  Code  Hi 
    299  __rt_entry_presh_1         0x0000c1b5   Gb    1  Code  Hi 
    300  __rt_entry_sh              0x0000c1b5   Gb    1  Code  Hi 
    301  __rt_entry_li              0x0000c1bb   Gb    1  Code  Hi 
    302  __rt_entry_postsh_1        0x0000c1bb   Gb    1  Code  Hi 
    303  __rt_entry_main            0x0000c1bf   Gb    1  Code  Hi 
    304  __rt_entry_postli_1        0x0000c1bf   Gb    1  Code  Hi 
    305  __rt_exit                  0x0000c1c7   Gb    1  Code  De 
    306  __rt_exit_ls               0x0000c1c9   Gb    1  Code  Hi 
    307  __rt_exit_prels_1          0x0000c1c9   Gb    1  Code  Hi 
    308  __rt_exit_exit             0x0000c1cd   Gb    1  Code  Hi 
    309  __user_initial_stackheap   0x0000c1d5   Gb    1  Code  Hi   0xa
    310  __use_two_region_memory    0x0000c1ed   Gb    1  Code  Hi   0x2
    311  __rt_heap_escrow$2region   0x0000c1ef   Gb    1  Code  De   0x2
    312  __rt_heap_expand$2region   0x0000c1f1   Gb    1  Code  De   0x2
    313  __user_setup_stackheap     0x0000c1f3   Gb    1  Code  De   0x4a
    314  exit                       0x0000c23d   Gb    1  Code  De   0x12
    315  __user_libspace            0x0000c251   Wk    1  Code  De   0x8
    316  __user_perproc_libspace    0x0000c251   Wk    1  Code  De 
    317  __user_perthread_libspace  0x0000c251   Wk    1  Code  De 
    318  _sys_exit                  0x0000c259   Gb    1  Code  De   0x8
    319  __I$use$semihosting        0x0000c265   Gb    1  Code  Hi 
    320  __use_no_semihosting_swi   0x0000c265   Gb    1  Code  Hi   0x2
    321  __semihosting_library_function
                                    0x0000c267   Gb    1  Code  Hi 
    322  HardFault_Handler          0x0000c269   Gb    1  Code  Hi   0x1e
    323  am_bsp_debug_printf_disable
                                    0x0000c28d   Gb    1  Code  Hi   0x6e
    324  am_bsp_itm_printf_enable   0x0000c2fd   Gb    1  Code  Hi   0x44
    325  am_bsp_low_power_init      0x0000c341   Gb    1  Code  Hi   0xa2
    326  am_getStackedReg           0x0000c3e5   Gb    1  Code  Hi   0x12
    327  am_hal_cachectrl_config    0x0000c3f9   Gb    1  Code  Hi   0x48
    328  am_hal_cachectrl_control   0x0000c441   Gb    1  Code  Hi   0x2e0
    329  am_hal_cachectrl_enable    0x0000c721   Gb    1  Code  Hi   0x14
    330  am_hal_clkgen_control      0x0000c735   Gb    1  Code  Hi   0x15a
    331  am_hal_clkgen_status_get   0x0000c891   Gb    1  Code  Hi   0x3a
    332  am_hal_ctimer_aux_compare_set
                                    0x0000c8cd   Gb    1  Code  Hi   0x88
    333  am_hal_ctimer_clear        0x0000c955   Gb    1  Code  Hi   0x2c
    334  am_hal_ctimer_compare_set  0x0000c981   Gb    1  Code  Hi   0x88
    335  am_hal_ctimer_config_single
                                    0x0000ca09   Gb    1  Code  Hi   0x8a
    336  am_hal_ctimer_config_trigger
                                    0x0000ca95   Gb    1  Code  Hi   0x36
    337  am_hal_ctimer_output_config
                                    0x0000cacd   Gb    1  Code  Hi   0x468
    338  am_hal_ctimer_period_set   0x0000cf75   Gb    1  Code  Hi   0x7e
    339  am_hal_ctimer_start        0x0000cff5   Gb    1  Code  Hi   0x60
    340  am_hal_flash_delay         0x0000d055   Gb    1  Code  Hi   0x2a
    341  am_hal_flash_delay_status_check
                                    0x0000d081   Gb    1  Code  Hi   0xb6
    342  am_hal_flash_load_ui32     0x0000d139   Gb    1  Code  Hi   0x8
    343  am_hal_flash_store_ui32    0x0000d141   Gb    1  Code  Hi   0x2c
    344  am_hal_gpio_pinconfig      0x0000d16d   Gb    1  Code  Hi   0x240
    345  am_hal_gpio_state_write    0x0000d415   Gb    1  Code  Hi   0xb4
    346  am_hal_interrupt_master_disable
                                    0x0000d4c9   Gb    1  Code  Hi   0x8
    347  am_hal_interrupt_master_set
                                    0x0000d4d1   Gb    1  Code  Hi   0x6
    348  am_hal_itm_disable         0x0000d4d9   Gb    1  Code  Hi   0x188
    349  am_hal_itm_enable          0x0000d661   Gb    1  Code  Hi   0x56
    350  am_hal_itm_print           0x0000d6b9   Gb    1  Code  Hi   0x136
    351  am_hal_mcuctrl_info_get    0x0000d7f1   Gb    1  Code  Hi   0x128
    352  am_hal_pwrctrl_low_power_init
                                    0x0000d919   Gb    1  Code  Hi   0x17c
    353  am_hal_pwrctrl_periph_disable
                                    0x0000da95   Gb    1  Code  Hi   0x8c
    354  am_hal_pwrctrl_periph_enable
                                    0x0000db21   Gb    1  Code  Hi   0x76
    355  am_hal_rtc_osc_disable     0x0000db99   Gb    1  Code  Hi   0x12
    356  am_hal_sysctrl_sleep       0x0000dbad   Gb    1  Code  Hi   0xc2
    357  am_hal_tpiu_enable         0x0000dc71   Gb    1  Code  Hi   0x98
    358  am_hal_uart_deinitialize   0x0000dd09   Gb    1  Code  Hi   0x28
    359  am_hal_uart_power_control  0x0000dd31   Gb    1  Code  Hi   0x10e
    360  am_hal_uart_tx_flush       0x0000de41   Gb    1  Code  Hi   0x5a
    361  am_util_faultisr_collect_data
                                    0x0000de9d   Gb    1  Code  Hi   0xd8
    362  am_util_stdio_printf       0x0000df75   Gb    1  Code  Hi   0x5c
    363  am_util_stdio_printf_init  0x0000dfd1   Gb    1  Code  Hi   0x14
    364  am_util_stdio_terminal_clear
                                    0x0000dfe5   Gb    1  Code  Hi   0x10
    365  am_util_stdio_vsprintf     0x0000dff5   Gb    1  Code  Hi   0x654
    366  am_valid_sp                0x0000e649   Gb    1  Code  Hi   0x36
    367  global_disable             0x0000ea71   Gb    1  Code  Hi   0xe
    368  global_enable              0x0000ea81   Gb    1  Code  Hi   0x10
    369  initialize_pattern_counter 0x0000ea91   Gb    1  Code  Hi   0xa0
    370  initialize_trigger_counter 0x0000eb31   Gb    1  Code  Hi   0x46
    371  main                       0x0000eb79   Gb    1  Code  Hi   0x7c
    372  __aeabi_d2f                0x0000eeb5   Gb    1  Code  De 
    373  _d2f                       0x0000eeb5   Gb    1  Code  De   0x62
    374  __fpl_dnaninf              0x0000ef17   Gb    1  Code  De   0x9c
    375  _fp_init                   0x0000efb3   Gb    1  Code  De   0x1a
    376  __fplib_config_fpu_vfp     0x0000efcb   Gb    1  Code  De 
    377  __fplib_config_pureend_doubles
                                    0x0000efcb   Gb    1  Code  De 
    378  __fpl_fretinf              0x0000efcd   Gb    1  Code  De   0xa
    379  __I$use$fp                 0x0000efd6   Gb    1   --   De 
    380  am_hal_cachectrl_defaults  0x0000efd6   Gb    1  Data  Hi   0x3
    381  am_hal_pwrctrl_peripheral_control
                                    0x0000efdc   Gb    1  Data  Hi   0xb4
    382  g_AM_BSP_GPIO_ITM_SWO      0x0000f090   Gb    1  Data  Hi   0x4
    383  g_AM_HAL_GPIO_DISABLE      0x0000f094   Gb    1  Data  Hi   0x4
    384  g_AM_HAL_GPIO_OUTPUT       0x0000f098   Gb    1  Data  Hi   0x4
    385  g_am_hal_mcuctrl_flash_size
                                    0x0000f09c   Gb    1  Data  Hi   0x40
    386  g_am_hal_mcuctrl_sram_size 0x0000f0dc   Gb    1  Data  Hi   0x40
    387  Region$$Table$$Base        0x0000f2cc   Gb    1   --   Hi 
    388  Region$$Table$$Limit       0x0000f2ec   Gb    1   --   Hi 
    389  am_bsp_psLEDs              0x10000000   Gb    2  Data  Hi   0x28
    390  __libspace_start           0x10001038   Gb    3  Data  De   0x60
    391  __temporary_stack_top$libspace
                                    0x10001098   Gb    3  Data  De 
    392  gAmHalResetStatus          0x100010a0   Gb    3  Data  Hi   0x4
    393  gFaultStack                0x100010a8   Gb    3  Data  Hi   0x200
    394  g_am_hal_sysctrl_sleep_count
                                    0x100012a8   Gb    3  Data  Hi   0x4
    395  g_pfnCharPrint             0x100012b0   Gb    3  Data  Hi   0x4


** Section #11 '.strtab' (SHT_STRTAB)
    Size   : 6580 bytes

            #  Offset String
        ====================================

            1      1: $d
            2      4: $t
            3      7: $t.0
            4     12: $d.4
            5     17: $t.5
            6     22: $d.1
            7     27: $t.2
            8     32: $d.15
            9     38: $t.16
           10     44: $d.17
           11     50: $t.21
           12     56: $d.2
           13     61: $t.3
           14     66: $t.8
           15     71: $d.9
           16     76: $t.10
           17     82: $d.realdata
           18     94: ctimer_stepper_synch_64bit_pattern.c
           19    131: .L.str
           20    138: am_util_delay.c
           21    154: am_util_faultisr.c
           22    173: am_util_stdio.c
           23    189: decstr_to_int
           24    203: simple_strlen
           25    217: padbuffer
           26    227: ndigits_in_hex
           27    242: uint64_to_hexstr
           28    259: ndigits_in_u64
           29    274: uint64_to_str
           30    288: ndigits_in_i64
           31    303: ftoa
           32    308: divu64_10
           33    318: g_bTxtXlate
           34    330: g_prfbuf
           35    339: ../keil6/startup_keil6.s
           36    364: STACK
           37    370: StackMem
           38    379: HEAP
           39    384: HeapMem
           40    392: RESET
           41    398: $v0
           42    402: .text
           43    408: am_bsp.c
           44    417: .L_MergedGlobals
           45    434: g_ui32PrintInterface
           46    455: g_sCOMUART
           47    466: am_hal_cachectrl.c
           48    485: set_RDWAIT
           49    496: am_hal_clkgen.c
           50    512: am_hal_ctimer.c
           51    528: CTx_tbl
           52    536: g_ui8ClkSrc
           53    548: outcfg_tbl
           54    559: am_hal_flash.c
           55    574: am_hal_mcuctrl.c
           56    591: am_hal_sysctrl.c
           57    608: am_bsp_pins.c
           58    622: am_hal_debug.c
           59    637: am_hal_global.c
           60    653: am_hal_gpio.c
           61    667: g_ui8Bit76Capabilities
           62    690: g_ui8nCEpins
           63    703: g_ui8Inpen
           64    714: g_ui8NCEtable
           65    728: am_hal_interrupt.c
           66    747: am_hal_itm.c
           67    760: am_hal_pwrctrl.c
           68    777: am_hal_reset.c
           69    792: am_hal_rtc.c
           70    805: am_hal_tpiu.c
           71    819: am_hal_uart.c
           72    833: am_hal_queue.c
           73    848: dc.s
           74    853: ../clib/heapaux.c
           75    871: ../clib/angel/startup.s
           76    895: !!!main
           77    903: ../clib/angel/handlers.s
           78    928: !!handler_copy
           79    943: ../fplib/d2f.s
           80    958: x$fpl$d2f
           81    968: ../clib/angel/kernel.s
           82    991: .ARM.Collect$$rtentry$$00000000
           83   1023: ../fplib/dnaninf.s
           84   1042: x$fpl$dnaninf
           85   1056: ../fplib/fretinf.s
           86   1075: x$fpl$fretinf
           87   1089: ../fplib/usenofp.s
           88   1108: x$fpl$usenofp
           89   1122: .ARM.Collect$$rtentry$$00000002
           90   1154: .ARM.Collect$$rtentry$$00000009
           91   1186: .ARM.Collect$$rtentry$$0000000A
           92   1218: .ARM.Collect$$rtentry$$0000000C
           93   1250: .ARM.Collect$$rtentry$$0000000D
           94   1282: .ARM.Collect$$rtentry$$00000004
           95   1314: ../clib/angel/sys.s
           96   1334: ../clib/stdlib.c
           97   1351: ../clib/angel/boardlib.s
           98   1376: ../clib/libinit.s
           99   1394: .ARM.Collect$$libinit$$00000000
          100   1426: .bss
          101   1431: .ARM.Collect$$rtexit$$00000000
          102   1462: .ARM.Collect$$libinit$$00000001
          103   1494: .ARM.Collect$$libinit$$00000004
          104   1526: .ARM.Collect$$libinit$$00000006
          105   1558: .ARM.Collect$$libinit$$0000000C
          106   1590: .ARM.Collect$$libinit$$0000000E
          107   1622: .ARM.Collect$$libinit$$00000010
          108   1654: .ARM.Collect$$libinit$$00000013
          109   1686: .ARM.Collect$$libinit$$00000015
          110   1718: .ARM.Collect$$libinit$$00000017
          111   1750: .ARM.Collect$$libinit$$00000019
          112   1782: .ARM.Collect$$libinit$$0000001B
          113   1814: .ARM.Collect$$libinit$$0000001D
          114   1846: .ARM.Collect$$libinit$$0000001F
          115   1878: .ARM.Collect$$libinit$$00000021
          116   1910: .ARM.Collect$$libinit$$00000023
          117   1942: .ARM.Collect$$libinit$$00000025
          118   1974: .ARM.Collect$$libinit$$00000027
          119   2006: .ARM.Collect$$libinit$$0000002E
          120   2038: .ARM.Collect$$libinit$$00000030
          121   2070: .ARM.Collect$$libinit$$00000032
          122   2102: .ARM.Collect$$libinit$$00000034
          123   2134: .ARM.Collect$$libinit$$00000035
          124   2166: .ARM.Collect$$rtexit$$00000002
          125   2197: .ARM.Collect$$rtexit$$00000003
          126   2228: .ARM.Collect$$rtexit$$00000004
          127   2259: ../clib/armsys.c
          128   2276: ../fplib/fpinit.s
          129   2294: x$fpl$fpinit
          130   2307: ../clib/angel/sysapp.c
          131   2330: .ARM.Collect$$libshutdown$$00000000
          132   2366: ../clib/heapalloc.c
          133   2386: ../clib/signal.c
          134   2403: .ARM.Collect$$libshutdown$$00000002
          135   2439: .ARM.Collect$$libshutdown$$00000004
          136   2475: .ARM.Collect$$libshutdown$$00000007
          137   2511: .ARM.Collect$$libshutdown$$0000000A
          138   2547: .ARM.Collect$$libshutdown$$0000000C
          139   2583: .ARM.Collect$$libshutdown$$0000000F
          140   2619: .ARM.Collect$$libshutdown$$00000010
          141   2655: ../clib/angel/rt.s
          142   2674: ../clib/signal.s
          143   2691: ../clib/angel/scatter.s
          144   2715: !!!scatter
          145   2726: !!handler_zi
          146   2739: BuildAttributes$$THM_ISAv4$E$P$D$K$B$S$7EM$VFPi3$EXTD16$VFPS$VFMA$PE$A:L22UL41UL21$X:L11$S22US41US21$IEEE1$IW$~IW$USESV6$~STKCKD$USESV7$~SHL$OTIME$ROPI$EBA8$UX$STANDARDLIB$REQ8$PRES8$EABIv2
          147   2929: __Vectors
          148   2939: __Patchable
          149   2951: Reset_Handler
          150   2965: NMI_Handler
          151   2977: MemManage_Handler
          152   2995: BusFault_Handler
          153   3012: UsageFault_Handler
          154   3031: SVC_Handler
          155   3043: DebugMon_Handler
          156   3060: PendSV_Handler
          157   3075: SysTick_Handler
          158   3091: am_adc_isr
          159   3102: am_ble_isr
          160   3113: am_brownout_isr
          161   3129: am_clkgen_isr
          162   3143: am_ctimer_isr
          163   3157: am_gpio_isr
          164   3169: am_iomaster0_isr
          165   3186: am_iomaster1_isr
          166   3203: am_iomaster2_isr
          167   3220: am_iomaster3_isr
          168   3237: am_iomaster4_isr
          169   3254: am_iomaster5_isr
          170   3271: am_ioslave_acc_isr
          171   3290: am_ioslave_ios_isr
          172   3309: am_mspi0_isr
          173   3322: am_pdm0_isr
          174   3334: am_rtc_isr
          175   3345: am_scard_isr
          176   3358: am_software0_isr
          177   3375: am_stimer_cmpr0_isr
          178   3395: am_stimer_cmpr1_isr
          179   3415: am_stimer_cmpr2_isr
          180   3435: am_stimer_cmpr3_isr
          181   3455: am_stimer_cmpr4_isr
          182   3475: am_stimer_cmpr5_isr
          183   3495: am_stimer_cmpr6_isr
          184   3515: am_stimer_cmpr7_isr
          185   3535: am_stimer_isr
          186   3549: am_uart0_isr
          187   3562: am_uart1_isr
          188   3575: am_uart_isr
          189   3587: am_vcomp_isr
          190   3600: am_watchdog_isr
          191   3616: __main
          192   3623: __scatterload
          193   3637: __scatterload_rt2
          194   3655: __scatterload_rt2_thumb_only
          195   3684: __scatterload_null
          196   3703: __scatterload_copy
          197   3722: __scatterload_zeroinit
          198   3745: __rt_lib_init
          199   3759: __rt_lib_init_fp_1
          200   3778: __rt_lib_init_alloca_1
          201   3801: __rt_lib_init_argv_1
          202   3822: __rt_lib_init_atexit_1
          203   3845: __rt_lib_init_clock_1
          204   3867: __rt_lib_init_cpp_1
          205   3887: __rt_lib_init_exceptions_1
          206   3914: __rt_lib_init_fp_trap_1
          207   3938: __rt_lib_init_getenv_1
          208   3961: __rt_lib_init_heap_1
          209   3982: __rt_lib_init_lc_collate_1
          210   4009: __rt_lib_init_lc_ctype_1
          211   4034: __rt_lib_init_lc_monetary_1
          212   4062: __rt_lib_init_lc_numeric_1
          213   4089: __rt_lib_init_lc_time_1
          214   4113: __rt_lib_init_preinit_1
          215   4137: __rt_lib_init_rand_1
          216   4158: __rt_lib_init_relocate_pie_1
          217   4187: __rt_lib_init_return
          218   4208: __rt_lib_init_signal_1
          219   4231: __rt_lib_init_stdio_1
          220   4253: __rt_lib_init_user_alloc_1
          221   4280: __rt_lib_shutdown
          222   4298: __rt_lib_shutdown_cpp_1
          223   4322: __rt_lib_shutdown_fp_trap_1
          224   4350: __rt_lib_shutdown_heap_1
          225   4375: __rt_lib_shutdown_return
          226   4400: __rt_lib_shutdown_signal_1
          227   4427: __rt_lib_shutdown_stdio_1
          228   4453: __rt_lib_shutdown_user_alloc_1
          229   4484: __rt_entry
          230   4495: __rt_entry_presh_1
          231   4514: __rt_entry_sh
          232   4528: __rt_entry_li
          233   4542: __rt_entry_postsh_1
          234   4562: __rt_entry_main
          235   4578: __rt_entry_postli_1
          236   4598: __rt_exit
          237   4608: __rt_exit_ls
          238   4621: __rt_exit_prels_1
          239   4639: __rt_exit_exit
          240   4654: __user_initial_stackheap
          241   4679: __use_two_region_memory
          242   4703: __rt_heap_escrow$2region
          243   4728: __rt_heap_expand$2region
          244   4753: __user_setup_stackheap
          245   4776: exit
          246   4781: __user_libspace
          247   4797: __user_perproc_libspace
          248   4821: __user_perthread_libspace
          249   4847: _sys_exit
          250   4857: __I$use$semihosting
          251   4877: __use_no_semihosting_swi
          252   4902: __semihosting_library_function
          253   4933: HardFault_Handler
          254   4951: am_bsp_debug_printf_disable
          255   4979: am_bsp_itm_printf_enable
          256   5004: am_bsp_low_power_init
          257   5026: am_getStackedReg
          258   5043: am_hal_cachectrl_config
          259   5067: am_hal_cachectrl_control
          260   5092: am_hal_cachectrl_enable
          261   5116: am_hal_clkgen_control
          262   5138: am_hal_clkgen_status_get
          263   5163: am_hal_ctimer_aux_compare_set
          264   5193: am_hal_ctimer_clear
          265   5213: am_hal_ctimer_compare_set
          266   5239: am_hal_ctimer_config_single
          267   5267: am_hal_ctimer_config_trigger
          268   5296: am_hal_ctimer_output_config
          269   5324: am_hal_ctimer_period_set
          270   5349: am_hal_ctimer_start
          271   5369: am_hal_flash_delay
          272   5388: am_hal_flash_delay_status_check
          273   5420: am_hal_flash_load_ui32
          274   5443: am_hal_flash_store_ui32
          275   5467: am_hal_gpio_pinconfig
          276   5489: am_hal_gpio_state_write
          277   5513: am_hal_interrupt_master_disable
          278   5545: am_hal_interrupt_master_set
          279   5573: am_hal_itm_disable
          280   5592: am_hal_itm_enable
          281   5610: am_hal_itm_print
          282   5627: am_hal_mcuctrl_info_get
          283   5651: am_hal_pwrctrl_low_power_init
          284   5681: am_hal_pwrctrl_periph_disable
          285   5711: am_hal_pwrctrl_periph_enable
          286   5740: am_hal_rtc_osc_disable
          287   5763: am_hal_sysctrl_sleep
          288   5784: am_hal_tpiu_enable
          289   5803: am_hal_uart_deinitialize
          290   5828: am_hal_uart_power_control
          291   5854: am_hal_uart_tx_flush
          292   5875: am_util_faultisr_collect_data
          293   5905: am_util_stdio_printf
          294   5926: am_util_stdio_printf_init
          295   5952: am_util_stdio_terminal_clear
          296   5981: am_util_stdio_vsprintf
          297   6004: am_valid_sp
          298   6016: global_disable
          299   6031: global_enable
          300   6045: initialize_pattern_counter
          301   6072: initialize_trigger_counter
          302   6099: main
          303   6104: __aeabi_d2f
          304   6116: _d2f
          305   6121: __fpl_dnaninf
          306   6135: _fp_init
          307   6144: __fplib_config_fpu_vfp
          308   6167: __fplib_config_pureend_doubles
          309   6198: __fpl_fretinf
          310   6212: __I$use$fp
          311   6223: am_hal_cachectrl_defaults
          312   6249: am_hal_pwrctrl_peripheral_control
          313   6283: g_AM_BSP_GPIO_ITM_SWO
          314   6305: g_AM_HAL_GPIO_DISABLE
          315   6327: g_AM_HAL_GPIO_OUTPUT
          316   6348: g_am_hal_mcuctrl_flash_size
          317   6376: g_am_hal_mcuctrl_sram_size
          318   6403: Region$$Table$$Base
          319   6423: Region$$Table$$Limit
          320   6444: am_bsp_psLEDs
          321   6458: __libspace_start
          322   6475: __temporary_stack_top$libspace
          323   6506: gAmHalResetStatus
          324   6524: gFaultStack
          325   6536: g_am_hal_sysctrl_sleep_count
          326   6565: g_pfnCharPrint


** Section #12 '.note' (SHT_NOTE)
    Size   : 28 bytes (alignment 4)


** Section #13 '.comment' (SHT_PROGBITS)
    Size   : 1640 bytes


** Section #14 '.shstrtab' (SHT_STRTAB)
    Size   : 132 bytes

            #  Offset String
        ====================================

            1      1: FLASH
            2      7: SRAM
            3     12: .debug_abbrev
            4     26: .debug_frame
            5     39: .debug_info
            6     51: .debug_line
            7     63: .debug_ranges
            8     77: .debug_str
            9     88: .symtab
           10     96: .strtab
           11    104: .note
           12    110: .comment
           13    119: .shstrtab
           14    129: 
           15    130: 
           16    131: 


