
========================================================================

** ELF Header Information

    File Name: bin\flash_selftest.axf

    Machine class: ELFCLASS32 (32-bit)
    Data encoding: ELFDATA2LSB (Little endian)
    Header version: EV_CURRENT (Current version)
    Operating System ABI: none
    ABI Version: 0
    File Type: ET_EXEC (Executable) (2)
    Machine: EM_ARM (ARM)

    Image Entry point: 0x10000135
    Flags: EF_ARM_HASENTRY + EF_ARM_ABI_FLOAT_HARD (0x05000402)

    ARM ELF revision: 5 (ABI version 2)

    Conforms to Hard float procedure-call standard

    Built with
    Component: Arm Compiler for Embedded 6.19 Tool: armasm [5e73cb00]
    Component: Arm Compiler for Embedded 6.19 Tool: armlink [5e73cb00]

    Header size: 52 bytes (0x34)
    Program header entry size: 32 bytes (0x20)
    Section header entry size: 40 bytes (0x28)

    Program header entries: 1
    Section header entries: 16

    Program header offset: 84940 (0x00014bcc)
    Section header offset: 84972 (0x00014bec)

    Section header string table index: 15

========================================================================

** Program header #0 (PT_LOAD) [PF_X + PF_W + PF_R + PF_ARM_ENTRY]
    Size : 27424 bytes (21152 bytes in file)
    Virtual address: 0x10000000 (Alignment 8)


========================================================================

** Section #1 'FLASH' (SHT_PROGBITS) [SHF_ALLOC + SHF_EXECINSTR]
    Size   : 21108 bytes (alignment 4)
    Address: 0x10000000

    $d
    RESET
    __Vectors
        0x10000000:    10009028    (...    DCD    268472360
        0x10000004:    10000101    ....    DCD    268435713
        0x10000008:    1000011f    ....    DCD    268435743
        0x1000000c:    1000011d    ....    DCD    268435741
        0x10000010:    10000121    !...    DCD    268435745
        0x10000014:    10000123    #...    DCD    268435747
        0x10000018:    10000125    %...    DCD    268435749
        0x1000001c:    00000000    ....    DCD    0
        0x10000020:    00000000    ....    DCD    0
        0x10000024:    00000000    ....    DCD    0
        0x10000028:    00000000    ....    DCD    0
        0x1000002c:    10000127    '...    DCD    268435751
        0x10000030:    10000129    )...    DCD    268435753
        0x10000034:    00000000    ....    DCD    0
        0x10000038:    1000012b    +...    DCD    268435755
        0x1000003c:    1000012d    -...    DCD    268435757
        0x10000040:    1000012f    /...    DCD    268435759
        0x10000044:    1000012f    /...    DCD    268435759
        0x10000048:    1000012f    /...    DCD    268435759
        0x1000004c:    1000012f    /...    DCD    268435759
        0x10000050:    1000012f    /...    DCD    268435759
        0x10000054:    1000012f    /...    DCD    268435759
        0x10000058:    1000012f    /...    DCD    268435759
        0x1000005c:    1000012f    /...    DCD    268435759
        0x10000060:    1000012f    /...    DCD    268435759
        0x10000064:    1000012f    /...    DCD    268435759
        0x10000068:    1000012f    /...    DCD    268435759
        0x1000006c:    1000012f    /...    DCD    268435759
        0x10000070:    1000012f    /...    DCD    268435759
        0x10000074:    1000012f    /...    DCD    268435759
        0x10000078:    1000012f    /...    DCD    268435759
        0x1000007c:    1000012f    /...    DCD    268435759
        0x10000080:    1000012f    /...    DCD    268435759
        0x10000084:    1000012f    /...    DCD    268435759
        0x10000088:    1000012f    /...    DCD    268435759
        0x1000008c:    1000012f    /...    DCD    268435759
        0x10000090:    1000012f    /...    DCD    268435759
        0x10000094:    1000012f    /...    DCD    268435759
        0x10000098:    1000012f    /...    DCD    268435759
        0x1000009c:    1000012f    /...    DCD    268435759
        0x100000a0:    1000012f    /...    DCD    268435759
        0x100000a4:    1000012f    /...    DCD    268435759
        0x100000a8:    1000012f    /...    DCD    268435759
        0x100000ac:    1000012f    /...    DCD    268435759
        0x100000b0:    1000012f    /...    DCD    268435759
        0x100000b4:    1000012f    /...    DCD    268435759
        0x100000b8:    1000012f    /...    DCD    268435759
        0x100000bc:    1000012f    /...    DCD    268435759
    __Patchable
        0x100000c0:    00000000    ....    DCD    0
        0x100000c4:    00000000    ....    DCD    0
        0x100000c8:    00000000    ....    DCD    0
        0x100000cc:    00000000    ....    DCD    0
        0x100000d0:    00000000    ....    DCD    0
        0x100000d4:    00000000    ....    DCD    0
        0x100000d8:    00000000    ....    DCD    0
        0x100000dc:    00000000    ....    DCD    0
        0x100000e0:    00000000    ....    DCD    0
        0x100000e4:    00000000    ....    DCD    0
        0x100000e8:    00000000    ....    DCD    0
        0x100000ec:    00000000    ....    DCD    0
        0x100000f0:    00000000    ....    DCD    0
        0x100000f4:    00000000    ....    DCD    0
        0x100000f8:    00000000    ....    DCD    0
        0x100000fc:    00000000    ....    DCD    0
    $t
    $v0
    Reset_Handler
        0x10000100:    f64e5088    N..P    MOV      r0,#0xed88
        0x10000104:    f2ce0000    ....    MOVT     r0,#0xe000
        0x10000108:    6801        .h      LDR      r1,[r0,#0]
        0x1000010a:    f4410170    A.p.    ORR      r1,r1,#0xf00000
        0x1000010e:    6001        .`      STR      r1,[r0,#0]
        0x10000110:    f3bf8f4f    ..O.    DSB      
        0x10000114:    f3bf8f6f    ..o.    ISB      
        0x10000118:    4805        .H      LDR      r0,[pc,#20] ; [0x10000130] = 0x10000135
        0x1000011a:    4700        .G      BX       r0
    HardFault_Handler
        0x1000011c:    e7fe        ..      B        HardFault_Handler ; 0x1000011c
    NMI_Handler
        0x1000011e:    e7fe        ..      B        NMI_Handler ; 0x1000011e
    MemManage_Handler
        0x10000120:    e7fe        ..      B        MemManage_Handler ; 0x10000120
    BusFault_Handler
        0x10000122:    e7fe        ..      B        BusFault_Handler ; 0x10000122
    UsageFault_Handler
        0x10000124:    e7fe        ..      B        UsageFault_Handler ; 0x10000124
    SVC_Handler
        0x10000126:    e7fe        ..      B        SVC_Handler ; 0x10000126
    DebugMon_Handler
        0x10000128:    e7fe        ..      B        DebugMon_Handler ; 0x10000128
    PendSV_Handler
        0x1000012a:    e7fe        ..      B        PendSV_Handler ; 0x1000012a
    SysTick_Handler
        0x1000012c:    e7fe        ..      B        SysTick_Handler ; 0x1000012c
    am_adc_isr
    am_ble_isr
    am_brownout_isr
    am_clkgen_isr
    am_ctimer_isr
    am_gpio_isr
    am_iomaster0_isr
    am_iomaster1_isr
    am_iomaster2_isr
    am_iomaster3_isr
    am_iomaster4_isr
    am_iomaster5_isr
    am_ioslave_acc_isr
    am_ioslave_ios_isr
    am_mspi0_isr
    am_pdm0_isr
    am_rtc_isr
    am_scard_isr
    am_software0_isr
    am_stimer_cmpr0_isr
    am_stimer_cmpr1_isr
    am_stimer_cmpr2_isr
    am_stimer_cmpr3_isr
    am_stimer_cmpr4_isr
    am_stimer_cmpr5_isr
    am_stimer_cmpr6_isr
    am_stimer_cmpr7_isr
    am_stimer_isr
    am_uart0_isr
    am_uart1_isr
    am_uart_isr
    am_vcomp_isr
    am_watchdog_isr
        0x1000012e:    e7fe        ..      B        am_adc_isr ; 0x1000012e
    $d
        0x10000130:    10000135    5...    DCD    268435765
    $t
    !!!main
    __main
        0x10000134:    f000f802    ....    BL       __scatterload ; 0x1000013c
        0x10000138:    f000f83c    ..<.    BL       __rt_entry ; 0x100001b4
    !!!scatter
    __scatterload
    __scatterload_rt2
    __scatterload_rt2_thumb_only
        0x1000013c:    a00a        ..      ADR      r0,{pc}+0x2c ; 0x10000168
        0x1000013e:    e8900c00    ....    LDM      r0,{r10,r11}
        0x10000142:    4482        .D      ADD      r10,r10,r0
        0x10000144:    4483        .D      ADD      r11,r11,r0
        0x10000146:    f1aa0701    ....    SUB      r7,r10,#1
    __scatterload_null
        0x1000014a:    45da        .E      CMP      r10,r11
        0x1000014c:    d101        ..      BNE      0x10000152 ; __scatterload_null + 8
        0x1000014e:    f000f831    ..1.    BL       __rt_entry ; 0x100001b4
        0x10000152:    f2af0e09    ....    ADR      lr,{pc}-7 ; 0x1000014b
        0x10000156:    e8ba000f    ....    LDM      r10!,{r0-r3}
        0x1000015a:    f0130f01    ....    TST      r3,#1
        0x1000015e:    bf18        ..      IT       NE
        0x10000160:    1afb        ..      SUBNE    r3,r7,r3
        0x10000162:    f0430301    C...    ORR      r3,r3,#1
        0x10000166:    4718        .G      BX       r3
    $d
        0x10000168:    000050ec    .P..    DCD    20716
        0x1000016c:    0000510c    .Q..    DCD    20748
    $t
    !!handler_copy
    __scatterload_copy
        0x10000170:    3a10        .:      SUBS     r2,r2,#0x10
        0x10000172:    bf24        $.      ITT      CS
        0x10000174:    c878        x.      LDMCS    r0!,{r3-r6}
        0x10000176:    c178        x.      STMCS    r1!,{r3-r6}
        0x10000178:    d8fa        ..      BHI      __scatterload_copy ; 0x10000170
        0x1000017a:    0752        R.      LSLS     r2,r2,#29
        0x1000017c:    bf24        $.      ITT      CS
        0x1000017e:    c830        0.      LDMCS    r0!,{r4,r5}
        0x10000180:    c130        0.      STMCS    r1!,{r4,r5}
        0x10000182:    bf44        D.      ITT      MI
        0x10000184:    6804        .h      LDRMI    r4,[r0,#0]
        0x10000186:    600c        .`      STRMI    r4,[r1,#0]
        0x10000188:    4770        pG      BX       lr
        0x1000018a:    0000        ..      MOVS     r0,r0
    !!handler_zi
    __scatterload_zeroinit
        0x1000018c:    2300        .#      MOVS     r3,#0
        0x1000018e:    2400        .$      MOVS     r4,#0
        0x10000190:    2500        .%      MOVS     r5,#0
        0x10000192:    2600        .&      MOVS     r6,#0
        0x10000194:    3a10        .:      SUBS     r2,r2,#0x10
        0x10000196:    bf28        (.      IT       CS
        0x10000198:    c178        x.      STMCS    r1!,{r3-r6}
        0x1000019a:    d8fb        ..      BHI      0x10000194 ; __scatterload_zeroinit + 8
        0x1000019c:    0752        R.      LSLS     r2,r2,#29
        0x1000019e:    bf28        (.      IT       CS
        0x100001a0:    c130        0.      STMCS    r1!,{r4,r5}
        0x100001a2:    bf48        H.      IT       MI
        0x100001a4:    600b        .`      STRMI    r3,[r1,#0]
        0x100001a6:    4770        pG      BX       lr
    .ARM.Collect$$libinit$$00000000
    __rt_lib_init
        0x100001a8:    b51f        ..      PUSH     {r0-r4,lr}
    .ARM.Collect$$libinit$$00000001
    __rt_lib_init_fp_1
        0x100001aa:    f004fe54    ..T.    BL       _fp_init ; 0x10004e56
    .ARM.Collect$$libinit$$00000004
    .ARM.Collect$$libinit$$00000006
    .ARM.Collect$$libinit$$0000000C
    .ARM.Collect$$libinit$$0000000E
    .ARM.Collect$$libinit$$00000010
    .ARM.Collect$$libinit$$00000013
    .ARM.Collect$$libinit$$00000015
    .ARM.Collect$$libinit$$00000017
    .ARM.Collect$$libinit$$00000019
    .ARM.Collect$$libinit$$0000001B
    .ARM.Collect$$libinit$$0000001D
    .ARM.Collect$$libinit$$0000001F
    .ARM.Collect$$libinit$$00000021
    .ARM.Collect$$libinit$$00000023
    .ARM.Collect$$libinit$$00000025
    .ARM.Collect$$libinit$$00000027
    .ARM.Collect$$libinit$$0000002E
    .ARM.Collect$$libinit$$00000030
    .ARM.Collect$$libinit$$00000032
    .ARM.Collect$$libinit$$00000034
    .ARM.Collect$$libinit$$00000035
    __rt_lib_init_alloca_1
    __rt_lib_init_argv_1
    __rt_lib_init_atexit_1
    __rt_lib_init_clock_1
    __rt_lib_init_cpp_1
    __rt_lib_init_exceptions_1
    __rt_lib_init_fp_trap_1
    __rt_lib_init_getenv_1
    __rt_lib_init_heap_1
    __rt_lib_init_lc_collate_1
    __rt_lib_init_lc_ctype_1
    __rt_lib_init_lc_monetary_1
    __rt_lib_init_lc_numeric_1
    __rt_lib_init_lc_time_1
    __rt_lib_init_preinit_1
    __rt_lib_init_rand_1
    __rt_lib_init_relocate_pie_1
    __rt_lib_init_return
    __rt_lib_init_signal_1
    __rt_lib_init_stdio_1
    __rt_lib_init_user_alloc_1
        0x100001ae:    bd1f        ..      POP      {r0-r4,pc}
    .ARM.Collect$$libshutdown$$00000000
    __rt_lib_shutdown
        0x100001b0:    b510        ..      PUSH     {r4,lr}
    .ARM.Collect$$libshutdown$$00000002
    .ARM.Collect$$libshutdown$$00000004
    .ARM.Collect$$libshutdown$$00000007
    .ARM.Collect$$libshutdown$$0000000A
    .ARM.Collect$$libshutdown$$0000000C
    .ARM.Collect$$libshutdown$$0000000F
    .ARM.Collect$$libshutdown$$00000010
    __rt_lib_shutdown_cpp_1
    __rt_lib_shutdown_fp_trap_1
    __rt_lib_shutdown_heap_1
    __rt_lib_shutdown_return
    __rt_lib_shutdown_signal_1
    __rt_lib_shutdown_stdio_1
    __rt_lib_shutdown_user_alloc_1
        0x100001b2:    bd10        ..      POP      {r4,pc}
    .ARM.Collect$$rtentry$$00000000
    .ARM.Collect$$rtentry$$00000002
    .ARM.Collect$$rtentry$$00000004
    __rt_entry
    __rt_entry_presh_1
    __rt_entry_sh
        0x100001b4:    f000f844    ..D.    BL       __user_setup_stackheap ; 0x10000240
        0x100001b8:    4611        .F      MOV      r1,r2
    .ARM.Collect$$rtentry$$00000009
    .ARM.Collect$$rtentry$$0000000A
    __rt_entry_li
    __rt_entry_postsh_1
        0x100001ba:    f7fffff5    ....    BL       __rt_lib_init ; 0x100001a8
    .ARM.Collect$$rtentry$$0000000C
    .ARM.Collect$$rtentry$$0000000D
    __rt_entry_main
    __rt_entry_postli_1
        0x100001be:    f002f8af    ....    BL       main ; 0x10002320
        0x100001c2:    f000f862    ..b.    BL       exit ; 0x1000028a
    .ARM.Collect$$rtexit$$00000000
    __rt_exit
        0x100001c6:    b403        ..      PUSH     {r0,r1}
    .ARM.Collect$$rtexit$$00000002
    .ARM.Collect$$rtexit$$00000003
    __rt_exit_ls
    __rt_exit_prels_1
        0x100001c8:    f7fffff2    ....    BL       __rt_lib_shutdown ; 0x100001b0
    .ARM.Collect$$rtexit$$00000004
    __rt_exit_exit
        0x100001cc:    bc03        ..      POP      {r0,r1}
        0x100001ce:    f000f869    ..i.    BL       _sys_exit ; 0x100002a4
        0x100001d2:    0000        ..      MOVS     r0,r0
    .text
    $v0
    __user_initial_stackheap
        0x100001d4:    4802        .H      LDR      r0,[pc,#8] ; [0x100001e0] = 0x100098a8
        0x100001d6:    4903        .I      LDR      r1,[pc,#12] ; [0x100001e4] = 0x10009028
        0x100001d8:    4a01        .J      LDR      r2,[pc,#4] ; [0x100001e0] = 0x100098a8
        0x100001da:    4b03        .K      LDR      r3,[pc,#12] ; [0x100001e8] = 0x10008028
        0x100001dc:    4770        pG      BX       lr
    $d
        0x100001de:    0000        ..      DCW    0
        0x100001e0:    100098a8    ....    DCD    268474536
        0x100001e4:    10009028    (...    DCD    268472360
        0x100001e8:    10008028    (...    DCD    268468264
    $t
    .text
    __aeabi_memclr4
    __aeabi_memclr8
    __rt_memclr_w
        0x100001ec:    f04f0200    O...    MOV      r2,#0
    _memset_w
        0x100001f0:    b500        ..      PUSH     {lr}
        0x100001f2:    4613        .F      MOV      r3,r2
        0x100001f4:    4694        .F      MOV      r12,r2
        0x100001f6:    4696        .F      MOV      lr,r2
        0x100001f8:    3920         9      SUBS     r1,r1,#0x20
        0x100001fa:    bf22        ".      ITTT     CS
        0x100001fc:    e8a0500c    ...P    STMCS    r0!,{r2,r3,r12,lr}
        0x10000200:    e8a0500c    ...P    STMCS    r0!,{r2,r3,r12,lr}
        0x10000204:    f1b10120    .. .    SUBSCS   r1,r1,#0x20
        0x10000208:    f4bfaff7    ....    BCS.W    0x100001fa ; _memset_w + 10
        0x1000020c:    0709        ..      LSLS     r1,r1,#28
        0x1000020e:    bf28        (.      IT       CS
        0x10000210:    e8a0500c    ...P    STMCS    r0!,{r2,r3,r12,lr}
        0x10000214:    bf48        H.      IT       MI
        0x10000216:    c00c        ..      STMMI    r0!,{r2,r3}
        0x10000218:    f85deb04    ]...    POP      {lr}
        0x1000021c:    0089        ..      LSLS     r1,r1,#2
        0x1000021e:    bf28        (.      IT       CS
        0x10000220:    f8402b04    @..+    STRCS    r2,[r0],#4
        0x10000224:    bf08        ..      IT       EQ
        0x10000226:    4770        pG      BXEQ     lr
        0x10000228:    bf48        H.      IT       MI
        0x1000022a:    f8202b02     ..+    STRHMI   r2,[r0],#2
        0x1000022e:    f0114f80    ...O    TST      r1,#0x40000000
        0x10000232:    bf18        ..      IT       NE
        0x10000234:    f8002b01    ...+    STRBNE   r2,[r0],#1
        0x10000238:    4770        pG      BX       lr
    .text
    __use_two_region_memory
        0x1000023a:    4770        pG      BX       lr
    __rt_heap_escrow$2region
        0x1000023c:    4770        pG      BX       lr
    __rt_heap_expand$2region
        0x1000023e:    4770        pG      BX       lr
    .text
    __user_setup_stackheap
        0x10000240:    4675        uF      MOV      r5,lr
        0x10000242:    f000f82b    ..+.    BL       __user_libspace ; 0x1000029c
        0x10000246:    46ae        .F      MOV      lr,r5
        0x10000248:    0005        ..      MOVS     r5,r0
        0x1000024a:    4669        iF      MOV      r1,sp
        0x1000024c:    4653        SF      MOV      r3,r10
        0x1000024e:    f0200007     ...    BIC      r0,r0,#7
        0x10000252:    4685        .F      MOV      sp,r0
        0x10000254:    b018        ..      ADD      sp,sp,#0x60
        0x10000256:    b520         .      PUSH     {r5,lr}
        0x10000258:    f7ffffbc    ....    BL       __user_initial_stackheap ; 0x100001d4
        0x1000025c:    e8bd4020    .. @    POP      {r5,lr}
        0x10000260:    f04f0600    O...    MOV      r6,#0
        0x10000264:    f04f0700    O...    MOV      r7,#0
        0x10000268:    f04f0800    O...    MOV      r8,#0
        0x1000026c:    f04f0b00    O...    MOV      r11,#0
        0x10000270:    46ac        .F      MOV      r12,r5
        0x10000272:    e8ac09c0    ....    STM      r12!,{r6-r8,r11}
        0x10000276:    e8ac09c0    ....    STM      r12!,{r6-r8,r11}
        0x1000027a:    e8ac09c0    ....    STM      r12!,{r6-r8,r11}
        0x1000027e:    e8ac09c0    ....    STM      r12!,{r6-r8,r11}
        0x10000282:    f0210107    !...    BIC      r1,r1,#7
        0x10000286:    468d        .F      MOV      sp,r1
        0x10000288:    4770        pG      BX       lr
    .text
    exit
        0x1000028a:    b510        ..      PUSH     {r4,lr}
        0x1000028c:    4604        .F      MOV      r4,r0
        0x1000028e:    f3af8000    ....    NOP.W    
        0x10000292:    4620         F      MOV      r0,r4
        0x10000294:    e8bd4010    ...@    POP      {r4,lr}
        0x10000298:    f7ffbf95    ....    B.W      __rt_exit ; 0x100001c6
    .text
    __user_libspace
    __user_perproc_libspace
    __user_perthread_libspace
        0x1000029c:    4800        .H      LDR      r0,[pc,#0] ; [0x100002a0] = 0x10009028
        0x1000029e:    4770        pG      BX       lr
    $d
        0x100002a0:    10009028    (...    DCD    268472360
    $t
    .text
    _sys_exit
        0x100002a4:    4901        .I      LDR      r1,[pc,#4] ; [0x100002ac] = 0x20026
        0x100002a6:    2018        .       MOVS     r0,#0x18
        0x100002a8:    beab        ..      BKPT     #0xab
        0x100002aa:    e7fe        ..      B        0x100002aa ; _sys_exit + 6
    $d
        0x100002ac:    00020026    &...    DCD    131110
    $t
    .text
    __I$use$semihosting
    __use_no_semihosting_swi
        0x100002b0:    4770        pG      BX       lr
    .text
    __semihosting_library_function
        0x100002b2:    0000        ..      MOVS     r0,r0
    $t.5
    am_bsp_debug_printf_disable
        0x100002b4:    b510        ..      PUSH     {r4,lr}
        0x100002b6:    f2490488    I...    MOV      r4,#0x9088
        0x100002ba:    f2c10400    ....    MOVT     r4,#0x1000
        0x100002be:    6820         h      LDR      r0,[r4,#0]
        0x100002c0:    2802        .(      CMP      r0,#2
        0x100002c2:    d011        ..      BEQ      0x100002e8 ; am_bsp_debug_printf_disable + 52
        0x100002c4:    2801        .(      CMP      r0,#1
        0x100002c6:    bf18        ..      IT       NE
        0x100002c8:    bd10        ..      POPNE    {r4,pc}
        0x100002ca:    f000fbb9    ....    BL       am_hal_itm_disable ; 0x10000a40
        0x100002ce:    2000        .       MOVS     r0,#0
        0x100002d0:    f000ff48    ..H.    BL       am_util_stdio_printf_init ; 0x10001164
        0x100002d4:    f24500e8    E...    MOV      r0,#0x50e8
        0x100002d8:    f2c10000    ....    MOVT     r0,#0x1000
        0x100002dc:    6801        .h      LDR      r1,[r0,#0]
        0x100002de:    2029        )       MOVS     r0,#0x29
        0x100002e0:    e8bd4010    ...@    POP      {r4,lr}
        0x100002e4:    f000ba50    ..P.    B.W      am_hal_gpio_pinconfig ; 0x10000788
        0x100002e8:    6860        `h      LDR      r0,[r4,#4]
        0x100002ea:    f000fee9    ....    BL       am_hal_uart_tx_flush ; 0x100010c0
        0x100002ee:    2000        .       MOVS     r0,#0
        0x100002f0:    f000ff38    ..8.    BL       am_util_stdio_printf_init ; 0x10001164
        0x100002f4:    6860        `h      LDR      r0,[r4,#4]
        0x100002f6:    2102        .!      MOVS     r1,#2
        0x100002f8:    2200        ."      MOVS     r2,#0
        0x100002fa:    f000fe59    ..Y.    BL       am_hal_uart_power_control ; 0x10000fb0
        0x100002fe:    6860        `h      LDR      r0,[r4,#4]
        0x10000300:    f000fe42    ..B.    BL       am_hal_uart_deinitialize ; 0x10000f88
        0x10000304:    f24500e8    E...    MOV      r0,#0x50e8
        0x10000308:    f2c10000    ....    MOVT     r0,#0x1000
        0x1000030c:    6804        .h      LDR      r4,[r0,#0]
        0x1000030e:    2016        .       MOVS     r0,#0x16
        0x10000310:    4621        !F      MOV      r1,r4
        0x10000312:    f000fa39    ..9.    BL       am_hal_gpio_pinconfig ; 0x10000788
        0x10000316:    2017        .       MOVS     r0,#0x17
        0x10000318:    4621        !F      MOV      r1,r4
        0x1000031a:    e8bd4010    ...@    POP      {r4,lr}
        0x1000031e:    f000ba33    ..3.    B.W      am_hal_gpio_pinconfig ; 0x10000788
        0x10000322:    0000        ..      MOVS     r0,r0
    am_bsp_itm_printf_enable
        0x10000324:    b580        ..      PUSH     {r7,lr}
        0x10000326:    b086        ..      SUB      sp,sp,#0x18
        0x10000328:    f2490088    I...    MOV      r0,#0x9088
        0x1000032c:    f2c10000    ....    MOVT     r0,#0x1000
        0x10000330:    2101        .!      MOVS     r1,#1
        0x10000332:    6001        .`      STR      r1,[r0,#0]
        0x10000334:    f000fc48    ..H.    BL       am_hal_itm_enable ; 0x10000bc8
        0x10000338:    f2442040    D.@     MOV      r0,#0x4240
        0x1000033c:    f2c0000f    ....    MOVT     r0,#0xf
        0x10000340:    9001        ..      STR      r0,[sp,#4]
        0x10000342:    a801        ..      ADD      r0,sp,#4
        0x10000344:    f000fdc2    ....    BL       am_hal_tpiu_enable ; 0x10000ecc
        0x10000348:    f24500e4    E...    MOV      r0,#0x50e4
        0x1000034c:    f2c10000    ....    MOVT     r0,#0x1000
        0x10000350:    6801        .h      LDR      r1,[r0,#0]
        0x10000352:    2029        )       MOVS     r0,#0x29
        0x10000354:    f000fa18    ....    BL       am_hal_gpio_pinconfig ; 0x10000788
        0x10000358:    f6404021    @.!@    MOV      r0,#0xc21
        0x1000035c:    f2c10000    ....    MOVT     r0,#0x1000
        0x10000360:    f000ff00    ....    BL       am_util_stdio_printf_init ; 0x10001164
        0x10000364:    b006        ..      ADD      sp,sp,#0x18
        0x10000366:    bd80        ..      POP      {r7,pc}
    am_hal_cachectrl_config
        0x10000368:    b5b0        ..      PUSH     {r4,r5,r7,lr}
        0x1000036a:    b082        ..      SUB      sp,sp,#8
        0x1000036c:    4604        .F      MOV      r4,r0
        0x1000036e:    f000fb5f    .._.    BL       am_hal_interrupt_master_disable ; 0x10000a30
        0x10000372:    f2480500    H...    MOVW     r5,#0x8000
        0x10000376:    9001        ..      STR      r0,[sp,#4]
        0x10000378:    f2c40501    ....    MOVT     r5,#0x4001
        0x1000037c:    6828        (h      LDR      r0,[r5,#0]
        0x1000037e:    f4207040     .@p    BIC      r0,r0,#0x300
        0x10000382:    6028        (`      STR      r0,[r5,#0]
        0x10000384:    9801        ..      LDR      r0,[sp,#4]
        0x10000386:    f000fb57    ..W.    BL       am_hal_interrupt_master_set ; 0x10000a38
        0x1000038a:    78a1        .x      LDRB     r1,[r4,#2]
        0x1000038c:    7820         x      LDRB     r0,[r4,#0]
        0x1000038e:    7862        bx      LDRB     r2,[r4,#1]
        0x10000390:    0049        I.      LSLS     r1,r1,#1
        0x10000392:    b2c9        ..      UXTB     r1,r1
        0x10000394:    f0020203    ....    AND      r2,r2,#3
        0x10000398:    f3601107    `...    BFI      r1,r0,#4,#4
        0x1000039c:    ea412002    A..     ORR      r0,r1,r2,LSL #8
        0x100003a0:    f4401080    @...    ORR      r0,r0,#0x100000
        0x100003a4:    f4406180    @..a    ORR      r1,r0,#0x400
        0x100003a8:    2000        .       MOVS     r0,#0
        0x100003aa:    6029        )`      STR      r1,[r5,#0]
        0x100003ac:    b002        ..      ADD      sp,sp,#8
        0x100003ae:    bdb0        ..      POP      {r4,r5,r7,pc}
    am_hal_cachectrl_enable
        0x100003b0:    f2480100    H...    MOVW     r1,#0x8000
        0x100003b4:    f2c40101    ....    MOVT     r1,#0x4001
        0x100003b8:    6808        .h      LDR      r0,[r1,#0]
        0x100003ba:    f0400201    @...    ORR      r2,r0,#1
        0x100003be:    2000        .       MOVS     r0,#0
        0x100003c0:    600a        .`      STR      r2,[r1,#0]
        0x100003c2:    4770        pG      BX       lr
    am_hal_clkgen_control
        0x100003c4:    b510        ..      PUSH     {r4,lr}
        0x100003c6:    f249029c    I...    MOV      r2,#0x909c
        0x100003ca:    f2c10200    ....    MOVT     r2,#0x1000
        0x100003ce:    6813        .h      LDR      r3,[r2,#0]
        0x100003d0:    460c        .F      MOV      r4,r1
        0x100003d2:    b92b        +.      CBNZ     r3,0x100003e0 ; am_hal_clkgen_control + 28
        0x100003d4:    f24f0100    O...    MOVW     r1,#0xf000
        0x100003d8:    f6c471ff    ...q    MOVT     r1,#0x4fff
        0x100003dc:    6809        .h      LDR      r1,[r1,#0]
        0x100003de:    6011        .`      STR      r1,[r2,#0]
        0x100003e0:    2809        .(      CMP      r0,#9
        0x100003e2:    d811        ..      BHI      0x10000408 ; am_hal_clkgen_control + 68
        0x100003e4:    e8dff000    ....    TBB      [pc,r0]
    $d.1
        0x100003e8:    261c1206    ...&    DCD    639373830
        0x100003ec:    62584c42    BLXb    DCD    1649953858
        0x100003f0:    bf00866c    l...    DCD    3204482668
    $t.2
        0x100003f4:    f244010c    D...    MOV      r1,#0x400c
        0x100003f8:    f2c40100    ....    MOVT     r1,#0x4000
        0x100003fc:    2047        G       MOVS     r0,#0x47
        0x100003fe:    6088        .`      STR      r0,[r1,#8]
        0x10000400:    2000        .       MOVS     r0,#0
        0x10000402:    60c8        .`      STR      r0,[r1,#0xc]
        0x10000404:    6088        .`      STR      r0,[r1,#8]
        0x10000406:    bd10        ..      POP      {r4,pc}
        0x10000408:    2006        .       MOVS     r0,#6
        0x1000040a:    bd10        ..      POP      {r4,pc}
        0x1000040c:    f244000c    D...    MOV      r0,#0x400c
        0x10000410:    f2c40000    ....    MOVT     r0,#0x4000
        0x10000414:    6801        .h      LDR      r1,[r0,#0]
        0x10000416:    f0210101    !...    BIC      r1,r1,#1
        0x1000041a:    6001        .`      STR      r1,[r0,#0]
        0x1000041c:    2000        .       MOVS     r0,#0
        0x1000041e:    bd10        ..      POP      {r4,pc}
        0x10000420:    f244000c    D...    MOV      r0,#0x400c
        0x10000424:    f2c40000    ....    MOVT     r0,#0x4000
        0x10000428:    6801        .h      LDR      r1,[r0,#0]
        0x1000042a:    f0210102    !...    BIC      r1,r1,#2
        0x1000042e:    6001        .`      STR      r1,[r0,#0]
        0x10000430:    2000        .       MOVS     r0,#0
        0x10000432:    bd10        ..      POP      {r4,pc}
        0x10000434:    f2401020    @. .    MOVW     r0,#0x120
        0x10000438:    f64f61ec    O..a    MOV      r1,#0xfeec
        0x1000043c:    f2c40002    ....    MOVT     r0,#0x4002
        0x10000440:    f6cf71ff    ...q    MOVT     r1,#0xffff
        0x10000444:    5841        AX      LDR      r1,[r0,r1]
        0x10000446:    b2c9        ..      UXTB     r1,r1
        0x10000448:    2921        !)      CMP      r1,#0x21
        0x1000044a:    d104        ..      BNE      0x10000456 ; am_hal_clkgen_control + 146
        0x1000044c:    6801        .h      LDR      r1,[r0,#0]
        0x1000044e:    2201        ."      MOVS     r2,#1
        0x10000450:    f3622109    b..!    BFI      r1,r2,#8,#2
        0x10000454:    6001        .`      STR      r1,[r0,#0]
        0x10000456:    f244000c    D...    MOV      r0,#0x400c
        0x1000045a:    f2c40000    ....    MOVT     r0,#0x4000
        0x1000045e:    6801        .h      LDR      r1,[r0,#0]
        0x10000460:    f0410101    A...    ORR      r1,r1,#1
        0x10000464:    6001        .`      STR      r1,[r0,#0]
        0x10000466:    2000        .       MOVS     r0,#0
        0x10000468:    bd10        ..      POP      {r4,pc}
        0x1000046a:    bf00        ..      NOP      
        0x1000046c:    f244000c    D...    MOV      r0,#0x400c
        0x10000470:    f2c40000    ....    MOVT     r0,#0x4000
        0x10000474:    6801        .h      LDR      r1,[r0,#0]
        0x10000476:    f0410102    A...    ORR      r1,r1,#2
        0x1000047a:    6001        .`      STR      r1,[r0,#0]
        0x1000047c:    2000        .       MOVS     r0,#0
        0x1000047e:    bd10        ..      POP      {r4,pc}
        0x10000480:    f244010c    D...    MOV      r1,#0x400c
        0x10000484:    f2c40100    ....    MOVT     r1,#0x4000
        0x10000488:    2047        G       MOVS     r0,#0x47
        0x1000048a:    6088        .`      STR      r0,[r1,#8]
        0x1000048c:    2001        .       MOVS     r0,#1
        0x1000048e:    60c8        .`      STR      r0,[r1,#0xc]
        0x10000490:    2000        .       MOVS     r0,#0
        0x10000492:    6088        .`      STR      r0,[r1,#8]
        0x10000494:    bd10        ..      POP      {r4,pc}
        0x10000496:    bf00        ..      NOP      
        0x10000498:    f244000c    D...    MOV      r0,#0x400c
        0x1000049c:    f2c40000    ....    MOVT     r0,#0x4000
        0x100004a0:    6801        .h      LDR      r1,[r0,#0]
        0x100004a2:    f0210180    !...    BIC      r1,r1,#0x80
        0x100004a6:    6001        .`      STR      r1,[r0,#0]
        0x100004a8:    2000        .       MOVS     r0,#0
        0x100004aa:    bd10        ..      POP      {r4,pc}
        0x100004ac:    f244000c    D...    MOV      r0,#0x400c
        0x100004b0:    f2c40000    ....    MOVT     r0,#0x4000
        0x100004b4:    6801        .h      LDR      r1,[r0,#0]
        0x100004b6:    f0410180    A...    ORR      r1,r1,#0x80
        0x100004ba:    6001        .`      STR      r1,[r0,#0]
        0x100004bc:    2000        .       MOVS     r0,#0
        0x100004be:    bd10        ..      POP      {r4,pc}
        0x100004c0:    f2401020    @. .    MOVW     r0,#0x120
        0x100004c4:    f64f61ec    O..a    MOV      r1,#0xfeec
        0x100004c8:    f2c40002    ....    MOVT     r0,#0x4002
        0x100004cc:    f6cf71ff    ...q    MOVT     r1,#0xffff
        0x100004d0:    5841        AX      LDR      r1,[r0,r1]
        0x100004d2:    b2c9        ..      UXTB     r1,r1
        0x100004d4:    2921        !)      CMP      r1,#0x21
        0x100004d6:    d107        ..      BNE      0x100004e8 ; am_hal_clkgen_control + 292
        0x100004d8:    6801        .h      LDR      r1,[r0,#0]
        0x100004da:    f4417140    A.@q    ORR      r1,r1,#0x300
        0x100004de:    6001        .`      STR      r1,[r0,#0]
        0x100004e0:    f44f507a    O.zP    MOV      r0,#0x3e80
        0x100004e4:    f000f93a    ..:.    BL       am_hal_flash_delay ; 0x1000075c
        0x100004e8:    b174        t.      CBZ      r4,0x10000508 ; am_hal_clkgen_control + 324
        0x100004ea:    6820         h      LDR      r0,[r4,#0]
        0x100004ec:    f0400001    @...    ORR      r0,r0,#1
        0x100004f0:    e00e        ..      B        0x10000510 ; am_hal_clkgen_control + 332
        0x100004f2:    bf00        ..      NOP      
        0x100004f4:    f244000c    D...    MOV      r0,#0x400c
        0x100004f8:    f2c40000    ....    MOVT     r0,#0x4000
        0x100004fc:    6941        Ai      LDR      r1,[r0,#0x14]
        0x100004fe:    f0210101    !...    BIC      r1,r1,#1
        0x10000502:    6141        Aa      STR      r1,[r0,#0x14]
        0x10000504:    2000        .       MOVS     r0,#0
        0x10000506:    bd10        ..      POP      {r4,pc}
        0x10000508:    f64b0001    K...    MOV      r0,#0xb801
        0x1000050c:    f2c00025    ..%.    MOVT     r0,#0x25
        0x10000510:    f244010c    D...    MOV      r1,#0x400c
        0x10000514:    f2c40100    ....    MOVT     r1,#0x4000
        0x10000518:    6148        Ha      STR      r0,[r1,#0x14]
        0x1000051a:    2000        .       MOVS     r0,#0
        0x1000051c:    bd10        ..      POP      {r4,pc}
        0x1000051e:    0000        ..      MOVS     r0,r0
    am_hal_clkgen_status_get
        0x10000520:    2800        .(      CMP      r0,#0
        0x10000522:    bf04        ..      ITT      EQ
        0x10000524:    2006        .       MOVEQ    r0,#6
        0x10000526:    4770        pG      BXEQ     lr
        0x10000528:    f2440118    D...    MOV      r1,#0x4018
        0x1000052c:    f2c40100    ....    MOVT     r1,#0x4000
        0x10000530:    680a        .h      LDR      r2,[r1,#0]
        0x10000532:    07d2        ..      LSLS     r2,r2,#31
        0x10000534:    f2436200    C..b    MOVW     r2,#0x3600
        0x10000538:    f2c0126e    ..n.    MOVT     r2,#0x16e
        0x1000053c:    bf04        ..      ITT      EQ
        0x1000053e:    f6464200    F..B    MOVWEQ   r2,#0x6c00
        0x10000542:    f2c022dc    ..."    MOVTEQ   r2,#0x2dc
        0x10000546:    6002        .`      STR      r2,[r0,#0]
        0x10000548:    6849        Ih      LDR      r1,[r1,#4]
        0x1000054a:    f0010201    ....    AND      r2,r1,#1
        0x1000054e:    f3c10140    ..@.    UBFX     r1,r1,#1,#1
        0x10000552:    6042        B`      STR      r2,[r0,#4]
        0x10000554:    7201        .r      STRB     r1,[r0,#8]
        0x10000556:    2000        .       MOVS     r0,#0
        0x10000558:    4770        pG      BX       lr
        0x1000055a:    0000        ..      MOVS     r0,r0
    am_hal_ctimer_clear
        0x1000055c:    b5b0        ..      PUSH     {r4,r5,r7,lr}
        0x1000055e:    b082        ..      SUB      sp,sp,#8
        0x10000560:    460c        .F      MOV      r4,r1
        0x10000562:    0145        E.      LSLS     r5,r0,#5
        0x10000564:    f000fa64    ..d.    BL       am_hal_interrupt_master_disable ; 0x10000a30
        0x10000568:    9001        ..      STR      r0,[sp,#4]
        0x1000056a:    f248000c    H...    MOV      r0,#0x800c
        0x1000056e:    f2c40000    ....    MOVT     r0,#0x4000
        0x10000572:    5941        AY      LDR      r1,[r0,r5]
        0x10000574:    f0042208    ..."    AND      r2,r4,#0x8000800
        0x10000578:    4311        .C      ORRS     r1,r1,r2
        0x1000057a:    5141        AQ      STR      r1,[r0,r5]
        0x1000057c:    9801        ..      LDR      r0,[sp,#4]
        0x1000057e:    b002        ..      ADD      sp,sp,#8
        0x10000580:    e8bd40b0    ...@    POP      {r4,r5,r7,lr}
        0x10000584:    f000ba58    ..X.    B.W      am_hal_interrupt_master_set ; 0x10000a38
    am_hal_ctimer_config
        0x10000588:    e92d41f0    -..A    PUSH     {r4-r8,lr}
        0x1000058c:    b082        ..      SUB      sp,sp,#8
        0x1000058e:    460d        .F      MOV      r5,r1
        0x10000590:    4680        .F      MOV      r8,r0
        0x10000592:    0146        F.      LSLS     r6,r0,#5
        0x10000594:    f000fa4c    ..L.    BL       am_hal_interrupt_master_disable ; 0x10000a30
        0x10000598:    f248070c    H...    MOV      r7,#0x800c
        0x1000059c:    9001        ..      STR      r0,[sp,#4]
        0x1000059e:    f2c40700    ....    MOVT     r7,#0x4000
        0x100005a2:    59b8        .Y      LDR      r0,[r7,r6]
        0x100005a4:    f0402008    @..     ORR      r0,r0,#0x8000800
        0x100005a8:    51b8        .Q      STR      r0,[r7,r6]
        0x100005aa:    9801        ..      LDR      r0,[sp,#4]
        0x100005ac:    f000fa44    ..D.    BL       am_hal_interrupt_master_set ; 0x10000a38
        0x100005b0:    68a9        .h      LDR      r1,[r5,#8]
        0x100005b2:    e9d52000    ...     LDRD     r2,r0,[r5,#0]
        0x100005b6:    ea404401    @..D    ORR      r4,r0,r1,LSL #16
        0x100005ba:    2a00        .*      CMP      r2,#0
        0x100005bc:    bf18        ..      IT       NE
        0x100005be:    f0444400    D..D    ORRNE    r4,r4,#0x80000000
        0x100005c2:    f000fa35    ..5.    BL       am_hal_interrupt_master_disable ; 0x10000a30
        0x100005c6:    9000        ..      STR      r0,[sp,#0]
        0x100005c8:    51bc        .Q      STR      r4,[r7,r6]
        0x100005ca:    9800        ..      LDR      r0,[sp,#0]
        0x100005cc:    f000fa34    ..4.    BL       am_hal_interrupt_master_set ; 0x10000a38
        0x100005d0:    6868        hh      LDR      r0,[r5,#4]
        0x100005d2:    b108        ..      CBZ      r0,0x100005d8 ; am_hal_ctimer_config + 80
        0x100005d4:    2100        .!      MOVS     r1,#0
        0x100005d6:    e008        ..      B        0x100005ea ; am_hal_ctimer_config + 98
        0x100005d8:    6828        (h      LDR      r0,[r5,#0]
        0x100005da:    b118        ..      CBZ      r0,0x100005e4 ; am_hal_ctimer_config + 92
        0x100005dc:    2000        .       MOVS     r0,#0
        0x100005de:    2100        .!      MOVS     r1,#0
        0x100005e0:    e003        ..      B        0x100005ea ; am_hal_ctimer_config + 98
        0x100005e2:    bf00        ..      NOP      
        0x100005e4:    68a8        .h      LDR      r0,[r5,#8]
        0x100005e6:    b148        H.      CBZ      r0,0x100005fc ; am_hal_ctimer_config + 116
        0x100005e8:    2101        .!      MOVS     r1,#1
        0x100005ea:    f2480218    H...    MOV      r2,#0x8018
        0x100005ee:    f2c10200    ....    MOVT     r2,#0x1000
        0x100005f2:    f3c00044    ..D.    UBFX     r0,r0,#1,#5
        0x100005f6:    eb020248    ..H.    ADD      r2,r2,r8,LSL #1
        0x100005fa:    5450        PT      STRB     r0,[r2,r1]
        0x100005fc:    b002        ..      ADD      sp,sp,#8
        0x100005fe:    e8bd81f0    ....    POP      {r4-r8,pc}
        0x10000602:    0000        ..      MOVS     r0,r0
    am_hal_ctimer_read
        0x10000604:    b5b0        ..      PUSH     {r4,r5,r7,lr}
        0x10000606:    b084        ..      SUB      sp,sp,#0x10
        0x10000608:    460c        .F      MOV      r4,r1
        0x1000060a:    f2480118    H...    MOV      r1,#0x8018
        0x1000060e:    f2c10100    ....    MOVT     r1,#0x1000
        0x10000612:    eb010140    ..@.    ADD      r1,r1,r0,LSL #1
        0x10000616:    a31d        ..      ADR      r3,{pc}+0x76 ; 0x1000068c
        0x10000618:    f5143f80    ...?    CMN      r4,#0x10000
        0x1000061c:    bf08        ..      IT       EQ
        0x1000061e:    3101        .1      ADDEQ    r1,#1
        0x10000620:    780a        .x      LDRB     r2,[r1,#0]
        0x10000622:    f8530020    S. .    LDR      r0,[r3,r0,LSL #2]
        0x10000626:    2aff        .*      CMP      r2,#0xff
        0x10000628:    d109        ..      BNE      0x1000063e ; am_hal_ctimer_read + 58
        0x1000062a:    68c2        .h      LDR      r2,[r0,#0xc]
        0x1000062c:    f5143f80    ...?    CMN      r4,#0x10000
        0x10000630:    ea4f0352    O.R.    LSR      r3,r2,#1
        0x10000634:    bf08        ..      IT       EQ
        0x10000636:    0c53        S.      LSREQ    r3,r2,#17
        0x10000638:    f003021f    ....    AND      r2,r3,#0x1f
        0x1000063c:    700a        .p      STRB     r2,[r1,#0]
        0x1000063e:    f002011f    ....    AND      r1,r2,#0x1f
        0x10000642:    f64f72c0    O..r    MOV      r2,#0xffc0
        0x10000646:    f2ce020f    ....    MOVT     r2,#0xe00f
        0x1000064a:    40ca        .@      LSRS     r2,r2,r1
        0x1000064c:    07d2        ..      LSLS     r2,r2,#31
        0x1000064e:    d115        ..      BNE      0x1000067c ; am_hal_ctimer_read + 120
        0x10000650:    a216        ..      ADR      r2,{pc}+0x5c ; 0x100006ac
        0x10000652:    5c51        Q\      LDRB     r1,[r2,r1]
        0x10000654:    f2440234    D.4.    MOV      r2,#0x4034
        0x10000658:    f2c40200    ....    MOVT     r2,#0x4000
        0x1000065c:    6812        .h      LDR      r2,[r2,#0]
        0x1000065e:    004b        K.      LSLS     r3,r1,#1
        0x10000660:    0752        R.      LSLS     r2,r2,#29
        0x10000662:    bf48        H.      IT       MI
        0x10000664:    1c59        Y.      ADDMI    r1,r3,#1
        0x10000666:    43cd        .C      MVNS     r5,r1
        0x10000668:    a901        ..      ADD      r1,sp,#4
        0x1000066a:    f000fc7b    ..{.    BL       am_hal_triple_read ; 0x10000f64
        0x1000066e:    e9dd1001    ....    LDRD     r1,r0,[sp,#4]
        0x10000672:    4041        A@      EORS     r1,r1,r0
        0x10000674:    4229        )B      TST      r1,r5
        0x10000676:    bf18        ..      IT       NE
        0x10000678:    9803        ..      LDRNE    r0,[sp,#0xc]
        0x1000067a:    e000        ..      B        0x1000067e ; am_hal_ctimer_read + 122
        0x1000067c:    6800        .h      LDR      r0,[r0,#0]
        0x1000067e:    4020         @      ANDS     r0,r0,r4
        0x10000680:    f5143f80    ...?    CMN      r4,#0x10000
        0x10000684:    bf08        ..      IT       EQ
        0x10000686:    0c00        ..      LSREQ    r0,r0,#16
        0x10000688:    b004        ..      ADD      sp,sp,#0x10
        0x1000068a:    bdb0        ..      POP      {r4,r5,r7,pc}
    $d.13
    g_ui32TMRAddrTbl
        0x1000068c:    40008000    ...@    DCD    1073774592
        0x10000690:    40008020     ..@    DCD    1073774624
        0x10000694:    40008040    @..@    DCD    1073774656
        0x10000698:    40008060    `..@    DCD    1073774688
        0x1000069c:    40008080    ...@    DCD    1073774720
        0x100006a0:    400080a0    ...@    DCD    1073774752
        0x100006a4:    400080c0    ...@    DCD    1073774784
        0x100006a8:    400080e0    ...@    DCD    1073774816
    g_ui8TmrClkSrcMask
        0x100006ac:    01030f0f    ....    DCD    16977679
        0x100006b0:    00000101    ....    DCD    257
        0x100006b4:    00000000    ....    DCD    0
        0x100006b8:    00000000    ....    DCD    0
        0x100006bc:    00000000    ....    DCD    0
        0x100006c0:    0f0f0f0f    ....    DCD    252645135
        0x100006c4:    0f0f0f0f    ....    DCD    252645135
        0x100006c8:    0000000f    ....    DCD    15
    $t.9
    am_hal_ctimer_start
        0x100006cc:    b570        p.      PUSH     {r4-r6,lr}
        0x100006ce:    b082        ..      SUB      sp,sp,#8
        0x100006d0:    460c        .F      MOV      r4,r1
        0x100006d2:    4605        .F      MOV      r5,r0
        0x100006d4:    0146        F.      LSLS     r6,r0,#5
        0x100006d6:    f000f9ab    ....    BL       am_hal_interrupt_master_disable ; 0x10000a30
        0x100006da:    9001        ..      STR      r0,[sp,#4]
        0x100006dc:    f248000c    H...    MOV      r0,#0x800c
        0x100006e0:    f2c40000    ....    MOVT     r0,#0x4000
        0x100006e4:    5981        .Y      LDR      r1,[r0,r6]
        0x100006e6:    2201        ."      MOVS     r2,#1
        0x100006e8:    f06f2308    o..#    MVN      r3,#0x8000800
        0x100006ec:    f5143f80    ...?    CMN      r4,#0x10000
        0x100006f0:    bf08        ..      IT       EQ
        0x100006f2:    2211        ."      MOVEQ    r2,#0x11
        0x100006f4:    ea630304    c...    ORN      r3,r3,r4
        0x100006f8:    fa21f202    !...    LSR      r2,r1,r2
        0x100006fc:    4019        .@      ANDS     r1,r1,r3
        0x100006fe:    f0041301    ....    AND      r3,r4,#0x10001
        0x10000702:    4319        .C      ORRS     r1,r1,r3
        0x10000704:    f2480318    H...    MOV      r3,#0x8018
        0x10000708:    f2c10300    ....    MOVT     r3,#0x1000
        0x1000070c:    f002021f    ....    AND      r2,r2,#0x1f
        0x10000710:    eb030345    ..E.    ADD      r3,r3,r5,LSL #1
        0x10000714:    f5143f80    ...?    CMN      r4,#0x10000
        0x10000718:    bf08        ..      IT       EQ
        0x1000071a:    3301        .3      ADDEQ    r3,#1
        0x1000071c:    701a        .p      STRB     r2,[r3,#0]
        0x1000071e:    5181        .Q      STR      r1,[r0,r6]
        0x10000720:    9801        ..      LDR      r0,[sp,#4]
        0x10000722:    b002        ..      ADD      sp,sp,#8
        0x10000724:    e8bd4070    ..p@    POP      {r4-r6,lr}
        0x10000728:    f000b986    ....    B.W      am_hal_interrupt_master_set ; 0x10000a38
    am_hal_ctimer_stop
        0x1000072c:    b5b0        ..      PUSH     {r4,r5,r7,lr}
        0x1000072e:    b082        ..      SUB      sp,sp,#8
        0x10000730:    460c        .F      MOV      r4,r1
        0x10000732:    0145        E.      LSLS     r5,r0,#5
        0x10000734:    f000f97c    ..|.    BL       am_hal_interrupt_master_disable ; 0x10000a30
        0x10000738:    f248010c    H...    MOV      r1,#0x800c
        0x1000073c:    9001        ..      STR      r0,[sp,#4]
        0x1000073e:    f2c40100    ....    MOVT     r1,#0x4000
        0x10000742:    f06f1001    o...    MVN      r0,#0x10001
        0x10000746:    594a        JY      LDR      r2,[r1,r5]
        0x10000748:    ea600004    `...    ORN      r0,r0,r4
        0x1000074c:    4010        .@      ANDS     r0,r0,r2
        0x1000074e:    5148        HQ      STR      r0,[r1,r5]
        0x10000750:    9801        ..      LDR      r0,[sp,#4]
        0x10000752:    b002        ..      ADD      sp,sp,#8
        0x10000754:    e8bd40b0    ...@    POP      {r4,r5,r7,lr}
        0x10000758:    f000b96e    ..n.    B.W      am_hal_interrupt_master_set ; 0x10000a38
    am_hal_flash_delay
        0x1000075c:    f2440134    D.4.    MOV      r1,#0x4034
        0x10000760:    f2c40100    ....    MOVT     r1,#0x4000
        0x10000764:    680a        .h      LDR      r2,[r1,#0]
        0x10000766:    f3c20180    ....    UBFX     r1,r2,#2,#1
        0x1000076a:    4088        .@      LSLS     r0,r0,r1
        0x1000076c:    210e        .!      MOVS     r1,#0xe
        0x1000076e:    f0120f04    ....    TST      r2,#4
        0x10000772:    bf08        ..      IT       EQ
        0x10000774:    210b        .!      MOVEQ    r1,#0xb
        0x10000776:    4281        .B      CMP      r1,r0
        0x10000778:    bf28        (.      IT       CS
        0x1000077a:    4770        pG      BXCS     lr
        0x1000077c:    1a40        @.      SUBS     r0,r0,r1
        0x1000077e:    219d        .!      MOVS     r1,#0x9d
        0x10000780:    f6c00100    ....    MOVT     r1,#0x800
        0x10000784:    4708        .G      BX       r1
        0x10000786:    0000        ..      MOVS     r0,r0
    am_hal_gpio_pinconfig
        0x10000788:    e92d4ff0    -..O    PUSH     {r4-r11,lr}
        0x1000078c:    b087        ..      SUB      sp,sp,#0x1c
        0x1000078e:    2831        1(      CMP      r0,#0x31
        0x10000790:    d904        ..      BLS      0x1000079c ; am_hal_gpio_pinconfig + 20
        0x10000792:    2506        .%      MOVS     r5,#6
        0x10000794:    4628        (F      MOV      r0,r5
        0x10000796:    b007        ..      ADD      sp,sp,#0x1c
        0x10000798:    e8bd8ff0    ....    POP      {r4-r11,pc}
        0x1000079c:    f2401502    @...    MOVW     r5,#0x102
        0x100007a0:    f0010207    ....    AND      r2,r1,#7
        0x100007a4:    f3c11342    ..B.    UBFX     r3,r1,#5,#3
        0x100007a8:    4604        .F      MOV      r4,r0
        0x100007aa:    f6c00500    ....    MOVT     r5,#0x800
        0x100007ae:    ea4f00c2    O...    LSL      r0,r2,#3
        0x100007b2:    b1eb        ..      CBZ      r3,0x100007f0 ; am_hal_gpio_pinconfig + 104
        0x100007b4:    f1a10740    ..@.    SUB      r7,r1,#0x40
        0x100007b8:    b27f        ..      SXTB     r7,r7
        0x100007ba:    2f00        ./      CMP      r7,#0
        0x100007bc:    f0400001    @...    ORR      r0,r0,#1
        0x100007c0:    d408        ..      BMI      0x100007d4 ; am_hal_gpio_pinconfig + 76
        0x100007c2:    a781        ..      ADR      r7,{pc}+0x206 ; 0x100009c8
        0x100007c4:    5d3f        ?]      LDRB     r7,[r7,r4]
        0x100007c6:    07ff        ..      LSLS     r7,r7,#31
        0x100007c8:    d020         .      BEQ      0x1000080c ; am_hal_gpio_pinconfig + 132
        0x100007ca:    ea401083    @...    ORR      r0,r0,r3,LSL #6
        0x100007ce:    3880        .8      SUBS     r0,r0,#0x80
        0x100007d0:    e00e        ..      B        0x100007f0 ; am_hal_gpio_pinconfig + 104
        0x100007d2:    bf00        ..      NOP      
        0x100007d4:    2b06        .+      CMP      r3,#6
        0x100007d6:    d107        ..      BNE      0x100007e8 ; am_hal_gpio_pinconfig + 96
        0x100007d8:    2c14        .,      CMP      r4,#0x14
        0x100007da:    d009        ..      BEQ      0x100007f0 ; am_hal_gpio_pinconfig + 104
        0x100007dc:    3d01        .=      SUBS     r5,#1
        0x100007de:    4628        (F      MOV      r0,r5
        0x100007e0:    b007        ..      ADD      sp,sp,#0x1c
        0x100007e2:    e8bd8ff0    ....    POP      {r4-r11,pc}
        0x100007e6:    bf00        ..      NOP      
        0x100007e8:    2c14        .,      CMP      r4,#0x14
        0x100007ea:    bf08        ..      IT       EQ
        0x100007ec:    2b01        .+      CMPEQ    r3,#1
        0x100007ee:    d00d        ..      BEQ      0x1000080c ; am_hal_gpio_pinconfig + 132
        0x100007f0:    f3c103c1    ....    UBFX     r3,r1,#3,#2
        0x100007f4:    b1b3        ..      CBZ      r3,0x10000824 ; am_hal_gpio_pinconfig + 156
        0x100007f6:    2b02        .+      CMP      r3,#2
        0x100007f8:    d00e        ..      BEQ      0x10000818 ; am_hal_gpio_pinconfig + 144
        0x100007fa:    2b01        .+      CMP      r3,#1
        0x100007fc:    d1ca        ..      BNE      0x10000794 ; am_hal_gpio_pinconfig + 12
        0x100007fe:    2c24        $,      CMP      r4,#0x24
        0x10000800:    d001        ..      BEQ      0x10000806 ; am_hal_gpio_pinconfig + 126
        0x10000802:    2c03        .,      CMP      r4,#3
        0x10000804:    d1c6        ..      BNE      0x10000794 ; am_hal_gpio_pinconfig + 12
        0x10000806:    f0400040    @.@.    ORR      r0,r0,#0x40
        0x1000080a:    e00b        ..      B        0x10000824 ; am_hal_gpio_pinconfig + 156
        0x1000080c:    3d02        .=      SUBS     r5,#2
        0x1000080e:    4628        (F      MOV      r0,r5
        0x10000810:    b007        ..      ADD      sp,sp,#0x1c
        0x10000812:    e8bd8ff0    ....    POP      {r4-r11,pc}
        0x10000816:    bf00        ..      NOP      
        0x10000818:    2c29        ),      CMP      r4,#0x29
        0x1000081a:    d001        ..      BEQ      0x10000820 ; am_hal_gpio_pinconfig + 152
        0x1000081c:    2c25        %,      CMP      r4,#0x25
        0x1000081e:    d1b9        ..      BNE      0x10000794 ; am_hal_gpio_pinconfig + 12
        0x10000820:    f0400080    @...    ORR      r0,r0,#0x80
        0x10000824:    f2451350    E.P.    MOV      r3,#0x5150
        0x10000828:    f2c10300    ....    MOVT     r3,#0x1000
        0x1000082c:    5d1b        .]      LDRB     r3,[r3,r4]
        0x1000082e:    40d3        .@      LSRS     r3,r3,r2
        0x10000830:    07db        ..      LSLS     r3,r3,#31
        0x10000832:    a372        r.      ADR      r3,{pc}+0x1ca ; 0x100009fc
        0x10000834:    5d1b        .]      LDRB     r3,[r3,r4]
        0x10000836:    bf18        ..      IT       NE
        0x10000838:    f0400002    @...    ORRNE    r0,r0,#2
        0x1000083c:    4293        .B      CMP      r3,r2
        0x1000083e:    d109        ..      BNE      0x10000854 ; am_hal_gpio_pinconfig + 204
        0x10000840:    0c0b        ..      LSRS     r3,r1,#16
        0x10000842:    f0030207    ....    AND      r2,r3,#7
        0x10000846:    2a07        .*      CMP      r2,#7
        0x10000848:    d12a        *.      BNE      0x100008a0 ; am_hal_gpio_pinconfig + 280
        0x1000084a:    3501        .5      ADDS     r5,#1
        0x1000084c:    4628        (F      MOV      r0,r5
        0x1000084e:    b007        ..      ADD      sp,sp,#0x1c
        0x10000850:    e8bd8ff0    ....    POP      {r4-r11,pc}
        0x10000854:    2202        ."      MOVS     r2,#2
        0x10000856:    ea0222d1    ..."    AND      r2,r2,r1,LSR #11
        0x1000085a:    f3c12307    ...#    UBFX     r3,r1,#8,#8
        0x1000085e:    4310        .C      ORRS     r0,r0,r2
        0x10000860:    2208        ."      MOVS     r2,#8
        0x10000862:    f3c30781    ....    UBFX     r7,r3,#2,#2
        0x10000866:    ea022291    ..."    AND      r2,r2,r1,LSR #10
        0x1000086a:    ea420247    B.G.    ORR      r2,r2,r7,LSL #1
        0x1000086e:    3f01        .?      SUBS     r7,#1
        0x10000870:    1ece        ..      SUBS     r6,r1,#3
        0x10000872:    fab7f787    ....    CLZ      r7,r7
        0x10000876:    fab6f686    ....    CLZ      r6,r6
        0x1000087a:    097f        ..      LSRS     r7,r7,#5
        0x1000087c:    0976        v.      LSRS     r6,r6,#5
        0x1000087e:    f0030360    ..`.    AND      r3,r3,#0x60
        0x10000882:    2b40        @+      CMP      r3,#0x40
        0x10000884:    ea470306    G...    ORR      r3,r7,r6
        0x10000888:    9301        ..      STR      r3,[sp,#4]
        0x1000088a:    bf07        ..      ITTEE    EQ
        0x1000088c:    f3c133c0    ...3    UBFXEQ   r3,r1,#15,#1
        0x10000890:    ea420c03    B...    ORREQ    r12,r2,r3
        0x10000894:    f3c13380    ...3    UBFXNE   r3,r1,#14,#1
        0x10000898:    eb020c03    ....    ADDNE    r12,r2,r3
        0x1000089c:    e027        '.      B        0x100008ee ; am_hal_gpio_pinconfig + 358
        0x1000089e:    bf00        ..      NOP      
        0x100008a0:    f3c307c1    ....    UBFX     r7,r3,#3,#2
        0x100008a4:    f2451382    E...    MOV      r3,#0x5182
        0x100008a8:    f2c10300    ....    MOVT     r3,#0x1000
        0x100008ac:    f8136024    ..$`    LDRB     r6,[r3,r4,LSL #2]
        0x100008b0:    ea471202    G...    ORR      r2,r7,r2,LSL #4
        0x100008b4:    42b2        .B      CMP      r2,r6
        0x100008b6:    d101        ..      BNE      0x100008bc ; am_hal_gpio_pinconfig + 308
        0x100008b8:    2200        ."      MOVS     r2,#0
        0x100008ba:    e011        ..      B        0x100008e0 ; am_hal_gpio_pinconfig + 344
        0x100008bc:    eb030384    ....    ADD      r3,r3,r4,LSL #2
        0x100008c0:    785f        _x      LDRB     r7,[r3,#1]
        0x100008c2:    42ba        .B      CMP      r2,r7
        0x100008c4:    d102        ..      BNE      0x100008cc ; am_hal_gpio_pinconfig + 324
        0x100008c6:    2202        ."      MOVS     r2,#2
        0x100008c8:    e00a        ..      B        0x100008e0 ; am_hal_gpio_pinconfig + 344
        0x100008ca:    bf00        ..      NOP      
        0x100008cc:    789f        .x      LDRB     r7,[r3,#2]
        0x100008ce:    42ba        .B      CMP      r2,r7
        0x100008d0:    d102        ..      BNE      0x100008d8 ; am_hal_gpio_pinconfig + 336
        0x100008d2:    2204        ."      MOVS     r2,#4
        0x100008d4:    e004        ..      B        0x100008e0 ; am_hal_gpio_pinconfig + 344
        0x100008d6:    bf00        ..      NOP      
        0x100008d8:    78db        .x      LDRB     r3,[r3,#3]
        0x100008da:    429a        .B      CMP      r2,r3
        0x100008dc:    d16e        n.      BNE      0x100009bc ; am_hal_gpio_pinconfig + 564
        0x100008de:    2206        ."      MOVS     r2,#6
        0x100008e0:    2308        .#      MOVS     r3,#8
        0x100008e2:    ea034391    ...C    AND      r3,r3,r1,LSR #18
        0x100008e6:    eb020c03    ....    ADD      r12,r2,r3
        0x100008ea:    2200        ."      MOVS     r2,#0
        0x100008ec:    9201        ..      STR      r2,[sp,#4]
        0x100008ee:    0a09        ..      LSRS     r1,r1,#8
        0x100008f0:    f0010103    ....    AND      r1,r1,#3
        0x100008f4:    e8dff001    ....    TBB      [pc,r1]
    $d.2
        0x100008f8:    06080209    ....    DCD    101188105
    $t.3
        0x100008fc:    f0400004    @...    ORR      r0,r0,#4
        0x10000900:    2100        .!      MOVS     r1,#0
        0x10000902:    e002        ..      B        0x1000090a ; am_hal_gpio_pinconfig + 386
        0x10000904:    f0400004    @...    ORR      r0,r0,#4
        0x10000908:    2101        .!      MOVS     r1,#1
        0x1000090a:    f06f0303    o...    MVN      r3,#3
        0x1000090e:    ea030254    ..T.    AND      r2,r3,r4,LSR #1
        0x10000912:    231c        .#      MOVS     r3,#0x1c
        0x10000914:    ea030384    ....    AND      r3,r3,r4,LSL #2
        0x10000918:    260f        .&      MOVS     r6,#0xf
        0x1000091a:    409e        .@      LSLS     r6,r6,r3
        0x1000091c:    9205        ..      STR      r2,[sp,#0x14]
        0x1000091e:    2218        ."      MOVS     r2,#0x18
        0x10000920:    43f6        .C      MVNS     r6,r6
        0x10000922:    ea0202c4    ....    AND      r2,r2,r4,LSL #3
        0x10000926:    9604        ..      STR      r6,[sp,#0x10]
        0x10000928:    26ff        .&      MOVS     r6,#0xff
        0x1000092a:    4096        .@      LSLS     r6,r6,r2
        0x1000092c:    f2400a60    @.`.    MOVW     r10,#0x60
        0x10000930:    ea6f0806    o...    MVN      r8,r6
        0x10000934:    fa00f602    ....    LSL      r6,r0,r2
        0x10000938:    fa01f002    ....    LSL      r0,r1,r2
        0x1000093c:    f2c40a01    ....    MOVT     r10,#0x4001
        0x10000940:    9003        ..      STR      r0,[sp,#0xc]
        0x10000942:    fa0cf003    ....    LSL      r0,r12,r3
        0x10000946:    f1aa0920    .. .    SUB      r9,r10,#0x20
        0x1000094a:    f0240703    $...    BIC      r7,r4,#3
        0x1000094e:    f1aa0560    ..`.    SUB      r5,r10,#0x60
        0x10000952:    f10a0b80    ....    ADD      r11,r10,#0x80
        0x10000956:    9002        ..      STR      r0,[sp,#8]
        0x10000958:    f000f86a    ..j.    BL       am_hal_interrupt_master_disable ; 0x10000a30
        0x1000095c:    9901        ..      LDR      r1,[sp,#4]
        0x1000095e:    9006        ..      STR      r0,[sp,#0x18]
        0x10000960:    b149        I.      CBZ      r1,0x10000976 ; am_hal_gpio_pinconfig + 494
        0x10000962:    f004001f    ....    AND      r0,r4,#0x1f
        0x10000966:    2101        .!      MOVS     r1,#1
        0x10000968:    fa01f000    ....    LSL      r0,r1,r0
        0x1000096c:    f3c41140    ..@.    UBFX     r1,r4,#5,#1
        0x10000970:    eb0a0181    ....    ADD      r1,r10,r1,LSL #2
        0x10000974:    6548        He      STR      r0,[r1,#0x54]
        0x10000976:    2073        s       MOVS     r0,#0x73
        0x10000978:    f8ca0000    ....    STR      r0,[r10,#0]
        0x1000097c:    5978        xY      LDR      r0,[r7,r5]
        0x1000097e:    ea000008    ....    AND      r0,r0,r8
        0x10000982:    4330        0C      ORRS     r0,r0,r6
        0x10000984:    5178        xQ      STR      r0,[r7,r5]
        0x10000986:    9905        ..      LDR      r1,[sp,#0x14]
        0x10000988:    2500        .%      MOVS     r5,#0
        0x1000098a:    f8510009    Q...    LDR      r0,[r1,r9]
        0x1000098e:    9b04        ..      LDR      r3,[sp,#0x10]
        0x10000990:    4018        .@      ANDS     r0,r0,r3
        0x10000992:    9b02        ..      LDR      r3,[sp,#8]
        0x10000994:    4318        .C      ORRS     r0,r0,r3
        0x10000996:    f8410009    A...    STR      r0,[r1,r9]
        0x1000099a:    f857000b    W...    LDR      r0,[r7,r11]
        0x1000099e:    9903        ..      LDR      r1,[sp,#0xc]
        0x100009a0:    ea000008    ....    AND      r0,r0,r8
        0x100009a4:    4308        .C      ORRS     r0,r0,r1
        0x100009a6:    f847000b    G...    STR      r0,[r7,r11]
        0x100009aa:    f8ca5000    ...P    STR      r5,[r10,#0]
        0x100009ae:    9806        ..      LDR      r0,[sp,#0x18]
        0x100009b0:    f000f842    ..B.    BL       am_hal_interrupt_master_set ; 0x10000a38
        0x100009b4:    4628        (F      MOV      r0,r5
        0x100009b6:    b007        ..      ADD      sp,sp,#0x1c
        0x100009b8:    e8bd8ff0    ....    POP      {r4-r11,pc}
        0x100009bc:    3502        .5      ADDS     r5,#2
        0x100009be:    4628        (F      MOV      r0,r5
        0x100009c0:    b007        ..      ADD      sp,sp,#0x1c
        0x100009c2:    e8bd8ff0    ....    POP      {r4-r11,pc}
        0x100009c6:    bf00        ..      NOP      
    $d.4
    g_ui8Bit76Capabilities
        0x100009c8:    02800101    ....    DCD    41943297
        0x100009cc:    80010180    ....    DCD    2147549568
        0x100009d0:    80800101    ....    DCD    2155872513
        0x100009d4:    80808080    ....    DCD    2155905152
        0x100009d8:    80808080    ....    DCD    2155905152
        0x100009dc:    80808008    ....    DCD    2155905032
        0x100009e0:    01800180    ....    DCD    25166208
        0x100009e4:    80808080    ....    DCD    2155905152
        0x100009e8:    80808080    ....    DCD    2155905152
        0x100009ec:    01800402    ....    DCD    25166850
        0x100009f0:    01010401    ....    DCD    16843777
        0x100009f4:    80808080    ....    DCD    2155905152
        0x100009f8:    00000101    ....    DCD    257
    g_ui8nCEpins
        0x100009fc:    02070707    ....    DCD    34014983
        0x10000a00:    00080802    ....    DCD    526338
        0x10000a04:    01020202    ....    DCD    16908802
        0x10000a08:    01010101    ....    DCD    16843009
        0x10000a0c:    01010101    ....    DCD    16843009
        0x10000a10:    01010101    ....    DCD    16843009
        0x10000a14:    01010101    ....    DCD    16843009
        0x10000a18:    01010101    ....    DCD    16843009
        0x10000a1c:    01010101    ....    DCD    16843009
        0x10000a20:    08010101    ....    DCD    134283521
        0x10000a24:    01010008    ....    DCD    16842760
        0x10000a28:    01010101    ....    DCD    16843009
        0x10000a2c:    00000101    ....    DCD    257
    $t.1
    am_hal_interrupt_master_disable
        0x10000a30:    f3ef8010    ....    MRS      r0,PRIMASK
        0x10000a34:    b672        r.      CPSID    i
        0x10000a36:    4770        pG      BX       lr
    am_hal_interrupt_master_set
        0x10000a38:    f3808810    ....    MSR      PRIMASK,r0
        0x10000a3c:    4770        pG      BX       lr
        0x10000a3e:    0000        ..      MOVS     r0,r0
    am_hal_itm_disable
        0x10000a40:    e92d41f0    -..A    PUSH     {r4-r8,lr}
        0x10000a44:    f2402450    @.P$    MOVW     r4,#0x250
        0x10000a48:    f2c40402    ....    MOVT     r4,#0x4002
        0x10000a4c:    6820         h      LDR      r0,[r4,#0]
        0x10000a4e:    f64e55fc    N..U    MOV      r5,#0xedfc
        0x10000a52:    f6406680    @..f    MOVW     r6,#0xe80
        0x10000a56:    f64c6855    L.Uh    MOV      r8,#0xce55
        0x10000a5a:    f2ce0500    ....    MOVT     r5,#0xe000
        0x10000a5e:    f2ce0600    ....    MOVT     r6,#0xe000
        0x10000a62:    f2cc58ac    ...X    MOVT     r8,#0xc5ac
        0x10000a66:    b9f8        ..      CBNZ     r0,0x10000aa8 ; am_hal_itm_disable + 104
        0x10000a68:    6828        (h      LDR      r0,[r5,#0]
        0x10000a6a:    f0407080    @..p    ORR      r0,r0,#0x1000000
        0x10000a6e:    6028        (`      STR      r0,[r5,#0]
        0x10000a70:    6828        (h      LDR      r0,[r5,#0]
        0x10000a72:    01c0        ..      LSLS     r0,r0,#7
        0x10000a74:    d409        ..      BMI      0x10000a8a ; am_hal_itm_disable + 74
        0x10000a76:    6828        (h      LDR      r0,[r5,#0]
        0x10000a78:    01c0        ..      LSLS     r0,r0,#7
        0x10000a7a:    bf5c        \.      ITT      PL
        0x10000a7c:    6828        (h      LDRPL    r0,[r5,#0]
        0x10000a7e:    ea5f10c0    _...    LSLSPL   r0,r0,#7
        0x10000a82:    d402        ..      BMI      0x10000a8a ; am_hal_itm_disable + 74
        0x10000a84:    6828        (h      LDR      r0,[r5,#0]
        0x10000a86:    01c0        ..      LSLS     r0,r0,#7
        0x10000a88:    d5f2        ..      BPL      0x10000a70 ; am_hal_itm_disable + 48
        0x10000a8a:    200f        .       MOVS     r0,#0xf
        0x10000a8c:    f8c68130    ..0.    STR      r8,[r6,#0x130]
        0x10000a90:    f8460c40    F.@.    STR      r0,[r6,#-0x40]
        0x10000a94:    f04f30ff    O..0    MOV      r0,#0xffffffff
        0x10000a98:    f8460c80    F...    STR      r0,[r6,#-0x80]
        0x10000a9c:    f2405011    @..P    MOV      r0,#0x511
        0x10000aa0:    f2c00015    ....    MOVT     r0,#0x15
        0x10000aa4:    6030        0`      STR      r0,[r6,#0]
        0x10000aa6:    bf00        ..      NOP      
        0x10000aa8:    6830        0h      LDR      r0,[r6,#0]
        0x10000aaa:    0200        ..      LSLS     r0,r0,#8
        0x10000aac:    d509        ..      BPL      0x10000ac2 ; am_hal_itm_disable + 130
        0x10000aae:    6830        0h      LDR      r0,[r6,#0]
        0x10000ab0:    0200        ..      LSLS     r0,r0,#8
        0x10000ab2:    bf44        D.      ITT      MI
        0x10000ab4:    6830        0h      LDRMI    r0,[r6,#0]
        0x10000ab6:    ea5f2000    _..     LSLSMI   r0,r0,#8
        0x10000aba:    d502        ..      BPL      0x10000ac2 ; am_hal_itm_disable + 130
        0x10000abc:    6830        0h      LDR      r0,[r6,#0]
        0x10000abe:    0200        ..      LSLS     r0,r0,#8
        0x10000ac0:    d4f2        ..      BMI      0x10000aa8 ; am_hal_itm_disable + 104
        0x10000ac2:    2701        .'      MOVS     r7,#1
        0x10000ac4:    f44f7048    O.Hp    MOV      r0,#0x320
        0x10000ac8:    f2c00780    ....    MOVT     r7,#0x80
        0x10000acc:    f7fffe46    ..F.    BL       am_hal_flash_delay ; 0x1000075c
        0x10000ad0:    2000        .       MOVS     r0,#0
        0x10000ad2:    f8c68130    ..0.    STR      r8,[r6,#0x130]
        0x10000ad6:    e002        ..      B        0x10000ade ; am_hal_itm_disable + 158
        0x10000ad8:    3005        .0      ADDS     r0,#5
        0x10000ada:    2864        d(      CMP      r0,#0x64
        0x10000adc:    d052        R.      BEQ      0x10000b84 ; am_hal_itm_disable + 324
        0x10000ade:    6831        1h      LDR      r1,[r6,#0]
        0x10000ae0:    f0210101    !...    BIC      r1,r1,#1
        0x10000ae4:    6031        1`      STR      r1,[r6,#0]
        0x10000ae6:    bf00        ..      NOP      
        0x10000ae8:    6831        1h      LDR      r1,[r6,#0]
        0x10000aea:    4239        9B      TST      r1,r7
        0x10000aec:    d008        ..      BEQ      0x10000b00 ; am_hal_itm_disable + 192
        0x10000aee:    6831        1h      LDR      r1,[r6,#0]
        0x10000af0:    4239        9B      TST      r1,r7
        0x10000af2:    d005        ..      BEQ      0x10000b00 ; am_hal_itm_disable + 192
        0x10000af4:    6831        1h      LDR      r1,[r6,#0]
        0x10000af6:    4239        9B      TST      r1,r7
        0x10000af8:    d002        ..      BEQ      0x10000b00 ; am_hal_itm_disable + 192
        0x10000afa:    6831        1h      LDR      r1,[r6,#0]
        0x10000afc:    4239        9B      TST      r1,r7
        0x10000afe:    d1f3        ..      BNE      0x10000ae8 ; am_hal_itm_disable + 168
        0x10000b00:    6831        1h      LDR      r1,[r6,#0]
        0x10000b02:    f0210101    !...    BIC      r1,r1,#1
        0x10000b06:    6031        1`      STR      r1,[r6,#0]
        0x10000b08:    6831        1h      LDR      r1,[r6,#0]
        0x10000b0a:    4239        9B      TST      r1,r7
        0x10000b0c:    d008        ..      BEQ      0x10000b20 ; am_hal_itm_disable + 224
        0x10000b0e:    6831        1h      LDR      r1,[r6,#0]
        0x10000b10:    4239        9B      TST      r1,r7
        0x10000b12:    d005        ..      BEQ      0x10000b20 ; am_hal_itm_disable + 224
        0x10000b14:    6831        1h      LDR      r1,[r6,#0]
        0x10000b16:    4239        9B      TST      r1,r7
        0x10000b18:    d002        ..      BEQ      0x10000b20 ; am_hal_itm_disable + 224
        0x10000b1a:    6831        1h      LDR      r1,[r6,#0]
        0x10000b1c:    4239        9B      TST      r1,r7
        0x10000b1e:    d1f3        ..      BNE      0x10000b08 ; am_hal_itm_disable + 200
        0x10000b20:    6831        1h      LDR      r1,[r6,#0]
        0x10000b22:    f0210101    !...    BIC      r1,r1,#1
        0x10000b26:    6031        1`      STR      r1,[r6,#0]
        0x10000b28:    6831        1h      LDR      r1,[r6,#0]
        0x10000b2a:    4239        9B      TST      r1,r7
        0x10000b2c:    d008        ..      BEQ      0x10000b40 ; am_hal_itm_disable + 256
        0x10000b2e:    6831        1h      LDR      r1,[r6,#0]
        0x10000b30:    4239        9B      TST      r1,r7
        0x10000b32:    d005        ..      BEQ      0x10000b40 ; am_hal_itm_disable + 256
        0x10000b34:    6831        1h      LDR      r1,[r6,#0]
        0x10000b36:    4239        9B      TST      r1,r7
        0x10000b38:    d002        ..      BEQ      0x10000b40 ; am_hal_itm_disable + 256
        0x10000b3a:    6831        1h      LDR      r1,[r6,#0]
        0x10000b3c:    4239        9B      TST      r1,r7
        0x10000b3e:    d1f3        ..      BNE      0x10000b28 ; am_hal_itm_disable + 232
        0x10000b40:    6831        1h      LDR      r1,[r6,#0]
        0x10000b42:    f0210101    !...    BIC      r1,r1,#1
        0x10000b46:    6031        1`      STR      r1,[r6,#0]
        0x10000b48:    6831        1h      LDR      r1,[r6,#0]
        0x10000b4a:    4239        9B      TST      r1,r7
        0x10000b4c:    d008        ..      BEQ      0x10000b60 ; am_hal_itm_disable + 288
        0x10000b4e:    6831        1h      LDR      r1,[r6,#0]
        0x10000b50:    4239        9B      TST      r1,r7
        0x10000b52:    d005        ..      BEQ      0x10000b60 ; am_hal_itm_disable + 288
        0x10000b54:    6831        1h      LDR      r1,[r6,#0]
        0x10000b56:    4239        9B      TST      r1,r7
        0x10000b58:    d002        ..      BEQ      0x10000b60 ; am_hal_itm_disable + 288
        0x10000b5a:    6831        1h      LDR      r1,[r6,#0]
        0x10000b5c:    4239        9B      TST      r1,r7
        0x10000b5e:    d1f3        ..      BNE      0x10000b48 ; am_hal_itm_disable + 264
        0x10000b60:    6831        1h      LDR      r1,[r6,#0]
        0x10000b62:    f0210101    !...    BIC      r1,r1,#1
        0x10000b66:    6031        1`      STR      r1,[r6,#0]
        0x10000b68:    6831        1h      LDR      r1,[r6,#0]
        0x10000b6a:    4239        9B      TST      r1,r7
        0x10000b6c:    d0b4        ..      BEQ      0x10000ad8 ; am_hal_itm_disable + 152
        0x10000b6e:    6831        1h      LDR      r1,[r6,#0]
        0x10000b70:    4239        9B      TST      r1,r7
        0x10000b72:    d0b1        ..      BEQ      0x10000ad8 ; am_hal_itm_disable + 152
        0x10000b74:    6831        1h      LDR      r1,[r6,#0]
        0x10000b76:    4239        9B      TST      r1,r7
        0x10000b78:    d0ae        ..      BEQ      0x10000ad8 ; am_hal_itm_disable + 152
        0x10000b7a:    6831        1h      LDR      r1,[r6,#0]
        0x10000b7c:    4239        9B      TST      r1,r7
        0x10000b7e:    d1f3        ..      BNE      0x10000b68 ; am_hal_itm_disable + 296
        0x10000b80:    e7aa        ..      B        0x10000ad8 ; am_hal_itm_disable + 152
        0x10000b82:    bf00        ..      NOP      
        0x10000b84:    6828        (h      LDR      r0,[r5,#0]
        0x10000b86:    f0207080     ..p    BIC      r0,r0,#0x1000000
        0x10000b8a:    6028        (`      STR      r0,[r5,#0]
        0x10000b8c:    6828        (h      LDR      r0,[r5,#0]
        0x10000b8e:    01c0        ..      LSLS     r0,r0,#7
        0x10000b90:    d509        ..      BPL      0x10000ba6 ; am_hal_itm_disable + 358
        0x10000b92:    6828        (h      LDR      r0,[r5,#0]
        0x10000b94:    01c0        ..      LSLS     r0,r0,#7
        0x10000b96:    bf44        D.      ITT      MI
        0x10000b98:    6828        (h      LDRMI    r0,[r5,#0]
        0x10000b9a:    ea5f10c0    _...    LSLSMI   r0,r0,#7
        0x10000b9e:    d502        ..      BPL      0x10000ba6 ; am_hal_itm_disable + 358
        0x10000ba0:    6828        (h      LDR      r0,[r5,#0]
        0x10000ba2:    01c0        ..      LSLS     r0,r0,#7
        0x10000ba4:    d4f2        ..      BMI      0x10000b8c ; am_hal_itm_disable + 332
        0x10000ba6:    2000        .       MOVS     r0,#0
        0x10000ba8:    6020         `      STR      r0,[r4,#0]
        0x10000baa:    e006        ..      B        0x10000bba ; am_hal_itm_disable + 378
        0x10000bac:    6820         h      LDR      r0,[r4,#0]
        0x10000bae:    2800        .(      CMP      r0,#0
        0x10000bb0:    bf08        ..      IT       EQ
        0x10000bb2:    e8bd81f0    ....    POPEQ    {r4-r8,pc}
        0x10000bb6:    6820         h      LDR      r0,[r4,#0]
        0x10000bb8:    b120         .      CBZ      r0,0x10000bc4 ; am_hal_itm_disable + 388
        0x10000bba:    6820         h      LDR      r0,[r4,#0]
        0x10000bbc:    b110        ..      CBZ      r0,0x10000bc4 ; am_hal_itm_disable + 388
        0x10000bbe:    6820         h      LDR      r0,[r4,#0]
        0x10000bc0:    2800        .(      CMP      r0,#0
        0x10000bc2:    d1f3        ..      BNE      0x10000bac ; am_hal_itm_disable + 364
        0x10000bc4:    e8bd81f0    ....    POP      {r4-r8,pc}
    am_hal_itm_enable
        0x10000bc8:    f64e50fc    N..P    MOV      r0,#0xedfc
        0x10000bcc:    f2ce0000    ....    MOVT     r0,#0xe000
        0x10000bd0:    6801        .h      LDR      r1,[r0,#0]
        0x10000bd2:    f0417180    A..q    ORR      r1,r1,#0x1000000
        0x10000bd6:    6001        .`      STR      r1,[r0,#0]
        0x10000bd8:    6801        .h      LDR      r1,[r0,#0]
        0x10000bda:    01c9        ..      LSLS     r1,r1,#7
        0x10000bdc:    d409        ..      BMI      0x10000bf2 ; am_hal_itm_enable + 42
        0x10000bde:    6801        .h      LDR      r1,[r0,#0]
        0x10000be0:    01c9        ..      LSLS     r1,r1,#7
        0x10000be2:    bf5c        \.      ITT      PL
        0x10000be4:    6801        .h      LDRPL    r1,[r0,#0]
        0x10000be6:    ea5f11c1    _...    LSLSPL   r1,r1,#7
        0x10000bea:    d402        ..      BMI      0x10000bf2 ; am_hal_itm_enable + 42
        0x10000bec:    6801        .h      LDR      r1,[r0,#0]
        0x10000bee:    01c9        ..      LSLS     r1,r1,#7
        0x10000bf0:    d5f2        ..      BPL      0x10000bd8 ; am_hal_itm_enable + 16
        0x10000bf2:    f6406000    @..`    MOVW     r0,#0xe00
        0x10000bf6:    f64c6155    L.Ua    MOV      r1,#0xce55
        0x10000bfa:    f2ce0000    ....    MOVT     r0,#0xe000
        0x10000bfe:    f2cc51ac    ...Q    MOVT     r1,#0xc5ac
        0x10000c02:    f8c011b0    ....    STR      r1,[r0,#0x1b0]
        0x10000c06:    210f        .!      MOVS     r1,#0xf
        0x10000c08:    6401        .d      STR      r1,[r0,#0x40]
        0x10000c0a:    f04f31ff    O..1    MOV      r1,#0xffffffff
        0x10000c0e:    6001        .`      STR      r1,[r0,#0]
        0x10000c10:    f2405111    @..Q    MOV      r1,#0x511
        0x10000c14:    f2c00115    ....    MOVT     r1,#0x15
        0x10000c18:    f8c01080    ....    STR      r1,[r0,#0x80]
        0x10000c1c:    4770        pG      BX       lr
        0x10000c1e:    0000        ..      MOVS     r0,r0
    am_hal_itm_print
        0x10000c20:    b510        ..      PUSH     {r4,lr}
        0x10000c22:    f04f31ff    O..1    MOV      r1,#0xffffffff
        0x10000c26:    bf00        ..      NOP      
        0x10000c28:    1842        B.      ADDS     r2,r0,r1
        0x10000c2a:    7853        Sx      LDRB     r3,[r2,#1]
        0x10000c2c:    b143        C.      CBZ      r3,0x10000c40 ; am_hal_itm_print + 32
        0x10000c2e:    7893        .x      LDRB     r3,[r2,#2]
        0x10000c30:    b153        S.      CBZ      r3,0x10000c48 ; am_hal_itm_print + 40
        0x10000c32:    78d3        .x      LDRB     r3,[r2,#3]
        0x10000c34:    b333        3.      CBZ      r3,0x10000c84 ; am_hal_itm_print + 100
        0x10000c36:    7912        .y      LDRB     r2,[r2,#4]
        0x10000c38:    3104        .1      ADDS     r1,#4
        0x10000c3a:    2a00        .*      CMP      r2,#0
        0x10000c3c:    d1f4        ..      BNE      0x10000c28 ; am_hal_itm_print + 8
        0x10000c3e:    e004        ..      B        0x10000c4a ; am_hal_itm_print + 42
        0x10000c40:    3101        .1      ADDS     r1,#1
        0x10000c42:    b919        ..      CBNZ     r1,0x10000c4c ; am_hal_itm_print + 44
        0x10000c44:    e021        !.      B        0x10000c8a ; am_hal_itm_print + 106
        0x10000c46:    bf00        ..      NOP      
        0x10000c48:    3102        .1      ADDS     r1,#2
        0x10000c4a:    b1f1        ..      CBZ      r1,0x10000c8a ; am_hal_itm_print + 106
        0x10000c4c:    f0110e03    ....    ANDS     lr,r1,#3
        0x10000c50:    f1a10c01    ....    SUB      r12,r1,#1
        0x10000c54:    d040        @.      BEQ      0x10000cd8 ; am_hal_itm_print + 184
        0x10000c56:    7802        .x      LDRB     r2,[r0,#0]
        0x10000c58:    f04f4360    O.`C    MOV      r3,#0xe0000000
        0x10000c5c:    681c        .h      LDR      r4,[r3,#0]
        0x10000c5e:    b934        4.      CBNZ     r4,0x10000c6e ; am_hal_itm_print + 78
        0x10000c60:    681c        .h      LDR      r4,[r3,#0]
        0x10000c62:    b924        $.      CBNZ     r4,0x10000c6e ; am_hal_itm_print + 78
        0x10000c64:    681c        .h      LDR      r4,[r3,#0]
        0x10000c66:    b914        ..      CBNZ     r4,0x10000c6e ; am_hal_itm_print + 78
        0x10000c68:    681c        .h      LDR      r4,[r3,#0]
        0x10000c6a:    2c00        .,      CMP      r4,#0
        0x10000c6c:    d0f6        ..      BEQ      0x10000c5c ; am_hal_itm_print + 60
        0x10000c6e:    1c44        D.      ADDS     r4,r0,#1
        0x10000c70:    f04f4360    O.`C    MOV      r3,#0xe0000000
        0x10000c74:    f1be0f01    ....    CMP      lr,#1
        0x10000c78:    701a        .p      STRB     r2,[r3,#0]
        0x10000c7a:    d107        ..      BNE      0x10000c8c ; am_hal_itm_print + 108
        0x10000c7c:    4661        aF      MOV      r1,r12
        0x10000c7e:    4620         F      MOV      r0,r4
        0x10000c80:    e02a        *.      B        0x10000cd8 ; am_hal_itm_print + 184
        0x10000c82:    bf00        ..      NOP      
        0x10000c84:    3103        .1      ADDS     r1,#3
        0x10000c86:    2900        .)      CMP      r1,#0
        0x10000c88:    d1e0        ..      BNE      0x10000c4c ; am_hal_itm_print + 44
        0x10000c8a:    bd10        ..      POP      {r4,pc}
        0x10000c8c:    7822        "x      LDRB     r2,[r4,#0]
        0x10000c8e:    bf00        ..      NOP      
        0x10000c90:    681c        .h      LDR      r4,[r3,#0]
        0x10000c92:    b934        4.      CBNZ     r4,0x10000ca2 ; am_hal_itm_print + 130
        0x10000c94:    681c        .h      LDR      r4,[r3,#0]
        0x10000c96:    b924        $.      CBNZ     r4,0x10000ca2 ; am_hal_itm_print + 130
        0x10000c98:    681c        .h      LDR      r4,[r3,#0]
        0x10000c9a:    b914        ..      CBNZ     r4,0x10000ca2 ; am_hal_itm_print + 130
        0x10000c9c:    681c        .h      LDR      r4,[r3,#0]
        0x10000c9e:    2c00        .,      CMP      r4,#0
        0x10000ca0:    d0f6        ..      BEQ      0x10000c90 ; am_hal_itm_print + 112
        0x10000ca2:    1c84        ..      ADDS     r4,r0,#2
        0x10000ca4:    f04f4360    O.`C    MOV      r3,#0xe0000000
        0x10000ca8:    f1be0f02    ....    CMP      lr,#2
        0x10000cac:    701a        .p      STRB     r2,[r3,#0]
        0x10000cae:    d103        ..      BNE      0x10000cb8 ; am_hal_itm_print + 152
        0x10000cb0:    3902        .9      SUBS     r1,#2
        0x10000cb2:    4620         F      MOV      r0,r4
        0x10000cb4:    e010        ..      B        0x10000cd8 ; am_hal_itm_print + 184
        0x10000cb6:    bf00        ..      NOP      
        0x10000cb8:    7822        "x      LDRB     r2,[r4,#0]
        0x10000cba:    bf00        ..      NOP      
        0x10000cbc:    681c        .h      LDR      r4,[r3,#0]
        0x10000cbe:    b934        4.      CBNZ     r4,0x10000cce ; am_hal_itm_print + 174
        0x10000cc0:    681c        .h      LDR      r4,[r3,#0]
        0x10000cc2:    b924        $.      CBNZ     r4,0x10000cce ; am_hal_itm_print + 174
        0x10000cc4:    681c        .h      LDR      r4,[r3,#0]
        0x10000cc6:    b914        ..      CBNZ     r4,0x10000cce ; am_hal_itm_print + 174
        0x10000cc8:    681c        .h      LDR      r4,[r3,#0]
        0x10000cca:    2c00        .,      CMP      r4,#0
        0x10000ccc:    d0f6        ..      BEQ      0x10000cbc ; am_hal_itm_print + 156
        0x10000cce:    3003        .0      ADDS     r0,#3
        0x10000cd0:    f04f4360    O.`C    MOV      r3,#0xe0000000
        0x10000cd4:    3903        .9      SUBS     r1,#3
        0x10000cd6:    701a        .p      STRB     r2,[r3,#0]
        0x10000cd8:    f1bc0f03    ....    CMP      r12,#3
        0x10000cdc:    bf38        8.      IT       CC
        0x10000cde:    bd10        ..      POPCC    {r4,pc}
        0x10000ce0:    f04f4260    O.`B    MOV      r2,#0xe0000000
        0x10000ce4:    e004        ..      B        0x10000cf0 ; am_hal_itm_print + 208
        0x10000ce6:    bf00        ..      NOP      
        0x10000ce8:    3004        .0      ADDS     r0,#4
        0x10000cea:    3904        .9      SUBS     r1,#4
        0x10000cec:    7013        .p      STRB     r3,[r2,#0]
        0x10000cee:    d0cc        ..      BEQ      0x10000c8a ; am_hal_itm_print + 106
        0x10000cf0:    7803        .x      LDRB     r3,[r0,#0]
        0x10000cf2:    bf00        ..      NOP      
        0x10000cf4:    6814        .h      LDR      r4,[r2,#0]
        0x10000cf6:    b934        4.      CBNZ     r4,0x10000d06 ; am_hal_itm_print + 230
        0x10000cf8:    6814        .h      LDR      r4,[r2,#0]
        0x10000cfa:    b924        $.      CBNZ     r4,0x10000d06 ; am_hal_itm_print + 230
        0x10000cfc:    6814        .h      LDR      r4,[r2,#0]
        0x10000cfe:    b914        ..      CBNZ     r4,0x10000d06 ; am_hal_itm_print + 230
        0x10000d00:    6814        .h      LDR      r4,[r2,#0]
        0x10000d02:    2c00        .,      CMP      r4,#0
        0x10000d04:    d0f6        ..      BEQ      0x10000cf4 ; am_hal_itm_print + 212
        0x10000d06:    7013        .p      STRB     r3,[r2,#0]
        0x10000d08:    7843        Cx      LDRB     r3,[r0,#1]
        0x10000d0a:    bf00        ..      NOP      
        0x10000d0c:    6814        .h      LDR      r4,[r2,#0]
        0x10000d0e:    b934        4.      CBNZ     r4,0x10000d1e ; am_hal_itm_print + 254
        0x10000d10:    6814        .h      LDR      r4,[r2,#0]
        0x10000d12:    b924        $.      CBNZ     r4,0x10000d1e ; am_hal_itm_print + 254
        0x10000d14:    6814        .h      LDR      r4,[r2,#0]
        0x10000d16:    b914        ..      CBNZ     r4,0x10000d1e ; am_hal_itm_print + 254
        0x10000d18:    6814        .h      LDR      r4,[r2,#0]
        0x10000d1a:    2c00        .,      CMP      r4,#0
        0x10000d1c:    d0f6        ..      BEQ      0x10000d0c ; am_hal_itm_print + 236
        0x10000d1e:    7013        .p      STRB     r3,[r2,#0]
        0x10000d20:    7883        .x      LDRB     r3,[r0,#2]
        0x10000d22:    bf00        ..      NOP      
        0x10000d24:    6814        .h      LDR      r4,[r2,#0]
        0x10000d26:    b934        4.      CBNZ     r4,0x10000d36 ; am_hal_itm_print + 278
        0x10000d28:    6814        .h      LDR      r4,[r2,#0]
        0x10000d2a:    b924        $.      CBNZ     r4,0x10000d36 ; am_hal_itm_print + 278
        0x10000d2c:    6814        .h      LDR      r4,[r2,#0]
        0x10000d2e:    b914        ..      CBNZ     r4,0x10000d36 ; am_hal_itm_print + 278
        0x10000d30:    6814        .h      LDR      r4,[r2,#0]
        0x10000d32:    2c00        .,      CMP      r4,#0
        0x10000d34:    d0f6        ..      BEQ      0x10000d24 ; am_hal_itm_print + 260
        0x10000d36:    7013        .p      STRB     r3,[r2,#0]
        0x10000d38:    78c3        .x      LDRB     r3,[r0,#3]
        0x10000d3a:    bf00        ..      NOP      
        0x10000d3c:    6814        .h      LDR      r4,[r2,#0]
        0x10000d3e:    2c00        .,      CMP      r4,#0
        0x10000d40:    d1d2        ..      BNE      0x10000ce8 ; am_hal_itm_print + 200
        0x10000d42:    6814        .h      LDR      r4,[r2,#0]
        0x10000d44:    2c00        .,      CMP      r4,#0
        0x10000d46:    d1cf        ..      BNE      0x10000ce8 ; am_hal_itm_print + 200
        0x10000d48:    6814        .h      LDR      r4,[r2,#0]
        0x10000d4a:    2c00        .,      CMP      r4,#0
        0x10000d4c:    d1cc        ..      BNE      0x10000ce8 ; am_hal_itm_print + 200
        0x10000d4e:    6814        .h      LDR      r4,[r2,#0]
        0x10000d50:    2c00        .,      CMP      r4,#0
        0x10000d52:    d0f3        ..      BEQ      0x10000d3c ; am_hal_itm_print + 284
        0x10000d54:    e7c8        ..      B        0x10000ce8 ; am_hal_itm_print + 200
        0x10000d56:    0000        ..      MOVS     r0,r0
    am_hal_pwrctrl_memory_enable
        0x10000d58:    b5f0        ..      PUSH     {r4-r7,lr}
        0x10000d5a:    b081        ..      SUB      sp,sp,#4
        0x10000d5c:    f644617c    D.|a    MOV      r1,#0x4e7c
        0x10000d60:    eb000040    ..@.    ADD      r0,r0,r0,LSL #1
        0x10000d64:    f2c10100    ....    MOVT     r1,#0x1000
        0x10000d68:    eb0106c0    ....    ADD      r6,r1,r0,LSL #3
        0x10000d6c:    f8517030    Q.0p    LDR      r7,[r1,r0,LSL #3]
        0x10000d70:    6934        4i      LDR      r4,[r6,#0x10]
        0x10000d72:    f2410510    A...    MOV      r5,#0x1010
        0x10000d76:    1c78        x.      ADDS     r0,r7,#1
        0x10000d78:    f2c40502    ....    MOVT     r5,#0x4002
        0x10000d7c:    d00c        ..      BEQ      0x10000d98 ; am_hal_pwrctrl_memory_enable + 64
        0x10000d7e:    68f0        .h      LDR      r0,[r6,#0xc]
        0x10000d80:    f2420101    B...    MOV      r1,#0x2001
        0x10000d84:    ea670000    g...    ORN      r0,r7,r0
        0x10000d88:    682a        *h      LDR      r2,[r5,#0]
        0x10000d8a:    4308        .C      ORRS     r0,r0,r1
        0x10000d8c:    4010        .@      ANDS     r0,r0,r2
        0x10000d8e:    6028        (`      STR      r0,[r5,#0]
        0x10000d90:    2010        .       MOVS     r0,#0x10
        0x10000d92:    f7fffce3    ....    BL       am_hal_flash_delay ; 0x1000075c
        0x10000d96:    b17f        ..      CBZ      r7,0x10000db8 ; am_hal_pwrctrl_memory_enable + 96
        0x10000d98:    6828        (h      LDR      r0,[r5,#0]
        0x10000d9a:    4338        8C      ORRS     r0,r0,r7
        0x10000d9c:    6028        (`      STR      r0,[r5,#0]
        0x10000d9e:    20a0        .       MOVS     r0,#0xa0
        0x10000da0:    f7fffcdc    ....    BL       am_hal_flash_delay ; 0x1000075c
        0x10000da4:    6868        hh      LDR      r0,[r5,#4]
        0x10000da6:    6876        vh      LDR      r6,[r6,#4]
        0x10000da8:    4020         @      ANDS     r0,r0,r4
        0x10000daa:    42b0        .B      CMP      r0,r6
        0x10000dac:    d005        ..      BEQ      0x10000dba ; am_hal_pwrctrl_memory_enable + 98
        0x10000dae:    20a0        .       MOVS     r0,#0xa0
        0x10000db0:    f7fffcd4    ....    BL       am_hal_flash_delay ; 0x1000075c
        0x10000db4:    6868        hh      LDR      r0,[r5,#4]
        0x10000db6:    e000        ..      B        0x10000dba ; am_hal_pwrctrl_memory_enable + 98
        0x10000db8:    6876        vh      LDR      r6,[r6,#4]
        0x10000dba:    6868        hh      LDR      r0,[r5,#4]
        0x10000dbc:    4020         @      ANDS     r0,r0,r4
        0x10000dbe:    1b80        ..      SUBS     r0,r0,r6
        0x10000dc0:    bf18        ..      IT       NE
        0x10000dc2:    2001        .       MOVNE    r0,#1
        0x10000dc4:    b001        ..      ADD      sp,sp,#4
        0x10000dc6:    bdf0        ..      POP      {r4-r7,pc}
    am_hal_pwrctrl_periph_disable
        0x10000dc8:    b570        p.      PUSH     {r4-r6,lr}
        0x10000dca:    b082        ..      SUB      sp,sp,#8
        0x10000dcc:    f2410508    A...    MOV      r5,#0x1008
        0x10000dd0:    4604        .F      MOV      r4,r0
        0x10000dd2:    f2c40502    ....    MOVT     r5,#0x4002
        0x10000dd6:    f7fffe2b    ..+.    BL       am_hal_interrupt_master_disable ; 0x10000a30
        0x10000dda:    f245022c    E.,.    MOV      r2,#0x502c
        0x10000dde:    9001        ..      STR      r0,[sp,#4]
        0x10000de0:    eb040144    ..D.    ADD      r1,r4,r4,LSL #1
        0x10000de4:    f2c10200    ....    MOVT     r2,#0x1000
        0x10000de8:    f8524021    R.!@    LDR      r4,[r2,r1,LSL #2]
        0x10000dec:    6828        (h      LDR      r0,[r5,#0]
        0x10000dee:    eb020681    ....    ADD      r6,r2,r1,LSL #2
        0x10000df2:    43a0        .C      BICS     r0,r0,r4
        0x10000df4:    6028        (`      STR      r0,[r5,#0]
        0x10000df6:    9801        ..      LDR      r0,[sp,#4]
        0x10000df8:    f7fffe1e    ....    BL       am_hal_interrupt_master_set ; 0x10000a38
        0x10000dfc:    20a0        .       MOVS     r0,#0xa0
        0x10000dfe:    f7fffcad    ....    BL       am_hal_flash_delay ; 0x1000075c
        0x10000e02:    6928        (i      LDR      r0,[r5,#0x10]
        0x10000e04:    6876        vh      LDR      r6,[r6,#4]
        0x10000e06:    4206        .B      TST      r6,r0
        0x10000e08:    d003        ..      BEQ      0x10000e12 ; am_hal_pwrctrl_periph_disable + 74
        0x10000e0a:    20a0        .       MOVS     r0,#0xa0
        0x10000e0c:    f7fffca6    ....    BL       am_hal_flash_delay ; 0x1000075c
        0x10000e10:    6928        (i      LDR      r0,[r5,#0x10]
        0x10000e12:    6928        (i      LDR      r0,[r5,#0x10]
        0x10000e14:    4206        .B      TST      r6,r0
        0x10000e16:    d00b        ..      BEQ      0x10000e30 ; am_hal_pwrctrl_periph_disable + 104
        0x10000e18:    6828        (h      LDR      r0,[r5,#0]
        0x10000e1a:    2e10        ..      CMP      r6,#0x10
        0x10000e1c:    d00c        ..      BEQ      0x10000e38 ; am_hal_pwrctrl_periph_disable + 112
        0x10000e1e:    2e08        ..      CMP      r6,#8
        0x10000e20:    d012        ..      BEQ      0x10000e48 ; am_hal_pwrctrl_periph_disable + 128
        0x10000e22:    2e04        ..      CMP      r6,#4
        0x10000e24:    d113        ..      BNE      0x10000e4e ; am_hal_pwrctrl_periph_disable + 134
        0x10000e26:    f2405181    @..Q    MOV      r1,#0x581
        0x10000e2a:    4208        .B      TST      r0,r1
        0x10000e2c:    d107        ..      BNE      0x10000e3e ; am_hal_pwrctrl_periph_disable + 118
        0x10000e2e:    e00e        ..      B        0x10000e4e ; am_hal_pwrctrl_periph_disable + 134
        0x10000e30:    2000        .       MOVS     r0,#0
        0x10000e32:    b002        ..      ADD      sp,sp,#8
        0x10000e34:    bd70        p.      POP      {r4-r6,pc}
        0x10000e36:    bf00        ..      NOP      
        0x10000e38:    f0100f70    ..p.    TST      r0,#0x70
        0x10000e3c:    d007        ..      BEQ      0x10000e4e ; am_hal_pwrctrl_periph_disable + 134
        0x10000e3e:    4020         @      ANDS     r0,r0,r4
        0x10000e40:    bf18        ..      IT       NE
        0x10000e42:    2001        .       MOVNE    r0,#1
        0x10000e44:    b002        ..      ADD      sp,sp,#8
        0x10000e46:    bd70        p.      POP      {r4-r6,pc}
        0x10000e48:    f0100f0e    ....    TST      r0,#0xe
        0x10000e4c:    d1f7        ..      BNE      0x10000e3e ; am_hal_pwrctrl_periph_disable + 118
        0x10000e4e:    2001        .       MOVS     r0,#1
        0x10000e50:    b002        ..      ADD      sp,sp,#8
        0x10000e52:    bd70        p.      POP      {r4-r6,pc}
    am_hal_pwrctrl_periph_enable
        0x10000e54:    b570        p.      PUSH     {r4-r6,lr}
        0x10000e56:    b082        ..      SUB      sp,sp,#8
        0x10000e58:    f2410508    A...    MOV      r5,#0x1008
        0x10000e5c:    4604        .F      MOV      r4,r0
        0x10000e5e:    f2c40502    ....    MOVT     r5,#0x4002
        0x10000e62:    f7fffde5    ....    BL       am_hal_interrupt_master_disable ; 0x10000a30
        0x10000e66:    f245022c    E.,.    MOV      r2,#0x502c
        0x10000e6a:    9001        ..      STR      r0,[sp,#4]
        0x10000e6c:    eb040144    ..D.    ADD      r1,r4,r4,LSL #1
        0x10000e70:    f2c10200    ....    MOVT     r2,#0x1000
        0x10000e74:    f8524021    R.!@    LDR      r4,[r2,r1,LSL #2]
        0x10000e78:    6828        (h      LDR      r0,[r5,#0]
        0x10000e7a:    eb020681    ....    ADD      r6,r2,r1,LSL #2
        0x10000e7e:    4320         C      ORRS     r0,r0,r4
        0x10000e80:    6028        (`      STR      r0,[r5,#0]
        0x10000e82:    9801        ..      LDR      r0,[sp,#4]
        0x10000e84:    f7fffdd8    ....    BL       am_hal_interrupt_master_set ; 0x10000a38
        0x10000e88:    20a0        .       MOVS     r0,#0xa0
        0x10000e8a:    f7fffc67    ..g.    BL       am_hal_flash_delay ; 0x1000075c
        0x10000e8e:    6928        (i      LDR      r0,[r5,#0x10]
        0x10000e90:    6876        vh      LDR      r6,[r6,#4]
        0x10000e92:    4206        .B      TST      r6,r0
        0x10000e94:    d006        ..      BEQ      0x10000ea4 ; am_hal_pwrctrl_periph_enable + 80
        0x10000e96:    6928        (i      LDR      r0,[r5,#0x10]
        0x10000e98:    4206        .B      TST      r6,r0
        0x10000e9a:    d00a        ..      BEQ      0x10000eb2 ; am_hal_pwrctrl_periph_enable + 94
        0x10000e9c:    2000        .       MOVS     r0,#0
        0x10000e9e:    b002        ..      ADD      sp,sp,#8
        0x10000ea0:    bd70        p.      POP      {r4-r6,pc}
        0x10000ea2:    bf00        ..      NOP      
        0x10000ea4:    20a0        .       MOVS     r0,#0xa0
        0x10000ea6:    f7fffc59    ..Y.    BL       am_hal_flash_delay ; 0x1000075c
        0x10000eaa:    6928        (i      LDR      r0,[r5,#0x10]
        0x10000eac:    6928        (i      LDR      r0,[r5,#0x10]
        0x10000eae:    4206        .B      TST      r6,r0
        0x10000eb0:    d1f4        ..      BNE      0x10000e9c ; am_hal_pwrctrl_periph_enable + 72
        0x10000eb2:    f7fffdbd    ....    BL       am_hal_interrupt_master_disable ; 0x10000a30
        0x10000eb6:    9000        ..      STR      r0,[sp,#0]
        0x10000eb8:    6828        (h      LDR      r0,[r5,#0]
        0x10000eba:    43a0        .C      BICS     r0,r0,r4
        0x10000ebc:    6028        (`      STR      r0,[r5,#0]
        0x10000ebe:    9800        ..      LDR      r0,[sp,#0]
        0x10000ec0:    f7fffdba    ....    BL       am_hal_interrupt_master_set ; 0x10000a38
        0x10000ec4:    2001        .       MOVS     r0,#1
        0x10000ec6:    b002        ..      ADD      sp,sp,#8
        0x10000ec8:    bd70        p.      POP      {r4-r6,pc}
        0x10000eca:    0000        ..      MOVS     r0,r0
    am_hal_tpiu_enable
        0x10000ecc:    b570        p.      PUSH     {r4-r6,lr}
        0x10000ece:    b084        ..      SUB      sp,sp,#0x10
        0x10000ed0:    6806        .h      LDR      r6,[r0,#0]
        0x10000ed2:    f6407400    @..t    MOVW     r4,#0xf00
        0x10000ed6:    2504        .%      MOVS     r5,#4
        0x10000ed8:    f2ce0404    ....    MOVT     r4,#0xe004
        0x10000edc:    f2ce0504    ....    MOVT     r5,#0xe004
        0x10000ee0:    2200        ."      MOVS     r2,#0
        0x10000ee2:    f8c52300    ...#    STR      r2,[r5,#0x300]
        0x10000ee6:    b1de        ..      CBZ      r6,0x10000f20 ; am_hal_tpiu_enable + 84
        0x10000ee8:    2001        .       MOVS     r0,#1
        0x10000eea:    6028        (`      STR      r0,[r5,#0]
        0x10000eec:    a801        ..      ADD      r0,sp,#4
        0x10000eee:    f7fffb17    ....    BL       am_hal_clkgen_status_get ; 0x10000520
        0x10000ef2:    9801        ..      LDR      r0,[sp,#4]
        0x10000ef4:    1c41        A.      ADDS     r1,r0,#1
        0x10000ef6:    d021        !.      BEQ      0x10000f3c ; am_hal_tpiu_enable + 112
        0x10000ef8:    f647317f    G..1    MOV      r1,#0x7b7f
        0x10000efc:    f6cf71e1    ...q    MOVT     r1,#0xffe1
        0x10000f00:    1872        r.      ADDS     r2,r6,r1
        0x10000f02:    f5014161    ..aA    ADD      r1,r1,#0xe100
        0x10000f06:    08c0        ..      LSRS     r0,r0,#3
        0x10000f08:    428a        .B      CMP      r2,r1
        0x10000f0a:    bf3c        <.      ITT      CC
        0x10000f0c:    f2442640    D.@&    MOVCC    r6,#0x4240
        0x10000f10:    f2c0060f    ....    MOVTCC   r6,#0xf
        0x10000f14:    fbb0f0f6    ....    UDIV     r0,r0,r6
        0x10000f18:    3801        .8      SUBS     r0,#1
        0x10000f1a:    b280        ..      UXTH     r0,r0
        0x10000f1c:    e00f        ..      B        0x10000f3e ; am_hal_tpiu_enable + 114
        0x10000f1e:    bf00        ..      NOP      
        0x10000f20:    e9d01301    ....    LDRD     r1,r3,[r0,#4]
        0x10000f24:    e9d00603    ....    LDRD     r0,r6,[r0,#0xc]
        0x10000f28:    60ee        .`      STR      r6,[r5,#0xc]
        0x10000f2a:    f8c530ec    ...0    STR      r3,[r5,#0xec]
        0x10000f2e:    3801        .8      SUBS     r0,#1
        0x10000f30:    2301        .#      MOVS     r3,#1
        0x10000f32:    fa03f000    ....    LSL      r0,r3,r0
        0x10000f36:    6028        (`      STR      r0,[r5,#0]
        0x10000f38:    6022        "`      STR      r2,[r4,#0]
        0x10000f3a:    e008        ..      B        0x10000f4e ; am_hal_tpiu_enable + 130
        0x10000f3c:    2005        .       MOVS     r0,#5
        0x10000f3e:    60e8        .`      STR      r0,[r5,#0xc]
        0x10000f40:    2002        .       MOVS     r0,#2
        0x10000f42:    f8c500ec    ....    STR      r0,[r5,#0xec]
        0x10000f46:    2000        .       MOVS     r0,#0
        0x10000f48:    6020         `      STR      r0,[r4,#0]
        0x10000f4a:    f2402101    @..!    MOV      r1,#0x201
        0x10000f4e:    f2402050    @.P     MOVW     r0,#0x250
        0x10000f52:    f2c40002    ....    MOVT     r0,#0x4002
        0x10000f56:    6001        .`      STR      r1,[r0,#0]
        0x10000f58:    f44f7048    O.Hp    MOV      r0,#0x320
        0x10000f5c:    f7fffbfe    ....    BL       am_hal_flash_delay ; 0x1000075c
        0x10000f60:    b004        ..      ADD      sp,sp,#0x10
        0x10000f62:    bd70        p.      POP      {r4-r6,pc}
    am_hal_triple_read
        0x10000f64:    b510        ..      PUSH     {r4,lr}
        0x10000f66:    468c        .F      MOV      r12,r1
        0x10000f68:    4686        .F      MOV      lr,r0
        0x10000f6a:    b412        ..      PUSH     {r1,r4}
        0x10000f6c:    f3ef8410    ....    MRS      r4,PRIMASK
        0x10000f70:    b672        r.      CPSID    i
        0x10000f72:    bf00        ..      NOP      
        0x10000f74:    6801        .h      LDR      r1,[r0,#0]
        0x10000f76:    6802        .h      LDR      r2,[r0,#0]
        0x10000f78:    6803        .h      LDR      r3,[r0,#0]
        0x10000f7a:    f3848810    ....    MSR      PRIMASK,r4
        0x10000f7e:    bc11        ..      POP      {r0,r4}
        0x10000f80:    6001        .`      STR      r1,[r0,#0]
        0x10000f82:    6042        B`      STR      r2,[r0,#4]
        0x10000f84:    6083        .`      STR      r3,[r0,#8]
        0x10000f86:    bd10        ..      POP      {r4,pc}
    am_hal_uart_deinitialize
        0x10000f88:    b180        ..      CBZ      r0,0x10000fac ; am_hal_uart_deinitialize + 36
        0x10000f8a:    4601        .F      MOV      r1,r0
        0x10000f8c:    6800        .h      LDR      r0,[r0,#0]
        0x10000f8e:    f6496306    I..c    MOV      r3,#0x9e06
        0x10000f92:    f020427e     .~B    BIC      r2,r0,#0xfe000000
        0x10000f96:    f2c013ea    ....    MOVT     r3,#0x1ea
        0x10000f9a:    429a        .B      CMP      r2,r3
        0x10000f9c:    d106        ..      BNE      0x10000fac ; am_hal_uart_deinitialize + 36
        0x10000f9e:    f0207080     ..p    BIC      r0,r0,#0x1000000
        0x10000fa2:    6008        .`      STR      r0,[r1,#0]
        0x10000fa4:    2000        .       MOVS     r0,#0
        0x10000fa6:    6248        Hb      STR      r0,[r1,#0x24]
        0x10000fa8:    7108        .q      STRB     r0,[r1,#4]
        0x10000faa:    4770        pG      BX       lr
        0x10000fac:    2002        .       MOVS     r0,#2
        0x10000fae:    4770        pG      BX       lr
    am_hal_uart_power_control
        0x10000fb0:    e92d41f0    -..A    PUSH     {r4-r8,lr}
        0x10000fb4:    b082        ..      SUB      sp,sp,#8
        0x10000fb6:    4604        .F      MOV      r4,r0
        0x10000fb8:    6800        .h      LDR      r0,[r0,#0]
        0x10000fba:    f6496706    I..g    MOV      r7,#0x9e06
        0x10000fbe:    f2c017ea    ....    MOVT     r7,#0x1ea
        0x10000fc2:    f020437e     .~C    BIC      r3,r0,#0xfe000000
        0x10000fc6:    42bb        .B      CMP      r3,r7
        0x10000fc8:    d138        8.      BNE      0x1000103c ; am_hal_uart_power_control + 140
        0x10000fca:    6a65        ej      LDR      r5,[r4,#0x24]
        0x10000fcc:    1e4b        K.      SUBS     r3,r1,#1
        0x10000fce:    2b02        .+      CMP      r3,#2
        0x10000fd0:    f1050608    ....    ADD      r6,r5,#8
        0x10000fd4:    d238        8.      BCS      0x10001048 ; am_hal_uart_power_control + 152
        0x10000fd6:    f24c0800    L...    MOVW     r8,#0xc000
        0x10000fda:    f2c40801    ....    MOVT     r8,#0x4001
        0x10000fde:    b1c2        ..      CBZ      r2,0x10001012 ; am_hal_uart_power_control + 98
        0x10000fe0:    f7fffd26    ..&.    BL       am_hal_interrupt_master_disable ; 0x10000a30
        0x10000fe4:    9000        ..      STR      r0,[sp,#0]
        0x10000fe6:    eb083005    ...0    ADD      r0,r8,r5,LSL #12
        0x10000fea:    6a01        .j      LDR      r1,[r0,#0x20]
        0x10000fec:    60a1        .`      STR      r1,[r4,#8]
        0x10000fee:    6a41        Aj      LDR      r1,[r0,#0x24]
        0x10000ff0:    60e1        .`      STR      r1,[r4,#0xc]
        0x10000ff2:    6a81        .j      LDR      r1,[r0,#0x28]
        0x10000ff4:    6121        !a      STR      r1,[r4,#0x10]
        0x10000ff6:    6ac1        .j      LDR      r1,[r0,#0x2c]
        0x10000ff8:    6161        aa      STR      r1,[r4,#0x14]
        0x10000ffa:    6b01        .k      LDR      r1,[r0,#0x30]
        0x10000ffc:    61a1        .a      STR      r1,[r4,#0x18]
        0x10000ffe:    6b41        Ak      LDR      r1,[r0,#0x34]
        0x10001000:    61e1        .a      STR      r1,[r4,#0x1c]
        0x10001002:    6b80        .k      LDR      r0,[r0,#0x38]
        0x10001004:    6220         b      STR      r0,[r4,#0x20]
        0x10001006:    2001        .       MOVS     r0,#1
        0x10001008:    7120         q      STRB     r0,[r4,#4]
        0x1000100a:    9800        ..      LDR      r0,[sp,#0]
        0x1000100c:    f7fffd14    ....    BL       am_hal_interrupt_master_set ; 0x10000a38
        0x10001010:    6820         h      LDR      r0,[r4,#0]
        0x10001012:    f020407e     .~@    BIC      r0,r0,#0xfe000000
        0x10001016:    42b8        .B      CMP      r0,r7
        0x10001018:    d105        ..      BNE      0x10001026 ; am_hal_uart_power_control + 118
        0x1000101a:    6a60        `j      LDR      r0,[r4,#0x24]
        0x1000101c:    f04f31ff    O..1    MOV      r1,#0xffffffff
        0x10001020:    eb083000    ...0    ADD      r0,r8,r0,LSL #12
        0x10001024:    6441        Ad      STR      r1,[r0,#0x44]
        0x10001026:    eb083005    ...0    ADD      r0,r8,r5,LSL #12
        0x1000102a:    2500        .%      MOVS     r5,#0
        0x1000102c:    6305        .c      STR      r5,[r0,#0x30]
        0x1000102e:    b2f0        ..      UXTB     r0,r6
        0x10001030:    f7fffeca    ....    BL       am_hal_pwrctrl_periph_disable ; 0x10000dc8
        0x10001034:    4628        (F      MOV      r0,r5
        0x10001036:    b002        ..      ADD      sp,sp,#8
        0x10001038:    e8bd81f0    ....    POP      {r4-r8,pc}
        0x1000103c:    2502        .%      MOVS     r5,#2
        0x1000103e:    4628        (F      MOV      r0,r5
        0x10001040:    b002        ..      ADD      sp,sp,#8
        0x10001042:    e8bd81f0    ....    POP      {r4-r8,pc}
        0x10001046:    bf00        ..      NOP      
        0x10001048:    bb31        1.      CBNZ     r1,0x10001098 ; am_hal_uart_power_control + 232
        0x1000104a:    b35a        Z.      CBZ      r2,0x100010a4 ; am_hal_uart_power_control + 244
        0x1000104c:    7920         y      LDRB     r0,[r4,#4]
        0x1000104e:    b388        ..      CBZ      r0,0x100010b4 ; am_hal_uart_power_control + 260
        0x10001050:    b2f0        ..      UXTB     r0,r6
        0x10001052:    f7fffeff    ....    BL       am_hal_pwrctrl_periph_enable ; 0x10000e54
        0x10001056:    f7fffceb    ....    BL       am_hal_interrupt_master_disable ; 0x10000a30
        0x1000105a:    9001        ..      STR      r0,[sp,#4]
        0x1000105c:    f24c0100    L...    MOVW     r1,#0xc000
        0x10001060:    68a0        .h      LDR      r0,[r4,#8]
        0x10001062:    f2c40101    ....    MOVT     r1,#0x4001
        0x10001066:    eb013105    ...1    ADD      r1,r1,r5,LSL #12
        0x1000106a:    6208        .b      STR      r0,[r1,#0x20]
        0x1000106c:    68e0        .h      LDR      r0,[r4,#0xc]
        0x1000106e:    2500        .%      MOVS     r5,#0
        0x10001070:    6248        Hb      STR      r0,[r1,#0x24]
        0x10001072:    6920         i      LDR      r0,[r4,#0x10]
        0x10001074:    6288        .b      STR      r0,[r1,#0x28]
        0x10001076:    6960        `i      LDR      r0,[r4,#0x14]
        0x10001078:    62c8        .b      STR      r0,[r1,#0x2c]
        0x1000107a:    69a0        .i      LDR      r0,[r4,#0x18]
        0x1000107c:    6308        .c      STR      r0,[r1,#0x30]
        0x1000107e:    69e0        .i      LDR      r0,[r4,#0x1c]
        0x10001080:    6348        Hc      STR      r0,[r1,#0x34]
        0x10001082:    6a20         j      LDR      r0,[r4,#0x20]
        0x10001084:    6388        .c      STR      r0,[r1,#0x38]
        0x10001086:    7125        %q      STRB     r5,[r4,#4]
        0x10001088:    9801        ..      LDR      r0,[sp,#4]
        0x1000108a:    f7fffcd5    ....    BL       am_hal_interrupt_master_set ; 0x10000a38
        0x1000108e:    4628        (F      MOV      r0,r5
        0x10001090:    b002        ..      ADD      sp,sp,#8
        0x10001092:    e8bd81f0    ....    POP      {r4-r8,pc}
        0x10001096:    bf00        ..      NOP      
        0x10001098:    2506        .%      MOVS     r5,#6
        0x1000109a:    4628        (F      MOV      r0,r5
        0x1000109c:    b002        ..      ADD      sp,sp,#8
        0x1000109e:    e8bd81f0    ....    POP      {r4-r8,pc}
        0x100010a2:    bf00        ..      NOP      
        0x100010a4:    b2f0        ..      UXTB     r0,r6
        0x100010a6:    f7fffed5    ....    BL       am_hal_pwrctrl_periph_enable ; 0x10000e54
        0x100010aa:    2500        .%      MOVS     r5,#0
        0x100010ac:    4628        (F      MOV      r0,r5
        0x100010ae:    b002        ..      ADD      sp,sp,#8
        0x100010b0:    e8bd81f0    ....    POP      {r4-r8,pc}
        0x100010b4:    2507        .%      MOVS     r5,#7
        0x100010b6:    4628        (F      MOV      r0,r5
        0x100010b8:    b002        ..      ADD      sp,sp,#8
        0x100010ba:    e8bd81f0    ....    POP      {r4-r8,pc}
        0x100010be:    0000        ..      MOVS     r0,r0
    am_hal_uart_tx_flush
        0x100010c0:    b570        p.      PUSH     {r4-r6,lr}
        0x100010c2:    4604        .F      MOV      r4,r0
        0x100010c4:    f890005d    ..].    LDRB     r0,[r0,#0x5d]
        0x100010c8:    6a65        ej      LDR      r5,[r4,#0x24]
        0x100010ca:    b170        p.      CBZ      r0,0x100010ea ; am_hal_uart_tx_flush + 42
        0x100010cc:    6b20         k      LDR      r0,[r4,#0x30]
        0x100010ce:    b160        `.      CBZ      r0,0x100010ea ; am_hal_uart_tx_flush + 42
        0x100010d0:    f6413600    A..6    MOVW     r6,#0x1b00
        0x100010d4:    f2c006b7    ....    MOVT     r6,#0xb7
        0x100010d8:    6da0        .m      LDR      r0,[r4,#0x58]
        0x100010da:    fbb6f0f0    ....    UDIV     r0,r6,r0
        0x100010de:    0100        ..      LSLS     r0,r0,#4
        0x100010e0:    f7fffb3c    ..<.    BL       am_hal_flash_delay ; 0x1000075c
        0x100010e4:    6b20         k      LDR      r0,[r4,#0x30]
        0x100010e6:    2800        .(      CMP      r0,#0
        0x100010e8:    d1f6        ..      BNE      0x100010d8 ; am_hal_uart_tx_flush + 24
        0x100010ea:    f24c0000    L...    MOVW     r0,#0xc000
        0x100010ee:    f2c40001    ....    MOVT     r0,#0x4001
        0x100010f2:    eb003505    ...5    ADD      r5,r0,r5,LSL #12
        0x100010f6:    69a8        .i      LDR      r0,[r5,#0x18]
        0x100010f8:    0700        ..      LSLS     r0,r0,#28
        0x100010fa:    d50c        ..      BPL      0x10001116 ; am_hal_uart_tx_flush + 86
        0x100010fc:    f6413600    A..6    MOVW     r6,#0x1b00
        0x10001100:    f2c006b7    ....    MOVT     r6,#0xb7
        0x10001104:    6da0        .m      LDR      r0,[r4,#0x58]
        0x10001106:    fbb6f0f0    ....    UDIV     r0,r6,r0
        0x1000110a:    0100        ..      LSLS     r0,r0,#4
        0x1000110c:    f7fffb26    ..&.    BL       am_hal_flash_delay ; 0x1000075c
        0x10001110:    69a8        .i      LDR      r0,[r5,#0x18]
        0x10001112:    0700        ..      LSLS     r0,r0,#28
        0x10001114:    d4f6        ..      BMI      0x10001104 ; am_hal_uart_tx_flush + 68
        0x10001116:    2000        .       MOVS     r0,#0
        0x10001118:    bd70        p.      POP      {r4-r6,pc}
        0x1000111a:    0000        ..      MOVS     r0,r0
    am_util_stdio_printf
        0x1000111c:    b083        ..      SUB      sp,sp,#0xc
        0x1000111e:    b5b0        ..      PUSH     {r4,r5,r7,lr}
        0x10001120:    b081        ..      SUB      sp,sp,#4
        0x10001122:    f10d0c14    ....    ADD      r12,sp,#0x14
        0x10001126:    f24904a4    I...    MOV      r4,#0x90a4
        0x1000112a:    e88c000e    ....    STM      r12,{r1-r3}
        0x1000112e:    f2c10400    ....    MOVT     r4,#0x1000
        0x10001132:    6821        !h      LDR      r1,[r4,#0]
        0x10001134:    b171        q.      CBZ      r1,0x10001154 ; am_util_stdio_printf + 56
        0x10001136:    f24905a8    I...    MOV      r5,#0x90a8
        0x1000113a:    f2c10500    ....    MOVT     r5,#0x1000
        0x1000113e:    4601        .F      MOV      r1,r0
        0x10001140:    aa05        ..      ADD      r2,sp,#0x14
        0x10001142:    4628        (F      MOV      r0,r5
        0x10001144:    9200        ..      STR      r2,[sp,#0]
        0x10001146:    f000f821    ..!.    BL       am_util_stdio_vsprintf ; 0x1000118c
        0x1000114a:    6821        !h      LDR      r1,[r4,#0]
        0x1000114c:    4604        .F      MOV      r4,r0
        0x1000114e:    4628        (F      MOV      r0,r5
        0x10001150:    4788        .G      BLX      r1
        0x10001152:    e000        ..      B        0x10001156 ; am_util_stdio_printf + 58
        0x10001154:    2400        .$      MOVS     r4,#0
        0x10001156:    4620         F      MOV      r0,r4
        0x10001158:    b001        ..      ADD      sp,sp,#4
        0x1000115a:    e8bd40b0    ...@    POP      {r4,r5,r7,lr}
        0x1000115e:    b003        ..      ADD      sp,sp,#0xc
        0x10001160:    4770        pG      BX       lr
        0x10001162:    0000        ..      MOVS     r0,r0
    am_util_stdio_printf_init
        0x10001164:    f24901a4    I...    MOV      r1,#0x90a4
        0x10001168:    f2c10100    ....    MOVT     r1,#0x1000
        0x1000116c:    6008        .`      STR      r0,[r1,#0]
        0x1000116e:    4770        pG      BX       lr
    am_util_stdio_terminal_clear
        0x10001170:    a001        ..      ADR      r0,{pc}+8 ; 0x10001178
        0x10001172:    f7ffbfd3    ....    B.W      am_util_stdio_printf ; 0x1000111c
        0x10001176:    bf00        ..      NOP      
    $d.12
        0x10001178:    0a0a0a0a    ....    DCD    168430090
        0x1000117c:    0a0a0a0a    ....    DCD    168430090
        0x10001180:    0a0a0a0a    ....    DCD    168430090
        0x10001184:    0a0a0a0a    ....    DCD    168430090
        0x10001188:    00000a0a    ....    DCD    2570
    $t.3
    am_util_stdio_vsprintf
        0x1000118c:    e92d4ff0    -..O    PUSH     {r4-r11,lr}
        0x10001190:    b08d        ..      SUB      sp,sp,#0x34
        0x10001192:    4681        .F      MOV      r9,r0
        0x10001194:    f10d001b    ....    ADD      r0,sp,#0x1b
        0x10001198:    f24905a0    I...    MOV      r5,#0x90a0
        0x1000119c:    4692        .F      MOV      r10,r2
        0x1000119e:    f1a00e02    ....    SUB      lr,r0,#2
        0x100011a2:    f2c10500    ....    MOVT     r5,#0x1000
        0x100011a6:    f04f0c0d    O...    MOV      r12,#0xd
        0x100011aa:    f04f0b00    O...    MOV      r11,#0
        0x100011ae:    e003        ..      B        0x100011b8 ; am_util_stdio_vsprintf + 44
        0x100011b0:    f04f0900    O...    MOV      r9,#0
        0x100011b4:    f10b0b01    ....    ADD      r11,r11,#1
        0x100011b8:    3101        .1      ADDS     r1,#1
        0x100011ba:    f8110c01    ....    LDRB     r0,[r1,#-1]
        0x100011be:    2800        .(      CMP      r0,#0
        0x100011c0:    f00180a4    ....    BEQ.W    0x1000230c ; am_util_stdio_vsprintf + 4480
        0x100011c4:    2825        %(      CMP      r0,#0x25
        0x100011c6:    d011        ..      BEQ      0x100011ec ; am_util_stdio_vsprintf + 96
        0x100011c8:    f1b90f00    ....    CMP      r9,#0
        0x100011cc:    d0f0        ..      BEQ      0x100011b0 ; am_util_stdio_vsprintf + 36
        0x100011ce:    280a        .(      CMP      r0,#0xa
        0x100011d0:    d107        ..      BNE      0x100011e2 ; am_util_stdio_vsprintf + 86
        0x100011d2:    782b        +x      LDRB     r3,[r5,#0]
        0x100011d4:    b12b        +.      CBZ      r3,0x100011e2 ; am_util_stdio_vsprintf + 86
        0x100011d6:    f809cb01    ....    STRB     r12,[r9],#1
        0x100011da:    f8110c01    ....    LDRB     r0,[r1,#-1]
        0x100011de:    f10b0b01    ....    ADD      r11,r11,#1
        0x100011e2:    f8090b01    ....    STRB     r0,[r9],#1
        0x100011e6:    f10b0b01    ....    ADD      r11,r11,#1
        0x100011ea:    e7e5        ..      B        0x100011b8 ; am_util_stdio_vsprintf + 44
        0x100011ec:    4608        .F      MOV      r0,r1
        0x100011ee:    f810cb01    ....    LDRB     r12,[r0],#1
        0x100011f2:    f8cde00c    ....    STR      lr,[sp,#0xc]
        0x100011f6:    f1bc0f30    ..0.    CMP      r12,#0x30
        0x100011fa:    bf18        ..      IT       NE
        0x100011fc:    4608        .F      MOVNE    r0,r1
        0x100011fe:    7801        .x      LDRB     r1,[r0,#0]
        0x10001200:    46e6        .F      MOV      lr,r12
        0x10001202:    f1a1032d    ..-.    SUB      r3,r1,#0x2d
        0x10001206:    fab3f383    ....    CLZ      r3,r3
        0x1000120a:    ea4f1353    O.S.    LSR      r3,r3,#5
        0x1000120e:    5cc6        .\      LDRB     r6,[r0,r3]
        0x10001210:    bf18        ..      IT       NE
        0x10001212:    f04f0e20    O. .    MOVNE    lr,#0x20
        0x10001216:    f1a60430    ..0.    SUB      r4,r6,#0x30
        0x1000121a:    2c09        .,      CMP      r4,#9
        0x1000121c:    d834        4.      BHI      0x10001288 ; am_util_stdio_vsprintf + 252
        0x1000121e:    3302        .3      ADDS     r3,#2
        0x10001220:    2400        .$      MOVS     r4,#0
        0x10001222:    bf00        ..      NOP      
        0x10001224:    18c7        ..      ADDS     r7,r0,r3
        0x10001226:    f8175c01    ...\    LDRB     r5,[r7,#-1]
        0x1000122a:    eb040484    ....    ADD      r4,r4,r4,LSL #2
        0x1000122e:    eb060444    ..D.    ADD      r4,r6,r4,LSL #1
        0x10001232:    f1a50630    ..0.    SUB      r6,r5,#0x30
        0x10001236:    2e09        ..      CMP      r6,#9
        0x10001238:    f1a40430    ..0.    SUB      r4,r4,#0x30
        0x1000123c:    d826        &.      BHI      0x1000128c ; am_util_stdio_vsprintf + 256
        0x1000123e:    5cc6        .\      LDRB     r6,[r0,r3]
        0x10001240:    eb040484    ....    ADD      r4,r4,r4,LSL #2
        0x10001244:    eb050444    ..D.    ADD      r4,r5,r4,LSL #1
        0x10001248:    f1a60530    ..0.    SUB      r5,r6,#0x30
        0x1000124c:    2d09        .-      CMP      r5,#9
        0x1000124e:    f1a40430    ..0.    SUB      r4,r4,#0x30
        0x10001252:    d81e        ..      BHI      0x10001292 ; am_util_stdio_vsprintf + 262
        0x10001254:    787d        }x      LDRB     r5,[r7,#1]
        0x10001256:    eb040484    ....    ADD      r4,r4,r4,LSL #2
        0x1000125a:    eb060444    ..D.    ADD      r4,r6,r4,LSL #1
        0x1000125e:    f1a50630    ..0.    SUB      r6,r5,#0x30
        0x10001262:    2e09        ..      CMP      r6,#9
        0x10001264:    f1a40430    ..0.    SUB      r4,r4,#0x30
        0x10001268:    d812        ..      BHI      0x10001290 ; am_util_stdio_vsprintf + 260
        0x1000126a:    78be        .x      LDRB     r6,[r7,#2]
        0x1000126c:    eb040484    ....    ADD      r4,r4,r4,LSL #2
        0x10001270:    eb050444    ..D.    ADD      r4,r5,r4,LSL #1
        0x10001274:    f1a60530    ..0.    SUB      r5,r6,#0x30
        0x10001278:    3c30        0<      SUBS     r4,r4,#0x30
        0x1000127a:    2d0a        .-      CMP      r5,#0xa
        0x1000127c:    f1030304    ....    ADD      r3,r3,#4
        0x10001280:    d3d0        ..      BCC      0x10001224 ; am_util_stdio_vsprintf + 152
        0x10001282:    3b02        .;      SUBS     r3,#2
        0x10001284:    e005        ..      B        0x10001292 ; am_util_stdio_vsprintf + 262
        0x10001286:    bf00        ..      NOP      
        0x10001288:    2400        .$      MOVS     r4,#0
        0x1000128a:    e003        ..      B        0x10001294 ; am_util_stdio_vsprintf + 264
        0x1000128c:    3b01        .;      SUBS     r3,#1
        0x1000128e:    e000        ..      B        0x10001292 ; am_util_stdio_vsprintf + 262
        0x10001290:    3301        .3      ADDS     r3,#1
        0x10001292:    5cc6        .\      LDRB     r6,[r0,r3]
        0x10001294:    292d        -)      CMP      r1,#0x2d
        0x10001296:    bf08        ..      IT       EQ
        0x10001298:    4264        dB      RSBEQ    r4,r4,#0
        0x1000129a:    2c00        .,      CMP      r4,#0
        0x1000129c:    46a0        .F      MOV      r8,r4
        0x1000129e:    bf48        H.      IT       MI
        0x100012a0:    f1c80800    ....    RSBMI    r8,r8,#0
        0x100012a4:    2e73        s.      CMP      r6,#0x73
        0x100012a6:    bf08        ..      IT       EQ
        0x100012a8:    46a0        .F      MOVEQ    r8,r4
        0x100012aa:    2e2e        ..      CMP      r6,#0x2e
        0x100012ac:    eb000203    ....    ADD      r2,r0,r3
        0x100012b0:    f8cda014    ....    STR      r10,[sp,#0x14]
        0x100012b4:    d142        B.      BNE      0x1000133c ; am_util_stdio_vsprintf + 432
        0x100012b6:    4610        .F      MOV      r0,r2
        0x100012b8:    f8104f01    ...O    LDRB     r4,[r0,#1]!
        0x100012bc:    f1a4012d    ..-.    SUB      r1,r4,#0x2d
        0x100012c0:    fab1f181    ....    CLZ      r1,r1
        0x100012c4:    094b        K.      LSRS     r3,r1,#5
        0x100012c6:    5cc6        .\      LDRB     r6,[r0,r3]
        0x100012c8:    f1a60130    ..0.    SUB      r1,r6,#0x30
        0x100012cc:    2909        .)      CMP      r1,#9
        0x100012ce:    d843        C.      BHI      0x10001358 ; am_util_stdio_vsprintf + 460
        0x100012d0:    3302        .3      ADDS     r3,#2
        0x100012d2:    f04f0a00    O...    MOV      r10,#0
        0x100012d6:    bf00        ..      NOP      
        0x100012d8:    5cd5        .\      LDRB     r5,[r2,r3]
        0x100012da:    eb0a018a    ....    ADD      r1,r10,r10,LSL #2
        0x100012de:    eb060141    ..A.    ADD      r1,r6,r1,LSL #1
        0x100012e2:    f1a50630    ..0.    SUB      r6,r5,#0x30
        0x100012e6:    2e09        ..      CMP      r6,#9
        0x100012e8:    f1a10a30    ..0.    SUB      r10,r1,#0x30
        0x100012ec:    d838        8.      BHI      0x10001360 ; am_util_stdio_vsprintf + 468
        0x100012ee:    18d1        ..      ADDS     r1,r2,r3
        0x100012f0:    784e        Nx      LDRB     r6,[r1,#1]
        0x100012f2:    eb0a078a    ....    ADD      r7,r10,r10,LSL #2
        0x100012f6:    eb050547    ..G.    ADD      r5,r5,r7,LSL #1
        0x100012fa:    f1a60730    ..0.    SUB      r7,r6,#0x30
        0x100012fe:    2f09        ./      CMP      r7,#9
        0x10001300:    f1a50a30    ..0.    SUB      r10,r5,#0x30
        0x10001304:    d82f        /.      BHI      0x10001366 ; am_util_stdio_vsprintf + 474
        0x10001306:    788d        .x      LDRB     r5,[r1,#2]
        0x10001308:    eb0a078a    ....    ADD      r7,r10,r10,LSL #2
        0x1000130c:    eb060647    ..G.    ADD      r6,r6,r7,LSL #1
        0x10001310:    f1a50730    ..0.    SUB      r7,r5,#0x30
        0x10001314:    2f09        ./      CMP      r7,#9
        0x10001316:    f1a60a30    ..0.    SUB      r10,r6,#0x30
        0x1000131a:    d823        #.      BHI      0x10001364 ; am_util_stdio_vsprintf + 472
        0x1000131c:    eb0a068a    ....    ADD      r6,r10,r10,LSL #2
        0x10001320:    eb050546    ..F.    ADD      r5,r5,r6,LSL #1
        0x10001324:    78ce        .x      LDRB     r6,[r1,#3]
        0x10001326:    f1a50a30    ..0.    SUB      r10,r5,#0x30
        0x1000132a:    f1a60130    ..0.    SUB      r1,r6,#0x30
        0x1000132e:    290a        .)      CMP      r1,#0xa
        0x10001330:    f1030304    ....    ADD      r3,r3,#4
        0x10001334:    d3d0        ..      BCC      0x100012d8 ; am_util_stdio_vsprintf + 332
        0x10001336:    3b02        .;      SUBS     r3,#2
        0x10001338:    e015        ..      B        0x10001366 ; am_util_stdio_vsprintf + 474
        0x1000133a:    bf00        ..      NOP      
        0x1000133c:    f04f0a06    O...    MOV      r10,#6
        0x10001340:    2e6c        l.      CMP      r6,#0x6c
        0x10001342:    f8cdc004    ....    STR      r12,[sp,#4]
        0x10001346:    d018        ..      BEQ      0x1000137a ; am_util_stdio_vsprintf + 494
        0x10001348:    9204        ..      STR      r2,[sp,#0x10]
        0x1000134a:    2000        .       MOVS     r0,#0
        0x1000134c:    f1a60146    ..F.    SUB      r1,r6,#0x46
        0x10001350:    2932        2)      CMP      r1,#0x32
        0x10001352:    d924        $.      BLS      0x1000139e ; am_util_stdio_vsprintf + 530
        0x10001354:    e096        ..      B        0x10001484 ; am_util_stdio_vsprintf + 760
        0x10001356:    bf00        ..      NOP      
        0x10001358:    f04f0a00    O...    MOV      r10,#0
        0x1000135c:    e004        ..      B        0x10001368 ; am_util_stdio_vsprintf + 476
        0x1000135e:    bf00        ..      NOP      
        0x10001360:    3b01        .;      SUBS     r3,#1
        0x10001362:    e000        ..      B        0x10001366 ; am_util_stdio_vsprintf + 474
        0x10001364:    3301        .3      ADDS     r3,#1
        0x10001366:    5cc6        .\      LDRB     r6,[r0,r3]
        0x10001368:    18c2        ..      ADDS     r2,r0,r3
        0x1000136a:    2c2d        -,      CMP      r4,#0x2d
        0x1000136c:    bf08        ..      IT       EQ
        0x1000136e:    f1ca0a00    ....    RSBEQ    r10,r10,#0
        0x10001372:    2e6c        l.      CMP      r6,#0x6c
        0x10001374:    f8cdc004    ....    STR      r12,[sp,#4]
        0x10001378:    d1e6        ..      BNE      0x10001348 ; am_util_stdio_vsprintf + 444
        0x1000137a:    4611        .F      MOV      r1,r2
        0x1000137c:    f8110f01    ....    LDRB     r0,[r1,#1]!
        0x10001380:    2301        .#      MOVS     r3,#1
        0x10001382:    386c        l8      SUBS     r0,r0,#0x6c
        0x10001384:    fab0f080    ....    CLZ      r0,r0
        0x10001388:    bf04        ..      ITT      EQ
        0x1000138a:    2302        .#      MOVEQ    r3,#2
        0x1000138c:    1c91        ..      ADDEQ    r1,r2,#2
        0x1000138e:    5cd6        .\      LDRB     r6,[r2,r3]
        0x10001390:    0940        @.      LSRS     r0,r0,#5
        0x10001392:    9104        ..      STR      r1,[sp,#0x10]
        0x10001394:    f1a60146    ..F.    SUB      r1,r6,#0x46
        0x10001398:    2932        2)      CMP      r1,#0x32
        0x1000139a:    f2008073    ..s.    BHI.W    0x10001484 ; am_util_stdio_vsprintf + 760
        0x1000139e:    f04f0c07    O...    MOV      r12,#7
        0x100013a2:    4675        uF      MOV      r5,lr
        0x100013a4:    e8dff011    ....    TBH      [pc,r1,LSL #1]
    $d.4
        0x100013a8:    006e0034    4.n.    DCD    7209012
        0x100013ac:    006e006e    n.n.    DCD    7209070
        0x100013b0:    006e006e    n.n.    DCD    7209070
        0x100013b4:    006e006e    n.n.    DCD    7209070
        0x100013b8:    006e006e    n.n.    DCD    7209070
        0x100013bc:    006e006e    n.n.    DCD    7209070
        0x100013c0:    006e006e    n.n.    DCD    7209070
        0x100013c4:    006e006e    n.n.    DCD    7209070
        0x100013c8:    006e006e    n.n.    DCD    7209070
        0x100013cc:    006e0132    2.n.    DCD    7209266
        0x100013d0:    006e006e    n.n.    DCD    7209070
        0x100013d4:    006e006e    n.n.    DCD    7209070
        0x100013d8:    006e006e    n.n.    DCD    7209070
        0x100013dc:    006e006e    n.n.    DCD    7209070
        0x100013e0:    0080006e    n...    DCD    8388718
        0x100013e4:    006e005e    ^.n.    DCD    7209054
        0x100013e8:    006e0034    4.n.    DCD    7209012
        0x100013ec:    005e006e    n.^.    DCD    6160494
        0x100013f0:    006e006e    n.n.    DCD    7209070
        0x100013f4:    006e006e    n.n.    DCD    7209070
        0x100013f8:    006e006e    n.n.    DCD    7209070
        0x100013fc:    006e006e    n.n.    DCD    7209070
        0x10001400:    0090006e    n...    DCD    9437294
        0x10001404:    00b8006e    n...    DCD    12058734
        0x10001408:    006e006e    n.n.    DCD    7209070
        0x1000140c:    bf000130    0...    DCD    3204448560
    $t.5
        0x10001410:    f1b90f00    ....    CMP      r9,#0
        0x10001414:    f00081f0    ....    BEQ.W    0x100017f8 ; am_util_stdio_vsprintf + 1644
        0x10001418:    9805        ..      LDR      r0,[sp,#0x14]
        0x1000141a:    3007        .0      ADDS     r0,#7
        0x1000141c:    f0200607     ...    BIC      r6,r0,#7
        0x10001420:    ed960b00    ....    VLDR     d0,[r6,#0]
        0x10001424:    ec510b10    Q...    VMOV     r0,r1,d0
        0x10001428:    f003fc96    ....    BL       __aeabi_d2f ; 0x10004d58
        0x1000142c:    ee000a10    ....    VMOV     s0,r0
        0x10001430:    eeb50a40    ..@.    VCMP.F32 s0,#0.0
        0x10001434:    f64f75f8    O..u    MOV      r5,#0xfff8
        0x10001438:    eef1fa10    ....    VMRS     APSR_nzcv,FPSCR
        0x1000143c:    f04f0114    O...    MOV      r1,#0x14
        0x10001440:    f10d041b    ....    ADD      r4,sp,#0x1b
        0x10001444:    f2c005ff    ....    MOVT     r5,#0xff
        0x10001448:    f04f08f6    O...    MOV      r8,#0xf6
        0x1000144c:    f8c91000    ....    STR      r1,[r9,#0]
        0x10001450:    f04081f8    @...    BNE.W    0x10001844 ; am_util_stdio_vsprintf + 1720
        0x10001454:    f6426130    B.0a    MOV      r1,#0x2e30
        0x10001458:    f8dde00c    ....    LDR      lr,[sp,#0xc]
        0x1000145c:    f2c00130    ..0.    MOVT     r1,#0x30
        0x10001460:    f000bf42    ..B.    B.W      0x100022e8 ; am_util_stdio_vsprintf + 4444
        0x10001464:    2800        .(      CMP      r0,#0
        0x10001466:    f8cdb008    ....    STR      r11,[sp,#8]
        0x1000146a:    f0008105    ....    BEQ.W    0x10001678 ; am_util_stdio_vsprintf + 1260
        0x1000146e:    9805        ..      LDR      r0,[sp,#0x14]
        0x10001470:    3007        .0      ADDS     r0,#7
        0x10001472:    f0200107     ...    BIC      r1,r0,#7
        0x10001476:    4608        .F      MOV      r0,r1
        0x10001478:    f8d1c004    ....    LDR      r12,[r1,#4]
        0x1000147c:    f8501b08    P...    LDR      r1,[r0],#8
        0x10001480:    e0ff        ..      B        0x10001682 ; am_util_stdio_vsprintf + 1270
        0x10001482:    bf00        ..      NOP      
        0x10001484:    f1b90f00    ....    CMP      r9,#0
        0x10001488:    bf14        ..      ITE      NE
        0x1000148a:    f8096b01    ...k    STRBNE   r6,[r9],#1
        0x1000148e:    f04f0900    O...    MOVEQ    r9,#0
        0x10001492:    f8dde00c    ....    LDR      lr,[sp,#0xc]
        0x10001496:    f24905a0    I...    MOV      r5,#0x90a0
        0x1000149a:    f2c10500    ....    MOVT     r5,#0x1000
        0x1000149e:    f04f0c0d    O...    MOV      r12,#0xd
        0x100014a2:    f10b0b01    ....    ADD      r11,r11,#1
        0x100014a6:    e1b1        ..      B        0x1000180c ; am_util_stdio_vsprintf + 1664
        0x100014a8:    f1b90f00    ....    CMP      r9,#0
        0x100014ac:    f00081f0    ....    BEQ.W    0x10001890 ; am_util_stdio_vsprintf + 1796
        0x100014b0:    f8dda014    ....    LDR      r10,[sp,#0x14]
        0x100014b4:    f8dde00c    ....    LDR      lr,[sp,#0xc]
        0x100014b8:    f8da0000    ....    LDR      r0,[r10,#0]
        0x100014bc:    f24905a0    I...    MOV      r5,#0x90a0
        0x100014c0:    f8090b01    ....    STRB     r0,[r9],#1
        0x100014c4:    e1ec        ..      B        0x100018a0 ; am_util_stdio_vsprintf + 1812
        0x100014c6:    bf00        ..      NOP      
        0x100014c8:    f8dda014    ....    LDR      r10,[sp,#0x14]
        0x100014cc:    f85a7b04    Z..{    LDR      r7,[r10],#4
        0x100014d0:    2f00        ./      CMP      r7,#0
        0x100014d2:    f00081ef    ....    BEQ.W    0x100018b4 ; am_util_stdio_vsprintf + 1832
        0x100014d6:    7838        8x      LDRB     r0,[r7,#0]
        0x100014d8:    f24905a0    I...    MOV      r5,#0x90a0
        0x100014dc:    2800        .(      CMP      r0,#0
        0x100014de:    f2c10500    ....    MOVT     r5,#0x1000
        0x100014e2:    f04f0c0d    O...    MOV      r12,#0xd
        0x100014e6:    f0008207    ....    BEQ.W    0x100018f8 ; am_util_stdio_vsprintf + 1900
        0x100014ea:    2302        .#      MOVS     r3,#2
        0x100014ec:    18f8        ..      ADDS     r0,r7,r3
        0x100014ee:    f8101c01    ....    LDRB     r1,[r0,#-1]
        0x100014f2:    2900        .)      CMP      r1,#0
        0x100014f4:    f0008400    ....    BEQ.W    0x10001cf8 ; am_util_stdio_vsprintf + 2924
        0x100014f8:    5cf9        .\      LDRB     r1,[r7,r3]
        0x100014fa:    2900        .)      CMP      r1,#0
        0x100014fc:    f00083ff    ....    BEQ.W    0x10001cfe ; am_util_stdio_vsprintf + 2930
        0x10001500:    7841        Ax      LDRB     r1,[r0,#1]
        0x10001502:    2900        .)      CMP      r1,#0
        0x10001504:    f00083fa    ....    BEQ.W    0x10001cfc ; am_util_stdio_vsprintf + 2928
        0x10001508:    7880        .x      LDRB     r0,[r0,#2]
        0x1000150a:    3304        .3      ADDS     r3,#4
        0x1000150c:    2800        .(      CMP      r0,#0
        0x1000150e:    d1ed        ..      BNE      0x100014ec ; am_util_stdio_vsprintf + 864
        0x10001510:    3b02        .;      SUBS     r3,#2
        0x10001512:    f000bbf4    ....    B.W      0x10001cfe ; am_util_stdio_vsprintf + 2930
        0x10001516:    bf00        ..      NOP      
        0x10001518:    2800        .(      CMP      r0,#0
        0x1000151a:    f8cdb008    ....    STR      r11,[sp,#8]
        0x1000151e:    f0008183    ....    BEQ.W    0x10001828 ; am_util_stdio_vsprintf + 1692
        0x10001522:    9805        ..      LDR      r0,[sp,#0x14]
        0x10001524:    3007        .0      ADDS     r0,#7
        0x10001526:    f0200a07     ...    BIC      r10,r0,#7
        0x1000152a:    f8dac004    ....    LDR      r12,[r10,#4]
        0x1000152e:    f85abb08    Z...    LDR      r11,[r10],#8
        0x10001532:    f1b80f00    ....    CMP      r8,#0
        0x10001536:    f0008181    ....    BEQ.W    0x1000183c ; am_util_stdio_vsprintf + 1712
        0x1000153a:    ea5b000c    [...    ORRS     r0,r11,r12
        0x1000153e:    f8cda014    ....    STR      r10,[sp,#0x14]
        0x10001542:    f00081db    ....    BEQ.W    0x100018fc ; am_util_stdio_vsprintf + 1904
        0x10001546:    f04f0a00    O...    MOV      r10,#0
        0x1000154a:    4658        XF      MOV      r0,r11
        0x1000154c:    4661        aF      MOV      r1,r12
        0x1000154e:    e018        ..      B        0x10001582 ; am_util_stdio_vsprintf + 1014
        0x10001550:    0841        A.      LSRS     r1,r0,#1
        0x10001552:    eb010190    ....    ADD      r1,r1,r0,LSR #2
        0x10001556:    eb011111    ....    ADD      r1,r1,r1,LSR #4
        0x1000155a:    eb012111    ...!    ADD      r1,r1,r1,LSR #8
        0x1000155e:    eb014111    ...A    ADD      r1,r1,r1,LSR #16
        0x10001562:    08ca        ..      LSRS     r2,r1,#3
        0x10001564:    eb020282    ....    ADD      r2,r2,r2,LSL #2
        0x10001568:    eba00042    ..B.    SUB      r0,r0,r2,LSL #1
        0x1000156c:    3006        .0      ADDS     r0,#6
        0x1000156e:    0900        ..      LSRS     r0,r0,#4
        0x10001570:    eb0000d1    ....    ADD      r0,r0,r1,LSR #3
        0x10001574:    2100        .!      MOVS     r1,#0
        0x10001576:    ea500201    P...    ORRS     r2,r0,r1
        0x1000157a:    f10a0a01    ....    ADD      r10,r10,#1
        0x1000157e:    f00081bf    ....    BEQ.W    0x10001900 ; am_util_stdio_vsprintf + 1908
        0x10001582:    2900        .)      CMP      r1,#0
        0x10001584:    d0e4        ..      BEQ      0x10001550 ; am_util_stdio_vsprintf + 964
        0x10001586:    ea5f0251    _.Q.    LSRS.W   r2,r1,#1
        0x1000158a:    ea4f0490    O...    LSR      r4,r0,#2
        0x1000158e:    ea4f0330    O.0.    RRX      r3,r0
        0x10001592:    ea447481    D..t    ORR      r4,r4,r1,LSL #30
        0x10001596:    191b        ..      ADDS     r3,r3,r4
        0x10001598:    eb420291    B...    ADC      r2,r2,r1,LSR #2
        0x1000159c:    091c        ..      LSRS     r4,r3,#4
        0x1000159e:    ea447402    D..t    ORR      r4,r4,r2,LSL #28
        0x100015a2:    0916        ..      LSRS     r6,r2,#4
        0x100015a4:    191b        ..      ADDS     r3,r3,r4
        0x100015a6:    4172        rA      ADCS     r2,r2,r6
        0x100015a8:    0a1e        ..      LSRS     r6,r3,#8
        0x100015aa:    ea466602    F..f    ORR      r6,r6,r2,LSL #24
        0x100015ae:    0a14        ..      LSRS     r4,r2,#8
        0x100015b0:    199b        ..      ADDS     r3,r3,r6
        0x100015b2:    4162        bA      ADCS     r2,r2,r4
        0x100015b4:    0c1e        ..      LSRS     r6,r3,#16
        0x100015b6:    ea464602    F..F    ORR      r6,r6,r2,LSL #16
        0x100015ba:    0c14        ..      LSRS     r4,r2,#16
        0x100015bc:    199b        ..      ADDS     r3,r3,r6
        0x100015be:    4162        bA      ADCS     r2,r2,r4
        0x100015c0:    189b        ..      ADDS     r3,r3,r2
        0x100015c2:    f1420200    B...    ADC      r2,r2,#0
        0x100015c6:    08db        ..      LSRS     r3,r3,#3
        0x100015c8:    ea437342    C.Bs    ORR      r3,r3,r2,LSL #29
        0x100015cc:    f06f0e09    o...    MVN      lr,#9
        0x100015d0:    fba3640e    ...d    UMULL    r6,r4,r3,lr
        0x100015d4:    f04f37ff    O..7    MOV      r7,#0xffffffff
        0x100015d8:    fb034407    ...D    MLA      r4,r3,r7,r4
        0x100015dc:    08d7        ..      LSRS     r7,r2,#3
        0x100015de:    fb07440e    ...D    MLA      r4,r7,lr,r4
        0x100015e2:    1980        ..      ADDS     r0,r0,r6
        0x100015e4:    4161        aA      ADCS     r1,r1,r4
        0x100015e6:    3006        .0      ADDS     r0,#6
        0x100015e8:    f1410100    A...    ADC      r1,r1,#0
        0x100015ec:    0900        ..      LSRS     r0,r0,#4
        0x100015ee:    ea407001    @..p    ORR      r0,r0,r1,LSL #28
        0x100015f2:    090c        ..      LSRS     r4,r1,#4
        0x100015f4:    18c0        ..      ADDS     r0,r0,r3
        0x100015f6:    46ae        .F      MOV      lr,r5
        0x100015f8:    eb4401d2    D...    ADC      r1,r4,r2,LSR #3
        0x100015fc:    ea500201    P...    ORRS     r2,r0,r1
        0x10001600:    f10a0a01    ....    ADD      r10,r10,#1
        0x10001604:    d1bd        ..      BNE      0x10001582 ; am_util_stdio_vsprintf + 1014
        0x10001606:    e17b        {.      B        0x10001900 ; am_util_stdio_vsprintf + 1908
        0x10001608:    f04f0c27    O.'.    MOV      r12,#0x27
        0x1000160c:    2800        .(      CMP      r0,#0
        0x1000160e:    f00080dd    ....    BEQ.W    0x100017cc ; am_util_stdio_vsprintf + 1600
        0x10001612:    9805        ..      LDR      r0,[sp,#0x14]
        0x10001614:    3007        .0      ADDS     r0,#7
        0x10001616:    f0200a07     ...    BIC      r10,r0,#7
        0x1000161a:    f8da6004    ...`    LDR      r6,[r10,#4]
        0x1000161e:    f85a7b08    Z..{    LDR      r7,[r10],#8
        0x10001622:    2130        0!      MOVS     r1,#0x30
        0x10001624:    f1b80f00    ....    CMP      r8,#0
        0x10001628:    f00080da    ....    BEQ.W    0x100017e0 ; am_util_stdio_vsprintf + 1620
        0x1000162c:    ea570006    W...    ORRS     r0,r7,r6
        0x10001630:    f000812c    ..,.    BEQ.W    0x1000188c ; am_util_stdio_vsprintf + 1792
        0x10001634:    2003        .       MOVS     r0,#3
        0x10001636:    4639        9F      MOV      r1,r7
        0x10001638:    4633        3F      MOV      r3,r6
        0x1000163a:    bf00        ..      NOP      
        0x1000163c:    f1b10410    ....    SUBS     r4,r1,#0x10
        0x10001640:    f1730400    s...    SBCS     r4,r3,#0
        0x10001644:    f0c08174    ..t.    BCC.W    0x10001930 ; am_util_stdio_vsprintf + 1956
        0x10001648:    f5b17480    ...t    SUBS     r4,r1,#0x100
        0x1000164c:    f1730400    s...    SBCS     r4,r3,#0
        0x10001650:    f0c08170    ..p.    BCC.W    0x10001934 ; am_util_stdio_vsprintf + 1960
        0x10001654:    f5b15480    ...T    SUBS     r4,r1,#0x1000
        0x10001658:    f1730400    s...    SBCS     r4,r3,#0
        0x1000165c:    f0c0816b    ..k.    BCC.W    0x10001936 ; am_util_stdio_vsprintf + 1962
        0x10001660:    0c09        ..      LSRS     r1,r1,#16
        0x10001662:    ea414103    A..A    ORR      r1,r1,r3,LSL #16
        0x10001666:    ea414413    A..D    ORR      r4,r1,r3,LSR #16
        0x1000166a:    0c1b        ..      LSRS     r3,r3,#16
        0x1000166c:    3004        .0      ADDS     r0,#4
        0x1000166e:    2c00        .,      CMP      r4,#0
        0x10001670:    d1e4        ..      BNE      0x1000163c ; am_util_stdio_vsprintf + 1200
        0x10001672:    3803        .8      SUBS     r0,#3
        0x10001674:    e15f        _.      B        0x10001936 ; am_util_stdio_vsprintf + 1962
        0x10001676:    bf00        ..      NOP      
        0x10001678:    9805        ..      LDR      r0,[sp,#0x14]
        0x1000167a:    f8501b04    P...    LDR      r1,[r0],#4
        0x1000167e:    ea4f7ce1    O..|    ASR      r12,r1,#31
        0x10001682:    9005        ..      STR      r0,[sp,#0x14]
        0x10001684:    ea8173ec    ...s    EOR      r3,r1,r12,ASR #31
        0x10001688:    ea8c77ec    ...w    EOR      r7,r12,r12,ASR #31
        0x1000168c:    ebb37bec    ...{    SUBS     r11,r3,r12,ASR #31
        0x10001690:    eb677aec    g..z    SBC      r10,r7,r12,ASR #31
        0x10001694:    f1b80f00    ....    CMP      r8,#0
        0x10001698:    f00080bc    ....    BEQ.W    0x10001814 ; am_util_stdio_vsprintf + 1672
        0x1000169c:    ea51010c    Q...    ORRS     r1,r1,r12
        0x100016a0:    4659        YF      MOV      r1,r11
        0x100016a2:    4656        VF      MOV      r6,r10
        0x100016a4:    d122        ".      BNE      0x100016ec ; am_util_stdio_vsprintf + 1376
        0x100016a6:    f1a80801    ....    SUB      r8,r8,#1
        0x100016aa:    f04f0c00    O...    MOV      r12,#0
        0x100016ae:    f1b80f01    ....    CMP      r8,#1
        0x100016b2:    da77        w.      BGE      0x100017a4 ; am_util_stdio_vsprintf + 1560
        0x100016b4:    f04f0800    O...    MOV      r8,#0
        0x100016b8:    e186        ..      B        0x100019c8 ; am_util_stdio_vsprintf + 2108
        0x100016ba:    bf00        ..      NOP      
        0x100016bc:    0848        H.      LSRS     r0,r1,#1
        0x100016be:    eb000091    ....    ADD      r0,r0,r1,LSR #2
        0x100016c2:    eb001010    ....    ADD      r0,r0,r0,LSR #4
        0x100016c6:    eb002010    ...     ADD      r0,r0,r0,LSR #8
        0x100016ca:    eb004010    ...@    ADD      r0,r0,r0,LSR #16
        0x100016ce:    08c2        ..      LSRS     r2,r0,#3
        0x100016d0:    eb020282    ....    ADD      r2,r2,r2,LSL #2
        0x100016d4:    eba10142    ..B.    SUB      r1,r1,r2,LSL #1
        0x100016d8:    3106        .1      ADDS     r1,#6
        0x100016da:    0909        ..      LSRS     r1,r1,#4
        0x100016dc:    eb0101d0    ....    ADD      r1,r1,r0,LSR #3
        0x100016e0:    2600        .&      MOVS     r6,#0
        0x100016e2:    ea510006    Q...    ORRS     r0,r1,r6
        0x100016e6:    f1a80801    ....    SUB      r8,r8,#1
        0x100016ea:    d042        B.      BEQ      0x10001772 ; am_util_stdio_vsprintf + 1510
        0x100016ec:    2e00        ..      CMP      r6,#0
        0x100016ee:    d0e5        ..      BEQ      0x100016bc ; am_util_stdio_vsprintf + 1328
        0x100016f0:    ea5f0356    _.V.    LSRS.W   r3,r6,#1
        0x100016f4:    ea4f0291    O...    LSR      r2,r1,#2
        0x100016f8:    ea4f0731    O.1.    RRX      r7,r1
        0x100016fc:    ea427286    B..r    ORR      r2,r2,r6,LSL #30
        0x10001700:    19d2        ..      ADDS     r2,r2,r7
        0x10001702:    eb430396    C...    ADC      r3,r3,r6,LSR #2
        0x10001706:    0917        ..      LSRS     r7,r2,#4
        0x10001708:    ea477703    G..w    ORR      r7,r7,r3,LSL #28
        0x1000170c:    0918        ..      LSRS     r0,r3,#4
        0x1000170e:    19d2        ..      ADDS     r2,r2,r7
        0x10001710:    4158        XA      ADCS     r0,r0,r3
        0x10001712:    0a13        ..      LSRS     r3,r2,#8
        0x10001714:    ea436300    C..c    ORR      r3,r3,r0,LSL #24
        0x10001718:    0a07        ..      LSRS     r7,r0,#8
        0x1000171a:    18d2        ..      ADDS     r2,r2,r3
        0x1000171c:    4178        xA      ADCS     r0,r0,r7
        0x1000171e:    0c13        ..      LSRS     r3,r2,#16
        0x10001720:    ea434300    C..C    ORR      r3,r3,r0,LSL #16
        0x10001724:    0c07        ..      LSRS     r7,r0,#16
        0x10001726:    18d2        ..      ADDS     r2,r2,r3
        0x10001728:    4178        xA      ADCS     r0,r0,r7
        0x1000172a:    1812        ..      ADDS     r2,r2,r0
        0x1000172c:    f1400000    @...    ADC      r0,r0,#0
        0x10001730:    08d2        ..      LSRS     r2,r2,#3
        0x10001732:    ea427240    B.@r    ORR      r2,r2,r0,LSL #29
        0x10001736:    f06f0e09    o...    MVN      lr,#9
        0x1000173a:    fba2370e    ...7    UMULL    r3,r7,r2,lr
        0x1000173e:    f04f34ff    O..4    MOV      r4,#0xffffffff
        0x10001742:    fb027704    ...w    MLA      r7,r2,r4,r7
        0x10001746:    08c4        ..      LSRS     r4,r0,#3
        0x10001748:    fb04740e    ...t    MLA      r4,r4,lr,r7
        0x1000174c:    18c9        ..      ADDS     r1,r1,r3
        0x1000174e:    eb460304    F...    ADC      r3,r6,r4
        0x10001752:    3106        .1      ADDS     r1,#6
        0x10001754:    f1430300    C...    ADC      r3,r3,#0
        0x10001758:    0909        ..      LSRS     r1,r1,#4
        0x1000175a:    ea417103    A..q    ORR      r1,r1,r3,LSL #28
        0x1000175e:    091c        ..      LSRS     r4,r3,#4
        0x10001760:    1889        ..      ADDS     r1,r1,r2
        0x10001762:    46ae        .F      MOV      lr,r5
        0x10001764:    eb4406d0    D...    ADC      r6,r4,r0,LSR #3
        0x10001768:    ea510006    Q...    ORRS     r0,r1,r6
        0x1000176c:    f1a80801    ....    SUB      r8,r8,#1
        0x10001770:    d1bc        ..      BNE      0x100016ec ; am_util_stdio_vsprintf + 1376
        0x10001772:    f1bc3fff    ...?    CMP      r12,#0xffffffff
        0x10001776:    dc10        ..      BGT      0x1000179a ; am_util_stdio_vsprintf + 1550
        0x10001778:    9801        ..      LDR      r0,[sp,#4]
        0x1000177a:    f1a80801    ....    SUB      r8,r8,#1
        0x1000177e:    2830        0(      CMP      r0,#0x30
        0x10001780:    f04080fa    @...    BNE.W    0x10001978 ; am_util_stdio_vsprintf + 2028
        0x10001784:    f1b90f00    ....    CMP      r9,#0
        0x10001788:    bf1a        ..      ITTE     NE
        0x1000178a:    202d        -       MOVNE    r0,#0x2d
        0x1000178c:    f8090b01    ....    STRBNE   r0,[r9],#1
        0x10001790:    f04f0900    O...    MOVEQ    r9,#0
        0x10001794:    9802        ..      LDR      r0,[sp,#8]
        0x10001796:    3001        .0      ADDS     r0,#1
        0x10001798:    9002        ..      STR      r0,[sp,#8]
        0x1000179a:    f04f0c00    O...    MOV      r12,#0
        0x1000179e:    f1b80f01    ....    CMP      r8,#1
        0x100017a2:    db87        ..      BLT      0x100016b4 ; am_util_stdio_vsprintf + 1320
        0x100017a4:    f1a80601    ....    SUB      r6,r8,#1
        0x100017a8:    f0180703    ....    ANDS     r7,r8,#3
        0x100017ac:    4641        AF      MOV      r1,r8
        0x100017ae:    4648        HF      MOV      r0,r9
        0x100017b0:    f00080f1    ....    BEQ.W    0x10001996 ; am_util_stdio_vsprintf + 2058
        0x100017b4:    f1b90f00    ....    CMP      r9,#0
        0x100017b8:    bf1a        ..      ITTE     NE
        0x100017ba:    4648        HF      MOVNE    r0,r9
        0x100017bc:    f800eb01    ....    STRBNE   lr,[r0],#1
        0x100017c0:    2000        .       MOVEQ    r0,#0
        0x100017c2:    2f01        ./      CMP      r7,#1
        0x100017c4:    f040808e    @...    BNE.W    0x100018e4 ; am_util_stdio_vsprintf + 1880
        0x100017c8:    4631        1F      MOV      r1,r6
        0x100017ca:    e0e4        ..      B        0x10001996 ; am_util_stdio_vsprintf + 2058
        0x100017cc:    f8dda014    ....    LDR      r10,[sp,#0x14]
        0x100017d0:    2600        .&      MOVS     r6,#0
        0x100017d2:    f85a7b04    Z..{    LDR      r7,[r10],#4
        0x100017d6:    2130        0!      MOVS     r1,#0x30
        0x100017d8:    f1b80f00    ....    CMP      r8,#0
        0x100017dc:    f47faf26    ..&.    BNE      0x1000162c ; am_util_stdio_vsprintf + 1184
        0x100017e0:    f10d081b    ....    ADD      r8,sp,#0x1b
        0x100017e4:    f8dde00c    ....    LDR      lr,[sp,#0xc]
        0x100017e8:    ea570006    W...    ORRS     r0,r7,r6
        0x100017ec:    f04081f7    @...    BNE.W    0x10001bde ; am_util_stdio_vsprintf + 2642
        0x100017f0:    f88d101b    ....    STRB     r1,[sp,#0x1b]
        0x100017f4:    2001        .       MOVS     r0,#1
        0x100017f6:    e238        8.      B        0x10001c6a ; am_util_stdio_vsprintf + 2782
        0x100017f8:    f8dde00c    ....    LDR      lr,[sp,#0xc]
        0x100017fc:    f24905a0    I...    MOV      r5,#0x90a0
        0x10001800:    f04f0900    O...    MOV      r9,#0
        0x10001804:    f2c10500    ....    MOVT     r5,#0x1000
        0x10001808:    f04f0c0d    O...    MOV      r12,#0xd
        0x1000180c:    f8dda014    ....    LDR      r10,[sp,#0x14]
        0x10001810:    f000bd77    ..w.    B.W      0x10002302 ; am_util_stdio_vsprintf + 4470
        0x10001814:    f1bc3fff    ...?    CMP      r12,#0xffffffff
        0x10001818:    dd54        T.      BLE      0x100018c4 ; am_util_stdio_vsprintf + 1848
        0x1000181a:    f8dde00c    ....    LDR      lr,[sp,#0xc]
        0x1000181e:    f10d041b    ....    ADD      r4,sp,#0x1b
        0x10001822:    f04f0cf6    O...    MOV      r12,#0xf6
        0x10001826:    e0f4        ..      B        0x10001a12 ; am_util_stdio_vsprintf + 2182
        0x10001828:    f8dda014    ....    LDR      r10,[sp,#0x14]
        0x1000182c:    f04f0c00    O...    MOV      r12,#0
        0x10001830:    f85abb04    Z...    LDR      r11,[r10],#4
        0x10001834:    f1b80f00    ....    CMP      r8,#0
        0x10001838:    f47fae7f    ....    BNE      0x1000153a ; am_util_stdio_vsprintf + 942
        0x1000183c:    f10d081b    ....    ADD      r8,sp,#0x1b
        0x10001840:    e2b7        ..      B        0x10001db2 ; am_util_stdio_vsprintf + 3110
        0x10001842:    bf00        ..      NOP      
        0x10001844:    f6426130    B.0a    MOV      r1,#0x2e30
        0x10001848:    f2c00130    ..0.    MOVT     r1,#0x30
        0x1000184c:    f3c052c7    ...R    UBFX     r2,r0,#23,#8
        0x10001850:    f1a11c0d    ....    SUB      r12,r1,#0xd000d
        0x10001854:    f8dde00c    ....    LDR      lr,[sp,#0xc]
        0x10001858:    2a9d        .*      CMP      r2,#0x9d
        0x1000185a:    4661        aF      MOV      r1,r12
        0x1000185c:    f2008544    ..D.    BHI.W    0x100022e8 ; am_util_stdio_vsprintf + 4444
        0x10001860:    f6426130    B.0a    MOV      r1,#0x2e30
        0x10001864:    2a68        h*      CMP      r2,#0x68
        0x10001866:    f2c00130    ..0.    MOVT     r1,#0x30
        0x1000186a:    f0c0853d    ..=.    BCC.W    0x100022e8 ; am_util_stdio_vsprintf + 4444
        0x1000186e:    4603        .F      MOV      r3,r0
        0x10001870:    2101        .!      MOVS     r1,#1
        0x10001872:    2a96        .*      CMP      r2,#0x96
        0x10001874:    f36153df    a..S    BFI      r3,r1,#23,#9
        0x10001878:    9605        ..      STR      r6,[sp,#0x14]
        0x1000187a:    f0c0834d    ..M.    BCC.W    0x10001f18 ; am_util_stdio_vsprintf + 3468
        0x1000187e:    f1a20196    ....    SUB      r1,r2,#0x96
        0x10001882:    fa03f701    ....    LSL      r7,r3,r1
        0x10001886:    2200        ."      MOVS     r2,#0
        0x10001888:    f000bc0d    ....    B.W      0x100020a6 ; am_util_stdio_vsprintf + 3866
        0x1000188c:    2001        .       MOVS     r0,#1
        0x1000188e:    e052        R.      B        0x10001936 ; am_util_stdio_vsprintf + 1962
        0x10001890:    f8dde00c    ....    LDR      lr,[sp,#0xc]
        0x10001894:    f24905a0    I...    MOV      r5,#0x90a0
        0x10001898:    f8dda014    ....    LDR      r10,[sp,#0x14]
        0x1000189c:    f04f0900    O...    MOV      r9,#0
        0x100018a0:    f2c10500    ....    MOVT     r5,#0x1000
        0x100018a4:    f04f0c0d    O...    MOV      r12,#0xd
        0x100018a8:    f10a0a04    ....    ADD      r10,r10,#4
        0x100018ac:    f10b0b01    ....    ADD      r11,r11,#1
        0x100018b0:    f000bd27    ..'.    B.W      0x10002302 ; am_util_stdio_vsprintf + 4470
        0x100018b4:    f24905a0    I...    MOV      r5,#0x90a0
        0x100018b8:    2300        .#      MOVS     r3,#0
        0x100018ba:    f2c10500    ....    MOVT     r5,#0x1000
        0x100018be:    f04f0c0d    O...    MOV      r12,#0xd
        0x100018c2:    e21c        ..      B        0x10001cfe ; am_util_stdio_vsprintf + 2930
        0x100018c4:    f8dde00c    ....    LDR      lr,[sp,#0xc]
        0x100018c8:    f10d041b    ....    ADD      r4,sp,#0x1b
        0x100018cc:    f04f0cf6    O...    MOV      r12,#0xf6
        0x100018d0:    f1b90f00    ....    CMP      r9,#0
        0x100018d4:    bf1a        ..      ITTE     NE
        0x100018d6:    202d        -       MOVNE    r0,#0x2d
        0x100018d8:    f8090b01    ....    STRBNE   r0,[r9],#1
        0x100018dc:    f04f0900    O...    MOVEQ    r9,#0
        0x100018e0:    e094        ..      B        0x10001a0c ; am_util_stdio_vsprintf + 2176
        0x100018e2:    bf00        ..      NOP      
        0x100018e4:    2800        .(      CMP      r0,#0
        0x100018e6:    bf14        ..      ITE      NE
        0x100018e8:    f800eb01    ....    STRBNE   lr,[r0],#1
        0x100018ec:    2000        .       MOVEQ    r0,#0
        0x100018ee:    2f02        ./      CMP      r7,#2
        0x100018f0:    d14a        J.      BNE      0x10001988 ; am_util_stdio_vsprintf + 2044
        0x100018f2:    f1a80102    ....    SUB      r1,r8,#2
        0x100018f6:    e04e        N.      B        0x10001996 ; am_util_stdio_vsprintf + 2058
        0x100018f8:    2300        .#      MOVS     r3,#0
        0x100018fa:    e200        ..      B        0x10001cfe ; am_util_stdio_vsprintf + 2930
        0x100018fc:    f04f0a01    O...    MOV      r10,#1
        0x10001900:    eba8020a    ....    SUB      r2,r8,r10
        0x10001904:    2a01        .*      CMP      r2,#1
        0x10001906:    db11        ..      BLT      0x1000192c ; am_util_stdio_vsprintf + 1952
        0x10001908:    f0120103    ....    ANDS     r1,r2,#3
        0x1000190c:    4614        .F      MOV      r4,r2
        0x1000190e:    4648        HF      MOV      r0,r9
        0x10001910:    f0008224    ..$.    BEQ.W    0x10001d5c ; am_util_stdio_vsprintf + 3024
        0x10001914:    f1b90f00    ....    CMP      r9,#0
        0x10001918:    bf1a        ..      ITTE     NE
        0x1000191a:    4648        HF      MOVNE    r0,r9
        0x1000191c:    f800eb01    ....    STRBNE   lr,[r0],#1
        0x10001920:    2000        .       MOVEQ    r0,#0
        0x10001922:    2901        .)      CMP      r1,#1
        0x10001924:    f040811e    @...    BNE.W    0x10001b64 ; am_util_stdio_vsprintf + 2520
        0x10001928:    1e54        T.      SUBS     r4,r2,#1
        0x1000192a:    e217        ..      B        0x10001d5c ; am_util_stdio_vsprintf + 3024
        0x1000192c:    2200        ."      MOVS     r2,#0
        0x1000192e:    e21a        ..      B        0x10001d66 ; am_util_stdio_vsprintf + 3034
        0x10001930:    3802        .8      SUBS     r0,#2
        0x10001932:    e000        ..      B        0x10001936 ; am_util_stdio_vsprintf + 1962
        0x10001934:    3801        .8      SUBS     r0,#1
        0x10001936:    eba80200    ....    SUB      r2,r8,r0
        0x1000193a:    2a01        .*      CMP      r2,#1
        0x1000193c:    db10        ..      BLT      0x10001960 ; am_util_stdio_vsprintf + 2004
        0x1000193e:    f0120103    ....    ANDS     r1,r2,#3
        0x10001942:    4613        .F      MOV      r3,r2
        0x10001944:    464c        LF      MOV      r4,r9
        0x10001946:    f000811d    ....    BEQ.W    0x10001b84 ; am_util_stdio_vsprintf + 2552
        0x1000194a:    f1b90f00    ....    CMP      r9,#0
        0x1000194e:    bf1a        ..      ITTE     NE
        0x10001950:    464c        LF      MOVNE    r4,r9
        0x10001952:    f804eb01    ....    STRBNE   lr,[r4],#1
        0x10001956:    2400        .$      MOVEQ    r4,#0
        0x10001958:    2901        .)      CMP      r1,#1
        0x1000195a:    d103        ..      BNE      0x10001964 ; am_util_stdio_vsprintf + 2008
        0x1000195c:    1e53        S.      SUBS     r3,r2,#1
        0x1000195e:    e111        ..      B        0x10001b84 ; am_util_stdio_vsprintf + 2552
        0x10001960:    2200        ."      MOVS     r2,#0
        0x10001962:    e113        ..      B        0x10001b8c ; am_util_stdio_vsprintf + 2560
        0x10001964:    2c00        .,      CMP      r4,#0
        0x10001966:    bf14        ..      ITE      NE
        0x10001968:    f804eb01    ....    STRBNE   lr,[r4],#1
        0x1000196c:    2400        .$      MOVEQ    r4,#0
        0x1000196e:    2902        .)      CMP      r1,#2
        0x10001970:    f0408102    @...    BNE.W    0x10001b78 ; am_util_stdio_vsprintf + 2540
        0x10001974:    1e93        ..      SUBS     r3,r2,#2
        0x10001976:    e105        ..      B        0x10001b84 ; am_util_stdio_vsprintf + 2552
        0x10001978:    f04f0c01    O...    MOV      r12,#1
        0x1000197c:    f1b80f01    ....    CMP      r8,#1
        0x10001980:    f6bfaf10    ....    BGE      0x100017a4 ; am_util_stdio_vsprintf + 1560
        0x10001984:    e696        ..      B        0x100016b4 ; am_util_stdio_vsprintf + 1320
        0x10001986:    bf00        ..      NOP      
        0x10001988:    f1a80103    ....    SUB      r1,r8,#3
        0x1000198c:    2800        .(      CMP      r0,#0
        0x1000198e:    bf14        ..      ITE      NE
        0x10001990:    f800eb01    ....    STRBNE   lr,[r0],#1
        0x10001994:    2000        .       MOVEQ    r0,#0
        0x10001996:    2e03        ..      CMP      r6,#3
        0x10001998:    d316        ..      BCC      0x100019c8 ; am_util_stdio_vsprintf + 2108
        0x1000199a:    bf00        ..      NOP      
        0x1000199c:    2800        .(      CMP      r0,#0
        0x1000199e:    bf14        ..      ITE      NE
        0x100019a0:    f800eb01    ....    STRBNE   lr,[r0],#1
        0x100019a4:    2000        .       MOVEQ    r0,#0
        0x100019a6:    2800        .(      CMP      r0,#0
        0x100019a8:    bf14        ..      ITE      NE
        0x100019aa:    f800eb01    ....    STRBNE   lr,[r0],#1
        0x100019ae:    2000        .       MOVEQ    r0,#0
        0x100019b0:    2800        .(      CMP      r0,#0
        0x100019b2:    bf14        ..      ITE      NE
        0x100019b4:    f800eb01    ....    STRBNE   lr,[r0],#1
        0x100019b8:    2000        .       MOVEQ    r0,#0
        0x100019ba:    2800        .(      CMP      r0,#0
        0x100019bc:    bf14        ..      ITE      NE
        0x100019be:    f800eb01    ....    STRBNE   lr,[r0],#1
        0x100019c2:    2000        .       MOVEQ    r0,#0
        0x100019c4:    3904        .9      SUBS     r1,#4
        0x100019c6:    d1e9        ..      BNE      0x1000199c ; am_util_stdio_vsprintf + 2064
        0x100019c8:    4648        HF      MOV      r0,r9
        0x100019ca:    f1b90f00    ....    CMP      r9,#0
        0x100019ce:    bf18        ..      IT       NE
        0x100019d0:    4440        @D      ADDNE    r0,r0,r8
        0x100019d2:    9902        ..      LDR      r1,[sp,#8]
        0x100019d4:    f8dde00c    ....    LDR      lr,[sp,#0xc]
        0x100019d8:    f1bc0f00    ....    CMP      r12,#0
        0x100019dc:    4441        AD      ADD      r1,r1,r8
        0x100019de:    9102        ..      STR      r1,[sp,#8]
        0x100019e0:    d00c        ..      BEQ      0x100019fc ; am_util_stdio_vsprintf + 2160
        0x100019e2:    f1b90f00    ....    CMP      r9,#0
        0x100019e6:    f10d041b    ....    ADD      r4,sp,#0x1b
        0x100019ea:    f04f0cf6    O...    MOV      r12,#0xf6
        0x100019ee:    d00b        ..      BEQ      0x10001a08 ; am_util_stdio_vsprintf + 2172
        0x100019f0:    212d        -!      MOVS     r1,#0x2d
        0x100019f2:    f8001b01    ....    STRB     r1,[r0],#1
        0x100019f6:    4681        .F      MOV      r9,r0
        0x100019f8:    e008        ..      B        0x10001a0c ; am_util_stdio_vsprintf + 2176
        0x100019fa:    bf00        ..      NOP      
        0x100019fc:    4681        .F      MOV      r9,r0
        0x100019fe:    f10d041b    ....    ADD      r4,sp,#0x1b
        0x10001a02:    f04f0cf6    O...    MOV      r12,#0xf6
        0x10001a06:    e004        ..      B        0x10001a12 ; am_util_stdio_vsprintf + 2182
        0x10001a08:    f04f0900    O...    MOV      r9,#0
        0x10001a0c:    9802        ..      LDR      r0,[sp,#8]
        0x10001a0e:    3001        .0      ADDS     r0,#1
        0x10001a10:    9002        ..      STR      r0,[sp,#8]
        0x10001a12:    2100        .!      MOVS     r1,#0
        0x10001a14:    e020         .      B        0x10001a58 ; am_util_stdio_vsprintf + 2252
        0x10001a16:    bf00        ..      NOP      
        0x10001a18:    ea4f005b    O.[.    LSR      r0,r11,#1
        0x10001a1c:    eb00009b    ....    ADD      r0,r0,r11,LSR #2
        0x10001a20:    eb001010    ....    ADD      r0,r0,r0,LSR #4
        0x10001a24:    eb002010    ...     ADD      r0,r0,r0,LSR #8
        0x10001a28:    eb004010    ...@    ADD      r0,r0,r0,LSR #16
        0x10001a2c:    08c2        ..      LSRS     r2,r0,#3
        0x10001a2e:    eb020282    ....    ADD      r2,r2,r2,LSL #2
        0x10001a32:    ebab0242    ..B.    SUB      r2,r11,r2,LSL #1
        0x10001a36:    3206        .2      ADDS     r2,#6
        0x10001a38:    0912        ..      LSRS     r2,r2,#4
        0x10001a3a:    eb0203d0    ....    ADD      r3,r2,r0,LSR #3
        0x10001a3e:    f04f0a00    O...    MOV      r10,#0
        0x10001a42:    fb03b00c    ....    MLA      r0,r3,r12,r11
        0x10001a46:    469b        .F      MOV      r11,r3
        0x10001a48:    f1000230    ..0.    ADD      r2,r0,#0x30
        0x10001a4c:    1c48        H.      ADDS     r0,r1,#1
        0x10001a4e:    5462        bT      STRB     r2,[r4,r1]
        0x10001a50:    ea53010a    S...    ORRS     r1,r3,r10
        0x10001a54:    4601        .F      MOV      r1,r0
        0x10001a56:    d03f        ?.      BEQ      0x10001ad8 ; am_util_stdio_vsprintf + 2380
        0x10001a58:    f1ba0f00    ....    CMP      r10,#0
        0x10001a5c:    d0dc        ..      BEQ      0x10001a18 ; am_util_stdio_vsprintf + 2188
        0x10001a5e:    ea5f005a    _.Z.    LSRS     r0,r10,#1
        0x10001a62:    ea4f039b    O...    LSR      r3,r11,#2
        0x10001a66:    ea4f023b    O.;.    RRX      r2,r11
        0x10001a6a:    ea43738a    C..s    ORR      r3,r3,r10,LSL #30
        0x10001a6e:    18d2        ..      ADDS     r2,r2,r3
        0x10001a70:    eb40009a    @...    ADC      r0,r0,r10,LSR #2
        0x10001a74:    0913        ..      LSRS     r3,r2,#4
        0x10001a76:    ea437300    C..s    ORR      r3,r3,r0,LSL #28
        0x10001a7a:    0907        ..      LSRS     r7,r0,#4
        0x10001a7c:    18d2        ..      ADDS     r2,r2,r3
        0x10001a7e:    4178        xA      ADCS     r0,r0,r7
        0x10001a80:    0a13        ..      LSRS     r3,r2,#8
        0x10001a82:    ea436300    C..c    ORR      r3,r3,r0,LSL #24
        0x10001a86:    0a07        ..      LSRS     r7,r0,#8
        0x10001a88:    18d2        ..      ADDS     r2,r2,r3
        0x10001a8a:    4178        xA      ADCS     r0,r0,r7
        0x10001a8c:    0c13        ..      LSRS     r3,r2,#16
        0x10001a8e:    ea434300    C..C    ORR      r3,r3,r0,LSL #16
        0x10001a92:    0c07        ..      LSRS     r7,r0,#16
        0x10001a94:    18d2        ..      ADDS     r2,r2,r3
        0x10001a96:    4178        xA      ADCS     r0,r0,r7
        0x10001a98:    1812        ..      ADDS     r2,r2,r0
        0x10001a9a:    f1400000    @...    ADC      r0,r0,#0
        0x10001a9e:    08d2        ..      LSRS     r2,r2,#3
        0x10001aa0:    ea427240    B.@r    ORR      r2,r2,r0,LSL #29
        0x10001aa4:    f06f0509    o...    MVN      r5,#9
        0x10001aa8:    fba23705    ...7    UMULL    r3,r7,r2,r5
        0x10001aac:    f04f36ff    O..6    MOV      r6,#0xffffffff
        0x10001ab0:    fb027706    ...w    MLA      r7,r2,r6,r7
        0x10001ab4:    08c6        ..      LSRS     r6,r0,#3
        0x10001ab6:    fb067705    ...w    MLA      r7,r6,r5,r7
        0x10001aba:    eb13030b    ....    ADDS     r3,r3,r11
        0x10001abe:    eb47070a    G...    ADC      r7,r7,r10
        0x10001ac2:    3306        .3      ADDS     r3,#6
        0x10001ac4:    f1470700    G...    ADC      r7,r7,#0
        0x10001ac8:    091b        ..      LSRS     r3,r3,#4
        0x10001aca:    ea437307    C..s    ORR      r3,r3,r7,LSL #28
        0x10001ace:    093e        >.      LSRS     r6,r7,#4
        0x10001ad0:    189b        ..      ADDS     r3,r3,r2
        0x10001ad2:    eb460ad0    F...    ADC      r10,r6,r0,LSR #3
        0x10001ad6:    e7b4        ..      B        0x10001a42 ; am_util_stdio_vsprintf + 2230
        0x10001ad8:    f8ddb008    ....    LDR      r11,[sp,#8]
        0x10001adc:    f24905a0    I...    MOV      r5,#0x90a0
        0x10001ae0:    f8dda014    ....    LDR      r10,[sp,#0x14]
        0x10001ae4:    f1b90f00    ....    CMP      r9,#0
        0x10001ae8:    f2c10500    ....    MOVT     r5,#0x1000
        0x10001aec:    f04f0c0d    O...    MOV      r12,#0xd
        0x10001af0:    f000820b    ....    BEQ.W    0x10001f0a ; am_util_stdio_vsprintf + 3454
        0x10001af4:    1e47        G.      SUBS     r7,r0,#1
        0x10001af6:    f0100603    ....    ANDS     r6,r0,#3
        0x10001afa:    4649        IF      MOV      r1,r9
        0x10001afc:    4603        .F      MOV      r3,r0
        0x10001afe:    d01a        ..      BEQ      0x10001b36 ; am_util_stdio_vsprintf + 2474
        0x10001b00:    4404        .D      ADD      r4,r4,r0
        0x10001b02:    f8142c01    ...,    LDRB     r2,[r4,#-1]
        0x10001b06:    4649        IF      MOV      r1,r9
        0x10001b08:    2e01        ..      CMP      r6,#1
        0x10001b0a:    f8012b01    ...+    STRB     r2,[r1],#1
        0x10001b0e:    d101        ..      BNE      0x10001b14 ; am_util_stdio_vsprintf + 2440
        0x10001b10:    463b        ;F      MOV      r3,r7
        0x10001b12:    e010        ..      B        0x10001b36 ; am_util_stdio_vsprintf + 2474
        0x10001b14:    f8141c02    ....    LDRB     r1,[r4,#-2]
        0x10001b18:    2e02        ..      CMP      r6,#2
        0x10001b1a:    f8891001    ....    STRB     r1,[r9,#1]
        0x10001b1e:    d103        ..      BNE      0x10001b28 ; am_util_stdio_vsprintf + 2460
        0x10001b20:    1e83        ..      SUBS     r3,r0,#2
        0x10001b22:    f1090102    ....    ADD      r1,r9,#2
        0x10001b26:    e006        ..      B        0x10001b36 ; am_util_stdio_vsprintf + 2474
        0x10001b28:    f8142c03    ...,    LDRB     r2,[r4,#-3]
        0x10001b2c:    1ec3        ..      SUBS     r3,r0,#3
        0x10001b2e:    f1090103    ....    ADD      r1,r9,#3
        0x10001b32:    f8892002    ...     STRB     r2,[r9,#2]
        0x10001b36:    2f03        ./      CMP      r7,#3
        0x10001b38:    f0c081e5    ....    BCC.W    0x10001f06 ; am_util_stdio_vsprintf + 3450
        0x10001b3c:    eb0e0203    ....    ADD      r2,lr,r3
        0x10001b40:    7857        Wx      LDRB     r7,[r2,#1]
        0x10001b42:    f8017b04    ...{    STRB     r7,[r1],#4
        0x10001b46:    f81e7003    ...p    LDRB     r7,[lr,r3]
        0x10001b4a:    3b04        .;      SUBS     r3,#4
        0x10001b4c:    f8017c03    ...|    STRB     r7,[r1,#-3]
        0x10001b50:    f8127c01    ...|    LDRB     r7,[r2,#-1]
        0x10001b54:    f8017c02    ...|    STRB     r7,[r1,#-2]
        0x10001b58:    f8122c02    ...,    LDRB     r2,[r2,#-2]
        0x10001b5c:    f8012c01    ...,    STRB     r2,[r1,#-1]
        0x10001b60:    d1ec        ..      BNE      0x10001b3c ; am_util_stdio_vsprintf + 2480
        0x10001b62:    e1d0        ..      B        0x10001f06 ; am_util_stdio_vsprintf + 3450
        0x10001b64:    2800        .(      CMP      r0,#0
        0x10001b66:    bf14        ..      ITE      NE
        0x10001b68:    f800eb01    ....    STRBNE   lr,[r0],#1
        0x10001b6c:    2000        .       MOVEQ    r0,#0
        0x10001b6e:    2902        .)      CMP      r1,#2
        0x10001b70:    f04080ee    @...    BNE.W    0x10001d50 ; am_util_stdio_vsprintf + 3012
        0x10001b74:    1e94        ..      SUBS     r4,r2,#2
        0x10001b76:    e0f1        ..      B        0x10001d5c ; am_util_stdio_vsprintf + 3024
        0x10001b78:    1ed3        ..      SUBS     r3,r2,#3
        0x10001b7a:    2c00        .,      CMP      r4,#0
        0x10001b7c:    bf14        ..      ITE      NE
        0x10001b7e:    f804eb01    ....    STRBNE   lr,[r4],#1
        0x10001b82:    2400        .$      MOVEQ    r4,#0
        0x10001b84:    43c0        .C      MVNS     r0,r0
        0x10001b86:    4440        @D      ADD      r0,r0,r8
        0x10001b88:    2803        .(      CMP      r0,#3
        0x10001b8a:    d203        ..      BCS      0x10001b94 ; am_util_stdio_vsprintf + 2568
        0x10001b8c:    f10d081b    ....    ADD      r8,sp,#0x1b
        0x10001b90:    2130        0!      MOVS     r1,#0x30
        0x10001b92:    e019        ..      B        0x10001bc8 ; am_util_stdio_vsprintf + 2620
        0x10001b94:    f10d081b    ....    ADD      r8,sp,#0x1b
        0x10001b98:    2130        0!      MOVS     r1,#0x30
        0x10001b9a:    bf00        ..      NOP      
        0x10001b9c:    2c00        .,      CMP      r4,#0
        0x10001b9e:    bf14        ..      ITE      NE
        0x10001ba0:    f804eb01    ....    STRBNE   lr,[r4],#1
        0x10001ba4:    2400        .$      MOVEQ    r4,#0
        0x10001ba6:    2c00        .,      CMP      r4,#0
        0x10001ba8:    bf14        ..      ITE      NE
        0x10001baa:    f804eb01    ....    STRBNE   lr,[r4],#1
        0x10001bae:    2400        .$      MOVEQ    r4,#0
        0x10001bb0:    2c00        .,      CMP      r4,#0
        0x10001bb2:    bf14        ..      ITE      NE
        0x10001bb4:    f804eb01    ....    STRBNE   lr,[r4],#1
        0x10001bb8:    2400        .$      MOVEQ    r4,#0
        0x10001bba:    2c00        .,      CMP      r4,#0
        0x10001bbc:    bf14        ..      ITE      NE
        0x10001bbe:    f804eb01    ....    STRBNE   lr,[r4],#1
        0x10001bc2:    2400        .$      MOVEQ    r4,#0
        0x10001bc4:    3b04        .;      SUBS     r3,#4
        0x10001bc6:    d1e9        ..      BNE      0x10001b9c ; am_util_stdio_vsprintf + 2576
        0x10001bc8:    4493        .D      ADD      r11,r11,r2
        0x10001bca:    f1b90f00    ....    CMP      r9,#0
        0x10001bce:    bf18        ..      IT       NE
        0x10001bd0:    4491        .D      ADDNE    r9,r9,r2
        0x10001bd2:    f8dde00c    ....    LDR      lr,[sp,#0xc]
        0x10001bd6:    ea570006    W...    ORRS     r0,r7,r6
        0x10001bda:    f43fae09    ?...    BEQ      0x100017f0 ; am_util_stdio_vsprintf + 1636
        0x10001bde:    2000        .       MOVS     r0,#0
        0x10001be0:    f007010f    ....    AND      r1,r7,#0xf
        0x10001be4:    2909        .)      CMP      r1,#9
        0x10001be6:    bf88        ..      IT       HI
        0x10001be8:    4461        aD      ADDHI    r1,r1,r12
        0x10001bea:    f1b70310    ....    SUBS     r3,r7,#0x10
        0x10001bee:    f1010130    ..0.    ADD      r1,r1,#0x30
        0x10001bf2:    f1760300    v...    SBCS     r3,r6,#0
        0x10001bf6:    f8081000    ....    STRB     r1,[r8,r0]
        0x10001bfa:    d331        1.      BCC      0x10001c60 ; am_util_stdio_vsprintf + 2772
        0x10001bfc:    b2f9        ..      UXTB     r1,r7
        0x10001bfe:    f3c71303    ....    UBFX     r3,r7,#4,#4
        0x10001c02:    299f        .)      CMP      r1,#0x9f
        0x10001c04:    bf88        ..      IT       HI
        0x10001c06:    4463        cD      ADDHI    r3,r3,r12
        0x10001c08:    0a39        9.      LSRS     r1,r7,#8
        0x10001c0a:    f1030430    ..0.    ADD      r4,r3,#0x30
        0x10001c0e:    ea416306    A..c    ORR      r3,r1,r6,LSL #24
        0x10001c12:    ea432116    C..!    ORR      r1,r3,r6,LSR #8
        0x10001c16:    2900        .)      CMP      r1,#0
        0x10001c18:    eb080100    ....    ADD      r1,r8,r0
        0x10001c1c:    704c        Lp      STRB     r4,[r1,#1]
        0x10001c1e:    d021        !.      BEQ      0x10001c64 ; am_util_stdio_vsprintf + 2776
        0x10001c20:    f003040f    ....    AND      r4,r3,#0xf
        0x10001c24:    0b3b        ;.      LSRS     r3,r7,#12
        0x10001c26:    ea435306    C..S    ORR      r3,r3,r6,LSL #20
        0x10001c2a:    2c09        .,      CMP      r4,#9
        0x10001c2c:    ea433516    C..5    ORR      r5,r3,r6,LSR #12
        0x10001c30:    bf88        ..      IT       HI
        0x10001c32:    4464        dD      ADDHI    r4,r4,r12
        0x10001c34:    f1040230    ..0.    ADD      r2,r4,#0x30
        0x10001c38:    708a        .p      STRB     r2,[r1,#2]
        0x10001c3a:    b1ad        ..      CBZ      r5,0x10001c68 ; am_util_stdio_vsprintf + 2780
        0x10001c3c:    f003020f    ....    AND      r2,r3,#0xf
        0x10001c40:    2a09        .*      CMP      r2,#9
        0x10001c42:    bf88        ..      IT       HI
        0x10001c44:    4462        bD      ADDHI    r2,r2,r12
        0x10001c46:    3230        02      ADDS     r2,r2,#0x30
        0x10001c48:    70ca        .p      STRB     r2,[r1,#3]
        0x10001c4a:    0c39        9.      LSRS     r1,r7,#16
        0x10001c4c:    ea414706    A..G    ORR      r7,r1,r6,LSL #16
        0x10001c50:    ea474116    G..A    ORR      r1,r7,r6,LSR #16
        0x10001c54:    3004        .0      ADDS     r0,#4
        0x10001c56:    0c36        6.      LSRS     r6,r6,#16
        0x10001c58:    2900        .)      CMP      r1,#0
        0x10001c5a:    d1c1        ..      BNE      0x10001be0 ; am_util_stdio_vsprintf + 2644
        0x10001c5c:    e005        ..      B        0x10001c6a ; am_util_stdio_vsprintf + 2782
        0x10001c5e:    bf00        ..      NOP      
        0x10001c60:    3001        .0      ADDS     r0,#1
        0x10001c62:    e002        ..      B        0x10001c6a ; am_util_stdio_vsprintf + 2782
        0x10001c64:    3002        .0      ADDS     r0,#2
        0x10001c66:    e000        ..      B        0x10001c6a ; am_util_stdio_vsprintf + 2782
        0x10001c68:    3003        .0      ADDS     r0,#3
        0x10001c6a:    f24905a0    I...    MOV      r5,#0x90a0
        0x10001c6e:    f1b90f00    ....    CMP      r9,#0
        0x10001c72:    f2c10500    ....    MOVT     r5,#0x1000
        0x10001c76:    f04f0c0d    O...    MOV      r12,#0xd
        0x10001c7a:    d036        6.      BEQ      0x10001cea ; am_util_stdio_vsprintf + 2910
        0x10001c7c:    1e43        C.      SUBS     r3,r0,#1
        0x10001c7e:    f0100603    ....    ANDS     r6,r0,#3
        0x10001c82:    4601        .F      MOV      r1,r0
        0x10001c84:    464f        OF      MOV      r7,r9
        0x10001c86:    d01a        ..      BEQ      0x10001cbe ; am_util_stdio_vsprintf + 2866
        0x10001c88:    f8181003    ....    LDRB     r1,[r8,r3]
        0x10001c8c:    464f        OF      MOV      r7,r9
        0x10001c8e:    2e01        ..      CMP      r6,#1
        0x10001c90:    f8071b01    ....    STRB     r1,[r7],#1
        0x10001c94:    d102        ..      BNE      0x10001c9c ; am_util_stdio_vsprintf + 2832
        0x10001c96:    4619        .F      MOV      r1,r3
        0x10001c98:    e011        ..      B        0x10001cbe ; am_util_stdio_vsprintf + 2866
        0x10001c9a:    bf00        ..      NOP      
        0x10001c9c:    1e81        ..      SUBS     r1,r0,#2
        0x10001c9e:    f8182001    ...     LDRB     r2,[r8,r1]
        0x10001ca2:    2e02        ..      CMP      r6,#2
        0x10001ca4:    f8892001    ...     STRB     r2,[r9,#1]
        0x10001ca8:    d102        ..      BNE      0x10001cb0 ; am_util_stdio_vsprintf + 2852
        0x10001caa:    f1090702    ....    ADD      r7,r9,#2
        0x10001cae:    e006        ..      B        0x10001cbe ; am_util_stdio_vsprintf + 2866
        0x10001cb0:    1ec1        ..      SUBS     r1,r0,#3
        0x10001cb2:    f8182001    ...     LDRB     r2,[r8,r1]
        0x10001cb6:    f1090703    ....    ADD      r7,r9,#3
        0x10001cba:    f8892002    ...     STRB     r2,[r9,#2]
        0x10001cbe:    2b03        .+      CMP      r3,#3
        0x10001cc0:    d311        ..      BCC      0x10001ce6 ; am_util_stdio_vsprintf + 2906
        0x10001cc2:    1f3b        ;.      SUBS     r3,r7,#4
        0x10001cc4:    eb0e0201    ....    ADD      r2,lr,r1
        0x10001cc8:    7857        Wx      LDRB     r7,[r2,#1]
        0x10001cca:    f8037f04    ....    STRB     r7,[r3,#4]!
        0x10001cce:    f81e7001    ...p    LDRB     r7,[lr,r1]
        0x10001cd2:    3904        .9      SUBS     r1,#4
        0x10001cd4:    705f        _p      STRB     r7,[r3,#1]
        0x10001cd6:    f8127c01    ...|    LDRB     r7,[r2,#-1]
        0x10001cda:    709f        .p      STRB     r7,[r3,#2]
        0x10001cdc:    f8122c02    ...,    LDRB     r2,[r2,#-2]
        0x10001ce0:    70da        .p      STRB     r2,[r3,#3]
        0x10001ce2:    d1ef        ..      BNE      0x10001cc4 ; am_util_stdio_vsprintf + 2872
        0x10001ce4:    1d1f        ..      ADDS     r7,r3,#4
        0x10001ce6:    2100        .!      MOVS     r1,#0
        0x10001ce8:    7039        9p      STRB     r1,[r7,#0]
        0x10001cea:    f1b90f00    ....    CMP      r9,#0
        0x10001cee:    bf18        ..      IT       NE
        0x10001cf0:    4481        .D      ADDNE    r9,r9,r0
        0x10001cf2:    4483        .D      ADD      r11,r11,r0
        0x10001cf4:    e305        ..      B        0x10002302 ; am_util_stdio_vsprintf + 4470
        0x10001cf6:    bf00        ..      NOP      
        0x10001cf8:    3b01        .;      SUBS     r3,#1
        0x10001cfa:    e000        ..      B        0x10001cfe ; am_util_stdio_vsprintf + 2930
        0x10001cfc:    3301        .3      ADDS     r3,#1
        0x10001cfe:    f1b80f01    ....    CMP      r8,#1
        0x10001d02:    f2c0813e    ..>.    BLT.W    0x10001f82 ; am_util_stdio_vsprintf + 3574
        0x10001d06:    4598        .E      CMP      r8,r3
        0x10001d08:    f240813b    @.;.    BLS.W    0x10001f82 ; am_util_stdio_vsprintf + 3574
        0x10001d0c:    eba80403    ....    SUB      r4,r8,r3
        0x10001d10:    2c01        .,      CMP      r4,#1
        0x10001d12:    db11        ..      BLT      0x10001d38 ; am_util_stdio_vsprintf + 2988
        0x10001d14:    f0140103    ....    ANDS     r1,r4,#3
        0x10001d18:    4626        &F      MOV      r6,r4
        0x10001d1a:    4648        HF      MOV      r0,r9
        0x10001d1c:    f0008110    ....    BEQ.W    0x10001f40 ; am_util_stdio_vsprintf + 3508
        0x10001d20:    f1b90f00    ....    CMP      r9,#0
        0x10001d24:    bf1a        ..      ITTE     NE
        0x10001d26:    4648        HF      MOVNE    r0,r9
        0x10001d28:    f800eb01    ....    STRBNE   lr,[r0],#1
        0x10001d2c:    2000        .       MOVEQ    r0,#0
        0x10001d2e:    2901        .)      CMP      r1,#1
        0x10001d30:    d104        ..      BNE      0x10001d3c ; am_util_stdio_vsprintf + 2992
        0x10001d32:    1e66        f.      SUBS     r6,r4,#1
        0x10001d34:    e104        ..      B        0x10001f40 ; am_util_stdio_vsprintf + 3508
        0x10001d36:    bf00        ..      NOP      
        0x10001d38:    2400        .$      MOVS     r4,#0
        0x10001d3a:    e11b        ..      B        0x10001f74 ; am_util_stdio_vsprintf + 3560
        0x10001d3c:    2800        .(      CMP      r0,#0
        0x10001d3e:    bf14        ..      ITE      NE
        0x10001d40:    f800eb01    ....    STRBNE   lr,[r0],#1
        0x10001d44:    2000        .       MOVEQ    r0,#0
        0x10001d46:    2902        .)      CMP      r1,#2
        0x10001d48:    f04080f4    @...    BNE.W    0x10001f34 ; am_util_stdio_vsprintf + 3496
        0x10001d4c:    1ea6        ..      SUBS     r6,r4,#2
        0x10001d4e:    e0f7        ..      B        0x10001f40 ; am_util_stdio_vsprintf + 3508
        0x10001d50:    1ed4        ..      SUBS     r4,r2,#3
        0x10001d52:    2800        .(      CMP      r0,#0
        0x10001d54:    bf14        ..      ITE      NE
        0x10001d56:    f800eb01    ....    STRBNE   lr,[r0],#1
        0x10001d5a:    2000        .       MOVEQ    r0,#0
        0x10001d5c:    ea6f010a    o...    MVN      r1,r10
        0x10001d60:    4441        AD      ADD      r1,r1,r8
        0x10001d62:    2903        .)      CMP      r1,#3
        0x10001d64:    d204        ..      BCS      0x10001d70 ; am_util_stdio_vsprintf + 3044
        0x10001d66:    f8dda014    ....    LDR      r10,[sp,#0x14]
        0x10001d6a:    f10d081b    ....    ADD      r8,sp,#0x1b
        0x10001d6e:    e019        ..      B        0x10001da4 ; am_util_stdio_vsprintf + 3096
        0x10001d70:    f8dda014    ....    LDR      r10,[sp,#0x14]
        0x10001d74:    f10d081b    ....    ADD      r8,sp,#0x1b
        0x10001d78:    2800        .(      CMP      r0,#0
        0x10001d7a:    bf14        ..      ITE      NE
        0x10001d7c:    f800eb01    ....    STRBNE   lr,[r0],#1
        0x10001d80:    2000        .       MOVEQ    r0,#0
        0x10001d82:    2800        .(      CMP      r0,#0
        0x10001d84:    bf14        ..      ITE      NE
        0x10001d86:    f800eb01    ....    STRBNE   lr,[r0],#1
        0x10001d8a:    2000        .       MOVEQ    r0,#0
        0x10001d8c:    2800        .(      CMP      r0,#0
        0x10001d8e:    bf14        ..      ITE      NE
        0x10001d90:    f800eb01    ....    STRBNE   lr,[r0],#1
        0x10001d94:    2000        .       MOVEQ    r0,#0
        0x10001d96:    2800        .(      CMP      r0,#0
        0x10001d98:    bf14        ..      ITE      NE
        0x10001d9a:    f800eb01    ....    STRBNE   lr,[r0],#1
        0x10001d9e:    2000        .       MOVEQ    r0,#0
        0x10001da0:    3c04        .<      SUBS     r4,#4
        0x10001da2:    d1e9        ..      BNE      0x10001d78 ; am_util_stdio_vsprintf + 3052
        0x10001da4:    f1b90f00    ....    CMP      r9,#0
        0x10001da8:    bf18        ..      IT       NE
        0x10001daa:    4491        .D      ADDNE    r9,r9,r2
        0x10001dac:    9802        ..      LDR      r0,[sp,#8]
        0x10001dae:    4410        .D      ADD      r0,r0,r2
        0x10001db0:    9002        ..      STR      r0,[sp,#8]
        0x10001db2:    f8dde00c    ....    LDR      lr,[sp,#0xc]
        0x10001db6:    2100        .!      MOVS     r1,#0
        0x10001db8:    e022        ".      B        0x10001e00 ; am_util_stdio_vsprintf + 3188
        0x10001dba:    bf00        ..      NOP      
        0x10001dbc:    ea4f005b    O.[.    LSR      r0,r11,#1
        0x10001dc0:    eb00009b    ....    ADD      r0,r0,r11,LSR #2
        0x10001dc4:    eb001010    ....    ADD      r0,r0,r0,LSR #4
        0x10001dc8:    eb002010    ...     ADD      r0,r0,r0,LSR #8
        0x10001dcc:    eb004010    ...@    ADD      r0,r0,r0,LSR #16
        0x10001dd0:    08c2        ..      LSRS     r2,r0,#3
        0x10001dd2:    eb020282    ....    ADD      r2,r2,r2,LSL #2
        0x10001dd6:    ebab0242    ..B.    SUB      r2,r11,r2,LSL #1
        0x10001dda:    3206        .2      ADDS     r2,#6
        0x10001ddc:    0912        ..      LSRS     r2,r2,#4
        0x10001dde:    eb0203d0    ....    ADD      r3,r2,r0,LSR #3
        0x10001de2:    f04f0c00    O...    MOV      r12,#0
        0x10001de6:    20f6        .       MOVS     r0,#0xf6
        0x10001de8:    fb03b000    ....    MLA      r0,r3,r0,r11
        0x10001dec:    469b        .F      MOV      r11,r3
        0x10001dee:    f1000230    ..0.    ADD      r2,r0,#0x30
        0x10001df2:    1c48        H.      ADDS     r0,r1,#1
        0x10001df4:    f8082001    ...     STRB     r2,[r8,r1]
        0x10001df8:    ea53010c    S...    ORRS     r1,r3,r12
        0x10001dfc:    4601        .F      MOV      r1,r0
        0x10001dfe:    d03f        ?.      BEQ      0x10001e80 ; am_util_stdio_vsprintf + 3316
        0x10001e00:    f1bc0f00    ....    CMP      r12,#0
        0x10001e04:    d0da        ..      BEQ      0x10001dbc ; am_util_stdio_vsprintf + 3120
        0x10001e06:    ea5f005c    _.\.    LSRS     r0,r12,#1
        0x10001e0a:    ea4f039b    O...    LSR      r3,r11,#2
        0x10001e0e:    ea4f023b    O.;.    RRX      r2,r11
        0x10001e12:    ea43738c    C..s    ORR      r3,r3,r12,LSL #30
        0x10001e16:    18d2        ..      ADDS     r2,r2,r3
        0x10001e18:    eb40009c    @...    ADC      r0,r0,r12,LSR #2
        0x10001e1c:    0913        ..      LSRS     r3,r2,#4
        0x10001e1e:    ea437300    C..s    ORR      r3,r3,r0,LSL #28
        0x10001e22:    0907        ..      LSRS     r7,r0,#4
        0x10001e24:    18d2        ..      ADDS     r2,r2,r3
        0x10001e26:    4178        xA      ADCS     r0,r0,r7
        0x10001e28:    0a13        ..      LSRS     r3,r2,#8
        0x10001e2a:    ea436300    C..c    ORR      r3,r3,r0,LSL #24
        0x10001e2e:    0a07        ..      LSRS     r7,r0,#8
        0x10001e30:    18d2        ..      ADDS     r2,r2,r3
        0x10001e32:    4178        xA      ADCS     r0,r0,r7
        0x10001e34:    0c13        ..      LSRS     r3,r2,#16
        0x10001e36:    ea434300    C..C    ORR      r3,r3,r0,LSL #16
        0x10001e3a:    0c07        ..      LSRS     r7,r0,#16
        0x10001e3c:    18d2        ..      ADDS     r2,r2,r3
        0x10001e3e:    4178        xA      ADCS     r0,r0,r7
        0x10001e40:    1812        ..      ADDS     r2,r2,r0
        0x10001e42:    f1400000    @...    ADC      r0,r0,#0
        0x10001e46:    08d2        ..      LSRS     r2,r2,#3
        0x10001e48:    ea427240    B.@r    ORR      r2,r2,r0,LSL #29
        0x10001e4c:    f06f0509    o...    MVN      r5,#9
        0x10001e50:    fba23705    ...7    UMULL    r3,r7,r2,r5
        0x10001e54:    f04f34ff    O..4    MOV      r4,#0xffffffff
        0x10001e58:    fb027704    ...w    MLA      r7,r2,r4,r7
        0x10001e5c:    08c6        ..      LSRS     r6,r0,#3
        0x10001e5e:    fb067705    ...w    MLA      r7,r6,r5,r7
        0x10001e62:    eb13030b    ....    ADDS     r3,r3,r11
        0x10001e66:    eb47070c    G...    ADC      r7,r7,r12
        0x10001e6a:    3306        .3      ADDS     r3,#6
        0x10001e6c:    f1470700    G...    ADC      r7,r7,#0
        0x10001e70:    091b        ..      LSRS     r3,r3,#4
        0x10001e72:    ea437307    C..s    ORR      r3,r3,r7,LSL #28
        0x10001e76:    093e        >.      LSRS     r6,r7,#4
        0x10001e78:    189b        ..      ADDS     r3,r3,r2
        0x10001e7a:    eb460cd0    F...    ADC      r12,r6,r0,LSR #3
        0x10001e7e:    e7b2        ..      B        0x10001de6 ; am_util_stdio_vsprintf + 3162
        0x10001e80:    f8ddb008    ....    LDR      r11,[sp,#8]
        0x10001e84:    f24905a0    I...    MOV      r5,#0x90a0
        0x10001e88:    f1b90f00    ....    CMP      r9,#0
        0x10001e8c:    f2c10500    ....    MOVT     r5,#0x1000
        0x10001e90:    f04f0c0d    O...    MOV      r12,#0xd
        0x10001e94:    d039        9.      BEQ      0x10001f0a ; am_util_stdio_vsprintf + 3454
        0x10001e96:    1e47        G.      SUBS     r7,r0,#1
        0x10001e98:    f0100603    ....    ANDS     r6,r0,#3
        0x10001e9c:    4649        IF      MOV      r1,r9
        0x10001e9e:    4603        .F      MOV      r3,r0
        0x10001ea0:    d01b        ..      BEQ      0x10001eda ; am_util_stdio_vsprintf + 3406
        0x10001ea2:    eb080400    ....    ADD      r4,r8,r0
        0x10001ea6:    f8142c01    ...,    LDRB     r2,[r4,#-1]
        0x10001eaa:    4649        IF      MOV      r1,r9
        0x10001eac:    2e01        ..      CMP      r6,#1
        0x10001eae:    f8012b01    ...+    STRB     r2,[r1],#1
        0x10001eb2:    d101        ..      BNE      0x10001eb8 ; am_util_stdio_vsprintf + 3372
        0x10001eb4:    463b        ;F      MOV      r3,r7
        0x10001eb6:    e010        ..      B        0x10001eda ; am_util_stdio_vsprintf + 3406
        0x10001eb8:    f8141c02    ....    LDRB     r1,[r4,#-2]
        0x10001ebc:    2e02        ..      CMP      r6,#2
        0x10001ebe:    f8891001    ....    STRB     r1,[r9,#1]
        0x10001ec2:    d103        ..      BNE      0x10001ecc ; am_util_stdio_vsprintf + 3392
        0x10001ec4:    1e83        ..      SUBS     r3,r0,#2
        0x10001ec6:    f1090102    ....    ADD      r1,r9,#2
        0x10001eca:    e006        ..      B        0x10001eda ; am_util_stdio_vsprintf + 3406
        0x10001ecc:    f8142c03    ...,    LDRB     r2,[r4,#-3]
        0x10001ed0:    1ec3        ..      SUBS     r3,r0,#3
        0x10001ed2:    f1090103    ....    ADD      r1,r9,#3
        0x10001ed6:    f8892002    ...     STRB     r2,[r9,#2]
        0x10001eda:    2f03        ./      CMP      r7,#3
        0x10001edc:    d313        ..      BCC      0x10001f06 ; am_util_stdio_vsprintf + 3450
        0x10001ede:    bf00        ..      NOP      
        0x10001ee0:    eb0e0203    ....    ADD      r2,lr,r3
        0x10001ee4:    7857        Wx      LDRB     r7,[r2,#1]
        0x10001ee6:    f8017b04    ...{    STRB     r7,[r1],#4
        0x10001eea:    f81e7003    ...p    LDRB     r7,[lr,r3]
        0x10001eee:    3b04        .;      SUBS     r3,#4
        0x10001ef0:    f8017c03    ...|    STRB     r7,[r1,#-3]
        0x10001ef4:    f8127c01    ...|    LDRB     r7,[r2,#-1]
        0x10001ef8:    f8017c02    ...|    STRB     r7,[r1,#-2]
        0x10001efc:    f8122c02    ...,    LDRB     r2,[r2,#-2]
        0x10001f00:    f8012c01    ...,    STRB     r2,[r1,#-1]
        0x10001f04:    d1ec        ..      BNE      0x10001ee0 ; am_util_stdio_vsprintf + 3412
        0x10001f06:    2200        ."      MOVS     r2,#0
        0x10001f08:    700a        .p      STRB     r2,[r1,#0]
        0x10001f0a:    f1b90f00    ....    CMP      r9,#0
        0x10001f0e:    bf18        ..      IT       NE
        0x10001f10:    4481        .D      ADDNE    r9,r9,r0
        0x10001f12:    4483        .D      ADD      r11,r11,r0
        0x10001f14:    e1f5        ..      B        0x10002302 ; am_util_stdio_vsprintf + 4470
        0x10001f16:    bf00        ..      NOP      
        0x10001f18:    2a7f        .*      CMP      r2,#0x7f
        0x10001f1a:    f0c080bf    ....    BCC.W    0x1000209c ; am_util_stdio_vsprintf + 3856
        0x10001f1e:    f1c20196    ....    RSB      r1,r2,#0x96
        0x10001f22:    fa23f701    #...    LSR      r7,r3,r1
        0x10001f26:    f1a2017e    ..~.    SUB      r1,r2,#0x7e
        0x10001f2a:    fa03f101    ....    LSL      r1,r3,r1
        0x10001f2e:    f021427f    !..B    BIC      r2,r1,#0xff000000
        0x10001f32:    e0b8        ..      B        0x100020a6 ; am_util_stdio_vsprintf + 3866
        0x10001f34:    1ee6        ..      SUBS     r6,r4,#3
        0x10001f36:    2800        .(      CMP      r0,#0
        0x10001f38:    bf14        ..      ITE      NE
        0x10001f3a:    f800eb01    ....    STRBNE   lr,[r0],#1
        0x10001f3e:    2000        .       MOVEQ    r0,#0
        0x10001f40:    43d9        .C      MVNS     r1,r3
        0x10001f42:    4441        AD      ADD      r1,r1,r8
        0x10001f44:    2903        .)      CMP      r1,#3
        0x10001f46:    d315        ..      BCC      0x10001f74 ; am_util_stdio_vsprintf + 3560
        0x10001f48:    2800        .(      CMP      r0,#0
        0x10001f4a:    bf14        ..      ITE      NE
        0x10001f4c:    f800eb01    ....    STRBNE   lr,[r0],#1
        0x10001f50:    2000        .       MOVEQ    r0,#0
        0x10001f52:    2800        .(      CMP      r0,#0
        0x10001f54:    bf14        ..      ITE      NE
        0x10001f56:    f800eb01    ....    STRBNE   lr,[r0],#1
        0x10001f5a:    2000        .       MOVEQ    r0,#0
        0x10001f5c:    2800        .(      CMP      r0,#0
        0x10001f5e:    bf14        ..      ITE      NE
        0x10001f60:    f800eb01    ....    STRBNE   lr,[r0],#1
        0x10001f64:    2000        .       MOVEQ    r0,#0
        0x10001f66:    2800        .(      CMP      r0,#0
        0x10001f68:    bf14        ..      ITE      NE
        0x10001f6a:    f800eb01    ....    STRBNE   lr,[r0],#1
        0x10001f6e:    2000        .       MOVEQ    r0,#0
        0x10001f70:    3e04        .>      SUBS     r6,#4
        0x10001f72:    d1e9        ..      BNE      0x10001f48 ; am_util_stdio_vsprintf + 3516
        0x10001f74:    44a3        .D      ADD      r11,r11,r4
        0x10001f76:    f04f0800    O...    MOV      r8,#0
        0x10001f7a:    f1b90f00    ....    CMP      r9,#0
        0x10001f7e:    bf18        ..      IT       NE
        0x10001f80:    44a1        .D      ADDNE    r9,r9,r4
        0x10001f82:    7839        9x      LDRB     r1,[r7,#0]
        0x10001f84:    b3a9        ..      CBZ      r1,0x10001ff2 ; am_util_stdio_vsprintf + 3686
        0x10001f86:    2000        .       MOVS     r0,#0
        0x10001f88:    f1b90f00    ....    CMP      r9,#0
        0x10001f8c:    bf14        ..      ITE      NE
        0x10001f8e:    f8091b01    ....    STRBNE   r1,[r9],#1
        0x10001f92:    f04f0900    O...    MOVEQ    r9,#0
        0x10001f96:    1839        9.      ADDS     r1,r7,r0
        0x10001f98:    784e        Nx      LDRB     r6,[r1,#1]
        0x10001f9a:    b1fe        ..      CBZ      r6,0x10001fdc ; am_util_stdio_vsprintf + 3664
        0x10001f9c:    f1b90f00    ....    CMP      r9,#0
        0x10001fa0:    bf14        ..      ITE      NE
        0x10001fa2:    f8096b01    ...k    STRBNE   r6,[r9],#1
        0x10001fa6:    f04f0900    O...    MOVEQ    r9,#0
        0x10001faa:    788e        .x      LDRB     r6,[r1,#2]
        0x10001fac:    b1d6        ..      CBZ      r6,0x10001fe4 ; am_util_stdio_vsprintf + 3672
        0x10001fae:    f1b90f00    ....    CMP      r9,#0
        0x10001fb2:    bf14        ..      ITE      NE
        0x10001fb4:    f8096b01    ...k    STRBNE   r6,[r9],#1
        0x10001fb8:    f04f0900    O...    MOVEQ    r9,#0
        0x10001fbc:    78ce        .x      LDRB     r6,[r1,#3]
        0x10001fbe:    b1ae        ..      CBZ      r6,0x10001fec ; am_util_stdio_vsprintf + 3680
        0x10001fc0:    f1b90f00    ....    CMP      r9,#0
        0x10001fc4:    bf14        ..      ITE      NE
        0x10001fc6:    f8096b01    ...k    STRBNE   r6,[r9],#1
        0x10001fca:    f04f0900    O...    MOVEQ    r9,#0
        0x10001fce:    7909        .y      LDRB     r1,[r1,#4]
        0x10001fd0:    3004        .0      ADDS     r0,#4
        0x10001fd2:    2900        .)      CMP      r1,#0
        0x10001fd4:    d1d8        ..      BNE      0x10001f88 ; am_util_stdio_vsprintf + 3580
        0x10001fd6:    4483        .D      ADD      r11,r11,r0
        0x10001fd8:    e00b        ..      B        0x10001ff2 ; am_util_stdio_vsprintf + 3686
        0x10001fda:    bf00        ..      NOP      
        0x10001fdc:    4458        XD      ADD      r0,r0,r11
        0x10001fde:    f1000b01    ....    ADD      r11,r0,#1
        0x10001fe2:    e006        ..      B        0x10001ff2 ; am_util_stdio_vsprintf + 3686
        0x10001fe4:    4458        XD      ADD      r0,r0,r11
        0x10001fe6:    f1000b02    ....    ADD      r11,r0,#2
        0x10001fea:    e002        ..      B        0x10001ff2 ; am_util_stdio_vsprintf + 3686
        0x10001fec:    4458        XD      ADD      r0,r0,r11
        0x10001fee:    f1000b03    ....    ADD      r11,r0,#3
        0x10001ff2:    f1b80f00    ....    CMP      r8,#0
        0x10001ff6:    d017        ..      BEQ      0x10002028 ; am_util_stdio_vsprintf + 3740
        0x10001ff8:    f1c80000    ....    RSB      r0,r8,#0
        0x10001ffc:    4283        .B      CMP      r3,r0
        0x10001ffe:    d213        ..      BCS      0x10002028 ; am_util_stdio_vsprintf + 3740
        0x10002000:    1ac6        ..      SUBS     r6,r0,r3
        0x10002002:    2e01        ..      CMP      r6,#1
        0x10002004:    db14        ..      BLT      0x10002030 ; am_util_stdio_vsprintf + 3748
        0x10002006:    f0160103    ....    ANDS     r1,r6,#3
        0x1000200a:    4637        7F      MOV      r7,r6
        0x1000200c:    4648        HF      MOV      r0,r9
        0x1000200e:    d021        !.      BEQ      0x10002054 ; am_util_stdio_vsprintf + 3784
        0x10002010:    f1b90f00    ....    CMP      r9,#0
        0x10002014:    bf1a        ..      ITTE     NE
        0x10002016:    4648        HF      MOVNE    r0,r9
        0x10002018:    f800eb01    ....    STRBNE   lr,[r0],#1
        0x1000201c:    2000        .       MOVEQ    r0,#0
        0x1000201e:    2901        .)      CMP      r1,#1
        0x10002020:    d108        ..      BNE      0x10002034 ; am_util_stdio_vsprintf + 3752
        0x10002022:    1e77        w.      SUBS     r7,r6,#1
        0x10002024:    e016        ..      B        0x10002054 ; am_util_stdio_vsprintf + 3784
        0x10002026:    bf00        ..      NOP      
        0x10002028:    f8dde00c    ....    LDR      lr,[sp,#0xc]
        0x1000202c:    e169        i.      B        0x10002302 ; am_util_stdio_vsprintf + 4470
        0x1000202e:    bf00        ..      NOP      
        0x10002030:    2600        .&      MOVS     r6,#0
        0x10002032:    e02b        +.      B        0x1000208c ; am_util_stdio_vsprintf + 3840
        0x10002034:    2800        .(      CMP      r0,#0
        0x10002036:    bf14        ..      ITE      NE
        0x10002038:    f800eb01    ....    STRBNE   lr,[r0],#1
        0x1000203c:    2000        .       MOVEQ    r0,#0
        0x1000203e:    2902        .)      CMP      r1,#2
        0x10002040:    d102        ..      BNE      0x10002048 ; am_util_stdio_vsprintf + 3772
        0x10002042:    1eb7        ..      SUBS     r7,r6,#2
        0x10002044:    e006        ..      B        0x10002054 ; am_util_stdio_vsprintf + 3784
        0x10002046:    bf00        ..      NOP      
        0x10002048:    1ef7        ..      SUBS     r7,r6,#3
        0x1000204a:    2800        .(      CMP      r0,#0
        0x1000204c:    bf14        ..      ITE      NE
        0x1000204e:    f800eb01    ....    STRBNE   lr,[r0],#1
        0x10002052:    2000        .       MOVEQ    r0,#0
        0x10002054:    43d9        .C      MVNS     r1,r3
        0x10002056:    eba10108    ....    SUB      r1,r1,r8
        0x1000205a:    2903        .)      CMP      r1,#3
        0x1000205c:    d316        ..      BCC      0x1000208c ; am_util_stdio_vsprintf + 3840
        0x1000205e:    bf00        ..      NOP      
        0x10002060:    2800        .(      CMP      r0,#0
        0x10002062:    bf14        ..      ITE      NE
        0x10002064:    f800eb01    ....    STRBNE   lr,[r0],#1
        0x10002068:    2000        .       MOVEQ    r0,#0
        0x1000206a:    2800        .(      CMP      r0,#0
        0x1000206c:    bf14        ..      ITE      NE
        0x1000206e:    f800eb01    ....    STRBNE   lr,[r0],#1
        0x10002072:    2000        .       MOVEQ    r0,#0
        0x10002074:    2800        .(      CMP      r0,#0
        0x10002076:    bf14        ..      ITE      NE
        0x10002078:    f800eb01    ....    STRBNE   lr,[r0],#1
        0x1000207c:    2000        .       MOVEQ    r0,#0
        0x1000207e:    2800        .(      CMP      r0,#0
        0x10002080:    bf14        ..      ITE      NE
        0x10002082:    f800eb01    ....    STRBNE   lr,[r0],#1
        0x10002086:    2000        .       MOVEQ    r0,#0
        0x10002088:    3f04        .?      SUBS     r7,#4
        0x1000208a:    d1e9        ..      BNE      0x10002060 ; am_util_stdio_vsprintf + 3796
        0x1000208c:    f1b90f00    ....    CMP      r9,#0
        0x10002090:    bf18        ..      IT       NE
        0x10002092:    44b1        .D      ADDNE    r9,r9,r6
        0x10002094:    f8dde00c    ....    LDR      lr,[sp,#0xc]
        0x10002098:    44b3        .D      ADD      r11,r11,r6
        0x1000209a:    e132        2.      B        0x10002302 ; am_util_stdio_vsprintf + 4470
        0x1000209c:    f1c2017e    ..~.    RSB      r1,r2,#0x7e
        0x100020a0:    fa23f201    #...    LSR      r2,r3,r1
        0x100020a4:    2700        .'      MOVS     r7,#0
        0x100020a6:    f1b03fff    ...?    CMP      r0,#0xffffffff
        0x100020aa:    464e        NF      MOV      r6,r9
        0x100020ac:    f04f0130    O.0.    MOV      r1,#0x30
        0x100020b0:    dc03        ..      BGT      0x100020ba ; am_util_stdio_vsprintf + 3886
        0x100020b2:    464e        NF      MOV      r6,r9
        0x100020b4:    202d        -       MOVS     r0,#0x2d
        0x100020b6:    f8060b01    ....    STRB     r0,[r6],#1
        0x100020ba:    b36f        o.      CBZ      r7,0x10002118 ; am_util_stdio_vsprintf + 3980
        0x100020bc:    2000        .       MOVS     r0,#0
        0x100020be:    bf00        ..      NOP      
        0x100020c0:    0879        y.      LSRS     r1,r7,#1
        0x100020c2:    eb010197    ....    ADD      r1,r1,r7,LSR #2
        0x100020c6:    eb011111    ....    ADD      r1,r1,r1,LSR #4
        0x100020ca:    eb012111    ...!    ADD      r1,r1,r1,LSR #8
        0x100020ce:    eb014111    ...A    ADD      r1,r1,r1,LSR #16
        0x100020d2:    08cb        ..      LSRS     r3,r1,#3
        0x100020d4:    eb030383    ....    ADD      r3,r3,r3,LSL #2
        0x100020d8:    eba70343    ..C.    SUB      r3,r7,r3,LSL #1
        0x100020dc:    3306        .3      ADDS     r3,#6
        0x100020de:    091b        ..      LSRS     r3,r3,#4
        0x100020e0:    eb0301d1    ....    ADD      r1,r3,r1,LSR #3
        0x100020e4:    fb017308    ...s    MLA      r3,r1,r8,r7
        0x100020e8:    2900        .)      CMP      r1,#0
        0x100020ea:    f1030330    ..0.    ADD      r3,r3,#0x30
        0x100020ee:    5423        #T      STRB     r3,[r4,r0]
        0x100020f0:    f1000001    ....    ADD      r0,r0,#1
        0x100020f4:    460f        .F      MOV      r7,r1
        0x100020f6:    d1e3        ..      BNE      0x100020c0 ; am_util_stdio_vsprintf + 3892
        0x100020f8:    f0100703    ....    ANDS     r7,r0,#3
        0x100020fc:    f1a00801    ....    SUB      r8,r0,#1
        0x10002100:    4633        3F      MOV      r3,r6
        0x10002102:    d01a        ..      BEQ      0x1000213a ; am_util_stdio_vsprintf + 4014
        0x10002104:    1821        !.      ADDS     r1,r4,r0
        0x10002106:    f8114c01    ...L    LDRB     r4,[r1,#-1]
        0x1000210a:    4633        3F      MOV      r3,r6
        0x1000210c:    2f01        ./      CMP      r7,#1
        0x1000210e:    f8034b01    ...K    STRB     r4,[r3],#1
        0x10002112:    d105        ..      BNE      0x10002120 ; am_util_stdio_vsprintf + 3988
        0x10002114:    4640        @F      MOV      r0,r8
        0x10002116:    e010        ..      B        0x1000213a ; am_util_stdio_vsprintf + 4014
        0x10002118:    f8061b01    ....    STRB     r1,[r6],#1
        0x1000211c:    e035        5.      B        0x1000218a ; am_util_stdio_vsprintf + 4094
        0x1000211e:    bf00        ..      NOP      
        0x10002120:    f8113c02    ...<    LDRB     r3,[r1,#-2]
        0x10002124:    2f02        ./      CMP      r7,#2
        0x10002126:    7073        sp      STRB     r3,[r6,#1]
        0x10002128:    d102        ..      BNE      0x10002130 ; am_util_stdio_vsprintf + 4004
        0x1000212a:    3802        .8      SUBS     r0,#2
        0x1000212c:    1cb3        ..      ADDS     r3,r6,#2
        0x1000212e:    e004        ..      B        0x1000213a ; am_util_stdio_vsprintf + 4014
        0x10002130:    f8111c03    ....    LDRB     r1,[r1,#-3]
        0x10002134:    3803        .8      SUBS     r0,#3
        0x10002136:    1cf3        ..      ADDS     r3,r6,#3
        0x10002138:    70b1        .p      STRB     r1,[r6,#2]
        0x1000213a:    f1b80f03    ....    CMP      r8,#3
        0x1000213e:    d312        ..      BCC      0x10002166 ; am_util_stdio_vsprintf + 4058
        0x10002140:    eb0e0100    ....    ADD      r1,lr,r0
        0x10002144:    784f        Ox      LDRB     r7,[r1,#1]
        0x10002146:    f8037b04    ...{    STRB     r7,[r3],#4
        0x1000214a:    f81e7000    ...p    LDRB     r7,[lr,r0]
        0x1000214e:    3804        .8      SUBS     r0,#4
        0x10002150:    f8037c03    ...|    STRB     r7,[r3,#-3]
        0x10002154:    f8117c01    ...|    LDRB     r7,[r1,#-1]
        0x10002158:    f8037c02    ...|    STRB     r7,[r3,#-2]
        0x1000215c:    f8111c02    ....    LDRB     r1,[r1,#-2]
        0x10002160:    f8031c01    ....    STRB     r1,[r3,#-1]
        0x10002164:    d1ec        ..      BNE      0x10002140 ; am_util_stdio_vsprintf + 4020
        0x10002166:    2000        .       MOVS     r0,#0
        0x10002168:    2130        0!      MOVS     r1,#0x30
        0x1000216a:    7018        .p      STRB     r0,[r3,#0]
        0x1000216c:    7830        0x      LDRB     r0,[r6,#0]
        0x1000216e:    b160        `.      CBZ      r0,0x1000218a ; am_util_stdio_vsprintf + 4094
        0x10002170:    7870        px      LDRB     r0,[r6,#1]
        0x10002172:    b138        8.      CBZ      r0,0x10002184 ; am_util_stdio_vsprintf + 4088
        0x10002174:    78b0        .x      LDRB     r0,[r6,#2]
        0x10002176:    b138        8.      CBZ      r0,0x10002188 ; am_util_stdio_vsprintf + 4092
        0x10002178:    78f0        .x      LDRB     r0,[r6,#3]
        0x1000217a:    3604        .6      ADDS     r6,#4
        0x1000217c:    2800        .(      CMP      r0,#0
        0x1000217e:    d1f5        ..      BNE      0x1000216c ; am_util_stdio_vsprintf + 4064
        0x10002180:    3e01        .>      SUBS     r6,#1
        0x10002182:    e002        ..      B        0x1000218a ; am_util_stdio_vsprintf + 4094
        0x10002184:    3601        .6      ADDS     r6,#1
        0x10002186:    e000        ..      B        0x1000218a ; am_util_stdio_vsprintf + 4094
        0x10002188:    3602        .6      ADDS     r6,#2
        0x1000218a:    4630        0F      MOV      r0,r6
        0x1000218c:    232e        .#      MOVS     r3,#0x2e
        0x1000218e:    2a00        .*      CMP      r2,#0
        0x10002190:    f8003b01    ...;    STRB     r3,[r0],#1
        0x10002194:    d048        H.      BEQ      0x10002228 ; am_util_stdio_vsprintf + 4252
        0x10002196:    eba90100    ....    SUB      r1,r9,r0
        0x1000219a:    3113        .1      ADDS     r1,r1,#0x13
        0x1000219c:    4551        QE      CMP      r1,r10
        0x1000219e:    bfb8        ..      IT       LT
        0x100021a0:    468a        .F      MOVLT    r10,r1
        0x100021a2:    f1ba0f01    ....    CMP      r10,#1
        0x100021a6:    db43        C.      BLT      0x10002230 ; am_util_stdio_vsprintf + 4260
        0x100021a8:    f1aa0101    ....    SUB      r1,r10,#1
        0x100021ac:    9e05        ..      LDR      r6,[sp,#0x14]
        0x100021ae:    2903        .)      CMP      r1,#3
        0x100021b0:    d328        (.      BCC      0x10002204 ; am_util_stdio_vsprintf + 4216
        0x100021b2:    f02a0303    *...    BIC      r3,r10,#3
        0x100021b6:    2430        0$      MOVS     r4,#0x30
        0x100021b8:    eb020182    ....    ADD      r1,r2,r2,LSL #2
        0x100021bc:    eb0452d1    ...R    ADD      r2,r4,r1,LSR #23
        0x100021c0:    f8002b04    ...+    STRB     r2,[r0],#4
        0x100021c4:    1daa        ..      ADDS     r2,r5,#6
        0x100021c6:    ea020141    ..A.    AND      r1,r2,r1,LSL #1
        0x100021ca:    eb010181    ....    ADD      r1,r1,r1,LSL #2
        0x100021ce:    ea4452d1    D..R    ORR      r2,r4,r1,LSR #23
        0x100021d2:    f8002c03    ...,    STRB     r2,[r0,#-3]
        0x100021d6:    1d2a        *.      ADDS     r2,r5,#4
        0x100021d8:    ea020141    ..A.    AND      r1,r2,r1,LSL #1
        0x100021dc:    eb010181    ....    ADD      r1,r1,r1,LSL #2
        0x100021e0:    ea4452d1    D..R    ORR      r2,r4,r1,LSR #23
        0x100021e4:    ea050141    ..A.    AND      r1,r5,r1,LSL #1
        0x100021e8:    eb010181    ....    ADD      r1,r1,r1,LSL #2
        0x100021ec:    f8002c02    ...,    STRB     r2,[r0,#-2]
        0x100021f0:    0dca        ..      LSRS     r2,r1,#23
        0x100021f2:    3230        02      ADDS     r2,r2,#0x30
        0x100021f4:    f8002c01    ...,    STRB     r2,[r0,#-1]
        0x100021f8:    f1a50208    ....    SUB      r2,r5,#8
        0x100021fc:    3b04        .;      SUBS     r3,#4
        0x100021fe:    ea020241    ..A.    AND      r2,r2,r1,LSL #1
        0x10002202:    d1d9        ..      BNE      0x100021b8 ; am_util_stdio_vsprintf + 4140
        0x10002204:    f01a0303    ....    ANDS     r3,r10,#3
        0x10002208:    d028        (.      BEQ      0x1000225c ; am_util_stdio_vsprintf + 4304
        0x1000220a:    eb020282    ....    ADD      r2,r2,r2,LSL #2
        0x1000220e:    2430        0$      MOVS     r4,#0x30
        0x10002210:    eb0457d2    ...W    ADD      r7,r4,r2,LSR #23
        0x10002214:    4601        .F      MOV      r1,r0
        0x10002216:    f8017b01    ...{    STRB     r7,[r1],#1
        0x1000221a:    1daf        ..      ADDS     r7,r5,#6
        0x1000221c:    2b01        .+      CMP      r3,#1
        0x1000221e:    ea070242    ..B.    AND      r2,r7,r2,LSL #1
        0x10002222:    d107        ..      BNE      0x10002234 ; am_util_stdio_vsprintf + 4264
        0x10002224:    4608        .F      MOV      r0,r1
        0x10002226:    e019        ..      B        0x1000225c ; am_util_stdio_vsprintf + 4304
        0x10002228:    1cb0        ..      ADDS     r0,r6,#2
        0x1000222a:    7071        qp      STRB     r1,[r6,#1]
        0x1000222c:    9e05        ..      LDR      r6,[sp,#0x14]
        0x1000222e:    e048        H.      B        0x100022c2 ; am_util_stdio_vsprintf + 4406
        0x10002230:    9e05        ..      LDR      r6,[sp,#0x14]
        0x10002232:    e013        ..      B        0x1000225c ; am_util_stdio_vsprintf + 4304
        0x10002234:    eb020182    ....    ADD      r1,r2,r2,LSL #2
        0x10002238:    ea4452d1    D..R    ORR      r2,r4,r1,LSR #23
        0x1000223c:    7042        Bp      STRB     r2,[r0,#1]
        0x1000223e:    1d2a        *.      ADDS     r2,r5,#4
        0x10002240:    2b02        .+      CMP      r3,#2
        0x10002242:    ea020241    ..A.    AND      r2,r2,r1,LSL #1
        0x10002246:    d101        ..      BNE      0x1000224c ; am_util_stdio_vsprintf + 4288
        0x10002248:    3002        .0      ADDS     r0,#2
        0x1000224a:    e007        ..      B        0x1000225c ; am_util_stdio_vsprintf + 4304
        0x1000224c:    eb020182    ....    ADD      r1,r2,r2,LSL #2
        0x10002250:    ea4452d1    D..R    ORR      r2,r4,r1,LSR #23
        0x10002254:    7082        .p      STRB     r2,[r0,#2]
        0x10002256:    3003        .0      ADDS     r0,#3
        0x10002258:    ea050241    ..A.    AND      r2,r5,r1,LSL #1
        0x1000225c:    f5b20f00    ....    CMP      r2,#0x800000
        0x10002260:    db2f        /.      BLT      0x100022c2 ; am_util_stdio_vsprintf + 4406
        0x10002262:    1e41        A.      SUBS     r1,r0,#1
        0x10002264:    4549        IE      CMP      r1,r9
        0x10002266:    d32c        ,.      BCC      0x100022c2 ; am_util_stdio_vsprintf + 4406
        0x10002268:    1e87        ..      SUBS     r7,r0,#2
        0x1000226a:    e003        ..      B        0x10002274 ; am_util_stdio_vsprintf + 4328
        0x1000226c:    1ef9        ..      SUBS     r1,r7,#3
        0x1000226e:    3f04        .?      SUBS     r7,#4
        0x10002270:    4549        IE      CMP      r1,r9
        0x10002272:    d326        &.      BCC      0x100022c2 ; am_util_stdio_vsprintf + 4406
        0x10002274:    787b        {x      LDRB     r3,[r7,#1]
        0x10002276:    2130        0!      MOVS     r1,#0x30
        0x10002278:    2b2e        .+      CMP      r3,#0x2e
        0x1000227a:    d002        ..      BEQ      0x10002282 ; am_util_stdio_vsprintf + 4342
        0x1000227c:    2b39        9+      CMP      r3,#0x39
        0x1000227e:    d11d        ..      BNE      0x100022bc ; am_util_stdio_vsprintf + 4400
        0x10002280:    7079        yp      STRB     r1,[r7,#1]
        0x10002282:    454f        OE      CMP      r7,r9
        0x10002284:    d31d        ..      BCC      0x100022c2 ; am_util_stdio_vsprintf + 4406
        0x10002286:    783b        ;x      LDRB     r3,[r7,#0]
        0x10002288:    2b2e        .+      CMP      r3,#0x2e
        0x1000228a:    d002        ..      BEQ      0x10002292 ; am_util_stdio_vsprintf + 4358
        0x1000228c:    2b39        9+      CMP      r3,#0x39
        0x1000228e:    d116        ..      BNE      0x100022be ; am_util_stdio_vsprintf + 4402
        0x10002290:    7039        9p      STRB     r1,[r7,#0]
        0x10002292:    1e7a        z.      SUBS     r2,r7,#1
        0x10002294:    454a        JE      CMP      r2,r9
        0x10002296:    d314        ..      BCC      0x100022c2 ; am_util_stdio_vsprintf + 4406
        0x10002298:    7813        .x      LDRB     r3,[r2,#0]
        0x1000229a:    2b2e        .+      CMP      r3,#0x2e
        0x1000229c:    d002        ..      BEQ      0x100022a4 ; am_util_stdio_vsprintf + 4376
        0x1000229e:    2b39        9+      CMP      r3,#0x39
        0x100022a0:    d10a        ..      BNE      0x100022b8 ; am_util_stdio_vsprintf + 4396
        0x100022a2:    7011        .p      STRB     r1,[r2,#0]
        0x100022a4:    1eba        ..      SUBS     r2,r7,#2
        0x100022a6:    454a        JE      CMP      r2,r9
        0x100022a8:    d30b        ..      BCC      0x100022c2 ; am_util_stdio_vsprintf + 4406
        0x100022aa:    7813        .x      LDRB     r3,[r2,#0]
        0x100022ac:    2b2e        .+      CMP      r3,#0x2e
        0x100022ae:    d0dd        ..      BEQ      0x1000226c ; am_util_stdio_vsprintf + 4320
        0x100022b0:    2b39        9+      CMP      r3,#0x39
        0x100022b2:    d101        ..      BNE      0x100022b8 ; am_util_stdio_vsprintf + 4396
        0x100022b4:    7011        .p      STRB     r1,[r2,#0]
        0x100022b6:    e7d9        ..      B        0x1000226c ; am_util_stdio_vsprintf + 4320
        0x100022b8:    4617        .F      MOV      r7,r2
        0x100022ba:    e000        ..      B        0x100022be ; am_util_stdio_vsprintf + 4402
        0x100022bc:    3701        .7      ADDS     r7,#1
        0x100022be:    1c59        Y.      ADDS     r1,r3,#1
        0x100022c0:    7039        9p      STRB     r1,[r7,#0]
        0x100022c2:    eba00309    ....    SUB      r3,r0,r9
        0x100022c6:    f1b33fff    ...?    CMP      r3,#0xffffffff
        0x100022ca:    f04f0100    O...    MOV      r1,#0
        0x100022ce:    7001        .p      STRB     r1,[r0,#0]
        0x100022d0:    dc0d        ..      BGT      0x100022ee ; am_util_stdio_vsprintf + 4450
        0x100022d2:    f6426130    B.0a    MOV      r1,#0x2e30
        0x100022d6:    f2c00130    ..0.    MOVT     r1,#0x30
        0x100022da:    1c58        X.      ADDS     r0,r3,#1
        0x100022dc:    bf18        ..      IT       NE
        0x100022de:    f101110f    ....    ADDNE    r1,r1,#0xf000f
        0x100022e2:    1c98        ..      ADDS     r0,r3,#2
        0x100022e4:    bf08        ..      IT       EQ
        0x100022e6:    4661        aF      MOVEQ    r1,r12
        0x100022e8:    2303        .#      MOVS     r3,#3
        0x100022ea:    f8c91000    ....    STR      r1,[r9,#0]
        0x100022ee:    f24905a0    I...    MOV      r5,#0x90a0
        0x100022f2:    f1060a08    ....    ADD      r10,r6,#8
        0x100022f6:    449b        .D      ADD      r11,r11,r3
        0x100022f8:    4499        .D      ADD      r9,r9,r3
        0x100022fa:    f2c10500    ....    MOVT     r5,#0x1000
        0x100022fe:    f04f0c0d    O...    MOV      r12,#0xd
        0x10002302:    9804        ..      LDR      r0,[sp,#0x10]
        0x10002304:    1c41        A.      ADDS     r1,r0,#1
        0x10002306:    f7febf57    ..W.    B        0x100011b8 ; am_util_stdio_vsprintf + 44
        0x1000230a:    bf00        ..      NOP      
        0x1000230c:    f1b90f00    ....    CMP      r9,#0
        0x10002310:    bf1c        ..      ITT      NE
        0x10002312:    2000        .       MOVNE    r0,#0
        0x10002314:    f8890000    ....    STRBNE   r0,[r9,#0]
        0x10002318:    4658        XF      MOV      r0,r11
        0x1000231a:    b00d        ..      ADD      sp,sp,#0x34
        0x1000231c:    e8bd8ff0    ....    POP      {r4-r11,pc}
    main
        0x10002320:    b084        ..      SUB      sp,sp,#0x10
        0x10002322:    f2400998    @...    MOVW     r9,#0x98
        0x10002326:    f2443421    D.!4    MOV      r4,#0x4321
        0x1000232a:    2000        .       MOVS     r0,#0
        0x1000232c:    2100        .!      MOVS     r1,#0
        0x1000232e:    f2c40901    ....    MOVT     r9,#0x4001
        0x10002332:    f2c12434    ..4$    MOVT     r4,#0x1234
        0x10002336:    2600        .&      MOVS     r6,#0
        0x10002338:    f7fef844    ..D.    BL       am_hal_clkgen_control ; 0x100003c4
        0x1000233c:    f24500e0    E...    MOV      r0,#0x50e0
        0x10002340:    f2c10000    ....    MOVT     r0,#0x1000
        0x10002344:    f7fef810    ....    BL       am_hal_cachectrl_config ; 0x10000368
        0x10002348:    f7fef832    ..2.    BL       am_hal_cachectrl_enable ; 0x100003b0
        0x1000234c:    2011        .       MOVS     r0,#0x11
        0x1000234e:    f7fefd03    ....    BL       am_hal_pwrctrl_memory_enable ; 0x10000d58
        0x10002352:    f7fdffe7    ....    BL       am_bsp_itm_printf_enable ; 0x10000324
        0x10002356:    f7feff0b    ....    BL       am_util_stdio_terminal_clear ; 0x10001170
        0x1000235a:    f20f60f0    ...`    ADR.W    r0,{pc}+0x6f2 ; 0x10002a4c
        0x1000235e:    f7fefedd    ....    BL       am_util_stdio_printf ; 0x1000111c
        0x10002362:    f2480a00    H...    MOVW     r10,#0x8000
        0x10002366:    f2c10a00    ....    MOVT     r10,#0x1000
        0x1000236a:    4655        UF      MOV      r5,r10
        0x1000236c:    f8550b0c    U...    LDR      r0,[r5],#0xc
        0x10002370:    f64b61ef    K..a    MOV      r1,#0xbeef
        0x10002374:    f6cd61ad    ...a    MOVT     r1,#0xdead
        0x10002378:    f2490b90    I...    MOV      r11,#0x9090
        0x1000237c:    6001        .`      STR      r1,[r0,#0]
        0x1000237e:    f2c10b00    ....    MOVT     r11,#0x1000
        0x10002382:    f44f6780    O..g    MOV      r7,#0x400
        0x10002386:    f04f4080    O..@    MOV      r0,#0x40000000
        0x1000238a:    e9cb6600    ...f    STRD     r6,r6,[r11,#0]
        0x1000238e:    f8cb6008    ...`    STR      r6,[r11,#8]
        0x10002392:    f8c97000    ...p    STR      r7,[r9,#0]
        0x10002396:    f8c90000    ....    STR      r0,[r9,#0]
        0x1000239a:    f24500ec    E...    MOV      r0,#0x50ec
        0x1000239e:    f2c10000    ....    MOVT     r0,#0x1000
        0x100023a2:    6806        .h      LDR      r6,[r0,#0]
        0x100023a4:    f44f4000    O..@    MOV      r0,#0x8000
        0x100023a8:    f8c90000    ....    STR      r0,[r9,#0]
        0x100023ac:    200a        .       MOVS     r0,#0xa
        0x100023ae:    4631        1F      MOV      r1,r6
        0x100023b0:    f7fef9ea    ....    BL       am_hal_gpio_pinconfig ; 0x10000788
        0x100023b4:    201e        .       MOVS     r0,#0x1e
        0x100023b6:    4631        1F      MOV      r1,r6
        0x100023b8:    f7fef9e6    ....    BL       am_hal_gpio_pinconfig ; 0x10000788
        0x100023bc:    200f        .       MOVS     r0,#0xf
        0x100023be:    4631        1F      MOV      r1,r6
        0x100023c0:    f7fef9e2    ....    BL       am_hal_gpio_pinconfig ; 0x10000788
        0x100023c4:    2000        .       MOVS     r0,#0
        0x100023c6:    f04f31ff    O..1    MOV      r1,#0xffffffff
        0x100023ca:    f8497c08    I..|    STR      r7,[r9,#-8]
        0x100023ce:    f7fef9ad    ....    BL       am_hal_ctimer_stop ; 0x1000072c
        0x100023d2:    2000        .       MOVS     r0,#0
        0x100023d4:    f04f31ff    O..1    MOV      r1,#0xffffffff
        0x100023d8:    f7fef8c0    ....    BL       am_hal_ctimer_clear ; 0x1000055c
        0x100023dc:    2000        .       MOVS     r0,#0
        0x100023de:    4629        )F      MOV      r1,r5
        0x100023e0:    f7fef8d2    ....    BL       am_hal_ctimer_config ; 0x10000588
        0x100023e4:    2000        .       MOVS     r0,#0
        0x100023e6:    f64f71ff    O..q    MOV      r1,#0xffff
        0x100023ea:    f7fef96f    ..o.    BL       am_hal_ctimer_start ; 0x100006cc
        0x100023ee:    f24506f0    E...    MOV      r6,#0x50f0
        0x100023f2:    f2c10600    ....    MOVT     r6,#0x1000
        0x100023f6:    6830        0h      LDR      r0,[r6,#0]
        0x100023f8:    f8d68004    ....    LDR      r8,[r6,#4]
        0x100023fc:    2506        .%      MOVS     r5,#6
        0x100023fe:    2701        .'      MOVS     r7,#1
        0x10002400:    9002        ..      STR      r0,[sp,#8]
        0x10002402:    bf00        ..      NOP      
        0x10002404:    4620         F      MOV      r0,r4
        0x10002406:    2100        .!      MOVS     r1,#0
        0x10002408:    462a        *F      MOV      r2,r5
        0x1000240a:    47c0        .G      BLX      r8
        0x1000240c:    2800        .(      CMP      r0,#0
        0x1000240e:    f1050501    ....    ADD      r5,r5,#1
        0x10002412:    bf18        ..      IT       NE
        0x10002414:    f8cb7008    ...p    STRNE    r7,[r11,#8]
        0x10002418:    2d40        @-      CMP      r5,#0x40
        0x1000241a:    d1f3        ..      BNE      0x10002404 ; main + 228
        0x1000241c:    9a02        ..      LDR      r2,[sp,#8]
        0x1000241e:    f2480730    H.0.    MOV      r7,#0x8030
        0x10002422:    4620         F      MOV      r0,r4
        0x10002424:    2101        .!      MOVS     r1,#1
        0x10002426:    f2c02784    ...'    MOVT     r7,#0x284
        0x1000242a:    4790        .G      BLX      r2
        0x1000242c:    b110        ..      CBZ      r0,0x10002434 ; main + 276
        0x1000242e:    37d1        .7      ADDS     r7,r7,#0xd1
        0x10002430:    e1c1        ..      B        0x100027b6 ; main + 1174
        0x10002432:    bf00        ..      NOP      
        0x10002434:    68b0        .h      LDR      r0,[r6,#8]
        0x10002436:    f24949a8    I..I    MOV      r9,#0x94a8
        0x1000243a:    f44f4640    O.@F    MOV      r6,#0xc000
        0x1000243e:    f04f0b60    O.`.    MOV      r11,#0x60
        0x10002442:    f06f4a80    o..J    MVN      r10,#0x40000000
        0x10002446:    f2c10900    ....    MOVT     r9,#0x1000
        0x1000244a:    9003        ..      STR      r0,[sp,#0xc]
        0x1000244c:    f00b001f    ....    AND      r0,r11,#0x1f
        0x10002450:    fa4af300    J...    ASR      r3,r10,r0
        0x10002454:    2000        .       MOVS     r0,#0
        0x10002456:    f06f011f    o...    MVN      r1,#0x1f
        0x1000245a:    bf00        ..      NOP      
        0x1000245c:    085f        _.      LSRS     r7,r3,#1
        0x1000245e:    f8493000    I..0    STR      r3,[r9,r0]
        0x10002462:    f1074700    ...G    ADD      r7,r7,#0x80000000
        0x10002466:    3302        .3      ADDS     r3,#2
        0x10002468:    eb090200    ....    ADD      r2,r9,r0
        0x1000246c:    bf08        ..      IT       EQ
        0x1000246e:    f06f4700    o..G    MVNEQ    r7,#0x80000000
        0x10002472:    087b        {.      LSRS     r3,r7,#1
        0x10002474:    6057        W`      STR      r7,[r2,#4]
        0x10002476:    f1034300    ...C    ADD      r3,r3,#0x80000000
        0x1000247a:    3702        .7      ADDS     r7,#2
        0x1000247c:    bf08        ..      IT       EQ
        0x1000247e:    f06f4300    o..C    MVNEQ    r3,#0x80000000
        0x10002482:    085f        _.      LSRS     r7,r3,#1
        0x10002484:    6093        .`      STR      r3,[r2,#8]
        0x10002486:    f1074700    ...G    ADD      r7,r7,#0x80000000
        0x1000248a:    3302        .3      ADDS     r3,#2
        0x1000248c:    bf08        ..      IT       EQ
        0x1000248e:    f06f4700    o..G    MVNEQ    r7,#0x80000000
        0x10002492:    087b        {.      LSRS     r3,r7,#1
        0x10002494:    60d7        .`      STR      r7,[r2,#0xc]
        0x10002496:    f1034300    ...C    ADD      r3,r3,#0x80000000
        0x1000249a:    3702        .7      ADDS     r7,#2
        0x1000249c:    bf08        ..      IT       EQ
        0x1000249e:    f06f4300    o..C    MVNEQ    r3,#0x80000000
        0x100024a2:    085f        _.      LSRS     r7,r3,#1
        0x100024a4:    6113        .a      STR      r3,[r2,#0x10]
        0x100024a6:    f1074700    ...G    ADD      r7,r7,#0x80000000
        0x100024aa:    3302        .3      ADDS     r3,#2
        0x100024ac:    bf08        ..      IT       EQ
        0x100024ae:    f06f4700    o..G    MVNEQ    r7,#0x80000000
        0x100024b2:    087b        {.      LSRS     r3,r7,#1
        0x100024b4:    6157        Wa      STR      r7,[r2,#0x14]
        0x100024b6:    f1034300    ...C    ADD      r3,r3,#0x80000000
        0x100024ba:    3702        .7      ADDS     r7,#2
        0x100024bc:    bf08        ..      IT       EQ
        0x100024be:    f06f4300    o..C    MVNEQ    r3,#0x80000000
        0x100024c2:    085f        _.      LSRS     r7,r3,#1
        0x100024c4:    f1074700    ...G    ADD      r7,r7,#0x80000000
        0x100024c8:    6193        .a      STR      r3,[r2,#0x18]
        0x100024ca:    3302        .3      ADDS     r3,#2
        0x100024cc:    bf08        ..      IT       EQ
        0x100024ce:    f06f4700    o..G    MVNEQ    r7,#0x80000000
        0x100024d2:    087c        |.      LSRS     r4,r7,#1
        0x100024d4:    eb090301    ....    ADD      r3,r9,r1
        0x100024d8:    f1044400    ...D    ADD      r4,r4,#0x80000000
        0x100024dc:    1cbd        ..      ADDS     r5,r7,#2
        0x100024de:    bf08        ..      IT       EQ
        0x100024e0:    f06f4400    o..D    MVNEQ    r4,#0x80000000
        0x100024e4:    e9c3740f    ...t    STRD     r7,r4,[r3,#0x3c]
        0x100024e8:    0863        c.      LSRS     r3,r4,#1
        0x100024ea:    f1034300    ...C    ADD      r3,r3,#0x80000000
        0x100024ee:    1ca7        ..      ADDS     r7,r4,#2
        0x100024f0:    bf08        ..      IT       EQ
        0x100024f2:    f06f4300    o..C    MVNEQ    r3,#0x80000000
        0x100024f6:    085f        _.      LSRS     r7,r3,#1
        0x100024f8:    6253        Sb      STR      r3,[r2,#0x24]
        0x100024fa:    f1074700    ...G    ADD      r7,r7,#0x80000000
        0x100024fe:    3302        .3      ADDS     r3,#2
        0x10002500:    bf08        ..      IT       EQ
        0x10002502:    f06f4700    o..G    MVNEQ    r7,#0x80000000
        0x10002506:    087b        {.      LSRS     r3,r7,#1
        0x10002508:    6297        .b      STR      r7,[r2,#0x28]
        0x1000250a:    f1034300    ...C    ADD      r3,r3,#0x80000000
        0x1000250e:    3702        .7      ADDS     r7,#2
        0x10002510:    bf08        ..      IT       EQ
        0x10002512:    f06f4300    o..C    MVNEQ    r3,#0x80000000
        0x10002516:    085f        _.      LSRS     r7,r3,#1
        0x10002518:    62d3        .b      STR      r3,[r2,#0x2c]
        0x1000251a:    f1074700    ...G    ADD      r7,r7,#0x80000000
        0x1000251e:    3302        .3      ADDS     r3,#2
        0x10002520:    bf08        ..      IT       EQ
        0x10002522:    f06f4700    o..G    MVNEQ    r7,#0x80000000
        0x10002526:    087b        {.      LSRS     r3,r7,#1
        0x10002528:    6317        .c      STR      r7,[r2,#0x30]
        0x1000252a:    f1034300    ...C    ADD      r3,r3,#0x80000000
        0x1000252e:    3702        .7      ADDS     r7,#2
        0x10002530:    bf08        ..      IT       EQ
        0x10002532:    f06f4300    o..C    MVNEQ    r3,#0x80000000
        0x10002536:    085f        _.      LSRS     r7,r3,#1
        0x10002538:    6353        Sc      STR      r3,[r2,#0x34]
        0x1000253a:    f1074700    ...G    ADD      r7,r7,#0x80000000
        0x1000253e:    3302        .3      ADDS     r3,#2
        0x10002540:    bf08        ..      IT       EQ
        0x10002542:    f06f4700    o..G    MVNEQ    r7,#0x80000000
        0x10002546:    087b        {.      LSRS     r3,r7,#1
        0x10002548:    f1034500    ...E    ADD      r5,r3,#0x80000000
        0x1000254c:    6397        .c      STR      r7,[r2,#0x38]
        0x1000254e:    1cbb        ..      ADDS     r3,r7,#2
        0x10002550:    bf08        ..      IT       EQ
        0x10002552:    f06f4500    o..E    MVNEQ    r5,#0x80000000
        0x10002556:    63d5        .c      STR      r5,[r2,#0x3c]
        0x10002558:    086a        j.      LSRS     r2,r5,#1
        0x1000255a:    f1024300    ...C    ADD      r3,r2,#0x80000000
        0x1000255e:    1caa        ..      ADDS     r2,r5,#2
        0x10002560:    f1000040    ..@.    ADD      r0,r0,#0x40
        0x10002564:    bf08        ..      IT       EQ
        0x10002566:    f06f4300    o..C    MVNEQ    r3,#0x80000000
        0x1000256a:    f5b07f00    ....    CMP      r0,#0x200
        0x1000256e:    f1010140    ..@.    ADD      r1,r1,#0x40
        0x10002572:    f47faf73    ..s.    BNE      0x1000245c ; main + 316
        0x10002576:    f2443021    D.!0    MOV      r0,#0x4321
        0x1000257a:    9f03        ..      LDR      r7,[sp,#0xc]
        0x1000257c:    f2c12034    ..4     MOVT     r0,#0x1234
        0x10002580:    4649        IF      MOV      r1,r9
        0x10002582:    4632        2F      MOV      r2,r6
        0x10002584:    2380        .#      MOVS     r3,#0x80
        0x10002586:    47b8        .G      BLX      r7
        0x10002588:    2800        .(      CMP      r0,#0
        0x1000258a:    f04080f9    @...    BNE.W    0x10002780 ; main + 1120
        0x1000258e:    f10b0b01    ....    ADD      r11,r11,#1
        0x10002592:    f5bb6f00    ...o    CMP      r11,#0x800
        0x10002596:    f5067600    ...v    ADD      r6,r6,#0x200
        0x1000259a:    f47faf57    ..W.    BNE      0x1000244c ; main + 300
        0x1000259e:    f2490b90    I...    MOV      r11,#0x9090
        0x100025a2:    f44f4240    O.@B    MOV      r2,#0xc000
        0x100025a6:    2060        `       MOVS     r0,#0x60
        0x100025a8:    f06f4c80    o..L    MVN      r12,#0x40000000
        0x100025ac:    f2c10b00    ....    MOVT     r11,#0x1000
        0x100025b0:    f000011f    ....    AND      r1,r0,#0x1f
        0x100025b4:    fa4cf301    L...    ASR      r3,r12,r1
        0x100025b8:    f5027e00    ...~    ADD      lr,r2,#0x200
        0x100025bc:    2600        .&      MOVS     r6,#0
        0x100025be:    f8521026    R.&.    LDR      r1,[r2,r6,LSL #2]
        0x100025c2:    4299        .B      CMP      r1,r3
        0x100025c4:    f04080ea    @...    BNE.W    0x1000279c ; main + 1148
        0x100025c8:    eb020186    ....    ADD      r1,r2,r6,LSL #2
        0x100025cc:    085c        \.      LSRS     r4,r3,#1
        0x100025ce:    3302        .3      ADDS     r3,#2
        0x100025d0:    684b        Kh      LDR      r3,[r1,#4]
        0x100025d2:    f1044700    ...G    ADD      r7,r4,#0x80000000
        0x100025d6:    bf08        ..      IT       EQ
        0x100025d8:    f06f4700    o..G    MVNEQ    r7,#0x80000000
        0x100025dc:    42bb        .B      CMP      r3,r7
        0x100025de:    f04080dd    @...    BNE.W    0x1000279c ; main + 1148
        0x100025e2:    1cbc        ..      ADDS     r4,r7,#2
        0x100025e4:    ea4f0357    O.W.    LSR      r3,r7,#1
        0x100025e8:    688c        .h      LDR      r4,[r1,#8]
        0x100025ea:    f1034300    ...C    ADD      r3,r3,#0x80000000
        0x100025ee:    bf08        ..      IT       EQ
        0x100025f0:    f06f4300    o..C    MVNEQ    r3,#0x80000000
        0x100025f4:    429c        .B      CMP      r4,r3
        0x100025f6:    f04080d1    @...    BNE.W    0x1000279c ; main + 1148
        0x100025fa:    085c        \.      LSRS     r4,r3,#1
        0x100025fc:    3302        .3      ADDS     r3,#2
        0x100025fe:    68cb        .h      LDR      r3,[r1,#0xc]
        0x10002600:    f1044700    ...G    ADD      r7,r4,#0x80000000
        0x10002604:    bf08        ..      IT       EQ
        0x10002606:    f06f4700    o..G    MVNEQ    r7,#0x80000000
        0x1000260a:    42bb        .B      CMP      r3,r7
        0x1000260c:    f04080c6    @...    BNE.W    0x1000279c ; main + 1148
        0x10002610:    1cbc        ..      ADDS     r4,r7,#2
        0x10002612:    ea4f0357    O.W.    LSR      r3,r7,#1
        0x10002616:    690c        .i      LDR      r4,[r1,#0x10]
        0x10002618:    f1034300    ...C    ADD      r3,r3,#0x80000000
        0x1000261c:    bf08        ..      IT       EQ
        0x1000261e:    f06f4300    o..C    MVNEQ    r3,#0x80000000
        0x10002622:    429c        .B      CMP      r4,r3
        0x10002624:    f04080ba    @...    BNE.W    0x1000279c ; main + 1148
        0x10002628:    085c        \.      LSRS     r4,r3,#1
        0x1000262a:    3302        .3      ADDS     r3,#2
        0x1000262c:    694b        Ki      LDR      r3,[r1,#0x14]
        0x1000262e:    f1044700    ...G    ADD      r7,r4,#0x80000000
        0x10002632:    bf08        ..      IT       EQ
        0x10002634:    f06f4700    o..G    MVNEQ    r7,#0x80000000
        0x10002638:    42bb        .B      CMP      r3,r7
        0x1000263a:    f04080af    @...    BNE.W    0x1000279c ; main + 1148
        0x1000263e:    1cbc        ..      ADDS     r4,r7,#2
        0x10002640:    ea4f0357    O.W.    LSR      r3,r7,#1
        0x10002644:    698c        .i      LDR      r4,[r1,#0x18]
        0x10002646:    f1034300    ...C    ADD      r3,r3,#0x80000000
        0x1000264a:    bf08        ..      IT       EQ
        0x1000264c:    f06f4300    o..C    MVNEQ    r3,#0x80000000
        0x10002650:    429c        .B      CMP      r4,r3
        0x10002652:    f04080a3    @...    BNE.W    0x1000279c ; main + 1148
        0x10002656:    085c        \.      LSRS     r4,r3,#1
        0x10002658:    3302        .3      ADDS     r3,#2
        0x1000265a:    69cb        .i      LDR      r3,[r1,#0x1c]
        0x1000265c:    f1044700    ...G    ADD      r7,r4,#0x80000000
        0x10002660:    bf08        ..      IT       EQ
        0x10002662:    f06f4700    o..G    MVNEQ    r7,#0x80000000
        0x10002666:    42bb        .B      CMP      r3,r7
        0x10002668:    f0408098    @...    BNE.W    0x1000279c ; main + 1148
        0x1000266c:    1cbc        ..      ADDS     r4,r7,#2
        0x1000266e:    ea4f0357    O.W.    LSR      r3,r7,#1
        0x10002672:    6a0c        .j      LDR      r4,[r1,#0x20]
        0x10002674:    f1034300    ...C    ADD      r3,r3,#0x80000000
        0x10002678:    bf08        ..      IT       EQ
        0x1000267a:    f06f4300    o..C    MVNEQ    r3,#0x80000000
        0x1000267e:    429c        .B      CMP      r4,r3
        0x10002680:    f040808c    @...    BNE.W    0x1000279c ; main + 1148
        0x10002684:    085c        \.      LSRS     r4,r3,#1
        0x10002686:    3302        .3      ADDS     r3,#2
        0x10002688:    6a4b        Kj      LDR      r3,[r1,#0x24]
        0x1000268a:    f1044700    ...G    ADD      r7,r4,#0x80000000
        0x1000268e:    bf08        ..      IT       EQ
        0x10002690:    f06f4700    o..G    MVNEQ    r7,#0x80000000
        0x10002694:    42bb        .B      CMP      r3,r7
        0x10002696:    f0408081    @...    BNE.W    0x1000279c ; main + 1148
        0x1000269a:    1cbc        ..      ADDS     r4,r7,#2
        0x1000269c:    ea4f0357    O.W.    LSR      r3,r7,#1
        0x100026a0:    6a8c        .j      LDR      r4,[r1,#0x28]
        0x100026a2:    f1034300    ...C    ADD      r3,r3,#0x80000000
        0x100026a6:    bf08        ..      IT       EQ
        0x100026a8:    f06f4300    o..C    MVNEQ    r3,#0x80000000
        0x100026ac:    429c        .B      CMP      r4,r3
        0x100026ae:    d175        u.      BNE      0x1000279c ; main + 1148
        0x100026b0:    085c        \.      LSRS     r4,r3,#1
        0x100026b2:    3302        .3      ADDS     r3,#2
        0x100026b4:    6acb        .j      LDR      r3,[r1,#0x2c]
        0x100026b6:    f1044700    ...G    ADD      r7,r4,#0x80000000
        0x100026ba:    bf08        ..      IT       EQ
        0x100026bc:    f06f4700    o..G    MVNEQ    r7,#0x80000000
        0x100026c0:    42bb        .B      CMP      r3,r7
        0x100026c2:    d16b        k.      BNE      0x1000279c ; main + 1148
        0x100026c4:    1cbc        ..      ADDS     r4,r7,#2
        0x100026c6:    ea4f0357    O.W.    LSR      r3,r7,#1
        0x100026ca:    6b0c        .k      LDR      r4,[r1,#0x30]
        0x100026cc:    f1034300    ...C    ADD      r3,r3,#0x80000000
        0x100026d0:    bf08        ..      IT       EQ
        0x100026d2:    f06f4300    o..C    MVNEQ    r3,#0x80000000
        0x100026d6:    429c        .B      CMP      r4,r3
        0x100026d8:    d160        `.      BNE      0x1000279c ; main + 1148
        0x100026da:    085c        \.      LSRS     r4,r3,#1
        0x100026dc:    3302        .3      ADDS     r3,#2
        0x100026de:    6b4b        Kk      LDR      r3,[r1,#0x34]
        0x100026e0:    f1044700    ...G    ADD      r7,r4,#0x80000000
        0x100026e4:    bf08        ..      IT       EQ
        0x100026e6:    f06f4700    o..G    MVNEQ    r7,#0x80000000
        0x100026ea:    42bb        .B      CMP      r3,r7
        0x100026ec:    d156        V.      BNE      0x1000279c ; main + 1148
        0x100026ee:    1cbc        ..      ADDS     r4,r7,#2
        0x100026f0:    ea4f0357    O.W.    LSR      r3,r7,#1
        0x100026f4:    6b8c        .k      LDR      r4,[r1,#0x38]
        0x100026f6:    f1034300    ...C    ADD      r3,r3,#0x80000000
        0x100026fa:    bf08        ..      IT       EQ
        0x100026fc:    f06f4300    o..C    MVNEQ    r3,#0x80000000
        0x10002700:    429c        .B      CMP      r4,r3
        0x10002702:    d14b        K.      BNE      0x1000279c ; main + 1148
        0x10002704:    085c        \.      LSRS     r4,r3,#1
        0x10002706:    6bc9        .k      LDR      r1,[r1,#0x3c]
        0x10002708:    f1044700    ...G    ADD      r7,r4,#0x80000000
        0x1000270c:    3302        .3      ADDS     r3,#2
        0x1000270e:    bf08        ..      IT       EQ
        0x10002710:    f06f4700    o..G    MVNEQ    r7,#0x80000000
        0x10002714:    42b9        .B      CMP      r1,r7
        0x10002716:    d141        A.      BNE      0x1000279c ; main + 1148
        0x10002718:    0879        y.      LSRS     r1,r7,#1
        0x1000271a:    f1014300    ...C    ADD      r3,r1,#0x80000000
        0x1000271e:    1cb9        ..      ADDS     r1,r7,#2
        0x10002720:    f1060610    ....    ADD      r6,r6,#0x10
        0x10002724:    bf08        ..      IT       EQ
        0x10002726:    f06f4300    o..C    MVNEQ    r3,#0x80000000
        0x1000272a:    2e80        ..      CMP      r6,#0x80
        0x1000272c:    f47faf47    ..G.    BNE      0x100025be ; main + 670
        0x10002730:    3001        .0      ADDS     r0,#1
        0x10002732:    f5b06f00    ...o    CMP      r0,#0x800
        0x10002736:    4672        rF      MOV      r2,lr
        0x10002738:    f47faf3a    ..:.    BNE      0x100025b0 ; main + 656
        0x1000273c:    f2480730    H.0.    MOV      r7,#0x8030
        0x10002740:    9c02        ..      LDR      r4,[sp,#8]
        0x10002742:    2606        .&      MOVS     r6,#6
        0x10002744:    f04f0a01    O...    MOV      r10,#1
        0x10002748:    f2c02784    ...'    MOVT     r7,#0x284
        0x1000274c:    f2443021    D.!0    MOV      r0,#0x4321
        0x10002750:    f2c12034    ..4     MOVT     r0,#0x1234
        0x10002754:    2100        .!      MOVS     r1,#0
        0x10002756:    4632        2F      MOV      r2,r6
        0x10002758:    47c0        .G      BLX      r8
        0x1000275a:    2800        .(      CMP      r0,#0
        0x1000275c:    f1060601    ....    ADD      r6,r6,#1
        0x10002760:    bf18        ..      IT       NE
        0x10002762:    f8cba008    ....    STRNE    r10,[r11,#8]
        0x10002766:    2e40        @.      CMP      r6,#0x40
        0x10002768:    d1f0        ..      BNE      0x1000274c ; main + 1068
        0x1000276a:    f2443021    D.!0    MOV      r0,#0x4321
        0x1000276e:    f2c12034    ..4     MOVT     r0,#0x1234
        0x10002772:    2101        .!      MOVS     r1,#1
        0x10002774:    47a0        .G      BLX      r4
        0x10002776:    2800        .(      CMP      r0,#0
        0x10002778:    f0008084    ....    BEQ.W    0x10002884 ; main + 1380
        0x1000277c:    37d3        .7      ADDS     r7,r7,#0xd3
        0x1000277e:    e012        ..      B        0x100027a6 ; main + 1158
        0x10002780:    f2480730    H.0.    MOV      r7,#0x8030
        0x10002784:    f2c02784    ...'    MOVT     r7,#0x284
        0x10002788:    37d2        .7      ADDS     r7,r7,#0xd2
        0x1000278a:    f2400998    @...    MOVW     r9,#0x98
        0x1000278e:    f2490b90    I...    MOV      r11,#0x9090
        0x10002792:    f2c40901    ....    MOVT     r9,#0x4001
        0x10002796:    f2c10b00    ....    MOVT     r11,#0x1000
        0x1000279a:    e008        ..      B        0x100027ae ; main + 1166
        0x1000279c:    f2480730    H.0.    MOV      r7,#0x8030
        0x100027a0:    f2c02784    ...'    MOVT     r7,#0x284
        0x100027a4:    3f20         ?      SUBS     r7,r7,#0x20
        0x100027a6:    f2400998    @...    MOVW     r9,#0x98
        0x100027aa:    f2c40901    ....    MOVT     r9,#0x4001
        0x100027ae:    f2480a00    H...    MOVW     r10,#0x8000
        0x100027b2:    f2c10a00    ....    MOVT     r10,#0x1000
        0x100027b6:    f8da0000    ....    LDR      r0,[r10,#0]
        0x100027ba:    2500        .%      MOVS     r5,#0
        0x100027bc:    6007        .`      STR      r7,[r0,#0]
        0x100027be:    2000        .       MOVS     r0,#0
        0x100027c0:    f04f31ff    O..1    MOV      r1,#0xffffffff
        0x100027c4:    f6cf25e0    ...%    MOVT     r5,#0xfae0
        0x100027c8:    f7fdffb0    ....    BL       am_hal_ctimer_stop ; 0x1000072c
        0x100027cc:    2000        .       MOVS     r0,#0
        0x100027ce:    f04f31ff    O..1    MOV      r1,#0xffffffff
        0x100027d2:    f7fdff17    ....    BL       am_hal_ctimer_read ; 0x10000604
        0x100027d6:    f6497181    I..q    MOV      r1,#0x9f81
        0x100027da:    f2c1615e    ..^a    MOVT     r1,#0x165e
        0x100027de:    fba02301    ...#    UMULL    r2,r3,r0,r1
        0x100027e2:    0b1a        ..      LSRS     r2,r3,#12
        0x100027e4:    f24b761b    K..v    MOV      r6,#0xb71b
        0x100027e8:    e9da3700    ...7    LDRD     r3,r7,[r10,#0]
        0x100027ec:    fb020016    ....    MLS      r0,r2,r6,r0
        0x100027f0:    f8da6008    ...`    LDR      r6,[r10,#8]
        0x100027f4:    603a        :`      STR      r2,[r7,#0]
        0x100027f6:    6030        0`      STR      r0,[r6,#0]
        0x100027f8:    6830        0h      LDR      r0,[r6,#0]
        0x100027fa:    f44f727a    O.zr    MOV      r2,#0x3e8
        0x100027fe:    4350        PC      MULS     r0,r2,r0
        0x10002800:    fba00101    ....    UMULL    r0,r1,r0,r1
        0x10002804:    0b08        ..      LSRS     r0,r1,#12
        0x10002806:    6030        0`      STR      r0,[r6,#0]
        0x10002808:    6818        .h      LDR      r0,[r3,#0]
        0x1000280a:    4328        (C      ORRS     r0,r0,r5
        0x1000280c:    6018        .`      STR      r0,[r3,#0]
        0x1000280e:    6818        .h      LDR      r0,[r3,#0]
        0x10002810:    f8db1008    ....    LDR      r1,[r11,#8]
        0x10002814:    0300        ..      LSLS     r0,r0,#12
        0x10002816:    bf18        ..      IT       NE
        0x10002818:    3101        .1      ADDNE    r1,#1
        0x1000281a:    f8cb1008    ....    STR      r1,[r11,#8]
        0x1000281e:    6819        .h      LDR      r1,[r3,#0]
        0x10002820:    a08e        ..      ADR      r0,{pc}+0x23c ; 0x10002a5c
        0x10002822:    f7fefc7b    ..{.    BL       am_util_stdio_printf ; 0x1000111c
        0x10002826:    f8da1000    ....    LDR      r1,[r10,#0]
        0x1000282a:    6808        .h      LDR      r0,[r1,#0]
        0x1000282c:    0300        ..      LSLS     r0,r0,#12
        0x1000282e:    f245204a    E.J     MOV      r0,#0x524a
        0x10002832:    f2c10000    ....    MOVT     r0,#0x1000
        0x10002836:    d107        ..      BNE      0x10002848 ; main + 1320
        0x10002838:    6809        .h      LDR      r1,[r1,#0]
        0x1000283a:    f10562a2    ...b    ADD      r2,r5,#0x5100000
        0x1000283e:    4011        .@      ANDS     r1,r1,r2
        0x10002840:    a28f        ..      ADR      r2,{pc}+0x240 ; 0x10002a80
        0x10002842:    42a9        .B      CMP      r1,r5
        0x10002844:    bf08        ..      IT       EQ
        0x10002846:    4610        .F      MOVEQ    r0,r2
        0x10002848:    f7fefc68    ..h.    BL       am_util_stdio_printf ; 0x1000111c
        0x1000284c:    e9da0201    ....    LDRD     r0,r2,[r10,#4]
        0x10002850:    6801        .h      LDR      r1,[r0,#0]
        0x10002852:    6812        .h      LDR      r2,[r2,#0]
        0x10002854:    a08d        ..      ADR      r0,{pc}+0x238 ; 0x10002a8c
        0x10002856:    f7fefc61    ..a.    BL       am_util_stdio_printf ; 0x1000111c
        0x1000285a:    f7fdfd2b    ..+.    BL       am_bsp_debug_printf_disable ; 0x100002b4
        0x1000285e:    f8db0008    ....    LDR      r0,[r11,#8]
        0x10002862:    2800        .(      CMP      r0,#0
        0x10002864:    bf04        ..      ITT      EQ
        0x10002866:    f44f4000    O..@    MOVEQ    r0,#0x8000
        0x1000286a:    f8490c08    I...    STREQ    r0,[r9,#-8]
        0x1000286e:    f44f6080    O..`    MOV      r0,#0x400
        0x10002872:    f8c90000    ....    STR      r0,[r9,#0]
        0x10002876:    f04f4080    O..@    MOV      r0,#0x40000000
        0x1000287a:    f8490c08    I...    STR      r0,[r9,#-8]
        0x1000287e:    bf00        ..      NOP      
        0x10002880:    e7fe        ..      B        0x10002880 ; main + 1376
        0x10002882:    bf00        ..      NOP      
        0x10002884:    f24964a8    I..d    MOV      r4,#0x96a8
        0x10002888:    f04f3555    O.U5    MOV      r5,#0x55555555
        0x1000288c:    f04f31aa    O..1    MOV      r1,#0xaaaaaaaa
        0x10002890:    f2c10400    ....    MOVT     r4,#0x1000
        0x10002894:    2601        .&      MOVS     r6,#1
        0x10002896:    07f0        ..      LSLS     r0,r6,#31
        0x10002898:    9001        ..      STR      r0,[sp,#4]
        0x1000289a:    468b        .F      MOV      r11,r1
        0x1000289c:    f04f0000    O...    MOV      r0,#0
        0x100028a0:    f06f0607    o...    MVN      r6,#7
        0x100028a4:    462f        /F      MOV      r7,r5
        0x100028a6:    d02b        +.      BEQ      0x10002900 ; main + 1504
        0x100028a8:    3610        .6      ADDS     r6,r6,#0x10
        0x100028aa:    eb090300    ....    ADD      r3,r9,r0
        0x100028ae:    f849b000    I...    STR      r11,[r9,r0]
        0x100028b2:    1822        ".      ADDS     r2,r4,r0
        0x100028b4:    5027        'P      STR      r7,[r4,r0]
        0x100028b6:    2e78        x.      CMP      r6,#0x78
        0x100028b8:    f1000040    ..@.    ADD      r0,r0,#0x40
        0x100028bc:    e9c3bb01    ....    STRD     r11,r11,[r3,#4]
        0x100028c0:    e9c3b703    ....    STRD     r11,r7,[r3,#0xc]
        0x100028c4:    e9c37705    ...w    STRD     r7,r7,[r3,#0x14]
        0x100028c8:    e9c37b07    ...{    STRD     r7,r11,[r3,#0x1c]
        0x100028cc:    e9c3bb09    ....    STRD     r11,r11,[r3,#0x24]
        0x100028d0:    e9c3b70b    ....    STRD     r11,r7,[r3,#0x2c]
        0x100028d4:    e9c3770d    ...w    STRD     r7,r7,[r3,#0x34]
        0x100028d8:    63df        .c      STR      r7,[r3,#0x3c]
        0x100028da:    e9c27701    ...w    STRD     r7,r7,[r2,#4]
        0x100028de:    e9c27b03    ...{    STRD     r7,r11,[r2,#0xc]
        0x100028e2:    e9c2bb05    ....    STRD     r11,r11,[r2,#0x14]
        0x100028e6:    e9c2b707    ....    STRD     r11,r7,[r2,#0x1c]
        0x100028ea:    e9c27709    ...w    STRD     r7,r7,[r2,#0x24]
        0x100028ee:    e9c27b0b    ...{    STRD     r7,r11,[r2,#0x2c]
        0x100028f2:    e9c2bb0d    ....    STRD     r11,r11,[r2,#0x34]
        0x100028f6:    f8c2b03c    ..<.    STR      r11,[r2,#0x3c]
        0x100028fa:    d3d5        ..      BCC      0x100028a8 ; main + 1416
        0x100028fc:    e02a        *.      B        0x10002954 ; main + 1588
        0x100028fe:    bf00        ..      NOP      
        0x10002900:    3610        .6      ADDS     r6,r6,#0x10
        0x10002902:    eb090300    ....    ADD      r3,r9,r0
        0x10002906:    f849b000    I...    STR      r11,[r9,r0]
        0x1000290a:    1822        ".      ADDS     r2,r4,r0
        0x1000290c:    5027        'P      STR      r7,[r4,r0]
        0x1000290e:    2e78        x.      CMP      r6,#0x78
        0x10002910:    f1000040    ..@.    ADD      r0,r0,#0x40
        0x10002914:    e9c37b01    ...{    STRD     r7,r11,[r3,#4]
        0x10002918:    e9c37b03    ...{    STRD     r7,r11,[r3,#0xc]
        0x1000291c:    e9c37b05    ...{    STRD     r7,r11,[r3,#0x14]
        0x10002920:    e9c37b07    ...{    STRD     r7,r11,[r3,#0x1c]
        0x10002924:    e9c37b09    ...{    STRD     r7,r11,[r3,#0x24]
        0x10002928:    e9c37b0b    ...{    STRD     r7,r11,[r3,#0x2c]
        0x1000292c:    e9c37b0d    ...{    STRD     r7,r11,[r3,#0x34]
        0x10002930:    63df        .c      STR      r7,[r3,#0x3c]
        0x10002932:    e9c2b701    ....    STRD     r11,r7,[r2,#4]
        0x10002936:    e9c2b703    ....    STRD     r11,r7,[r2,#0xc]
        0x1000293a:    e9c2b705    ....    STRD     r11,r7,[r2,#0x14]
        0x1000293e:    e9c2b707    ....    STRD     r11,r7,[r2,#0x1c]
        0x10002942:    e9c2b709    ....    STRD     r11,r7,[r2,#0x24]
        0x10002946:    e9c2b70b    ....    STRD     r11,r7,[r2,#0x2c]
        0x1000294a:    e9c2b70d    ....    STRD     r11,r7,[r2,#0x34]
        0x1000294e:    f8c2b03c    ..<.    STR      r11,[r2,#0x3c]
        0x10002952:    d3d5        ..      BCC      0x10002900 ; main + 1504
        0x10002954:    f04f0a5e    O.^.    MOV      r10,#0x5e
        0x10002958:    f44f4640    O.@F    MOV      r6,#0xc000
        0x1000295c:    f2443021    D.!0    MOV      r0,#0x4321
        0x10002960:    9f03        ..      LDR      r7,[sp,#0xc]
        0x10002962:    f2c12034    ..4     MOVT     r0,#0x1234
        0x10002966:    4649        IF      MOV      r1,r9
        0x10002968:    4632        2F      MOV      r2,r6
        0x1000296a:    2380        .#      MOVS     r3,#0x80
        0x1000296c:    47b8        .G      BLX      r7
        0x1000296e:    2800        .(      CMP      r0,#0
        0x10002970:    f0428110    B...    BNE.W    0x10004b94 ; main + 10356
        0x10002974:    f10a0a02    ....    ADD      r10,r10,#2
        0x10002978:    f24070fe    @..p    MOV      r0,#0x7fe
        0x1000297c:    4582        .E      CMP      r10,r0
        0x1000297e:    f5066680    ...f    ADD      r6,r6,#0x400
        0x10002982:    d3eb        ..      BCC      0x1000295c ; main + 1596
        0x10002984:    f64f6600    O..f    MOVW     r6,#0xfe00
        0x10002988:    f6400a01    @...    MOV      r10,#0x801
        0x1000298c:    f2c0060f    ....    MOVT     r6,#0xf
        0x10002990:    f2443021    D.!0    MOV      r0,#0x4321
        0x10002994:    9f03        ..      LDR      r7,[sp,#0xc]
        0x10002996:    f2c12034    ..4     MOVT     r0,#0x1234
        0x1000299a:    4621        !F      MOV      r1,r4
        0x1000299c:    4632        2F      MOV      r2,r6
        0x1000299e:    2380        .#      MOVS     r3,#0x80
        0x100029a0:    47b8        .G      BLX      r7
        0x100029a2:    2800        .(      CMP      r0,#0
        0x100029a4:    f04280fe    B...    BNE.W    0x10004ba4 ; main + 10372
        0x100029a8:    f1aa0a02    ....    SUB      r10,r10,#2
        0x100029ac:    f1ba0f62    ..b.    CMP      r10,#0x62
        0x100029b0:    f5a66680    ...f    SUB      r6,r6,#0x400
        0x100029b4:    d8ec        ..      BHI      0x10002990 ; main + 1648
        0x100029b6:    f44f4040    O.@@    MOV      r0,#0xc000
        0x100029ba:    2160        `!      MOVS     r1,#0x60
        0x100029bc:    9a01        ..      LDR      r2,[sp,#4]
        0x100029be:    2a00        .*      CMP      r2,#0
        0x100029c0:    f0010201    ....    AND      r2,r1,#1
        0x100029c4:    d010        ..      BEQ      0x100029e8 ; main + 1736
        0x100029c6:    bb0a        ..      CBNZ     r2,0x10002a0c ; main + 1772
        0x100029c8:    2200        ."      MOVS     r2,#0
        0x100029ca:    e005        ..      B        0x100029d8 ; main + 1720
        0x100029cc:    42ab        .B      CMP      r3,r5
        0x100029ce:    f0428111    B...    BNE.W    0x10004bf4 ; main + 10452
        0x100029d2:    3201        .2      ADDS     r2,#1
        0x100029d4:    2a80        .*      CMP      r2,#0x80
        0x100029d6:    d06f        o.      BEQ      0x10002ab8 ; main + 1944
        0x100029d8:    f8503022    P."0    LDR      r3,[r0,r2,LSL #2]
        0x100029dc:    0757        W.      LSLS     r7,r2,#29
        0x100029de:    d4f5        ..      BMI      0x100029cc ; main + 1708
        0x100029e0:    455b        [E      CMP      r3,r11
        0x100029e2:    d0f6        ..      BEQ      0x100029d2 ; main + 1714
        0x100029e4:    f002b90e    ....    B.W      0x10004c04 ; main + 10468
        0x100029e8:    bb02        ..      CBNZ     r2,0x10002a2c ; main + 1804
        0x100029ea:    2200        ."      MOVS     r2,#0
        0x100029ec:    e006        ..      B        0x100029fc ; main + 1756
        0x100029ee:    bf00        ..      NOP      
        0x100029f0:    42ab        .B      CMP      r3,r5
        0x100029f2:    f04280ef    B...    BNE.W    0x10004bd4 ; main + 10420
        0x100029f6:    3201        .2      ADDS     r2,#1
        0x100029f8:    2a80        .*      CMP      r2,#0x80
        0x100029fa:    d05d        ].      BEQ      0x10002ab8 ; main + 1944
        0x100029fc:    f8503022    P."0    LDR      r3,[r0,r2,LSL #2]
        0x10002a00:    07d7        ..      LSLS     r7,r2,#31
        0x10002a02:    d1f5        ..      BNE      0x100029f0 ; main + 1744
        0x10002a04:    455b        [E      CMP      r3,r11
        0x10002a06:    d0f6        ..      BEQ      0x100029f6 ; main + 1750
        0x10002a08:    f002b8ec    ....    B.W      0x10004be4 ; main + 10436
        0x10002a0c:    2200        ."      MOVS     r2,#0
        0x10002a0e:    e005        ..      B        0x10002a1c ; main + 1788
        0x10002a10:    455b        [E      CMP      r3,r11
        0x10002a12:    f0428107    B...    BNE.W    0x10004c24 ; main + 10500
        0x10002a16:    3201        .2      ADDS     r2,#1
        0x10002a18:    2a80        .*      CMP      r2,#0x80
        0x10002a1a:    d04d        M.      BEQ      0x10002ab8 ; main + 1944
        0x10002a1c:    f8503022    P."0    LDR      r3,[r0,r2,LSL #2]
        0x10002a20:    0757        W.      LSLS     r7,r2,#29
        0x10002a22:    d4f5        ..      BMI      0x10002a10 ; main + 1776
        0x10002a24:    42ab        .B      CMP      r3,r5
        0x10002a26:    d0f6        ..      BEQ      0x10002a16 ; main + 1782
        0x10002a28:    f002b8f4    ....    B.W      0x10004c14 ; main + 10484
        0x10002a2c:    2200        ."      MOVS     r2,#0
        0x10002a2e:    e005        ..      B        0x10002a3c ; main + 1820
        0x10002a30:    455b        [E      CMP      r3,r11
        0x10002a32:    f04280bf    B...    BNE.W    0x10004bb4 ; main + 10388
        0x10002a36:    3201        .2      ADDS     r2,#1
        0x10002a38:    2a80        .*      CMP      r2,#0x80
        0x10002a3a:    d03d        =.      BEQ      0x10002ab8 ; main + 1944
        0x10002a3c:    f8503022    P."0    LDR      r3,[r0,r2,LSL #2]
        0x10002a40:    07d7        ..      LSLS     r7,r2,#31
        0x10002a42:    d1f5        ..      BNE      0x10002a30 ; main + 1808
        0x10002a44:    42ab        .B      CMP      r3,r5
        0x10002a46:    d0f6        ..      BEQ      0x10002a36 ; main + 1814
        0x10002a48:    f002b8bc    ....    B.W      0x10004bc4 ; main + 10404
    $d.2
        0x10002a4c:    73616c66    flas    DCD    1935764582
        0x10002a50:    65735f68    h_se    DCD    1702059880
        0x10002a54:    6574666c    lfte    DCD    1702127212
        0x10002a58:    000a7473    st..    DCD    685171
        0x10002a5c:    75736552    Resu    DCD    1970496850
        0x10002a60:    3d20746c    lt =    DCD    1025537132
        0x10002a64:    25783020     0x%    DCD    628633632
        0x10002a68:    20583830    08X     DCD    542652464
        0x10002a6c:    202d2d2d    ---     DCD    539831597
        0x10002a70:    73616c46    Flas    DCD    1935764550
        0x10002a74:    65532068    h Se    DCD    1699946600
        0x10002a78:    6574666c    lfte    DCD    1702127212
        0x10002a7c:    00207473    st .    DCD    2126963
        0x10002a80:    53534150    PASS    DCD    1397965136
        0x10002a84:    0a2e4445    ED..    DCD    170804293
        0x10002a88:    00000000    ....    DCD    0
        0x10002a8c:    73616c66    flas    DCD    1935764582
        0x10002a90:    65735f68    h_se    DCD    1702059880
        0x10002a94:    6574666c    lfte    DCD    1702127212
        0x10002a98:    63207473    st c    DCD    1663071347
        0x10002a9c:    6c706d6f    ompl    DCD    1819307375
        0x10002aa0:    64657465    eted    DCD    1684370533
        0x10002aa4:    206e6920     in     DCD    544106784
        0x10002aa8:    252e6425    %d.%    DCD    623797285
        0x10002aac:    65732064    d se    DCD    1702043748
        0x10002ab0:    646e6f63    cond    DCD    1684959075
        0x10002ab4:    000a2e73    s...    DCD    667251
    $t.3
        0x10002ab8:    3101        .1      ADDS     r1,#1
        0x10002aba:    f5b16f00    ...o    CMP      r1,#0x800
        0x10002abe:    f5007000    ...p    ADD      r0,r0,#0x200
        0x10002ac2:    f47faf7b    ..{.    BNE      0x100029bc ; main + 1692
        0x10002ac6:    f1bb3faa    ...?    CMP      r11,#0xaaaaaaaa
        0x10002aca:    f001801f    ....    BEQ.W    0x10003b0c ; main + 6124
        0x10002ace:    f1bb3f55    ..U?    CMP      r11,#0x55555555
        0x10002ad2:    f042802f    B./.    BNE.W    0x10004b34 ; main + 10260
        0x10002ad6:    f2443021    D.!0    MOV      r0,#0x4321
        0x10002ada:    f2c12034    ..4     MOVT     r0,#0x1234
        0x10002ade:    2100        .!      MOVS     r1,#0
        0x10002ae0:    2206        ."      MOVS     r2,#6
        0x10002ae2:    47c0        .G      BLX      r8
        0x10002ae4:    b128        (.      CBZ      r0,0x10002af2 ; main + 2002
        0x10002ae6:    f2490090    I...    MOV      r0,#0x9090
        0x10002aea:    f2c10000    ....    MOVT     r0,#0x1000
        0x10002aee:    2101        .!      MOVS     r1,#1
        0x10002af0:    6081        .`      STR      r1,[r0,#8]
        0x10002af2:    f2443021    D.!0    MOV      r0,#0x4321
        0x10002af6:    f2c12034    ..4     MOVT     r0,#0x1234
        0x10002afa:    2100        .!      MOVS     r1,#0
        0x10002afc:    2208        ."      MOVS     r2,#8
        0x10002afe:    47c0        .G      BLX      r8
        0x10002b00:    b128        (.      CBZ      r0,0x10002b0e ; main + 2030
        0x10002b02:    f2490090    I...    MOV      r0,#0x9090
        0x10002b06:    f2c10000    ....    MOVT     r0,#0x1000
        0x10002b0a:    2101        .!      MOVS     r1,#1
        0x10002b0c:    6081        .`      STR      r1,[r0,#8]
        0x10002b0e:    f2443021    D.!0    MOV      r0,#0x4321
        0x10002b12:    f2c12034    ..4     MOVT     r0,#0x1234
        0x10002b16:    2100        .!      MOVS     r1,#0
        0x10002b18:    220a        ."      MOVS     r2,#0xa
        0x10002b1a:    47c0        .G      BLX      r8
        0x10002b1c:    b128        (.      CBZ      r0,0x10002b2a ; main + 2058
        0x10002b1e:    f2490090    I...    MOV      r0,#0x9090
        0x10002b22:    f2c10000    ....    MOVT     r0,#0x1000
        0x10002b26:    2101        .!      MOVS     r1,#1
        0x10002b28:    6081        .`      STR      r1,[r0,#8]
        0x10002b2a:    f2443021    D.!0    MOV      r0,#0x4321
        0x10002b2e:    f2c12034    ..4     MOVT     r0,#0x1234
        0x10002b32:    2100        .!      MOVS     r1,#0
        0x10002b34:    220c        ."      MOVS     r2,#0xc
        0x10002b36:    47c0        .G      BLX      r8
        0x10002b38:    b128        (.      CBZ      r0,0x10002b46 ; main + 2086
        0x10002b3a:    f2490090    I...    MOV      r0,#0x9090
        0x10002b3e:    f2c10000    ....    MOVT     r0,#0x1000
        0x10002b42:    2101        .!      MOVS     r1,#1
        0x10002b44:    6081        .`      STR      r1,[r0,#8]
        0x10002b46:    f2443021    D.!0    MOV      r0,#0x4321
        0x10002b4a:    f2c12034    ..4     MOVT     r0,#0x1234
        0x10002b4e:    2100        .!      MOVS     r1,#0
        0x10002b50:    220e        ."      MOVS     r2,#0xe
        0x10002b52:    47c0        .G      BLX      r8
        0x10002b54:    b128        (.      CBZ      r0,0x10002b62 ; main + 2114
        0x10002b56:    f2490090    I...    MOV      r0,#0x9090
        0x10002b5a:    f2c10000    ....    MOVT     r0,#0x1000
        0x10002b5e:    2101        .!      MOVS     r1,#1
        0x10002b60:    6081        .`      STR      r1,[r0,#8]
        0x10002b62:    f2443021    D.!0    MOV      r0,#0x4321
        0x10002b66:    f2c12034    ..4     MOVT     r0,#0x1234
        0x10002b6a:    2100        .!      MOVS     r1,#0
        0x10002b6c:    2210        ."      MOVS     r2,#0x10
        0x10002b6e:    47c0        .G      BLX      r8
        0x10002b70:    b128        (.      CBZ      r0,0x10002b7e ; main + 2142
        0x10002b72:    f2490090    I...    MOV      r0,#0x9090
        0x10002b76:    f2c10000    ....    MOVT     r0,#0x1000
        0x10002b7a:    2101        .!      MOVS     r1,#1
        0x10002b7c:    6081        .`      STR      r1,[r0,#8]
        0x10002b7e:    f2443021    D.!0    MOV      r0,#0x4321
        0x10002b82:    f2c12034    ..4     MOVT     r0,#0x1234
        0x10002b86:    2100        .!      MOVS     r1,#0
        0x10002b88:    2212        ."      MOVS     r2,#0x12
        0x10002b8a:    47c0        .G      BLX      r8
        0x10002b8c:    b128        (.      CBZ      r0,0x10002b9a ; main + 2170
        0x10002b8e:    f2490090    I...    MOV      r0,#0x9090
        0x10002b92:    f2c10000    ....    MOVT     r0,#0x1000
        0x10002b96:    2101        .!      MOVS     r1,#1
        0x10002b98:    6081        .`      STR      r1,[r0,#8]
        0x10002b9a:    f2443021    D.!0    MOV      r0,#0x4321
        0x10002b9e:    f2c12034    ..4     MOVT     r0,#0x1234
        0x10002ba2:    2100        .!      MOVS     r1,#0
        0x10002ba4:    2214        ."      MOVS     r2,#0x14
        0x10002ba6:    47c0        .G      BLX      r8
        0x10002ba8:    b128        (.      CBZ      r0,0x10002bb6 ; main + 2198
        0x10002baa:    f2490090    I...    MOV      r0,#0x9090
        0x10002bae:    f2c10000    ....    MOVT     r0,#0x1000
        0x10002bb2:    2101        .!      MOVS     r1,#1
        0x10002bb4:    6081        .`      STR      r1,[r0,#8]
        0x10002bb6:    f2443021    D.!0    MOV      r0,#0x4321
        0x10002bba:    f2c12034    ..4     MOVT     r0,#0x1234
        0x10002bbe:    2100        .!      MOVS     r1,#0
        0x10002bc0:    2216        ."      MOVS     r2,#0x16
        0x10002bc2:    47c0        .G      BLX      r8
        0x10002bc4:    b128        (.      CBZ      r0,0x10002bd2 ; main + 2226
        0x10002bc6:    f2490090    I...    MOV      r0,#0x9090
        0x10002bca:    f2c10000    ....    MOVT     r0,#0x1000
        0x10002bce:    2101        .!      MOVS     r1,#1
        0x10002bd0:    6081        .`      STR      r1,[r0,#8]
        0x10002bd2:    f2443021    D.!0    MOV      r0,#0x4321
        0x10002bd6:    f2c12034    ..4     MOVT     r0,#0x1234
        0x10002bda:    2100        .!      MOVS     r1,#0
        0x10002bdc:    2218        ."      MOVS     r2,#0x18
        0x10002bde:    47c0        .G      BLX      r8
        0x10002be0:    b128        (.      CBZ      r0,0x10002bee ; main + 2254
        0x10002be2:    f2490090    I...    MOV      r0,#0x9090
        0x10002be6:    f2c10000    ....    MOVT     r0,#0x1000
        0x10002bea:    2101        .!      MOVS     r1,#1
        0x10002bec:    6081        .`      STR      r1,[r0,#8]
        0x10002bee:    f2443021    D.!0    MOV      r0,#0x4321
        0x10002bf2:    f2c12034    ..4     MOVT     r0,#0x1234
        0x10002bf6:    2100        .!      MOVS     r1,#0
        0x10002bf8:    221a        ."      MOVS     r2,#0x1a
        0x10002bfa:    47c0        .G      BLX      r8
        0x10002bfc:    b128        (.      CBZ      r0,0x10002c0a ; main + 2282
        0x10002bfe:    f2490090    I...    MOV      r0,#0x9090
        0x10002c02:    f2c10000    ....    MOVT     r0,#0x1000
        0x10002c06:    2101        .!      MOVS     r1,#1
        0x10002c08:    6081        .`      STR      r1,[r0,#8]
        0x10002c0a:    f2443021    D.!0    MOV      r0,#0x4321
        0x10002c0e:    f2c12034    ..4     MOVT     r0,#0x1234
        0x10002c12:    2100        .!      MOVS     r1,#0
        0x10002c14:    221c        ."      MOVS     r2,#0x1c
        0x10002c16:    47c0        .G      BLX      r8
        0x10002c18:    b128        (.      CBZ      r0,0x10002c26 ; main + 2310
        0x10002c1a:    f2490090    I...    MOV      r0,#0x9090
        0x10002c1e:    f2c10000    ....    MOVT     r0,#0x1000
        0x10002c22:    2101        .!      MOVS     r1,#1
        0x10002c24:    6081        .`      STR      r1,[r0,#8]
        0x10002c26:    f2443021    D.!0    MOV      r0,#0x4321
        0x10002c2a:    f2c12034    ..4     MOVT     r0,#0x1234
        0x10002c2e:    2100        .!      MOVS     r1,#0
        0x10002c30:    221e        ."      MOVS     r2,#0x1e
        0x10002c32:    47c0        .G      BLX      r8
        0x10002c34:    b128        (.      CBZ      r0,0x10002c42 ; main + 2338
        0x10002c36:    f2490090    I...    MOV      r0,#0x9090
        0x10002c3a:    f2c10000    ....    MOVT     r0,#0x1000
        0x10002c3e:    2101        .!      MOVS     r1,#1
        0x10002c40:    6081        .`      STR      r1,[r0,#8]
        0x10002c42:    f2443021    D.!0    MOV      r0,#0x4321
        0x10002c46:    f2c12034    ..4     MOVT     r0,#0x1234
        0x10002c4a:    2100        .!      MOVS     r1,#0
        0x10002c4c:    2220         "      MOVS     r2,#0x20
        0x10002c4e:    47c0        .G      BLX      r8
        0x10002c50:    b128        (.      CBZ      r0,0x10002c5e ; main + 2366
        0x10002c52:    f2490090    I...    MOV      r0,#0x9090
        0x10002c56:    f2c10000    ....    MOVT     r0,#0x1000
        0x10002c5a:    2101        .!      MOVS     r1,#1
        0x10002c5c:    6081        .`      STR      r1,[r0,#8]
        0x10002c5e:    f2443021    D.!0    MOV      r0,#0x4321
        0x10002c62:    f2c12034    ..4     MOVT     r0,#0x1234
        0x10002c66:    2100        .!      MOVS     r1,#0
        0x10002c68:    2222        ""      MOVS     r2,#0x22
        0x10002c6a:    47c0        .G      BLX      r8
        0x10002c6c:    b128        (.      CBZ      r0,0x10002c7a ; main + 2394
        0x10002c6e:    f2490090    I...    MOV      r0,#0x9090
        0x10002c72:    f2c10000    ....    MOVT     r0,#0x1000
        0x10002c76:    2101        .!      MOVS     r1,#1
        0x10002c78:    6081        .`      STR      r1,[r0,#8]
        0x10002c7a:    f2443021    D.!0    MOV      r0,#0x4321
        0x10002c7e:    f2c12034    ..4     MOVT     r0,#0x1234
        0x10002c82:    2100        .!      MOVS     r1,#0
        0x10002c84:    2224        $"      MOVS     r2,#0x24
        0x10002c86:    47c0        .G      BLX      r8
        0x10002c88:    b128        (.      CBZ      r0,0x10002c96 ; main + 2422
        0x10002c8a:    f2490090    I...    MOV      r0,#0x9090
        0x10002c8e:    f2c10000    ....    MOVT     r0,#0x1000
        0x10002c92:    2101        .!      MOVS     r1,#1
        0x10002c94:    6081        .`      STR      r1,[r0,#8]
        0x10002c96:    f2443021    D.!0    MOV      r0,#0x4321
        0x10002c9a:    f2c12034    ..4     MOVT     r0,#0x1234
        0x10002c9e:    2100        .!      MOVS     r1,#0
        0x10002ca0:    2226        &"      MOVS     r2,#0x26
        0x10002ca2:    47c0        .G      BLX      r8
        0x10002ca4:    b128        (.      CBZ      r0,0x10002cb2 ; main + 2450
        0x10002ca6:    f2490090    I...    MOV      r0,#0x9090
        0x10002caa:    f2c10000    ....    MOVT     r0,#0x1000
        0x10002cae:    2101        .!      MOVS     r1,#1
        0x10002cb0:    6081        .`      STR      r1,[r0,#8]
        0x10002cb2:    f2443021    D.!0    MOV      r0,#0x4321
        0x10002cb6:    f2c12034    ..4     MOVT     r0,#0x1234
        0x10002cba:    2100        .!      MOVS     r1,#0
        0x10002cbc:    2228        ("      MOVS     r2,#0x28
        0x10002cbe:    47c0        .G      BLX      r8
        0x10002cc0:    b128        (.      CBZ      r0,0x10002cce ; main + 2478
        0x10002cc2:    f2490090    I...    MOV      r0,#0x9090
        0x10002cc6:    f2c10000    ....    MOVT     r0,#0x1000
        0x10002cca:    2101        .!      MOVS     r1,#1
        0x10002ccc:    6081        .`      STR      r1,[r0,#8]
        0x10002cce:    f2443021    D.!0    MOV      r0,#0x4321
        0x10002cd2:    f2c12034    ..4     MOVT     r0,#0x1234
        0x10002cd6:    2100        .!      MOVS     r1,#0
        0x10002cd8:    222a        *"      MOVS     r2,#0x2a
        0x10002cda:    47c0        .G      BLX      r8
        0x10002cdc:    b128        (.      CBZ      r0,0x10002cea ; main + 2506
        0x10002cde:    f2490090    I...    MOV      r0,#0x9090
        0x10002ce2:    f2c10000    ....    MOVT     r0,#0x1000
        0x10002ce6:    2101        .!      MOVS     r1,#1
        0x10002ce8:    6081        .`      STR      r1,[r0,#8]
        0x10002cea:    f2443021    D.!0    MOV      r0,#0x4321
        0x10002cee:    f2c12034    ..4     MOVT     r0,#0x1234
        0x10002cf2:    2100        .!      MOVS     r1,#0
        0x10002cf4:    222c        ,"      MOVS     r2,#0x2c
        0x10002cf6:    47c0        .G      BLX      r8
        0x10002cf8:    b128        (.      CBZ      r0,0x10002d06 ; main + 2534
        0x10002cfa:    f2490090    I...    MOV      r0,#0x9090
        0x10002cfe:    f2c10000    ....    MOVT     r0,#0x1000
        0x10002d02:    2101        .!      MOVS     r1,#1
        0x10002d04:    6081        .`      STR      r1,[r0,#8]
        0x10002d06:    f2443021    D.!0    MOV      r0,#0x4321
        0x10002d0a:    f2c12034    ..4     MOVT     r0,#0x1234
        0x10002d0e:    2100        .!      MOVS     r1,#0
        0x10002d10:    222e        ."      MOVS     r2,#0x2e
        0x10002d12:    47c0        .G      BLX      r8
        0x10002d14:    b128        (.      CBZ      r0,0x10002d22 ; main + 2562
        0x10002d16:    f2490090    I...    MOV      r0,#0x9090
        0x10002d1a:    f2c10000    ....    MOVT     r0,#0x1000
        0x10002d1e:    2101        .!      MOVS     r1,#1
        0x10002d20:    6081        .`      STR      r1,[r0,#8]
        0x10002d22:    f2443021    D.!0    MOV      r0,#0x4321
        0x10002d26:    f2c12034    ..4     MOVT     r0,#0x1234
        0x10002d2a:    2100        .!      MOVS     r1,#0
        0x10002d2c:    2230        0"      MOVS     r2,#0x30
        0x10002d2e:    47c0        .G      BLX      r8
        0x10002d30:    b128        (.      CBZ      r0,0x10002d3e ; main + 2590
        0x10002d32:    f2490090    I...    MOV      r0,#0x9090
        0x10002d36:    f2c10000    ....    MOVT     r0,#0x1000
        0x10002d3a:    2101        .!      MOVS     r1,#1
        0x10002d3c:    6081        .`      STR      r1,[r0,#8]
        0x10002d3e:    f2443021    D.!0    MOV      r0,#0x4321
        0x10002d42:    f2c12034    ..4     MOVT     r0,#0x1234
        0x10002d46:    2100        .!      MOVS     r1,#0
        0x10002d48:    2232        2"      MOVS     r2,#0x32
        0x10002d4a:    47c0        .G      BLX      r8
        0x10002d4c:    b128        (.      CBZ      r0,0x10002d5a ; main + 2618
        0x10002d4e:    f2490090    I...    MOV      r0,#0x9090
        0x10002d52:    f2c10000    ....    MOVT     r0,#0x1000
        0x10002d56:    2101        .!      MOVS     r1,#1
        0x10002d58:    6081        .`      STR      r1,[r0,#8]
        0x10002d5a:    f2443021    D.!0    MOV      r0,#0x4321
        0x10002d5e:    f2c12034    ..4     MOVT     r0,#0x1234
        0x10002d62:    2100        .!      MOVS     r1,#0
        0x10002d64:    2234        4"      MOVS     r2,#0x34
        0x10002d66:    47c0        .G      BLX      r8
        0x10002d68:    b128        (.      CBZ      r0,0x10002d76 ; main + 2646
        0x10002d6a:    f2490090    I...    MOV      r0,#0x9090
        0x10002d6e:    f2c10000    ....    MOVT     r0,#0x1000
        0x10002d72:    2101        .!      MOVS     r1,#1
        0x10002d74:    6081        .`      STR      r1,[r0,#8]
        0x10002d76:    f2443021    D.!0    MOV      r0,#0x4321
        0x10002d7a:    f2c12034    ..4     MOVT     r0,#0x1234
        0x10002d7e:    2100        .!      MOVS     r1,#0
        0x10002d80:    2236        6"      MOVS     r2,#0x36
        0x10002d82:    47c0        .G      BLX      r8
        0x10002d84:    b128        (.      CBZ      r0,0x10002d92 ; main + 2674
        0x10002d86:    f2490090    I...    MOV      r0,#0x9090
        0x10002d8a:    f2c10000    ....    MOVT     r0,#0x1000
        0x10002d8e:    2101        .!      MOVS     r1,#1
        0x10002d90:    6081        .`      STR      r1,[r0,#8]
        0x10002d92:    f2443021    D.!0    MOV      r0,#0x4321
        0x10002d96:    f2c12034    ..4     MOVT     r0,#0x1234
        0x10002d9a:    2100        .!      MOVS     r1,#0
        0x10002d9c:    2238        8"      MOVS     r2,#0x38
        0x10002d9e:    47c0        .G      BLX      r8
        0x10002da0:    b128        (.      CBZ      r0,0x10002dae ; main + 2702
        0x10002da2:    f2490090    I...    MOV      r0,#0x9090
        0x10002da6:    f2c10000    ....    MOVT     r0,#0x1000
        0x10002daa:    2101        .!      MOVS     r1,#1
        0x10002dac:    6081        .`      STR      r1,[r0,#8]
        0x10002dae:    f2443021    D.!0    MOV      r0,#0x4321
        0x10002db2:    f2c12034    ..4     MOVT     r0,#0x1234
        0x10002db6:    2100        .!      MOVS     r1,#0
        0x10002db8:    223a        :"      MOVS     r2,#0x3a
        0x10002dba:    47c0        .G      BLX      r8
        0x10002dbc:    b128        (.      CBZ      r0,0x10002dca ; main + 2730
        0x10002dbe:    f2490090    I...    MOV      r0,#0x9090
        0x10002dc2:    f2c10000    ....    MOVT     r0,#0x1000
        0x10002dc6:    2101        .!      MOVS     r1,#1
        0x10002dc8:    6081        .`      STR      r1,[r0,#8]
        0x10002dca:    f2443021    D.!0    MOV      r0,#0x4321
        0x10002dce:    f2c12034    ..4     MOVT     r0,#0x1234
        0x10002dd2:    2100        .!      MOVS     r1,#0
        0x10002dd4:    223c        <"      MOVS     r2,#0x3c
        0x10002dd6:    47c0        .G      BLX      r8
        0x10002dd8:    b128        (.      CBZ      r0,0x10002de6 ; main + 2758
        0x10002dda:    f2490090    I...    MOV      r0,#0x9090
        0x10002dde:    f2c10000    ....    MOVT     r0,#0x1000
        0x10002de2:    2101        .!      MOVS     r1,#1
        0x10002de4:    6081        .`      STR      r1,[r0,#8]
        0x10002de6:    f2443021    D.!0    MOV      r0,#0x4321
        0x10002dea:    f2c12034    ..4     MOVT     r0,#0x1234
        0x10002dee:    2100        .!      MOVS     r1,#0
        0x10002df0:    223e        >"      MOVS     r2,#0x3e
        0x10002df2:    47c0        .G      BLX      r8
        0x10002df4:    b128        (.      CBZ      r0,0x10002e02 ; main + 2786
        0x10002df6:    f2490090    I...    MOV      r0,#0x9090
        0x10002dfa:    f2c10000    ....    MOVT     r0,#0x1000
        0x10002dfe:    2101        .!      MOVS     r1,#1
        0x10002e00:    6081        .`      STR      r1,[r0,#8]
        0x10002e02:    f2443021    D.!0    MOV      r0,#0x4321
        0x10002e06:    f2c12034    ..4     MOVT     r0,#0x1234
        0x10002e0a:    2101        .!      MOVS     r1,#1
        0x10002e0c:    2200        ."      MOVS     r2,#0
        0x10002e0e:    47c0        .G      BLX      r8
        0x10002e10:    b128        (.      CBZ      r0,0x10002e1e ; main + 2814
        0x10002e12:    f2490090    I...    MOV      r0,#0x9090
        0x10002e16:    f2c10000    ....    MOVT     r0,#0x1000
        0x10002e1a:    2101        .!      MOVS     r1,#1
        0x10002e1c:    6081        .`      STR      r1,[r0,#8]
        0x10002e1e:    f2443021    D.!0    MOV      r0,#0x4321
        0x10002e22:    f2c12034    ..4     MOVT     r0,#0x1234
        0x10002e26:    2101        .!      MOVS     r1,#1
        0x10002e28:    2202        ."      MOVS     r2,#2
        0x10002e2a:    47c0        .G      BLX      r8
        0x10002e2c:    b128        (.      CBZ      r0,0x10002e3a ; main + 2842
        0x10002e2e:    f2490090    I...    MOV      r0,#0x9090
        0x10002e32:    f2c10000    ....    MOVT     r0,#0x1000
        0x10002e36:    2101        .!      MOVS     r1,#1
        0x10002e38:    6081        .`      STR      r1,[r0,#8]
        0x10002e3a:    f2443021    D.!0    MOV      r0,#0x4321
        0x10002e3e:    f2c12034    ..4     MOVT     r0,#0x1234
        0x10002e42:    2101        .!      MOVS     r1,#1
        0x10002e44:    2204        ."      MOVS     r2,#4
        0x10002e46:    47c0        .G      BLX      r8
        0x10002e48:    b128        (.      CBZ      r0,0x10002e56 ; main + 2870
        0x10002e4a:    f2490090    I...    MOV      r0,#0x9090
        0x10002e4e:    f2c10000    ....    MOVT     r0,#0x1000
        0x10002e52:    2101        .!      MOVS     r1,#1
        0x10002e54:    6081        .`      STR      r1,[r0,#8]
        0x10002e56:    f2443021    D.!0    MOV      r0,#0x4321
        0x10002e5a:    f2c12034    ..4     MOVT     r0,#0x1234
        0x10002e5e:    2101        .!      MOVS     r1,#1
        0x10002e60:    2206        ."      MOVS     r2,#6
        0x10002e62:    47c0        .G      BLX      r8
        0x10002e64:    b128        (.      CBZ      r0,0x10002e72 ; main + 2898
        0x10002e66:    f2490090    I...    MOV      r0,#0x9090
        0x10002e6a:    f2c10000    ....    MOVT     r0,#0x1000
        0x10002e6e:    2101        .!      MOVS     r1,#1
        0x10002e70:    6081        .`      STR      r1,[r0,#8]
        0x10002e72:    f2443021    D.!0    MOV      r0,#0x4321
        0x10002e76:    f2c12034    ..4     MOVT     r0,#0x1234
        0x10002e7a:    2101        .!      MOVS     r1,#1
        0x10002e7c:    2208        ."      MOVS     r2,#8
        0x10002e7e:    47c0        .G      BLX      r8
        0x10002e80:    b128        (.      CBZ      r0,0x10002e8e ; main + 2926
        0x10002e82:    f2490090    I...    MOV      r0,#0x9090
        0x10002e86:    f2c10000    ....    MOVT     r0,#0x1000
        0x10002e8a:    2101        .!      MOVS     r1,#1
        0x10002e8c:    6081        .`      STR      r1,[r0,#8]
        0x10002e8e:    f2443021    D.!0    MOV      r0,#0x4321
        0x10002e92:    f2c12034    ..4     MOVT     r0,#0x1234
        0x10002e96:    2101        .!      MOVS     r1,#1
        0x10002e98:    220a        ."      MOVS     r2,#0xa
        0x10002e9a:    47c0        .G      BLX      r8
        0x10002e9c:    b128        (.      CBZ      r0,0x10002eaa ; main + 2954
        0x10002e9e:    f2490090    I...    MOV      r0,#0x9090
        0x10002ea2:    f2c10000    ....    MOVT     r0,#0x1000
        0x10002ea6:    2101        .!      MOVS     r1,#1
        0x10002ea8:    6081        .`      STR      r1,[r0,#8]
        0x10002eaa:    f2443021    D.!0    MOV      r0,#0x4321
        0x10002eae:    f2c12034    ..4     MOVT     r0,#0x1234
        0x10002eb2:    2101        .!      MOVS     r1,#1
        0x10002eb4:    220c        ."      MOVS     r2,#0xc
        0x10002eb6:    47c0        .G      BLX      r8
        0x10002eb8:    b128        (.      CBZ      r0,0x10002ec6 ; main + 2982
        0x10002eba:    f2490090    I...    MOV      r0,#0x9090
        0x10002ebe:    f2c10000    ....    MOVT     r0,#0x1000
        0x10002ec2:    2101        .!      MOVS     r1,#1
        0x10002ec4:    6081        .`      STR      r1,[r0,#8]
        0x10002ec6:    f2443021    D.!0    MOV      r0,#0x4321
        0x10002eca:    f2c12034    ..4     MOVT     r0,#0x1234
        0x10002ece:    2101        .!      MOVS     r1,#1
        0x10002ed0:    220e        ."      MOVS     r2,#0xe
        0x10002ed2:    47c0        .G      BLX      r8
        0x10002ed4:    b128        (.      CBZ      r0,0x10002ee2 ; main + 3010
        0x10002ed6:    f2490090    I...    MOV      r0,#0x9090
        0x10002eda:    f2c10000    ....    MOVT     r0,#0x1000
        0x10002ede:    2101        .!      MOVS     r1,#1
        0x10002ee0:    6081        .`      STR      r1,[r0,#8]
        0x10002ee2:    f2443021    D.!0    MOV      r0,#0x4321
        0x10002ee6:    f2c12034    ..4     MOVT     r0,#0x1234
        0x10002eea:    2101        .!      MOVS     r1,#1
        0x10002eec:    2210        ."      MOVS     r2,#0x10
        0x10002eee:    47c0        .G      BLX      r8
        0x10002ef0:    b128        (.      CBZ      r0,0x10002efe ; main + 3038
        0x10002ef2:    f2490090    I...    MOV      r0,#0x9090
        0x10002ef6:    f2c10000    ....    MOVT     r0,#0x1000
        0x10002efa:    2101        .!      MOVS     r1,#1
        0x10002efc:    6081        .`      STR      r1,[r0,#8]
        0x10002efe:    f2443021    D.!0    MOV      r0,#0x4321
        0x10002f02:    f2c12034    ..4     MOVT     r0,#0x1234
        0x10002f06:    2101        .!      MOVS     r1,#1
        0x10002f08:    2212        ."      MOVS     r2,#0x12
        0x10002f0a:    47c0        .G      BLX      r8
        0x10002f0c:    b128        (.      CBZ      r0,0x10002f1a ; main + 3066
        0x10002f0e:    f2490090    I...    MOV      r0,#0x9090
        0x10002f12:    f2c10000    ....    MOVT     r0,#0x1000
        0x10002f16:    2101        .!      MOVS     r1,#1
        0x10002f18:    6081        .`      STR      r1,[r0,#8]
        0x10002f1a:    f2443021    D.!0    MOV      r0,#0x4321
        0x10002f1e:    f2c12034    ..4     MOVT     r0,#0x1234
        0x10002f22:    2101        .!      MOVS     r1,#1
        0x10002f24:    2214        ."      MOVS     r2,#0x14
        0x10002f26:    47c0        .G      BLX      r8
        0x10002f28:    b128        (.      CBZ      r0,0x10002f36 ; main + 3094
        0x10002f2a:    f2490090    I...    MOV      r0,#0x9090
        0x10002f2e:    f2c10000    ....    MOVT     r0,#0x1000
        0x10002f32:    2101        .!      MOVS     r1,#1
        0x10002f34:    6081        .`      STR      r1,[r0,#8]
        0x10002f36:    f2443021    D.!0    MOV      r0,#0x4321
        0x10002f3a:    f2c12034    ..4     MOVT     r0,#0x1234
        0x10002f3e:    2101        .!      MOVS     r1,#1
        0x10002f40:    2216        ."      MOVS     r2,#0x16
        0x10002f42:    47c0        .G      BLX      r8
        0x10002f44:    b128        (.      CBZ      r0,0x10002f52 ; main + 3122
        0x10002f46:    f2490090    I...    MOV      r0,#0x9090
        0x10002f4a:    f2c10000    ....    MOVT     r0,#0x1000
        0x10002f4e:    2101        .!      MOVS     r1,#1
        0x10002f50:    6081        .`      STR      r1,[r0,#8]
        0x10002f52:    f2443021    D.!0    MOV      r0,#0x4321
        0x10002f56:    f2c12034    ..4     MOVT     r0,#0x1234
        0x10002f5a:    2101        .!      MOVS     r1,#1
        0x10002f5c:    2218        ."      MOVS     r2,#0x18
        0x10002f5e:    47c0        .G      BLX      r8
        0x10002f60:    b128        (.      CBZ      r0,0x10002f6e ; main + 3150
        0x10002f62:    f2490090    I...    MOV      r0,#0x9090
        0x10002f66:    f2c10000    ....    MOVT     r0,#0x1000
        0x10002f6a:    2101        .!      MOVS     r1,#1
        0x10002f6c:    6081        .`      STR      r1,[r0,#8]
        0x10002f6e:    f2443021    D.!0    MOV      r0,#0x4321
        0x10002f72:    f2c12034    ..4     MOVT     r0,#0x1234
        0x10002f76:    2101        .!      MOVS     r1,#1
        0x10002f78:    221a        ."      MOVS     r2,#0x1a
        0x10002f7a:    47c0        .G      BLX      r8
        0x10002f7c:    b128        (.      CBZ      r0,0x10002f8a ; main + 3178
        0x10002f7e:    f2490090    I...    MOV      r0,#0x9090
        0x10002f82:    f2c10000    ....    MOVT     r0,#0x1000
        0x10002f86:    2101        .!      MOVS     r1,#1
        0x10002f88:    6081        .`      STR      r1,[r0,#8]
        0x10002f8a:    f2443021    D.!0    MOV      r0,#0x4321
        0x10002f8e:    f2c12034    ..4     MOVT     r0,#0x1234
        0x10002f92:    2101        .!      MOVS     r1,#1
        0x10002f94:    221c        ."      MOVS     r2,#0x1c
        0x10002f96:    47c0        .G      BLX      r8
        0x10002f98:    b128        (.      CBZ      r0,0x10002fa6 ; main + 3206
        0x10002f9a:    f2490090    I...    MOV      r0,#0x9090
        0x10002f9e:    f2c10000    ....    MOVT     r0,#0x1000
        0x10002fa2:    2101        .!      MOVS     r1,#1
        0x10002fa4:    6081        .`      STR      r1,[r0,#8]
        0x10002fa6:    f2443021    D.!0    MOV      r0,#0x4321
        0x10002faa:    f2c12034    ..4     MOVT     r0,#0x1234
        0x10002fae:    2101        .!      MOVS     r1,#1
        0x10002fb0:    221e        ."      MOVS     r2,#0x1e
        0x10002fb2:    47c0        .G      BLX      r8
        0x10002fb4:    b128        (.      CBZ      r0,0x10002fc2 ; main + 3234
        0x10002fb6:    f2490090    I...    MOV      r0,#0x9090
        0x10002fba:    f2c10000    ....    MOVT     r0,#0x1000
        0x10002fbe:    2101        .!      MOVS     r1,#1
        0x10002fc0:    6081        .`      STR      r1,[r0,#8]
        0x10002fc2:    f2443021    D.!0    MOV      r0,#0x4321
        0x10002fc6:    f2c12034    ..4     MOVT     r0,#0x1234
        0x10002fca:    2101        .!      MOVS     r1,#1
        0x10002fcc:    2220         "      MOVS     r2,#0x20
        0x10002fce:    47c0        .G      BLX      r8
        0x10002fd0:    b128        (.      CBZ      r0,0x10002fde ; main + 3262
        0x10002fd2:    f2490090    I...    MOV      r0,#0x9090
        0x10002fd6:    f2c10000    ....    MOVT     r0,#0x1000
        0x10002fda:    2101        .!      MOVS     r1,#1
        0x10002fdc:    6081        .`      STR      r1,[r0,#8]
        0x10002fde:    f2443021    D.!0    MOV      r0,#0x4321
        0x10002fe2:    f2c12034    ..4     MOVT     r0,#0x1234
        0x10002fe6:    2101        .!      MOVS     r1,#1
        0x10002fe8:    2222        ""      MOVS     r2,#0x22
        0x10002fea:    47c0        .G      BLX      r8
        0x10002fec:    b128        (.      CBZ      r0,0x10002ffa ; main + 3290
        0x10002fee:    f2490090    I...    MOV      r0,#0x9090
        0x10002ff2:    f2c10000    ....    MOVT     r0,#0x1000
        0x10002ff6:    2101        .!      MOVS     r1,#1
        0x10002ff8:    6081        .`      STR      r1,[r0,#8]
        0x10002ffa:    f2443021    D.!0    MOV      r0,#0x4321
        0x10002ffe:    f2c12034    ..4     MOVT     r0,#0x1234
        0x10003002:    2101        .!      MOVS     r1,#1
        0x10003004:    2224        $"      MOVS     r2,#0x24
        0x10003006:    47c0        .G      BLX      r8
        0x10003008:    b128        (.      CBZ      r0,0x10003016 ; main + 3318
        0x1000300a:    f2490090    I...    MOV      r0,#0x9090
        0x1000300e:    f2c10000    ....    MOVT     r0,#0x1000
        0x10003012:    2101        .!      MOVS     r1,#1
        0x10003014:    6081        .`      STR      r1,[r0,#8]
        0x10003016:    f2443021    D.!0    MOV      r0,#0x4321
        0x1000301a:    f2c12034    ..4     MOVT     r0,#0x1234
        0x1000301e:    2101        .!      MOVS     r1,#1
        0x10003020:    2226        &"      MOVS     r2,#0x26
        0x10003022:    47c0        .G      BLX      r8
        0x10003024:    b128        (.      CBZ      r0,0x10003032 ; main + 3346
        0x10003026:    f2490090    I...    MOV      r0,#0x9090
        0x1000302a:    f2c10000    ....    MOVT     r0,#0x1000
        0x1000302e:    2101        .!      MOVS     r1,#1
        0x10003030:    6081        .`      STR      r1,[r0,#8]
        0x10003032:    f2443021    D.!0    MOV      r0,#0x4321
        0x10003036:    f2c12034    ..4     MOVT     r0,#0x1234
        0x1000303a:    2101        .!      MOVS     r1,#1
        0x1000303c:    2228        ("      MOVS     r2,#0x28
        0x1000303e:    47c0        .G      BLX      r8
        0x10003040:    b128        (.      CBZ      r0,0x1000304e ; main + 3374
        0x10003042:    f2490090    I...    MOV      r0,#0x9090
        0x10003046:    f2c10000    ....    MOVT     r0,#0x1000
        0x1000304a:    2101        .!      MOVS     r1,#1
        0x1000304c:    6081        .`      STR      r1,[r0,#8]
        0x1000304e:    f2443021    D.!0    MOV      r0,#0x4321
        0x10003052:    f2c12034    ..4     MOVT     r0,#0x1234
        0x10003056:    2101        .!      MOVS     r1,#1
        0x10003058:    222a        *"      MOVS     r2,#0x2a
        0x1000305a:    47c0        .G      BLX      r8
        0x1000305c:    b128        (.      CBZ      r0,0x1000306a ; main + 3402
        0x1000305e:    f2490090    I...    MOV      r0,#0x9090
        0x10003062:    f2c10000    ....    MOVT     r0,#0x1000
        0x10003066:    2101        .!      MOVS     r1,#1
        0x10003068:    6081        .`      STR      r1,[r0,#8]
        0x1000306a:    f2443021    D.!0    MOV      r0,#0x4321
        0x1000306e:    f2c12034    ..4     MOVT     r0,#0x1234
        0x10003072:    2101        .!      MOVS     r1,#1
        0x10003074:    222c        ,"      MOVS     r2,#0x2c
        0x10003076:    47c0        .G      BLX      r8
        0x10003078:    b128        (.      CBZ      r0,0x10003086 ; main + 3430
        0x1000307a:    f2490090    I...    MOV      r0,#0x9090
        0x1000307e:    f2c10000    ....    MOVT     r0,#0x1000
        0x10003082:    2101        .!      MOVS     r1,#1
        0x10003084:    6081        .`      STR      r1,[r0,#8]
        0x10003086:    f2443021    D.!0    MOV      r0,#0x4321
        0x1000308a:    f2c12034    ..4     MOVT     r0,#0x1234
        0x1000308e:    2101        .!      MOVS     r1,#1
        0x10003090:    222e        ."      MOVS     r2,#0x2e
        0x10003092:    47c0        .G      BLX      r8
        0x10003094:    b128        (.      CBZ      r0,0x100030a2 ; main + 3458
        0x10003096:    f2490090    I...    MOV      r0,#0x9090
        0x1000309a:    f2c10000    ....    MOVT     r0,#0x1000
        0x1000309e:    2101        .!      MOVS     r1,#1
        0x100030a0:    6081        .`      STR      r1,[r0,#8]
        0x100030a2:    f2443021    D.!0    MOV      r0,#0x4321
        0x100030a6:    f2c12034    ..4     MOVT     r0,#0x1234
        0x100030aa:    2101        .!      MOVS     r1,#1
        0x100030ac:    2230        0"      MOVS     r2,#0x30
        0x100030ae:    47c0        .G      BLX      r8
        0x100030b0:    b128        (.      CBZ      r0,0x100030be ; main + 3486
        0x100030b2:    f2490090    I...    MOV      r0,#0x9090
        0x100030b6:    f2c10000    ....    MOVT     r0,#0x1000
        0x100030ba:    2101        .!      MOVS     r1,#1
        0x100030bc:    6081        .`      STR      r1,[r0,#8]
        0x100030be:    f2443021    D.!0    MOV      r0,#0x4321
        0x100030c2:    f2c12034    ..4     MOVT     r0,#0x1234
        0x100030c6:    2101        .!      MOVS     r1,#1
        0x100030c8:    2232        2"      MOVS     r2,#0x32
        0x100030ca:    47c0        .G      BLX      r8
        0x100030cc:    b128        (.      CBZ      r0,0x100030da ; main + 3514
        0x100030ce:    f2490090    I...    MOV      r0,#0x9090
        0x100030d2:    f2c10000    ....    MOVT     r0,#0x1000
        0x100030d6:    2101        .!      MOVS     r1,#1
        0x100030d8:    6081        .`      STR      r1,[r0,#8]
        0x100030da:    f2443021    D.!0    MOV      r0,#0x4321
        0x100030de:    f2c12034    ..4     MOVT     r0,#0x1234
        0x100030e2:    2101        .!      MOVS     r1,#1
        0x100030e4:    2234        4"      MOVS     r2,#0x34
        0x100030e6:    47c0        .G      BLX      r8
        0x100030e8:    b128        (.      CBZ      r0,0x100030f6 ; main + 3542
        0x100030ea:    f2490090    I...    MOV      r0,#0x9090
        0x100030ee:    f2c10000    ....    MOVT     r0,#0x1000
        0x100030f2:    2101        .!      MOVS     r1,#1
        0x100030f4:    6081        .`      STR      r1,[r0,#8]
        0x100030f6:    f2443021    D.!0    MOV      r0,#0x4321
        0x100030fa:    f2c12034    ..4     MOVT     r0,#0x1234
        0x100030fe:    2101        .!      MOVS     r1,#1
        0x10003100:    2236        6"      MOVS     r2,#0x36
        0x10003102:    47c0        .G      BLX      r8
        0x10003104:    b128        (.      CBZ      r0,0x10003112 ; main + 3570
        0x10003106:    f2490090    I...    MOV      r0,#0x9090
        0x1000310a:    f2c10000    ....    MOVT     r0,#0x1000
        0x1000310e:    2101        .!      MOVS     r1,#1
        0x10003110:    6081        .`      STR      r1,[r0,#8]
        0x10003112:    f2443021    D.!0    MOV      r0,#0x4321
        0x10003116:    f2c12034    ..4     MOVT     r0,#0x1234
        0x1000311a:    2101        .!      MOVS     r1,#1
        0x1000311c:    2238        8"      MOVS     r2,#0x38
        0x1000311e:    47c0        .G      BLX      r8
        0x10003120:    b128        (.      CBZ      r0,0x1000312e ; main + 3598
        0x10003122:    f2490090    I...    MOV      r0,#0x9090
        0x10003126:    f2c10000    ....    MOVT     r0,#0x1000
        0x1000312a:    2101        .!      MOVS     r1,#1
        0x1000312c:    6081        .`      STR      r1,[r0,#8]
        0x1000312e:    f2443021    D.!0    MOV      r0,#0x4321
        0x10003132:    f2c12034    ..4     MOVT     r0,#0x1234
        0x10003136:    2101        .!      MOVS     r1,#1
        0x10003138:    223a        :"      MOVS     r2,#0x3a
        0x1000313a:    47c0        .G      BLX      r8
        0x1000313c:    b128        (.      CBZ      r0,0x1000314a ; main + 3626
        0x1000313e:    f2490090    I...    MOV      r0,#0x9090
        0x10003142:    f2c10000    ....    MOVT     r0,#0x1000
        0x10003146:    2101        .!      MOVS     r1,#1
        0x10003148:    6081        .`      STR      r1,[r0,#8]
        0x1000314a:    f2443021    D.!0    MOV      r0,#0x4321
        0x1000314e:    f2c12034    ..4     MOVT     r0,#0x1234
        0x10003152:    2101        .!      MOVS     r1,#1
        0x10003154:    223c        <"      MOVS     r2,#0x3c
        0x10003156:    47c0        .G      BLX      r8
        0x10003158:    b128        (.      CBZ      r0,0x10003166 ; main + 3654
        0x1000315a:    f2490090    I...    MOV      r0,#0x9090
        0x1000315e:    f2c10000    ....    MOVT     r0,#0x1000
        0x10003162:    2101        .!      MOVS     r1,#1
        0x10003164:    6081        .`      STR      r1,[r0,#8]
        0x10003166:    f2443021    D.!0    MOV      r0,#0x4321
        0x1000316a:    f2c12034    ..4     MOVT     r0,#0x1234
        0x1000316e:    2101        .!      MOVS     r1,#1
        0x10003170:    223e        >"      MOVS     r2,#0x3e
        0x10003172:    47c0        .G      BLX      r8
        0x10003174:    b128        (.      CBZ      r0,0x10003182 ; main + 3682
        0x10003176:    f2490090    I...    MOV      r0,#0x9090
        0x1000317a:    f2c10000    ....    MOVT     r0,#0x1000
        0x1000317e:    2101        .!      MOVS     r1,#1
        0x10003180:    6081        .`      STR      r1,[r0,#8]
        0x10003182:    f44f4060    O.`@    MOV      r0,#0xe000
        0x10003186:    6800        .h      LDR      r0,[r0,#0]
        0x10003188:    3001        .0      ADDS     r0,#1
        0x1000318a:    f2480030    H.0.    MOV      r0,#0x8030
        0x1000318e:    bf1e        ..      ITTT     NE
        0x10003190:    f44f3190    O..1    MOVNE    r1,#0x12000
        0x10003194:    6809        .h      LDRNE    r1,[r1,#0]
        0x10003196:    f1110101    ....    ADDSNE   r1,r1,#1
        0x1000319a:    f2c02084    ...     MOVT     r0,#0x284
        0x1000319e:    f1000001    ....    ADD      r0,r0,#1
        0x100031a2:    f0018547    ..G.    BEQ.W    0x10004c34 ; main + 10516
        0x100031a6:    f44f31b0    O..1    MOV      r1,#0x16000
        0x100031aa:    6809        .h      LDR      r1,[r1,#0]
        0x100031ac:    3101        .1      ADDS     r1,#1
        0x100031ae:    bf1e        ..      ITTT     NE
        0x100031b0:    f44f31d0    O..1    MOVNE    r1,#0x1a000
        0x100031b4:    6809        .h      LDRNE    r1,[r1,#0]
        0x100031b6:    f1110101    ....    ADDSNE   r1,r1,#1
        0x100031ba:    f001853b    ..;.    BEQ.W    0x10004c34 ; main + 10516
        0x100031be:    f44f31f0    O..1    MOV      r1,#0x1e000
        0x100031c2:    6809        .h      LDR      r1,[r1,#0]
        0x100031c4:    3101        .1      ADDS     r1,#1
        0x100031c6:    bf1e        ..      ITTT     NE
        0x100031c8:    f44f3108    O..1    MOVNE    r1,#0x22000
        0x100031cc:    6809        .h      LDRNE    r1,[r1,#0]
        0x100031ce:    f1110101    ....    ADDSNE   r1,r1,#1
        0x100031d2:    f001852f    ../.    BEQ.W    0x10004c34 ; main + 10516
        0x100031d6:    f44f3118    O..1    MOV      r1,#0x26000
        0x100031da:    6809        .h      LDR      r1,[r1,#0]
        0x100031dc:    3101        .1      ADDS     r1,#1
        0x100031de:    bf1e        ..      ITTT     NE
        0x100031e0:    f44f3128    O.(1    MOVNE    r1,#0x2a000
        0x100031e4:    6809        .h      LDRNE    r1,[r1,#0]
        0x100031e6:    f1110101    ....    ADDSNE   r1,r1,#1
        0x100031ea:    f0018523    ..#.    BEQ.W    0x10004c34 ; main + 10516
        0x100031ee:    f44f3138    O.81    MOV      r1,#0x2e000
        0x100031f2:    6809        .h      LDR      r1,[r1,#0]
        0x100031f4:    3101        .1      ADDS     r1,#1
        0x100031f6:    bf1e        ..      ITTT     NE
        0x100031f8:    f44f3148    O.H1    MOVNE    r1,#0x32000
        0x100031fc:    6809        .h      LDRNE    r1,[r1,#0]
        0x100031fe:    f1110101    ....    ADDSNE   r1,r1,#1
        0x10003202:    f0018517    ....    BEQ.W    0x10004c34 ; main + 10516
        0x10003206:    f44f3158    O.X1    MOV      r1,#0x36000
        0x1000320a:    6809        .h      LDR      r1,[r1,#0]
        0x1000320c:    3101        .1      ADDS     r1,#1
        0x1000320e:    bf1e        ..      ITTT     NE
        0x10003210:    f44f3168    O.h1    MOVNE    r1,#0x3a000
        0x10003214:    6809        .h      LDRNE    r1,[r1,#0]
        0x10003216:    f1110101    ....    ADDSNE   r1,r1,#1
        0x1000321a:    f001850b    ....    BEQ.W    0x10004c34 ; main + 10516
        0x1000321e:    f44f3178    O.x1    MOV      r1,#0x3e000
        0x10003222:    6809        .h      LDR      r1,[r1,#0]
        0x10003224:    3101        .1      ADDS     r1,#1
        0x10003226:    bf1e        ..      ITTT     NE
        0x10003228:    f44f2184    O..!    MOVNE    r1,#0x42000
        0x1000322c:    6809        .h      LDRNE    r1,[r1,#0]
        0x1000322e:    f1110101    ....    ADDSNE   r1,r1,#1
        0x10003232:    f00184ff    ....    BEQ.W    0x10004c34 ; main + 10516
        0x10003236:    f44f218c    O..!    MOV      r1,#0x46000
        0x1000323a:    6809        .h      LDR      r1,[r1,#0]
        0x1000323c:    3101        .1      ADDS     r1,#1
        0x1000323e:    bf1e        ..      ITTT     NE
        0x10003240:    f44f2194    O..!    MOVNE    r1,#0x4a000
        0x10003244:    6809        .h      LDRNE    r1,[r1,#0]
        0x10003246:    f1110101    ....    ADDSNE   r1,r1,#1
        0x1000324a:    f00184f3    ....    BEQ.W    0x10004c34 ; main + 10516
        0x1000324e:    f44f219c    O..!    MOV      r1,#0x4e000
        0x10003252:    6809        .h      LDR      r1,[r1,#0]
        0x10003254:    3101        .1      ADDS     r1,#1
        0x10003256:    bf1e        ..      ITTT     NE
        0x10003258:    f44f21a4    O..!    MOVNE    r1,#0x52000
        0x1000325c:    6809        .h      LDRNE    r1,[r1,#0]
        0x1000325e:    f1110101    ....    ADDSNE   r1,r1,#1
        0x10003262:    f00184e7    ....    BEQ.W    0x10004c34 ; main + 10516
        0x10003266:    f44f21ac    O..!    MOV      r1,#0x56000
        0x1000326a:    6809        .h      LDR      r1,[r1,#0]
        0x1000326c:    3101        .1      ADDS     r1,#1
        0x1000326e:    bf1e        ..      ITTT     NE
        0x10003270:    f44f21b4    O..!    MOVNE    r1,#0x5a000
        0x10003274:    6809        .h      LDRNE    r1,[r1,#0]
        0x10003276:    f1110101    ....    ADDSNE   r1,r1,#1
        0x1000327a:    f00184db    ....    BEQ.W    0x10004c34 ; main + 10516
        0x1000327e:    f44f21bc    O..!    MOV      r1,#0x5e000
        0x10003282:    6809        .h      LDR      r1,[r1,#0]
        0x10003284:    3101        .1      ADDS     r1,#1
        0x10003286:    bf1e        ..      ITTT     NE
        0x10003288:    f44f21c4    O..!    MOVNE    r1,#0x62000
        0x1000328c:    6809        .h      LDRNE    r1,[r1,#0]
        0x1000328e:    f1110101    ....    ADDSNE   r1,r1,#1
        0x10003292:    f00184cf    ....    BEQ.W    0x10004c34 ; main + 10516
        0x10003296:    f44f21cc    O..!    MOV      r1,#0x66000
        0x1000329a:    6809        .h      LDR      r1,[r1,#0]
        0x1000329c:    3101        .1      ADDS     r1,#1
        0x1000329e:    bf1e        ..      ITTT     NE
        0x100032a0:    f44f21d4    O..!    MOVNE    r1,#0x6a000
        0x100032a4:    6809        .h      LDRNE    r1,[r1,#0]
        0x100032a6:    f1110101    ....    ADDSNE   r1,r1,#1
        0x100032aa:    f00184c3    ....    BEQ.W    0x10004c34 ; main + 10516
        0x100032ae:    f44f21dc    O..!    MOV      r1,#0x6e000
        0x100032b2:    6809        .h      LDR      r1,[r1,#0]
        0x100032b4:    3101        .1      ADDS     r1,#1
        0x100032b6:    bf1e        ..      ITTT     NE
        0x100032b8:    f44f21e4    O..!    MOVNE    r1,#0x72000
        0x100032bc:    6809        .h      LDRNE    r1,[r1,#0]
        0x100032be:    f1110101    ....    ADDSNE   r1,r1,#1
        0x100032c2:    f00184b7    ....    BEQ.W    0x10004c34 ; main + 10516
        0x100032c6:    f44f21ec    O..!    MOV      r1,#0x76000
        0x100032ca:    6809        .h      LDR      r1,[r1,#0]
        0x100032cc:    3101        .1      ADDS     r1,#1
        0x100032ce:    bf1e        ..      ITTT     NE
        0x100032d0:    f44f21f4    O..!    MOVNE    r1,#0x7a000
        0x100032d4:    6809        .h      LDRNE    r1,[r1,#0]
        0x100032d6:    f1110101    ....    ADDSNE   r1,r1,#1
        0x100032da:    f00184ab    ....    BEQ.W    0x10004c34 ; main + 10516
        0x100032de:    f44f21fc    O..!    MOV      r1,#0x7e000
        0x100032e2:    6809        .h      LDR      r1,[r1,#0]
        0x100032e4:    3101        .1      ADDS     r1,#1
        0x100032e6:    bf1e        ..      ITTT     NE
        0x100032e8:    f44f2102    O..!    MOVNE    r1,#0x82000
        0x100032ec:    6809        .h      LDRNE    r1,[r1,#0]
        0x100032ee:    f1110101    ....    ADDSNE   r1,r1,#1
        0x100032f2:    f001849f    ....    BEQ.W    0x10004c34 ; main + 10516
        0x100032f6:    f44f2106    O..!    MOV      r1,#0x86000
        0x100032fa:    6809        .h      LDR      r1,[r1,#0]
        0x100032fc:    3101        .1      ADDS     r1,#1
        0x100032fe:    bf1e        ..      ITTT     NE
        0x10003300:    f44f210a    O..!    MOVNE    r1,#0x8a000
        0x10003304:    6809        .h      LDRNE    r1,[r1,#0]
        0x10003306:    f1110101    ....    ADDSNE   r1,r1,#1
        0x1000330a:    f0018493    ....    BEQ.W    0x10004c34 ; main + 10516
        0x1000330e:    f44f210e    O..!    MOV      r1,#0x8e000
        0x10003312:    6809        .h      LDR      r1,[r1,#0]
        0x10003314:    3101        .1      ADDS     r1,#1
        0x10003316:    bf1e        ..      ITTT     NE
        0x10003318:    f44f2112    O..!    MOVNE    r1,#0x92000
        0x1000331c:    6809        .h      LDRNE    r1,[r1,#0]
        0x1000331e:    f1110101    ....    ADDSNE   r1,r1,#1
        0x10003322:    f0018487    ....    BEQ.W    0x10004c34 ; main + 10516
        0x10003326:    f44f2116    O..!    MOV      r1,#0x96000
        0x1000332a:    6809        .h      LDR      r1,[r1,#0]
        0x1000332c:    3101        .1      ADDS     r1,#1
        0x1000332e:    bf1e        ..      ITTT     NE
        0x10003330:    f44f211a    O..!    MOVNE    r1,#0x9a000
        0x10003334:    6809        .h      LDRNE    r1,[r1,#0]
        0x10003336:    f1110101    ....    ADDSNE   r1,r1,#1
        0x1000333a:    f001847b    ..{.    BEQ.W    0x10004c34 ; main + 10516
        0x1000333e:    f44f211e    O..!    MOV      r1,#0x9e000
        0x10003342:    6809        .h      LDR      r1,[r1,#0]
        0x10003344:    3101        .1      ADDS     r1,#1
        0x10003346:    bf1e        ..      ITTT     NE
        0x10003348:    f44f2122    O."!    MOVNE    r1,#0xa2000
        0x1000334c:    6809        .h      LDRNE    r1,[r1,#0]
        0x1000334e:    f1110101    ....    ADDSNE   r1,r1,#1
        0x10003352:    f001846f    ..o.    BEQ.W    0x10004c34 ; main + 10516
        0x10003356:    f44f2126    O.&!    MOV      r1,#0xa6000
        0x1000335a:    6809        .h      LDR      r1,[r1,#0]
        0x1000335c:    3101        .1      ADDS     r1,#1
        0x1000335e:    bf1e        ..      ITTT     NE
        0x10003360:    f44f212a    O.*!    MOVNE    r1,#0xaa000
        0x10003364:    6809        .h      LDRNE    r1,[r1,#0]
        0x10003366:    f1110101    ....    ADDSNE   r1,r1,#1
        0x1000336a:    f0018463    ..c.    BEQ.W    0x10004c34 ; main + 10516
        0x1000336e:    f44f212e    O..!    MOV      r1,#0xae000
        0x10003372:    6809        .h      LDR      r1,[r1,#0]
        0x10003374:    3101        .1      ADDS     r1,#1
        0x10003376:    bf1e        ..      ITTT     NE
        0x10003378:    f44f2132    O.2!    MOVNE    r1,#0xb2000
        0x1000337c:    6809        .h      LDRNE    r1,[r1,#0]
        0x1000337e:    f1110101    ....    ADDSNE   r1,r1,#1
        0x10003382:    f0018457    ..W.    BEQ.W    0x10004c34 ; main + 10516
        0x10003386:    f44f2136    O.6!    MOV      r1,#0xb6000
        0x1000338a:    6809        .h      LDR      r1,[r1,#0]
        0x1000338c:    3101        .1      ADDS     r1,#1
        0x1000338e:    bf1e        ..      ITTT     NE
        0x10003390:    f44f213a    O.:!    MOVNE    r1,#0xba000
        0x10003394:    6809        .h      LDRNE    r1,[r1,#0]
        0x10003396:    f1110101    ....    ADDSNE   r1,r1,#1
        0x1000339a:    f001844b    ..K.    BEQ.W    0x10004c34 ; main + 10516
        0x1000339e:    f44f213e    O.>!    MOV      r1,#0xbe000
        0x100033a2:    6809        .h      LDR      r1,[r1,#0]
        0x100033a4:    3101        .1      ADDS     r1,#1
        0x100033a6:    bf1e        ..      ITTT     NE
        0x100033a8:    f44f2142    O.B!    MOVNE    r1,#0xc2000
        0x100033ac:    6809        .h      LDRNE    r1,[r1,#0]
        0x100033ae:    f1110101    ....    ADDSNE   r1,r1,#1
        0x100033b2:    f001843f    ..?.    BEQ.W    0x10004c34 ; main + 10516
        0x100033b6:    f44f2146    O.F!    MOV      r1,#0xc6000
        0x100033ba:    6809        .h      LDR      r1,[r1,#0]
        0x100033bc:    3101        .1      ADDS     r1,#1
        0x100033be:    bf1e        ..      ITTT     NE
        0x100033c0:    f44f214a    O.J!    MOVNE    r1,#0xca000
        0x100033c4:    6809        .h      LDRNE    r1,[r1,#0]
        0x100033c6:    f1110101    ....    ADDSNE   r1,r1,#1
        0x100033ca:    f0018433    ..3.    BEQ.W    0x10004c34 ; main + 10516
        0x100033ce:    f44f214e    O.N!    MOV      r1,#0xce000
        0x100033d2:    6809        .h      LDR      r1,[r1,#0]
        0x100033d4:    3101        .1      ADDS     r1,#1
        0x100033d6:    bf1e        ..      ITTT     NE
        0x100033d8:    f44f2152    O.R!    MOVNE    r1,#0xd2000
        0x100033dc:    6809        .h      LDRNE    r1,[r1,#0]
        0x100033de:    f1110101    ....    ADDSNE   r1,r1,#1
        0x100033e2:    f0018427    ..'.    BEQ.W    0x10004c34 ; main + 10516
        0x100033e6:    f44f2156    O.V!    MOV      r1,#0xd6000
        0x100033ea:    6809        .h      LDR      r1,[r1,#0]
        0x100033ec:    3101        .1      ADDS     r1,#1
        0x100033ee:    bf1e        ..      ITTT     NE
        0x100033f0:    f44f215a    O.Z!    MOVNE    r1,#0xda000
        0x100033f4:    6809        .h      LDRNE    r1,[r1,#0]
        0x100033f6:    f1110101    ....    ADDSNE   r1,r1,#1
        0x100033fa:    f001841b    ....    BEQ.W    0x10004c34 ; main + 10516
        0x100033fe:    f44f215e    O.^!    MOV      r1,#0xde000
        0x10003402:    6809        .h      LDR      r1,[r1,#0]
        0x10003404:    3101        .1      ADDS     r1,#1
        0x10003406:    bf1e        ..      ITTT     NE
        0x10003408:    f44f2162    O.b!    MOVNE    r1,#0xe2000
        0x1000340c:    6809        .h      LDRNE    r1,[r1,#0]
        0x1000340e:    f1110101    ....    ADDSNE   r1,r1,#1
        0x10003412:    f001840f    ....    BEQ.W    0x10004c34 ; main + 10516
        0x10003416:    f44f2166    O.f!    MOV      r1,#0xe6000
        0x1000341a:    6809        .h      LDR      r1,[r1,#0]
        0x1000341c:    3101        .1      ADDS     r1,#1
        0x1000341e:    bf1e        ..      ITTT     NE
        0x10003420:    f44f216a    O.j!    MOVNE    r1,#0xea000
        0x10003424:    6809        .h      LDRNE    r1,[r1,#0]
        0x10003426:    f1110101    ....    ADDSNE   r1,r1,#1
        0x1000342a:    f0018403    ....    BEQ.W    0x10004c34 ; main + 10516
        0x1000342e:    f44f216e    O.n!    MOV      r1,#0xee000
        0x10003432:    6809        .h      LDR      r1,[r1,#0]
        0x10003434:    3101        .1      ADDS     r1,#1
        0x10003436:    bf1e        ..      ITTT     NE
        0x10003438:    f44f2172    O.r!    MOVNE    r1,#0xf2000
        0x1000343c:    6809        .h      LDRNE    r1,[r1,#0]
        0x1000343e:    f1110101    ....    ADDSNE   r1,r1,#1
        0x10003442:    f00183f7    ....    BEQ.W    0x10004c34 ; main + 10516
        0x10003446:    f2443021    D.!0    MOV      r0,#0x4321
        0x1000344a:    f2c12034    ..4     MOVT     r0,#0x1234
        0x1000344e:    2100        .!      MOVS     r1,#0
        0x10003450:    2207        ."      MOVS     r2,#7
        0x10003452:    47c0        .G      BLX      r8
        0x10003454:    b128        (.      CBZ      r0,0x10003462 ; main + 4418
        0x10003456:    f2490090    I...    MOV      r0,#0x9090
        0x1000345a:    f2c10000    ....    MOVT     r0,#0x1000
        0x1000345e:    2101        .!      MOVS     r1,#1
        0x10003460:    6081        .`      STR      r1,[r0,#8]
        0x10003462:    f2443021    D.!0    MOV      r0,#0x4321
        0x10003466:    f2c12034    ..4     MOVT     r0,#0x1234
        0x1000346a:    2100        .!      MOVS     r1,#0
        0x1000346c:    2209        ."      MOVS     r2,#9
        0x1000346e:    47c0        .G      BLX      r8
        0x10003470:    b128        (.      CBZ      r0,0x1000347e ; main + 4446
        0x10003472:    f2490090    I...    MOV      r0,#0x9090
        0x10003476:    f2c10000    ....    MOVT     r0,#0x1000
        0x1000347a:    2101        .!      MOVS     r1,#1
        0x1000347c:    6081        .`      STR      r1,[r0,#8]
        0x1000347e:    f2443021    D.!0    MOV      r0,#0x4321
        0x10003482:    f2c12034    ..4     MOVT     r0,#0x1234
        0x10003486:    2100        .!      MOVS     r1,#0
        0x10003488:    220b        ."      MOVS     r2,#0xb
        0x1000348a:    47c0        .G      BLX      r8
        0x1000348c:    b128        (.      CBZ      r0,0x1000349a ; main + 4474
        0x1000348e:    f2490090    I...    MOV      r0,#0x9090
        0x10003492:    f2c10000    ....    MOVT     r0,#0x1000
        0x10003496:    2101        .!      MOVS     r1,#1
        0x10003498:    6081        .`      STR      r1,[r0,#8]
        0x1000349a:    f2443021    D.!0    MOV      r0,#0x4321
        0x1000349e:    f2c12034    ..4     MOVT     r0,#0x1234
        0x100034a2:    2100        .!      MOVS     r1,#0
        0x100034a4:    220d        ."      MOVS     r2,#0xd
        0x100034a6:    47c0        .G      BLX      r8
        0x100034a8:    b128        (.      CBZ      r0,0x100034b6 ; main + 4502
        0x100034aa:    f2490090    I...    MOV      r0,#0x9090
        0x100034ae:    f2c10000    ....    MOVT     r0,#0x1000
        0x100034b2:    2101        .!      MOVS     r1,#1
        0x100034b4:    6081        .`      STR      r1,[r0,#8]
        0x100034b6:    f2443021    D.!0    MOV      r0,#0x4321
        0x100034ba:    f2c12034    ..4     MOVT     r0,#0x1234
        0x100034be:    2100        .!      MOVS     r1,#0
        0x100034c0:    220f        ."      MOVS     r2,#0xf
        0x100034c2:    47c0        .G      BLX      r8
        0x100034c4:    b128        (.      CBZ      r0,0x100034d2 ; main + 4530
        0x100034c6:    f2490090    I...    MOV      r0,#0x9090
        0x100034ca:    f2c10000    ....    MOVT     r0,#0x1000
        0x100034ce:    2101        .!      MOVS     r1,#1
        0x100034d0:    6081        .`      STR      r1,[r0,#8]
        0x100034d2:    f2443021    D.!0    MOV      r0,#0x4321
        0x100034d6:    f2c12034    ..4     MOVT     r0,#0x1234
        0x100034da:    2100        .!      MOVS     r1,#0
        0x100034dc:    2211        ."      MOVS     r2,#0x11
        0x100034de:    47c0        .G      BLX      r8
        0x100034e0:    b128        (.      CBZ      r0,0x100034ee ; main + 4558
        0x100034e2:    f2490090    I...    MOV      r0,#0x9090
        0x100034e6:    f2c10000    ....    MOVT     r0,#0x1000
        0x100034ea:    2101        .!      MOVS     r1,#1
        0x100034ec:    6081        .`      STR      r1,[r0,#8]
        0x100034ee:    f2443021    D.!0    MOV      r0,#0x4321
        0x100034f2:    f2c12034    ..4     MOVT     r0,#0x1234
        0x100034f6:    2100        .!      MOVS     r1,#0
        0x100034f8:    2213        ."      MOVS     r2,#0x13
        0x100034fa:    47c0        .G      BLX      r8
        0x100034fc:    b128        (.      CBZ      r0,0x1000350a ; main + 4586
        0x100034fe:    f2490090    I...    MOV      r0,#0x9090
        0x10003502:    f2c10000    ....    MOVT     r0,#0x1000
        0x10003506:    2101        .!      MOVS     r1,#1
        0x10003508:    6081        .`      STR      r1,[r0,#8]
        0x1000350a:    f2443021    D.!0    MOV      r0,#0x4321
        0x1000350e:    f2c12034    ..4     MOVT     r0,#0x1234
        0x10003512:    2100        .!      MOVS     r1,#0
        0x10003514:    2215        ."      MOVS     r2,#0x15
        0x10003516:    47c0        .G      BLX      r8
        0x10003518:    b128        (.      CBZ      r0,0x10003526 ; main + 4614
        0x1000351a:    f2490090    I...    MOV      r0,#0x9090
        0x1000351e:    f2c10000    ....    MOVT     r0,#0x1000
        0x10003522:    2101        .!      MOVS     r1,#1
        0x10003524:    6081        .`      STR      r1,[r0,#8]
        0x10003526:    f2443021    D.!0    MOV      r0,#0x4321
        0x1000352a:    f2c12034    ..4     MOVT     r0,#0x1234
        0x1000352e:    2100        .!      MOVS     r1,#0
        0x10003530:    2217        ."      MOVS     r2,#0x17
        0x10003532:    47c0        .G      BLX      r8
        0x10003534:    b128        (.      CBZ      r0,0x10003542 ; main + 4642
        0x10003536:    f2490090    I...    MOV      r0,#0x9090
        0x1000353a:    f2c10000    ....    MOVT     r0,#0x1000
        0x1000353e:    2101        .!      MOVS     r1,#1
        0x10003540:    6081        .`      STR      r1,[r0,#8]
        0x10003542:    f2443021    D.!0    MOV      r0,#0x4321
        0x10003546:    f2c12034    ..4     MOVT     r0,#0x1234
        0x1000354a:    2100        .!      MOVS     r1,#0
        0x1000354c:    2219        ."      MOVS     r2,#0x19
        0x1000354e:    47c0        .G      BLX      r8
        0x10003550:    b128        (.      CBZ      r0,0x1000355e ; main + 4670
        0x10003552:    f2490090    I...    MOV      r0,#0x9090
        0x10003556:    f2c10000    ....    MOVT     r0,#0x1000
        0x1000355a:    2101        .!      MOVS     r1,#1
        0x1000355c:    6081        .`      STR      r1,[r0,#8]
        0x1000355e:    f2443021    D.!0    MOV      r0,#0x4321
        0x10003562:    f2c12034    ..4     MOVT     r0,#0x1234
        0x10003566:    2100        .!      MOVS     r1,#0
        0x10003568:    221b        ."      MOVS     r2,#0x1b
        0x1000356a:    47c0        .G      BLX      r8
        0x1000356c:    b128        (.      CBZ      r0,0x1000357a ; main + 4698
        0x1000356e:    f2490090    I...    MOV      r0,#0x9090
        0x10003572:    f2c10000    ....    MOVT     r0,#0x1000
        0x10003576:    2101        .!      MOVS     r1,#1
        0x10003578:    6081        .`      STR      r1,[r0,#8]
        0x1000357a:    f2443021    D.!0    MOV      r0,#0x4321
        0x1000357e:    f2c12034    ..4     MOVT     r0,#0x1234
        0x10003582:    2100        .!      MOVS     r1,#0
        0x10003584:    221d        ."      MOVS     r2,#0x1d
        0x10003586:    47c0        .G      BLX      r8
        0x10003588:    b128        (.      CBZ      r0,0x10003596 ; main + 4726
        0x1000358a:    f2490090    I...    MOV      r0,#0x9090
        0x1000358e:    f2c10000    ....    MOVT     r0,#0x1000
        0x10003592:    2101        .!      MOVS     r1,#1
        0x10003594:    6081        .`      STR      r1,[r0,#8]
        0x10003596:    f2443021    D.!0    MOV      r0,#0x4321
        0x1000359a:    f2c12034    ..4     MOVT     r0,#0x1234
        0x1000359e:    2100        .!      MOVS     r1,#0
        0x100035a0:    221f        ."      MOVS     r2,#0x1f
        0x100035a2:    47c0        .G      BLX      r8
        0x100035a4:    b128        (.      CBZ      r0,0x100035b2 ; main + 4754
        0x100035a6:    f2490090    I...    MOV      r0,#0x9090
        0x100035aa:    f2c10000    ....    MOVT     r0,#0x1000
        0x100035ae:    2101        .!      MOVS     r1,#1
        0x100035b0:    6081        .`      STR      r1,[r0,#8]
        0x100035b2:    f2443021    D.!0    MOV      r0,#0x4321
        0x100035b6:    f2c12034    ..4     MOVT     r0,#0x1234
        0x100035ba:    2100        .!      MOVS     r1,#0
        0x100035bc:    2221        !"      MOVS     r2,#0x21
        0x100035be:    47c0        .G      BLX      r8
        0x100035c0:    b128        (.      CBZ      r0,0x100035ce ; main + 4782
        0x100035c2:    f2490090    I...    MOV      r0,#0x9090
        0x100035c6:    f2c10000    ....    MOVT     r0,#0x1000
        0x100035ca:    2101        .!      MOVS     r1,#1
        0x100035cc:    6081        .`      STR      r1,[r0,#8]
        0x100035ce:    f2443021    D.!0    MOV      r0,#0x4321
        0x100035d2:    f2c12034    ..4     MOVT     r0,#0x1234
        0x100035d6:    2100        .!      MOVS     r1,#0
        0x100035d8:    2223        #"      MOVS     r2,#0x23
        0x100035da:    47c0        .G      BLX      r8
        0x100035dc:    b128        (.      CBZ      r0,0x100035ea ; main + 4810
        0x100035de:    f2490090    I...    MOV      r0,#0x9090
        0x100035e2:    f2c10000    ....    MOVT     r0,#0x1000
        0x100035e6:    2101        .!      MOVS     r1,#1
        0x100035e8:    6081        .`      STR      r1,[r0,#8]
        0x100035ea:    f2443021    D.!0    MOV      r0,#0x4321
        0x100035ee:    f2c12034    ..4     MOVT     r0,#0x1234
        0x100035f2:    2100        .!      MOVS     r1,#0
        0x100035f4:    2225        %"      MOVS     r2,#0x25
        0x100035f6:    47c0        .G      BLX      r8
        0x100035f8:    b128        (.      CBZ      r0,0x10003606 ; main + 4838
        0x100035fa:    f2490090    I...    MOV      r0,#0x9090
        0x100035fe:    f2c10000    ....    MOVT     r0,#0x1000
        0x10003602:    2101        .!      MOVS     r1,#1
        0x10003604:    6081        .`      STR      r1,[r0,#8]
        0x10003606:    f2443021    D.!0    MOV      r0,#0x4321
        0x1000360a:    f2c12034    ..4     MOVT     r0,#0x1234
        0x1000360e:    2100        .!      MOVS     r1,#0
        0x10003610:    2227        '"      MOVS     r2,#0x27
        0x10003612:    47c0        .G      BLX      r8
        0x10003614:    b128        (.      CBZ      r0,0x10003622 ; main + 4866
        0x10003616:    f2490090    I...    MOV      r0,#0x9090
        0x1000361a:    f2c10000    ....    MOVT     r0,#0x1000
        0x1000361e:    2101        .!      MOVS     r1,#1
        0x10003620:    6081        .`      STR      r1,[r0,#8]
        0x10003622:    f2443021    D.!0    MOV      r0,#0x4321
        0x10003626:    f2c12034    ..4     MOVT     r0,#0x1234
        0x1000362a:    2100        .!      MOVS     r1,#0
        0x1000362c:    2229        )"      MOVS     r2,#0x29
        0x1000362e:    47c0        .G      BLX      r8
        0x10003630:    b128        (.      CBZ      r0,0x1000363e ; main + 4894
        0x10003632:    f2490090    I...    MOV      r0,#0x9090
        0x10003636:    f2c10000    ....    MOVT     r0,#0x1000
        0x1000363a:    2101        .!      MOVS     r1,#1
        0x1000363c:    6081        .`      STR      r1,[r0,#8]
        0x1000363e:    f2443021    D.!0    MOV      r0,#0x4321
        0x10003642:    f2c12034    ..4     MOVT     r0,#0x1234
        0x10003646:    2100        .!      MOVS     r1,#0
        0x10003648:    222b        +"      MOVS     r2,#0x2b
        0x1000364a:    47c0        .G      BLX      r8
        0x1000364c:    b128        (.      CBZ      r0,0x1000365a ; main + 4922
        0x1000364e:    f2490090    I...    MOV      r0,#0x9090
        0x10003652:    f2c10000    ....    MOVT     r0,#0x1000
        0x10003656:    2101        .!      MOVS     r1,#1
        0x10003658:    6081        .`      STR      r1,[r0,#8]
        0x1000365a:    f2443021    D.!0    MOV      r0,#0x4321
        0x1000365e:    f2c12034    ..4     MOVT     r0,#0x1234
        0x10003662:    2100        .!      MOVS     r1,#0
        0x10003664:    222d        -"      MOVS     r2,#0x2d
        0x10003666:    47c0        .G      BLX      r8
        0x10003668:    b128        (.      CBZ      r0,0x10003676 ; main + 4950
        0x1000366a:    f2490090    I...    MOV      r0,#0x9090
        0x1000366e:    f2c10000    ....    MOVT     r0,#0x1000
        0x10003672:    2101        .!      MOVS     r1,#1
        0x10003674:    6081        .`      STR      r1,[r0,#8]
        0x10003676:    f2443021    D.!0    MOV      r0,#0x4321
        0x1000367a:    f2c12034    ..4     MOVT     r0,#0x1234
        0x1000367e:    2100        .!      MOVS     r1,#0
        0x10003680:    222f        /"      MOVS     r2,#0x2f
        0x10003682:    47c0        .G      BLX      r8
        0x10003684:    b128        (.      CBZ      r0,0x10003692 ; main + 4978
        0x10003686:    f2490090    I...    MOV      r0,#0x9090
        0x1000368a:    f2c10000    ....    MOVT     r0,#0x1000
        0x1000368e:    2101        .!      MOVS     r1,#1
        0x10003690:    6081        .`      STR      r1,[r0,#8]
        0x10003692:    f2443021    D.!0    MOV      r0,#0x4321
        0x10003696:    f2c12034    ..4     MOVT     r0,#0x1234
        0x1000369a:    2100        .!      MOVS     r1,#0
        0x1000369c:    2231        1"      MOVS     r2,#0x31
        0x1000369e:    47c0        .G      BLX      r8
        0x100036a0:    b128        (.      CBZ      r0,0x100036ae ; main + 5006
        0x100036a2:    f2490090    I...    MOV      r0,#0x9090
        0x100036a6:    f2c10000    ....    MOVT     r0,#0x1000
        0x100036aa:    2101        .!      MOVS     r1,#1
        0x100036ac:    6081        .`      STR      r1,[r0,#8]
        0x100036ae:    f2443021    D.!0    MOV      r0,#0x4321
        0x100036b2:    f2c12034    ..4     MOVT     r0,#0x1234
        0x100036b6:    2100        .!      MOVS     r1,#0
        0x100036b8:    2233        3"      MOVS     r2,#0x33
        0x100036ba:    47c0        .G      BLX      r8
        0x100036bc:    b128        (.      CBZ      r0,0x100036ca ; main + 5034
        0x100036be:    f2490090    I...    MOV      r0,#0x9090
        0x100036c2:    f2c10000    ....    MOVT     r0,#0x1000
        0x100036c6:    2101        .!      MOVS     r1,#1
        0x100036c8:    6081        .`      STR      r1,[r0,#8]
        0x100036ca:    f2443021    D.!0    MOV      r0,#0x4321
        0x100036ce:    f2c12034    ..4     MOVT     r0,#0x1234
        0x100036d2:    2100        .!      MOVS     r1,#0
        0x100036d4:    2235        5"      MOVS     r2,#0x35
        0x100036d6:    47c0        .G      BLX      r8
        0x100036d8:    b128        (.      CBZ      r0,0x100036e6 ; main + 5062
        0x100036da:    f2490090    I...    MOV      r0,#0x9090
        0x100036de:    f2c10000    ....    MOVT     r0,#0x1000
        0x100036e2:    2101        .!      MOVS     r1,#1
        0x100036e4:    6081        .`      STR      r1,[r0,#8]
        0x100036e6:    f2443021    D.!0    MOV      r0,#0x4321
        0x100036ea:    f2c12034    ..4     MOVT     r0,#0x1234
        0x100036ee:    2100        .!      MOVS     r1,#0
        0x100036f0:    2237        7"      MOVS     r2,#0x37
        0x100036f2:    47c0        .G      BLX      r8
        0x100036f4:    b128        (.      CBZ      r0,0x10003702 ; main + 5090
        0x100036f6:    f2490090    I...    MOV      r0,#0x9090
        0x100036fa:    f2c10000    ....    MOVT     r0,#0x1000
        0x100036fe:    2101        .!      MOVS     r1,#1
        0x10003700:    6081        .`      STR      r1,[r0,#8]
        0x10003702:    f2443021    D.!0    MOV      r0,#0x4321
        0x10003706:    f2c12034    ..4     MOVT     r0,#0x1234
        0x1000370a:    2100        .!      MOVS     r1,#0
        0x1000370c:    2239        9"      MOVS     r2,#0x39
        0x1000370e:    47c0        .G      BLX      r8
        0x10003710:    b128        (.      CBZ      r0,0x1000371e ; main + 5118
        0x10003712:    f2490090    I...    MOV      r0,#0x9090
        0x10003716:    f2c10000    ....    MOVT     r0,#0x1000
        0x1000371a:    2101        .!      MOVS     r1,#1
        0x1000371c:    6081        .`      STR      r1,[r0,#8]
        0x1000371e:    f2443021    D.!0    MOV      r0,#0x4321
        0x10003722:    f2c12034    ..4     MOVT     r0,#0x1234
        0x10003726:    2100        .!      MOVS     r1,#0
        0x10003728:    223b        ;"      MOVS     r2,#0x3b
        0x1000372a:    47c0        .G      BLX      r8
        0x1000372c:    b128        (.      CBZ      r0,0x1000373a ; main + 5146
        0x1000372e:    f2490090    I...    MOV      r0,#0x9090
        0x10003732:    f2c10000    ....    MOVT     r0,#0x1000
        0x10003736:    2101        .!      MOVS     r1,#1
        0x10003738:    6081        .`      STR      r1,[r0,#8]
        0x1000373a:    f2443021    D.!0    MOV      r0,#0x4321
        0x1000373e:    f2c12034    ..4     MOVT     r0,#0x1234
        0x10003742:    2100        .!      MOVS     r1,#0
        0x10003744:    223d        ="      MOVS     r2,#0x3d
        0x10003746:    47c0        .G      BLX      r8
        0x10003748:    b128        (.      CBZ      r0,0x10003756 ; main + 5174
        0x1000374a:    f2490090    I...    MOV      r0,#0x9090
        0x1000374e:    f2c10000    ....    MOVT     r0,#0x1000
        0x10003752:    2101        .!      MOVS     r1,#1
        0x10003754:    6081        .`      STR      r1,[r0,#8]
        0x10003756:    f2443021    D.!0    MOV      r0,#0x4321
        0x1000375a:    f2c12034    ..4     MOVT     r0,#0x1234
        0x1000375e:    2100        .!      MOVS     r1,#0
        0x10003760:    223f        ?"      MOVS     r2,#0x3f
        0x10003762:    47c0        .G      BLX      r8
        0x10003764:    b128        (.      CBZ      r0,0x10003772 ; main + 5202
        0x10003766:    f2490090    I...    MOV      r0,#0x9090
        0x1000376a:    f2c10000    ....    MOVT     r0,#0x1000
        0x1000376e:    2101        .!      MOVS     r1,#1
        0x10003770:    6081        .`      STR      r1,[r0,#8]
        0x10003772:    f2443021    D.!0    MOV      r0,#0x4321
        0x10003776:    f2c12034    ..4     MOVT     r0,#0x1234
        0x1000377a:    2101        .!      MOVS     r1,#1
        0x1000377c:    2201        ."      MOVS     r2,#1
        0x1000377e:    47c0        .G      BLX      r8
        0x10003780:    b128        (.      CBZ      r0,0x1000378e ; main + 5230
        0x10003782:    f2490090    I...    MOV      r0,#0x9090
        0x10003786:    f2c10000    ....    MOVT     r0,#0x1000
        0x1000378a:    2101        .!      MOVS     r1,#1
        0x1000378c:    6081        .`      STR      r1,[r0,#8]
        0x1000378e:    f2443021    D.!0    MOV      r0,#0x4321
        0x10003792:    f2c12034    ..4     MOVT     r0,#0x1234
        0x10003796:    2101        .!      MOVS     r1,#1
        0x10003798:    2203        ."      MOVS     r2,#3
        0x1000379a:    47c0        .G      BLX      r8
        0x1000379c:    b128        (.      CBZ      r0,0x100037aa ; main + 5258
        0x1000379e:    f2490090    I...    MOV      r0,#0x9090
        0x100037a2:    f2c10000    ....    MOVT     r0,#0x1000
        0x100037a6:    2101        .!      MOVS     r1,#1
        0x100037a8:    6081        .`      STR      r1,[r0,#8]
        0x100037aa:    f2443021    D.!0    MOV      r0,#0x4321
        0x100037ae:    f2c12034    ..4     MOVT     r0,#0x1234
        0x100037b2:    2101        .!      MOVS     r1,#1
        0x100037b4:    2205        ."      MOVS     r2,#5
        0x100037b6:    47c0        .G      BLX      r8
        0x100037b8:    b128        (.      CBZ      r0,0x100037c6 ; main + 5286
        0x100037ba:    f2490090    I...    MOV      r0,#0x9090
        0x100037be:    f2c10000    ....    MOVT     r0,#0x1000
        0x100037c2:    2101        .!      MOVS     r1,#1
        0x100037c4:    6081        .`      STR      r1,[r0,#8]
        0x100037c6:    f2443021    D.!0    MOV      r0,#0x4321
        0x100037ca:    f2c12034    ..4     MOVT     r0,#0x1234
        0x100037ce:    2101        .!      MOVS     r1,#1
        0x100037d0:    2207        ."      MOVS     r2,#7
        0x100037d2:    47c0        .G      BLX      r8
        0x100037d4:    b128        (.      CBZ      r0,0x100037e2 ; main + 5314
        0x100037d6:    f2490090    I...    MOV      r0,#0x9090
        0x100037da:    f2c10000    ....    MOVT     r0,#0x1000
        0x100037de:    2101        .!      MOVS     r1,#1
        0x100037e0:    6081        .`      STR      r1,[r0,#8]
        0x100037e2:    f2443021    D.!0    MOV      r0,#0x4321
        0x100037e6:    f2c12034    ..4     MOVT     r0,#0x1234
        0x100037ea:    2101        .!      MOVS     r1,#1
        0x100037ec:    2209        ."      MOVS     r2,#9
        0x100037ee:    47c0        .G      BLX      r8
        0x100037f0:    b128        (.      CBZ      r0,0x100037fe ; main + 5342
        0x100037f2:    f2490090    I...    MOV      r0,#0x9090
        0x100037f6:    f2c10000    ....    MOVT     r0,#0x1000
        0x100037fa:    2101        .!      MOVS     r1,#1
        0x100037fc:    6081        .`      STR      r1,[r0,#8]
        0x100037fe:    f2443021    D.!0    MOV      r0,#0x4321
        0x10003802:    f2c12034    ..4     MOVT     r0,#0x1234
        0x10003806:    2101        .!      MOVS     r1,#1
        0x10003808:    220b        ."      MOVS     r2,#0xb
        0x1000380a:    47c0        .G      BLX      r8
        0x1000380c:    b128        (.      CBZ      r0,0x1000381a ; main + 5370
        0x1000380e:    f2490090    I...    MOV      r0,#0x9090
        0x10003812:    f2c10000    ....    MOVT     r0,#0x1000
        0x10003816:    2101        .!      MOVS     r1,#1
        0x10003818:    6081        .`      STR      r1,[r0,#8]
        0x1000381a:    f2443021    D.!0    MOV      r0,#0x4321
        0x1000381e:    f2c12034    ..4     MOVT     r0,#0x1234
        0x10003822:    2101        .!      MOVS     r1,#1
        0x10003824:    220d        ."      MOVS     r2,#0xd
        0x10003826:    47c0        .G      BLX      r8
        0x10003828:    b128        (.      CBZ      r0,0x10003836 ; main + 5398
        0x1000382a:    f2490090    I...    MOV      r0,#0x9090
        0x1000382e:    f2c10000    ....    MOVT     r0,#0x1000
        0x10003832:    2101        .!      MOVS     r1,#1
        0x10003834:    6081        .`      STR      r1,[r0,#8]
        0x10003836:    f2443021    D.!0    MOV      r0,#0x4321
        0x1000383a:    f2c12034    ..4     MOVT     r0,#0x1234
        0x1000383e:    2101        .!      MOVS     r1,#1
        0x10003840:    220f        ."      MOVS     r2,#0xf
        0x10003842:    47c0        .G      BLX      r8
        0x10003844:    b128        (.      CBZ      r0,0x10003852 ; main + 5426
        0x10003846:    f2490090    I...    MOV      r0,#0x9090
        0x1000384a:    f2c10000    ....    MOVT     r0,#0x1000
        0x1000384e:    2101        .!      MOVS     r1,#1
        0x10003850:    6081        .`      STR      r1,[r0,#8]
        0x10003852:    f2443021    D.!0    MOV      r0,#0x4321
        0x10003856:    f2c12034    ..4     MOVT     r0,#0x1234
        0x1000385a:    2101        .!      MOVS     r1,#1
        0x1000385c:    2211        ."      MOVS     r2,#0x11
        0x1000385e:    47c0        .G      BLX      r8
        0x10003860:    b128        (.      CBZ      r0,0x1000386e ; main + 5454
        0x10003862:    f2490090    I...    MOV      r0,#0x9090
        0x10003866:    f2c10000    ....    MOVT     r0,#0x1000
        0x1000386a:    2101        .!      MOVS     r1,#1
        0x1000386c:    6081        .`      STR      r1,[r0,#8]
        0x1000386e:    f2443021    D.!0    MOV      r0,#0x4321
        0x10003872:    f2c12034    ..4     MOVT     r0,#0x1234
        0x10003876:    2101        .!      MOVS     r1,#1
        0x10003878:    2213        ."      MOVS     r2,#0x13
        0x1000387a:    47c0        .G      BLX      r8
        0x1000387c:    b128        (.      CBZ      r0,0x1000388a ; main + 5482
        0x1000387e:    f2490090    I...    MOV      r0,#0x9090
        0x10003882:    f2c10000    ....    MOVT     r0,#0x1000
        0x10003886:    2101        .!      MOVS     r1,#1
        0x10003888:    6081        .`      STR      r1,[r0,#8]
        0x1000388a:    f2443021    D.!0    MOV      r0,#0x4321
        0x1000388e:    f2c12034    ..4     MOVT     r0,#0x1234
        0x10003892:    2101        .!      MOVS     r1,#1
        0x10003894:    2215        ."      MOVS     r2,#0x15
        0x10003896:    47c0        .G      BLX      r8
        0x10003898:    b128        (.      CBZ      r0,0x100038a6 ; main + 5510
        0x1000389a:    f2490090    I...    MOV      r0,#0x9090
        0x1000389e:    f2c10000    ....    MOVT     r0,#0x1000
        0x100038a2:    2101        .!      MOVS     r1,#1
        0x100038a4:    6081        .`      STR      r1,[r0,#8]
        0x100038a6:    f2443021    D.!0    MOV      r0,#0x4321
        0x100038aa:    f2c12034    ..4     MOVT     r0,#0x1234
        0x100038ae:    2101        .!      MOVS     r1,#1
        0x100038b0:    2217        ."      MOVS     r2,#0x17
        0x100038b2:    47c0        .G      BLX      r8
        0x100038b4:    b128        (.      CBZ      r0,0x100038c2 ; main + 5538
        0x100038b6:    f2490090    I...    MOV      r0,#0x9090
        0x100038ba:    f2c10000    ....    MOVT     r0,#0x1000
        0x100038be:    2101        .!      MOVS     r1,#1
        0x100038c0:    6081        .`      STR      r1,[r0,#8]
        0x100038c2:    f2443021    D.!0    MOV      r0,#0x4321
        0x100038c6:    f2c12034    ..4     MOVT     r0,#0x1234
        0x100038ca:    2101        .!      MOVS     r1,#1
        0x100038cc:    2219        ."      MOVS     r2,#0x19
        0x100038ce:    47c0        .G      BLX      r8
        0x100038d0:    b128        (.      CBZ      r0,0x100038de ; main + 5566
        0x100038d2:    f2490090    I...    MOV      r0,#0x9090
        0x100038d6:    f2c10000    ....    MOVT     r0,#0x1000
        0x100038da:    2101        .!      MOVS     r1,#1
        0x100038dc:    6081        .`      STR      r1,[r0,#8]
        0x100038de:    f2443021    D.!0    MOV      r0,#0x4321
        0x100038e2:    f2c12034    ..4     MOVT     r0,#0x1234
        0x100038e6:    2101        .!      MOVS     r1,#1
        0x100038e8:    221b        ."      MOVS     r2,#0x1b
        0x100038ea:    47c0        .G      BLX      r8
        0x100038ec:    b128        (.      CBZ      r0,0x100038fa ; main + 5594
        0x100038ee:    f2490090    I...    MOV      r0,#0x9090
        0x100038f2:    f2c10000    ....    MOVT     r0,#0x1000
        0x100038f6:    2101        .!      MOVS     r1,#1
        0x100038f8:    6081        .`      STR      r1,[r0,#8]
        0x100038fa:    f2443021    D.!0    MOV      r0,#0x4321
        0x100038fe:    f2c12034    ..4     MOVT     r0,#0x1234
        0x10003902:    2101        .!      MOVS     r1,#1
        0x10003904:    221d        ."      MOVS     r2,#0x1d
        0x10003906:    47c0        .G      BLX      r8
        0x10003908:    b128        (.      CBZ      r0,0x10003916 ; main + 5622
        0x1000390a:    f2490090    I...    MOV      r0,#0x9090
        0x1000390e:    f2c10000    ....    MOVT     r0,#0x1000
        0x10003912:    2101        .!      MOVS     r1,#1
        0x10003914:    6081        .`      STR      r1,[r0,#8]
        0x10003916:    f2443021    D.!0    MOV      r0,#0x4321
        0x1000391a:    f2c12034    ..4     MOVT     r0,#0x1234
        0x1000391e:    2101        .!      MOVS     r1,#1
        0x10003920:    221f        ."      MOVS     r2,#0x1f
        0x10003922:    47c0        .G      BLX      r8
        0x10003924:    b128        (.      CBZ      r0,0x10003932 ; main + 5650
        0x10003926:    f2490090    I...    MOV      r0,#0x9090
        0x1000392a:    f2c10000    ....    MOVT     r0,#0x1000
        0x1000392e:    2101        .!      MOVS     r1,#1
        0x10003930:    6081        .`      STR      r1,[r0,#8]
        0x10003932:    f2443021    D.!0    MOV      r0,#0x4321
        0x10003936:    f2c12034    ..4     MOVT     r0,#0x1234
        0x1000393a:    2101        .!      MOVS     r1,#1
        0x1000393c:    2221        !"      MOVS     r2,#0x21
        0x1000393e:    47c0        .G      BLX      r8
        0x10003940:    b128        (.      CBZ      r0,0x1000394e ; main + 5678
        0x10003942:    f2490090    I...    MOV      r0,#0x9090
        0x10003946:    f2c10000    ....    MOVT     r0,#0x1000
        0x1000394a:    2101        .!      MOVS     r1,#1
        0x1000394c:    6081        .`      STR      r1,[r0,#8]
        0x1000394e:    f2443021    D.!0    MOV      r0,#0x4321
        0x10003952:    f2c12034    ..4     MOVT     r0,#0x1234
        0x10003956:    2101        .!      MOVS     r1,#1
        0x10003958:    2223        #"      MOVS     r2,#0x23
        0x1000395a:    47c0        .G      BLX      r8
        0x1000395c:    b128        (.      CBZ      r0,0x1000396a ; main + 5706
        0x1000395e:    f2490090    I...    MOV      r0,#0x9090
        0x10003962:    f2c10000    ....    MOVT     r0,#0x1000
        0x10003966:    2101        .!      MOVS     r1,#1
        0x10003968:    6081        .`      STR      r1,[r0,#8]
        0x1000396a:    f2443021    D.!0    MOV      r0,#0x4321
        0x1000396e:    f2c12034    ..4     MOVT     r0,#0x1234
        0x10003972:    2101        .!      MOVS     r1,#1
        0x10003974:    2225        %"      MOVS     r2,#0x25
        0x10003976:    47c0        .G      BLX      r8
        0x10003978:    b128        (.      CBZ      r0,0x10003986 ; main + 5734
        0x1000397a:    f2490090    I...    MOV      r0,#0x9090
        0x1000397e:    f2c10000    ....    MOVT     r0,#0x1000
        0x10003982:    2101        .!      MOVS     r1,#1
        0x10003984:    6081        .`      STR      r1,[r0,#8]
        0x10003986:    f2443021    D.!0    MOV      r0,#0x4321
        0x1000398a:    f2c12034    ..4     MOVT     r0,#0x1234
        0x1000398e:    2101        .!      MOVS     r1,#1
        0x10003990:    2227        '"      MOVS     r2,#0x27
        0x10003992:    47c0        .G      BLX      r8
        0x10003994:    b128        (.      CBZ      r0,0x100039a2 ; main + 5762
        0x10003996:    f2490090    I...    MOV      r0,#0x9090
        0x1000399a:    f2c10000    ....    MOVT     r0,#0x1000
        0x1000399e:    2101        .!      MOVS     r1,#1
        0x100039a0:    6081        .`      STR      r1,[r0,#8]
        0x100039a2:    f2443021    D.!0    MOV      r0,#0x4321
        0x100039a6:    f2c12034    ..4     MOVT     r0,#0x1234
        0x100039aa:    2101        .!      MOVS     r1,#1
        0x100039ac:    2229        )"      MOVS     r2,#0x29
        0x100039ae:    47c0        .G      BLX      r8
        0x100039b0:    b128        (.      CBZ      r0,0x100039be ; main + 5790
        0x100039b2:    f2490090    I...    MOV      r0,#0x9090
        0x100039b6:    f2c10000    ....    MOVT     r0,#0x1000
        0x100039ba:    2101        .!      MOVS     r1,#1
        0x100039bc:    6081        .`      STR      r1,[r0,#8]
        0x100039be:    f2443021    D.!0    MOV      r0,#0x4321
        0x100039c2:    f2c12034    ..4     MOVT     r0,#0x1234
        0x100039c6:    2101        .!      MOVS     r1,#1
        0x100039c8:    222b        +"      MOVS     r2,#0x2b
        0x100039ca:    47c0        .G      BLX      r8
        0x100039cc:    b128        (.      CBZ      r0,0x100039da ; main + 5818
        0x100039ce:    f2490090    I...    MOV      r0,#0x9090
        0x100039d2:    f2c10000    ....    MOVT     r0,#0x1000
        0x100039d6:    2101        .!      MOVS     r1,#1
        0x100039d8:    6081        .`      STR      r1,[r0,#8]
        0x100039da:    f2443021    D.!0    MOV      r0,#0x4321
        0x100039de:    f2c12034    ..4     MOVT     r0,#0x1234
        0x100039e2:    2101        .!      MOVS     r1,#1
        0x100039e4:    222d        -"      MOVS     r2,#0x2d
        0x100039e6:    47c0        .G      BLX      r8
        0x100039e8:    b128        (.      CBZ      r0,0x100039f6 ; main + 5846
        0x100039ea:    f2490090    I...    MOV      r0,#0x9090
        0x100039ee:    f2c10000    ....    MOVT     r0,#0x1000
        0x100039f2:    2101        .!      MOVS     r1,#1
        0x100039f4:    6081        .`      STR      r1,[r0,#8]
        0x100039f6:    f2443021    D.!0    MOV      r0,#0x4321
        0x100039fa:    f2c12034    ..4     MOVT     r0,#0x1234
        0x100039fe:    2101        .!      MOVS     r1,#1
        0x10003a00:    222f        /"      MOVS     r2,#0x2f
        0x10003a02:    47c0        .G      BLX      r8
        0x10003a04:    b128        (.      CBZ      r0,0x10003a12 ; main + 5874
        0x10003a06:    f2490090    I...    MOV      r0,#0x9090
        0x10003a0a:    f2c10000    ....    MOVT     r0,#0x1000
        0x10003a0e:    2101        .!      MOVS     r1,#1
        0x10003a10:    6081        .`      STR      r1,[r0,#8]
        0x10003a12:    f2443021    D.!0    MOV      r0,#0x4321
        0x10003a16:    f2c12034    ..4     MOVT     r0,#0x1234
        0x10003a1a:    2101        .!      MOVS     r1,#1
        0x10003a1c:    2231        1"      MOVS     r2,#0x31
        0x10003a1e:    47c0        .G      BLX      r8
        0x10003a20:    b128        (.      CBZ      r0,0x10003a2e ; main + 5902
        0x10003a22:    f2490090    I...    MOV      r0,#0x9090
        0x10003a26:    f2c10000    ....    MOVT     r0,#0x1000
        0x10003a2a:    2101        .!      MOVS     r1,#1
        0x10003a2c:    6081        .`      STR      r1,[r0,#8]
        0x10003a2e:    f2443021    D.!0    MOV      r0,#0x4321
        0x10003a32:    f2c12034    ..4     MOVT     r0,#0x1234
        0x10003a36:    2101        .!      MOVS     r1,#1
        0x10003a38:    2233        3"      MOVS     r2,#0x33
        0x10003a3a:    47c0        .G      BLX      r8
        0x10003a3c:    b128        (.      CBZ      r0,0x10003a4a ; main + 5930
        0x10003a3e:    f2490090    I...    MOV      r0,#0x9090
        0x10003a42:    f2c10000    ....    MOVT     r0,#0x1000
        0x10003a46:    2101        .!      MOVS     r1,#1
        0x10003a48:    6081        .`      STR      r1,[r0,#8]
        0x10003a4a:    f2443021    D.!0    MOV      r0,#0x4321
        0x10003a4e:    f2c12034    ..4     MOVT     r0,#0x1234
        0x10003a52:    2101        .!      MOVS     r1,#1
        0x10003a54:    2235        5"      MOVS     r2,#0x35
        0x10003a56:    47c0        .G      BLX      r8
        0x10003a58:    b128        (.      CBZ      r0,0x10003a66 ; main + 5958
        0x10003a5a:    f2490090    I...    MOV      r0,#0x9090
        0x10003a5e:    f2c10000    ....    MOVT     r0,#0x1000
        0x10003a62:    2101        .!      MOVS     r1,#1
        0x10003a64:    6081        .`      STR      r1,[r0,#8]
        0x10003a66:    f2443021    D.!0    MOV      r0,#0x4321
        0x10003a6a:    f2c12034    ..4     MOVT     r0,#0x1234
        0x10003a6e:    2101        .!      MOVS     r1,#1
        0x10003a70:    2237        7"      MOVS     r2,#0x37
        0x10003a72:    47c0        .G      BLX      r8
        0x10003a74:    b128        (.      CBZ      r0,0x10003a82 ; main + 5986
        0x10003a76:    f2490090    I...    MOV      r0,#0x9090
        0x10003a7a:    f2c10000    ....    MOVT     r0,#0x1000
        0x10003a7e:    2101        .!      MOVS     r1,#1
        0x10003a80:    6081        .`      STR      r1,[r0,#8]
        0x10003a82:    f2443021    D.!0    MOV      r0,#0x4321
        0x10003a86:    f2c12034    ..4     MOVT     r0,#0x1234
        0x10003a8a:    2101        .!      MOVS     r1,#1
        0x10003a8c:    2239        9"      MOVS     r2,#0x39
        0x10003a8e:    47c0        .G      BLX      r8
        0x10003a90:    b128        (.      CBZ      r0,0x10003a9e ; main + 6014
        0x10003a92:    f2490090    I...    MOV      r0,#0x9090
        0x10003a96:    f2c10000    ....    MOVT     r0,#0x1000
        0x10003a9a:    2101        .!      MOVS     r1,#1
        0x10003a9c:    6081        .`      STR      r1,[r0,#8]
        0x10003a9e:    f2443021    D.!0    MOV      r0,#0x4321
        0x10003aa2:    f2c12034    ..4     MOVT     r0,#0x1234
        0x10003aa6:    2101        .!      MOVS     r1,#1
        0x10003aa8:    223b        ;"      MOVS     r2,#0x3b
        0x10003aaa:    47c0        .G      BLX      r8
        0x10003aac:    b128        (.      CBZ      r0,0x10003aba ; main + 6042
        0x10003aae:    f2490090    I...    MOV      r0,#0x9090
        0x10003ab2:    f2c10000    ....    MOVT     r0,#0x1000
        0x10003ab6:    2101        .!      MOVS     r1,#1
        0x10003ab8:    6081        .`      STR      r1,[r0,#8]
        0x10003aba:    f2443021    D.!0    MOV      r0,#0x4321
        0x10003abe:    f2c12034    ..4     MOVT     r0,#0x1234
        0x10003ac2:    2101        .!      MOVS     r1,#1
        0x10003ac4:    223d        ="      MOVS     r2,#0x3d
        0x10003ac6:    47c0        .G      BLX      r8
        0x10003ac8:    b128        (.      CBZ      r0,0x10003ad6 ; main + 6070
        0x10003aca:    f2490090    I...    MOV      r0,#0x9090
        0x10003ace:    f2c10000    ....    MOVT     r0,#0x1000
        0x10003ad2:    2101        .!      MOVS     r1,#1
        0x10003ad4:    6081        .`      STR      r1,[r0,#8]
        0x10003ad6:    f2443021    D.!0    MOV      r0,#0x4321
        0x10003ada:    f2c12034    ..4     MOVT     r0,#0x1234
        0x10003ade:    2101        .!      MOVS     r1,#1
        0x10003ae0:    223f        ?"      MOVS     r2,#0x3f
        0x10003ae2:    47c0        .G      BLX      r8
        0x10003ae4:    2500        .%      MOVS     r5,#0
        0x10003ae6:    f04f31ff    O..1    MOV      r1,#0xffffffff
        0x10003aea:    2800        .(      CMP      r0,#0
        0x10003aec:    f04f0600    O...    MOV      r6,#0
        0x10003af0:    f43eaed1    >...    BEQ      0x10002896 ; main + 1398
        0x10003af4:    f2490090    I...    MOV      r0,#0x9090
        0x10003af8:    f2c10000    ....    MOVT     r0,#0x1000
        0x10003afc:    2101        .!      MOVS     r1,#1
        0x10003afe:    6081        .`      STR      r1,[r0,#8]
        0x10003b00:    2500        .%      MOVS     r5,#0
        0x10003b02:    f04f31ff    O..1    MOV      r1,#0xffffffff
        0x10003b06:    2600        .&      MOVS     r6,#0
        0x10003b08:    f7febec5    ....    B        0x10002896 ; main + 1398
        0x10003b0c:    f2443021    D.!0    MOV      r0,#0x4321
        0x10003b10:    f2c12034    ..4     MOVT     r0,#0x1234
        0x10003b14:    2100        .!      MOVS     r1,#0
        0x10003b16:    2207        ."      MOVS     r2,#7
        0x10003b18:    47c0        .G      BLX      r8
        0x10003b1a:    b128        (.      CBZ      r0,0x10003b28 ; main + 6152
        0x10003b1c:    f2490090    I...    MOV      r0,#0x9090
        0x10003b20:    f2c10000    ....    MOVT     r0,#0x1000
        0x10003b24:    2101        .!      MOVS     r1,#1
        0x10003b26:    6081        .`      STR      r1,[r0,#8]
        0x10003b28:    f2443021    D.!0    MOV      r0,#0x4321
        0x10003b2c:    f2c12034    ..4     MOVT     r0,#0x1234
        0x10003b30:    2100        .!      MOVS     r1,#0
        0x10003b32:    2209        ."      MOVS     r2,#9
        0x10003b34:    47c0        .G      BLX      r8
        0x10003b36:    b128        (.      CBZ      r0,0x10003b44 ; main + 6180
        0x10003b38:    f2490090    I...    MOV      r0,#0x9090
        0x10003b3c:    f2c10000    ....    MOVT     r0,#0x1000
        0x10003b40:    2101        .!      MOVS     r1,#1
        0x10003b42:    6081        .`      STR      r1,[r0,#8]
        0x10003b44:    f2443021    D.!0    MOV      r0,#0x4321
        0x10003b48:    f2c12034    ..4     MOVT     r0,#0x1234
        0x10003b4c:    2100        .!      MOVS     r1,#0
        0x10003b4e:    220b        ."      MOVS     r2,#0xb
        0x10003b50:    47c0        .G      BLX      r8
        0x10003b52:    b128        (.      CBZ      r0,0x10003b60 ; main + 6208
        0x10003b54:    f2490090    I...    MOV      r0,#0x9090
        0x10003b58:    f2c10000    ....    MOVT     r0,#0x1000
        0x10003b5c:    2101        .!      MOVS     r1,#1
        0x10003b5e:    6081        .`      STR      r1,[r0,#8]
        0x10003b60:    f2443021    D.!0    MOV      r0,#0x4321
        0x10003b64:    f2c12034    ..4     MOVT     r0,#0x1234
        0x10003b68:    2100        .!      MOVS     r1,#0
        0x10003b6a:    220d        ."      MOVS     r2,#0xd
        0x10003b6c:    47c0        .G      BLX      r8
        0x10003b6e:    b128        (.      CBZ      r0,0x10003b7c ; main + 6236
        0x10003b70:    f2490090    I...    MOV      r0,#0x9090
        0x10003b74:    f2c10000    ....    MOVT     r0,#0x1000
        0x10003b78:    2101        .!      MOVS     r1,#1
        0x10003b7a:    6081        .`      STR      r1,[r0,#8]
        0x10003b7c:    f2443021    D.!0    MOV      r0,#0x4321
        0x10003b80:    f2c12034    ..4     MOVT     r0,#0x1234
        0x10003b84:    2100        .!      MOVS     r1,#0
        0x10003b86:    220f        ."      MOVS     r2,#0xf
        0x10003b88:    47c0        .G      BLX      r8
        0x10003b8a:    b128        (.      CBZ      r0,0x10003b98 ; main + 6264
        0x10003b8c:    f2490090    I...    MOV      r0,#0x9090
        0x10003b90:    f2c10000    ....    MOVT     r0,#0x1000
        0x10003b94:    2101        .!      MOVS     r1,#1
        0x10003b96:    6081        .`      STR      r1,[r0,#8]
        0x10003b98:    f2443021    D.!0    MOV      r0,#0x4321
        0x10003b9c:    f2c12034    ..4     MOVT     r0,#0x1234
        0x10003ba0:    2100        .!      MOVS     r1,#0
        0x10003ba2:    2211        ."      MOVS     r2,#0x11
        0x10003ba4:    47c0        .G      BLX      r8
        0x10003ba6:    b128        (.      CBZ      r0,0x10003bb4 ; main + 6292
        0x10003ba8:    f2490090    I...    MOV      r0,#0x9090
        0x10003bac:    f2c10000    ....    MOVT     r0,#0x1000
        0x10003bb0:    2101        .!      MOVS     r1,#1
        0x10003bb2:    6081        .`      STR      r1,[r0,#8]
        0x10003bb4:    f2443021    D.!0    MOV      r0,#0x4321
        0x10003bb8:    f2c12034    ..4     MOVT     r0,#0x1234
        0x10003bbc:    2100        .!      MOVS     r1,#0
        0x10003bbe:    2213        ."      MOVS     r2,#0x13
        0x10003bc0:    47c0        .G      BLX      r8
        0x10003bc2:    b128        (.      CBZ      r0,0x10003bd0 ; main + 6320
        0x10003bc4:    f2490090    I...    MOV      r0,#0x9090
        0x10003bc8:    f2c10000    ....    MOVT     r0,#0x1000
        0x10003bcc:    2101        .!      MOVS     r1,#1
        0x10003bce:    6081        .`      STR      r1,[r0,#8]
        0x10003bd0:    f2443021    D.!0    MOV      r0,#0x4321
        0x10003bd4:    f2c12034    ..4     MOVT     r0,#0x1234
        0x10003bd8:    2100        .!      MOVS     r1,#0
        0x10003bda:    2215        ."      MOVS     r2,#0x15
        0x10003bdc:    47c0        .G      BLX      r8
        0x10003bde:    b128        (.      CBZ      r0,0x10003bec ; main + 6348
        0x10003be0:    f2490090    I...    MOV      r0,#0x9090
        0x10003be4:    f2c10000    ....    MOVT     r0,#0x1000
        0x10003be8:    2101        .!      MOVS     r1,#1
        0x10003bea:    6081        .`      STR      r1,[r0,#8]
        0x10003bec:    f2443021    D.!0    MOV      r0,#0x4321
        0x10003bf0:    f2c12034    ..4     MOVT     r0,#0x1234
        0x10003bf4:    2100        .!      MOVS     r1,#0
        0x10003bf6:    2217        ."      MOVS     r2,#0x17
        0x10003bf8:    47c0        .G      BLX      r8
        0x10003bfa:    b128        (.      CBZ      r0,0x10003c08 ; main + 6376
        0x10003bfc:    f2490090    I...    MOV      r0,#0x9090
        0x10003c00:    f2c10000    ....    MOVT     r0,#0x1000
        0x10003c04:    2101        .!      MOVS     r1,#1
        0x10003c06:    6081        .`      STR      r1,[r0,#8]
        0x10003c08:    f2443021    D.!0    MOV      r0,#0x4321
        0x10003c0c:    f2c12034    ..4     MOVT     r0,#0x1234
        0x10003c10:    2100        .!      MOVS     r1,#0
        0x10003c12:    2219        ."      MOVS     r2,#0x19
        0x10003c14:    47c0        .G      BLX      r8
        0x10003c16:    b128        (.      CBZ      r0,0x10003c24 ; main + 6404
        0x10003c18:    f2490090    I...    MOV      r0,#0x9090
        0x10003c1c:    f2c10000    ....    MOVT     r0,#0x1000
        0x10003c20:    2101        .!      MOVS     r1,#1
        0x10003c22:    6081        .`      STR      r1,[r0,#8]
        0x10003c24:    f2443021    D.!0    MOV      r0,#0x4321
        0x10003c28:    f2c12034    ..4     MOVT     r0,#0x1234
        0x10003c2c:    2100        .!      MOVS     r1,#0
        0x10003c2e:    221b        ."      MOVS     r2,#0x1b
        0x10003c30:    47c0        .G      BLX      r8
        0x10003c32:    b128        (.      CBZ      r0,0x10003c40 ; main + 6432
        0x10003c34:    f2490090    I...    MOV      r0,#0x9090
        0x10003c38:    f2c10000    ....    MOVT     r0,#0x1000
        0x10003c3c:    2101        .!      MOVS     r1,#1
        0x10003c3e:    6081        .`      STR      r1,[r0,#8]
        0x10003c40:    f2443021    D.!0    MOV      r0,#0x4321
        0x10003c44:    f2c12034    ..4     MOVT     r0,#0x1234
        0x10003c48:    2100        .!      MOVS     r1,#0
        0x10003c4a:    221d        ."      MOVS     r2,#0x1d
        0x10003c4c:    47c0        .G      BLX      r8
        0x10003c4e:    b128        (.      CBZ      r0,0x10003c5c ; main + 6460
        0x10003c50:    f2490090    I...    MOV      r0,#0x9090
        0x10003c54:    f2c10000    ....    MOVT     r0,#0x1000
        0x10003c58:    2101        .!      MOVS     r1,#1
        0x10003c5a:    6081        .`      STR      r1,[r0,#8]
        0x10003c5c:    f2443021    D.!0    MOV      r0,#0x4321
        0x10003c60:    f2c12034    ..4     MOVT     r0,#0x1234
        0x10003c64:    2100        .!      MOVS     r1,#0
        0x10003c66:    221f        ."      MOVS     r2,#0x1f
        0x10003c68:    47c0        .G      BLX      r8
        0x10003c6a:    b128        (.      CBZ      r0,0x10003c78 ; main + 6488
        0x10003c6c:    f2490090    I...    MOV      r0,#0x9090
        0x10003c70:    f2c10000    ....    MOVT     r0,#0x1000
        0x10003c74:    2101        .!      MOVS     r1,#1
        0x10003c76:    6081        .`      STR      r1,[r0,#8]
        0x10003c78:    f2443021    D.!0    MOV      r0,#0x4321
        0x10003c7c:    f2c12034    ..4     MOVT     r0,#0x1234
        0x10003c80:    2100        .!      MOVS     r1,#0
        0x10003c82:    2221        !"      MOVS     r2,#0x21
        0x10003c84:    47c0        .G      BLX      r8
        0x10003c86:    b128        (.      CBZ      r0,0x10003c94 ; main + 6516
        0x10003c88:    f2490090    I...    MOV      r0,#0x9090
        0x10003c8c:    f2c10000    ....    MOVT     r0,#0x1000
        0x10003c90:    2101        .!      MOVS     r1,#1
        0x10003c92:    6081        .`      STR      r1,[r0,#8]
        0x10003c94:    f2443021    D.!0    MOV      r0,#0x4321
        0x10003c98:    f2c12034    ..4     MOVT     r0,#0x1234
        0x10003c9c:    2100        .!      MOVS     r1,#0
        0x10003c9e:    2223        #"      MOVS     r2,#0x23
        0x10003ca0:    47c0        .G      BLX      r8
        0x10003ca2:    b128        (.      CBZ      r0,0x10003cb0 ; main + 6544
        0x10003ca4:    f2490090    I...    MOV      r0,#0x9090
        0x10003ca8:    f2c10000    ....    MOVT     r0,#0x1000
        0x10003cac:    2101        .!      MOVS     r1,#1
        0x10003cae:    6081        .`      STR      r1,[r0,#8]
        0x10003cb0:    f2443021    D.!0    MOV      r0,#0x4321
        0x10003cb4:    f2c12034    ..4     MOVT     r0,#0x1234
        0x10003cb8:    2100        .!      MOVS     r1,#0
        0x10003cba:    2225        %"      MOVS     r2,#0x25
        0x10003cbc:    47c0        .G      BLX      r8
        0x10003cbe:    b128        (.      CBZ      r0,0x10003ccc ; main + 6572
        0x10003cc0:    f2490090    I...    MOV      r0,#0x9090
        0x10003cc4:    f2c10000    ....    MOVT     r0,#0x1000
        0x10003cc8:    2101        .!      MOVS     r1,#1
        0x10003cca:    6081        .`      STR      r1,[r0,#8]
        0x10003ccc:    f2443021    D.!0    MOV      r0,#0x4321
        0x10003cd0:    f2c12034    ..4     MOVT     r0,#0x1234
        0x10003cd4:    2100        .!      MOVS     r1,#0
        0x10003cd6:    2227        '"      MOVS     r2,#0x27
        0x10003cd8:    47c0        .G      BLX      r8
        0x10003cda:    b128        (.      CBZ      r0,0x10003ce8 ; main + 6600
        0x10003cdc:    f2490090    I...    MOV      r0,#0x9090
        0x10003ce0:    f2c10000    ....    MOVT     r0,#0x1000
        0x10003ce4:    2101        .!      MOVS     r1,#1
        0x10003ce6:    6081        .`      STR      r1,[r0,#8]
        0x10003ce8:    f2443021    D.!0    MOV      r0,#0x4321
        0x10003cec:    f2c12034    ..4     MOVT     r0,#0x1234
        0x10003cf0:    2100        .!      MOVS     r1,#0
        0x10003cf2:    2229        )"      MOVS     r2,#0x29
        0x10003cf4:    47c0        .G      BLX      r8
        0x10003cf6:    b128        (.      CBZ      r0,0x10003d04 ; main + 6628
        0x10003cf8:    f2490090    I...    MOV      r0,#0x9090
        0x10003cfc:    f2c10000    ....    MOVT     r0,#0x1000
        0x10003d00:    2101        .!      MOVS     r1,#1
        0x10003d02:    6081        .`      STR      r1,[r0,#8]
        0x10003d04:    f2443021    D.!0    MOV      r0,#0x4321
        0x10003d08:    f2c12034    ..4     MOVT     r0,#0x1234
        0x10003d0c:    2100        .!      MOVS     r1,#0
        0x10003d0e:    222b        +"      MOVS     r2,#0x2b
        0x10003d10:    47c0        .G      BLX      r8
        0x10003d12:    b128        (.      CBZ      r0,0x10003d20 ; main + 6656
        0x10003d14:    f2490090    I...    MOV      r0,#0x9090
        0x10003d18:    f2c10000    ....    MOVT     r0,#0x1000
        0x10003d1c:    2101        .!      MOVS     r1,#1
        0x10003d1e:    6081        .`      STR      r1,[r0,#8]
        0x10003d20:    f2443021    D.!0    MOV      r0,#0x4321
        0x10003d24:    f2c12034    ..4     MOVT     r0,#0x1234
        0x10003d28:    2100        .!      MOVS     r1,#0
        0x10003d2a:    222d        -"      MOVS     r2,#0x2d
        0x10003d2c:    47c0        .G      BLX      r8
        0x10003d2e:    b128        (.      CBZ      r0,0x10003d3c ; main + 6684
        0x10003d30:    f2490090    I...    MOV      r0,#0x9090
        0x10003d34:    f2c10000    ....    MOVT     r0,#0x1000
        0x10003d38:    2101        .!      MOVS     r1,#1
        0x10003d3a:    6081        .`      STR      r1,[r0,#8]
        0x10003d3c:    f2443021    D.!0    MOV      r0,#0x4321
        0x10003d40:    f2c12034    ..4     MOVT     r0,#0x1234
        0x10003d44:    2100        .!      MOVS     r1,#0
        0x10003d46:    222f        /"      MOVS     r2,#0x2f
        0x10003d48:    47c0        .G      BLX      r8
        0x10003d4a:    b128        (.      CBZ      r0,0x10003d58 ; main + 6712
        0x10003d4c:    f2490090    I...    MOV      r0,#0x9090
        0x10003d50:    f2c10000    ....    MOVT     r0,#0x1000
        0x10003d54:    2101        .!      MOVS     r1,#1
        0x10003d56:    6081        .`      STR      r1,[r0,#8]
        0x10003d58:    f2443021    D.!0    MOV      r0,#0x4321
        0x10003d5c:    f2c12034    ..4     MOVT     r0,#0x1234
        0x10003d60:    2100        .!      MOVS     r1,#0
        0x10003d62:    2231        1"      MOVS     r2,#0x31
        0x10003d64:    47c0        .G      BLX      r8
        0x10003d66:    b128        (.      CBZ      r0,0x10003d74 ; main + 6740
        0x10003d68:    f2490090    I...    MOV      r0,#0x9090
        0x10003d6c:    f2c10000    ....    MOVT     r0,#0x1000
        0x10003d70:    2101        .!      MOVS     r1,#1
        0x10003d72:    6081        .`      STR      r1,[r0,#8]
        0x10003d74:    f2443021    D.!0    MOV      r0,#0x4321
        0x10003d78:    f2c12034    ..4     MOVT     r0,#0x1234
        0x10003d7c:    2100        .!      MOVS     r1,#0
        0x10003d7e:    2233        3"      MOVS     r2,#0x33
        0x10003d80:    47c0        .G      BLX      r8
        0x10003d82:    b128        (.      CBZ      r0,0x10003d90 ; main + 6768
        0x10003d84:    f2490090    I...    MOV      r0,#0x9090
        0x10003d88:    f2c10000    ....    MOVT     r0,#0x1000
        0x10003d8c:    2101        .!      MOVS     r1,#1
        0x10003d8e:    6081        .`      STR      r1,[r0,#8]
        0x10003d90:    f2443021    D.!0    MOV      r0,#0x4321
        0x10003d94:    f2c12034    ..4     MOVT     r0,#0x1234
        0x10003d98:    2100        .!      MOVS     r1,#0
        0x10003d9a:    2235        5"      MOVS     r2,#0x35
        0x10003d9c:    47c0        .G      BLX      r8
        0x10003d9e:    b128        (.      CBZ      r0,0x10003dac ; main + 6796
        0x10003da0:    f2490090    I...    MOV      r0,#0x9090
        0x10003da4:    f2c10000    ....    MOVT     r0,#0x1000
        0x10003da8:    2101        .!      MOVS     r1,#1
        0x10003daa:    6081        .`      STR      r1,[r0,#8]
        0x10003dac:    f2443021    D.!0    MOV      r0,#0x4321
        0x10003db0:    f2c12034    ..4     MOVT     r0,#0x1234
        0x10003db4:    2100        .!      MOVS     r1,#0
        0x10003db6:    2237        7"      MOVS     r2,#0x37
        0x10003db8:    47c0        .G      BLX      r8
        0x10003dba:    b128        (.      CBZ      r0,0x10003dc8 ; main + 6824
        0x10003dbc:    f2490090    I...    MOV      r0,#0x9090
        0x10003dc0:    f2c10000    ....    MOVT     r0,#0x1000
        0x10003dc4:    2101        .!      MOVS     r1,#1
        0x10003dc6:    6081        .`      STR      r1,[r0,#8]
        0x10003dc8:    f2443021    D.!0    MOV      r0,#0x4321
        0x10003dcc:    f2c12034    ..4     MOVT     r0,#0x1234
        0x10003dd0:    2100        .!      MOVS     r1,#0
        0x10003dd2:    2239        9"      MOVS     r2,#0x39
        0x10003dd4:    47c0        .G      BLX      r8
        0x10003dd6:    b128        (.      CBZ      r0,0x10003de4 ; main + 6852
        0x10003dd8:    f2490090    I...    MOV      r0,#0x9090
        0x10003ddc:    f2c10000    ....    MOVT     r0,#0x1000
        0x10003de0:    2101        .!      MOVS     r1,#1
        0x10003de2:    6081        .`      STR      r1,[r0,#8]
        0x10003de4:    f2443021    D.!0    MOV      r0,#0x4321
        0x10003de8:    f2c12034    ..4     MOVT     r0,#0x1234
        0x10003dec:    2100        .!      MOVS     r1,#0
        0x10003dee:    223b        ;"      MOVS     r2,#0x3b
        0x10003df0:    47c0        .G      BLX      r8
        0x10003df2:    b128        (.      CBZ      r0,0x10003e00 ; main + 6880
        0x10003df4:    f2490090    I...    MOV      r0,#0x9090
        0x10003df8:    f2c10000    ....    MOVT     r0,#0x1000
        0x10003dfc:    2101        .!      MOVS     r1,#1
        0x10003dfe:    6081        .`      STR      r1,[r0,#8]
        0x10003e00:    f2443021    D.!0    MOV      r0,#0x4321
        0x10003e04:    f2c12034    ..4     MOVT     r0,#0x1234
        0x10003e08:    2100        .!      MOVS     r1,#0
        0x10003e0a:    223d        ="      MOVS     r2,#0x3d
        0x10003e0c:    47c0        .G      BLX      r8
        0x10003e0e:    b128        (.      CBZ      r0,0x10003e1c ; main + 6908
        0x10003e10:    f2490090    I...    MOV      r0,#0x9090
        0x10003e14:    f2c10000    ....    MOVT     r0,#0x1000
        0x10003e18:    2101        .!      MOVS     r1,#1
        0x10003e1a:    6081        .`      STR      r1,[r0,#8]
        0x10003e1c:    f2443021    D.!0    MOV      r0,#0x4321
        0x10003e20:    f2c12034    ..4     MOVT     r0,#0x1234
        0x10003e24:    2100        .!      MOVS     r1,#0
        0x10003e26:    223f        ?"      MOVS     r2,#0x3f
        0x10003e28:    47c0        .G      BLX      r8
        0x10003e2a:    b128        (.      CBZ      r0,0x10003e38 ; main + 6936
        0x10003e2c:    f2490090    I...    MOV      r0,#0x9090
        0x10003e30:    f2c10000    ....    MOVT     r0,#0x1000
        0x10003e34:    2101        .!      MOVS     r1,#1
        0x10003e36:    6081        .`      STR      r1,[r0,#8]
        0x10003e38:    f2443021    D.!0    MOV      r0,#0x4321
        0x10003e3c:    f2c12034    ..4     MOVT     r0,#0x1234
        0x10003e40:    2101        .!      MOVS     r1,#1
        0x10003e42:    2201        ."      MOVS     r2,#1
        0x10003e44:    47c0        .G      BLX      r8
        0x10003e46:    b128        (.      CBZ      r0,0x10003e54 ; main + 6964
        0x10003e48:    f2490090    I...    MOV      r0,#0x9090
        0x10003e4c:    f2c10000    ....    MOVT     r0,#0x1000
        0x10003e50:    2101        .!      MOVS     r1,#1
        0x10003e52:    6081        .`      STR      r1,[r0,#8]
        0x10003e54:    f2443021    D.!0    MOV      r0,#0x4321
        0x10003e58:    f2c12034    ..4     MOVT     r0,#0x1234
        0x10003e5c:    2101        .!      MOVS     r1,#1
        0x10003e5e:    2203        ."      MOVS     r2,#3
        0x10003e60:    47c0        .G      BLX      r8
        0x10003e62:    b128        (.      CBZ      r0,0x10003e70 ; main + 6992
        0x10003e64:    f2490090    I...    MOV      r0,#0x9090
        0x10003e68:    f2c10000    ....    MOVT     r0,#0x1000
        0x10003e6c:    2101        .!      MOVS     r1,#1
        0x10003e6e:    6081        .`      STR      r1,[r0,#8]
        0x10003e70:    f2443021    D.!0    MOV      r0,#0x4321
        0x10003e74:    f2c12034    ..4     MOVT     r0,#0x1234
        0x10003e78:    2101        .!      MOVS     r1,#1
        0x10003e7a:    2205        ."      MOVS     r2,#5
        0x10003e7c:    47c0        .G      BLX      r8
        0x10003e7e:    b128        (.      CBZ      r0,0x10003e8c ; main + 7020
        0x10003e80:    f2490090    I...    MOV      r0,#0x9090
        0x10003e84:    f2c10000    ....    MOVT     r0,#0x1000
        0x10003e88:    2101        .!      MOVS     r1,#1
        0x10003e8a:    6081        .`      STR      r1,[r0,#8]
        0x10003e8c:    f2443021    D.!0    MOV      r0,#0x4321
        0x10003e90:    f2c12034    ..4     MOVT     r0,#0x1234
        0x10003e94:    2101        .!      MOVS     r1,#1
        0x10003e96:    2207        ."      MOVS     r2,#7
        0x10003e98:    47c0        .G      BLX      r8
        0x10003e9a:    b128        (.      CBZ      r0,0x10003ea8 ; main + 7048
        0x10003e9c:    f2490090    I...    MOV      r0,#0x9090
        0x10003ea0:    f2c10000    ....    MOVT     r0,#0x1000
        0x10003ea4:    2101        .!      MOVS     r1,#1
        0x10003ea6:    6081        .`      STR      r1,[r0,#8]
        0x10003ea8:    f2443021    D.!0    MOV      r0,#0x4321
        0x10003eac:    f2c12034    ..4     MOVT     r0,#0x1234
        0x10003eb0:    2101        .!      MOVS     r1,#1
        0x10003eb2:    2209        ."      MOVS     r2,#9
        0x10003eb4:    47c0        .G      BLX      r8
        0x10003eb6:    b128        (.      CBZ      r0,0x10003ec4 ; main + 7076
        0x10003eb8:    f2490090    I...    MOV      r0,#0x9090
        0x10003ebc:    f2c10000    ....    MOVT     r0,#0x1000
        0x10003ec0:    2101        .!      MOVS     r1,#1
        0x10003ec2:    6081        .`      STR      r1,[r0,#8]
        0x10003ec4:    f2443021    D.!0    MOV      r0,#0x4321
        0x10003ec8:    f2c12034    ..4     MOVT     r0,#0x1234
        0x10003ecc:    2101        .!      MOVS     r1,#1
        0x10003ece:    220b        ."      MOVS     r2,#0xb
        0x10003ed0:    47c0        .G      BLX      r8
        0x10003ed2:    b128        (.      CBZ      r0,0x10003ee0 ; main + 7104
        0x10003ed4:    f2490090    I...    MOV      r0,#0x9090
        0x10003ed8:    f2c10000    ....    MOVT     r0,#0x1000
        0x10003edc:    2101        .!      MOVS     r1,#1
        0x10003ede:    6081        .`      STR      r1,[r0,#8]
        0x10003ee0:    f2443021    D.!0    MOV      r0,#0x4321
        0x10003ee4:    f2c12034    ..4     MOVT     r0,#0x1234
        0x10003ee8:    2101        .!      MOVS     r1,#1
        0x10003eea:    220d        ."      MOVS     r2,#0xd
        0x10003eec:    47c0        .G      BLX      r8
        0x10003eee:    b128        (.      CBZ      r0,0x10003efc ; main + 7132
        0x10003ef0:    f2490090    I...    MOV      r0,#0x9090
        0x10003ef4:    f2c10000    ....    MOVT     r0,#0x1000
        0x10003ef8:    2101        .!      MOVS     r1,#1
        0x10003efa:    6081        .`      STR      r1,[r0,#8]
        0x10003efc:    f2443021    D.!0    MOV      r0,#0x4321
        0x10003f00:    f2c12034    ..4     MOVT     r0,#0x1234
        0x10003f04:    2101        .!      MOVS     r1,#1
        0x10003f06:    220f        ."      MOVS     r2,#0xf
        0x10003f08:    47c0        .G      BLX      r8
        0x10003f0a:    b128        (.      CBZ      r0,0x10003f18 ; main + 7160
        0x10003f0c:    f2490090    I...    MOV      r0,#0x9090
        0x10003f10:    f2c10000    ....    MOVT     r0,#0x1000
        0x10003f14:    2101        .!      MOVS     r1,#1
        0x10003f16:    6081        .`      STR      r1,[r0,#8]
        0x10003f18:    f2443021    D.!0    MOV      r0,#0x4321
        0x10003f1c:    f2c12034    ..4     MOVT     r0,#0x1234
        0x10003f20:    2101        .!      MOVS     r1,#1
        0x10003f22:    2211        ."      MOVS     r2,#0x11
        0x10003f24:    47c0        .G      BLX      r8
        0x10003f26:    b128        (.      CBZ      r0,0x10003f34 ; main + 7188
        0x10003f28:    f2490090    I...    MOV      r0,#0x9090
        0x10003f2c:    f2c10000    ....    MOVT     r0,#0x1000
        0x10003f30:    2101        .!      MOVS     r1,#1
        0x10003f32:    6081        .`      STR      r1,[r0,#8]
        0x10003f34:    f2443021    D.!0    MOV      r0,#0x4321
        0x10003f38:    f2c12034    ..4     MOVT     r0,#0x1234
        0x10003f3c:    2101        .!      MOVS     r1,#1
        0x10003f3e:    2213        ."      MOVS     r2,#0x13
        0x10003f40:    47c0        .G      BLX      r8
        0x10003f42:    b128        (.      CBZ      r0,0x10003f50 ; main + 7216
        0x10003f44:    f2490090    I...    MOV      r0,#0x9090
        0x10003f48:    f2c10000    ....    MOVT     r0,#0x1000
        0x10003f4c:    2101        .!      MOVS     r1,#1
        0x10003f4e:    6081        .`      STR      r1,[r0,#8]
        0x10003f50:    f2443021    D.!0    MOV      r0,#0x4321
        0x10003f54:    f2c12034    ..4     MOVT     r0,#0x1234
        0x10003f58:    2101        .!      MOVS     r1,#1
        0x10003f5a:    2215        ."      MOVS     r2,#0x15
        0x10003f5c:    47c0        .G      BLX      r8
        0x10003f5e:    b128        (.      CBZ      r0,0x10003f6c ; main + 7244
        0x10003f60:    f2490090    I...    MOV      r0,#0x9090
        0x10003f64:    f2c10000    ....    MOVT     r0,#0x1000
        0x10003f68:    2101        .!      MOVS     r1,#1
        0x10003f6a:    6081        .`      STR      r1,[r0,#8]
        0x10003f6c:    f2443021    D.!0    MOV      r0,#0x4321
        0x10003f70:    f2c12034    ..4     MOVT     r0,#0x1234
        0x10003f74:    2101        .!      MOVS     r1,#1
        0x10003f76:    2217        ."      MOVS     r2,#0x17
        0x10003f78:    47c0        .G      BLX      r8
        0x10003f7a:    b128        (.      CBZ      r0,0x10003f88 ; main + 7272
        0x10003f7c:    f2490090    I...    MOV      r0,#0x9090
        0x10003f80:    f2c10000    ....    MOVT     r0,#0x1000
        0x10003f84:    2101        .!      MOVS     r1,#1
        0x10003f86:    6081        .`      STR      r1,[r0,#8]
        0x10003f88:    f2443021    D.!0    MOV      r0,#0x4321
        0x10003f8c:    f2c12034    ..4     MOVT     r0,#0x1234
        0x10003f90:    2101        .!      MOVS     r1,#1
        0x10003f92:    2219        ."      MOVS     r2,#0x19
        0x10003f94:    47c0        .G      BLX      r8
        0x10003f96:    b128        (.      CBZ      r0,0x10003fa4 ; main + 7300
        0x10003f98:    f2490090    I...    MOV      r0,#0x9090
        0x10003f9c:    f2c10000    ....    MOVT     r0,#0x1000
        0x10003fa0:    2101        .!      MOVS     r1,#1
        0x10003fa2:    6081        .`      STR      r1,[r0,#8]
        0x10003fa4:    f2443021    D.!0    MOV      r0,#0x4321
        0x10003fa8:    f2c12034    ..4     MOVT     r0,#0x1234
        0x10003fac:    2101        .!      MOVS     r1,#1
        0x10003fae:    221b        ."      MOVS     r2,#0x1b
        0x10003fb0:    47c0        .G      BLX      r8
        0x10003fb2:    b128        (.      CBZ      r0,0x10003fc0 ; main + 7328
        0x10003fb4:    f2490090    I...    MOV      r0,#0x9090
        0x10003fb8:    f2c10000    ....    MOVT     r0,#0x1000
        0x10003fbc:    2101        .!      MOVS     r1,#1
        0x10003fbe:    6081        .`      STR      r1,[r0,#8]
        0x10003fc0:    f2443021    D.!0    MOV      r0,#0x4321
        0x10003fc4:    f2c12034    ..4     MOVT     r0,#0x1234
        0x10003fc8:    2101        .!      MOVS     r1,#1
        0x10003fca:    221d        ."      MOVS     r2,#0x1d
        0x10003fcc:    47c0        .G      BLX      r8
        0x10003fce:    b128        (.      CBZ      r0,0x10003fdc ; main + 7356
        0x10003fd0:    f2490090    I...    MOV      r0,#0x9090
        0x10003fd4:    f2c10000    ....    MOVT     r0,#0x1000
        0x10003fd8:    2101        .!      MOVS     r1,#1
        0x10003fda:    6081        .`      STR      r1,[r0,#8]
        0x10003fdc:    f2443021    D.!0    MOV      r0,#0x4321
        0x10003fe0:    f2c12034    ..4     MOVT     r0,#0x1234
        0x10003fe4:    2101        .!      MOVS     r1,#1
        0x10003fe6:    221f        ."      MOVS     r2,#0x1f
        0x10003fe8:    47c0        .G      BLX      r8
        0x10003fea:    b128        (.      CBZ      r0,0x10003ff8 ; main + 7384
        0x10003fec:    f2490090    I...    MOV      r0,#0x9090
        0x10003ff0:    f2c10000    ....    MOVT     r0,#0x1000
        0x10003ff4:    2101        .!      MOVS     r1,#1
        0x10003ff6:    6081        .`      STR      r1,[r0,#8]
        0x10003ff8:    f2443021    D.!0    MOV      r0,#0x4321
        0x10003ffc:    f2c12034    ..4     MOVT     r0,#0x1234
        0x10004000:    2101        .!      MOVS     r1,#1
        0x10004002:    2221        !"      MOVS     r2,#0x21
        0x10004004:    47c0        .G      BLX      r8
        0x10004006:    b128        (.      CBZ      r0,0x10004014 ; main + 7412
        0x10004008:    f2490090    I...    MOV      r0,#0x9090
        0x1000400c:    f2c10000    ....    MOVT     r0,#0x1000
        0x10004010:    2101        .!      MOVS     r1,#1
        0x10004012:    6081        .`      STR      r1,[r0,#8]
        0x10004014:    f2443021    D.!0    MOV      r0,#0x4321
        0x10004018:    f2c12034    ..4     MOVT     r0,#0x1234
        0x1000401c:    2101        .!      MOVS     r1,#1
        0x1000401e:    2223        #"      MOVS     r2,#0x23
        0x10004020:    47c0        .G      BLX      r8
        0x10004022:    b128        (.      CBZ      r0,0x10004030 ; main + 7440
        0x10004024:    f2490090    I...    MOV      r0,#0x9090
        0x10004028:    f2c10000    ....    MOVT     r0,#0x1000
        0x1000402c:    2101        .!      MOVS     r1,#1
        0x1000402e:    6081        .`      STR      r1,[r0,#8]
        0x10004030:    f2443021    D.!0    MOV      r0,#0x4321
        0x10004034:    f2c12034    ..4     MOVT     r0,#0x1234
        0x10004038:    2101        .!      MOVS     r1,#1
        0x1000403a:    2225        %"      MOVS     r2,#0x25
        0x1000403c:    47c0        .G      BLX      r8
        0x1000403e:    b128        (.      CBZ      r0,0x1000404c ; main + 7468
        0x10004040:    f2490090    I...    MOV      r0,#0x9090
        0x10004044:    f2c10000    ....    MOVT     r0,#0x1000
        0x10004048:    2101        .!      MOVS     r1,#1
        0x1000404a:    6081        .`      STR      r1,[r0,#8]
        0x1000404c:    f2443021    D.!0    MOV      r0,#0x4321
        0x10004050:    f2c12034    ..4     MOVT     r0,#0x1234
        0x10004054:    2101        .!      MOVS     r1,#1
        0x10004056:    2227        '"      MOVS     r2,#0x27
        0x10004058:    47c0        .G      BLX      r8
        0x1000405a:    b128        (.      CBZ      r0,0x10004068 ; main + 7496
        0x1000405c:    f2490090    I...    MOV      r0,#0x9090
        0x10004060:    f2c10000    ....    MOVT     r0,#0x1000
        0x10004064:    2101        .!      MOVS     r1,#1
        0x10004066:    6081        .`      STR      r1,[r0,#8]
        0x10004068:    f2443021    D.!0    MOV      r0,#0x4321
        0x1000406c:    f2c12034    ..4     MOVT     r0,#0x1234
        0x10004070:    2101        .!      MOVS     r1,#1
        0x10004072:    2229        )"      MOVS     r2,#0x29
        0x10004074:    47c0        .G      BLX      r8
        0x10004076:    b128        (.      CBZ      r0,0x10004084 ; main + 7524
        0x10004078:    f2490090    I...    MOV      r0,#0x9090
        0x1000407c:    f2c10000    ....    MOVT     r0,#0x1000
        0x10004080:    2101        .!      MOVS     r1,#1
        0x10004082:    6081        .`      STR      r1,[r0,#8]
        0x10004084:    f2443021    D.!0    MOV      r0,#0x4321
        0x10004088:    f2c12034    ..4     MOVT     r0,#0x1234
        0x1000408c:    2101        .!      MOVS     r1,#1
        0x1000408e:    222b        +"      MOVS     r2,#0x2b
        0x10004090:    47c0        .G      BLX      r8
        0x10004092:    b128        (.      CBZ      r0,0x100040a0 ; main + 7552
        0x10004094:    f2490090    I...    MOV      r0,#0x9090
        0x10004098:    f2c10000    ....    MOVT     r0,#0x1000
        0x1000409c:    2101        .!      MOVS     r1,#1
        0x1000409e:    6081        .`      STR      r1,[r0,#8]
        0x100040a0:    f2443021    D.!0    MOV      r0,#0x4321
        0x100040a4:    f2c12034    ..4     MOVT     r0,#0x1234
        0x100040a8:    2101        .!      MOVS     r1,#1
        0x100040aa:    222d        -"      MOVS     r2,#0x2d
        0x100040ac:    47c0        .G      BLX      r8
        0x100040ae:    b128        (.      CBZ      r0,0x100040bc ; main + 7580
        0x100040b0:    f2490090    I...    MOV      r0,#0x9090
        0x100040b4:    f2c10000    ....    MOVT     r0,#0x1000
        0x100040b8:    2101        .!      MOVS     r1,#1
        0x100040ba:    6081        .`      STR      r1,[r0,#8]
        0x100040bc:    f2443021    D.!0    MOV      r0,#0x4321
        0x100040c0:    f2c12034    ..4     MOVT     r0,#0x1234
        0x100040c4:    2101        .!      MOVS     r1,#1
        0x100040c6:    222f        /"      MOVS     r2,#0x2f
        0x100040c8:    47c0        .G      BLX      r8
        0x100040ca:    b128        (.      CBZ      r0,0x100040d8 ; main + 7608
        0x100040cc:    f2490090    I...    MOV      r0,#0x9090
        0x100040d0:    f2c10000    ....    MOVT     r0,#0x1000
        0x100040d4:    2101        .!      MOVS     r1,#1
        0x100040d6:    6081        .`      STR      r1,[r0,#8]
        0x100040d8:    f2443021    D.!0    MOV      r0,#0x4321
        0x100040dc:    f2c12034    ..4     MOVT     r0,#0x1234
        0x100040e0:    2101        .!      MOVS     r1,#1
        0x100040e2:    2231        1"      MOVS     r2,#0x31
        0x100040e4:    47c0        .G      BLX      r8
        0x100040e6:    b128        (.      CBZ      r0,0x100040f4 ; main + 7636
        0x100040e8:    f2490090    I...    MOV      r0,#0x9090
        0x100040ec:    f2c10000    ....    MOVT     r0,#0x1000
        0x100040f0:    2101        .!      MOVS     r1,#1
        0x100040f2:    6081        .`      STR      r1,[r0,#8]
        0x100040f4:    f2443021    D.!0    MOV      r0,#0x4321
        0x100040f8:    f2c12034    ..4     MOVT     r0,#0x1234
        0x100040fc:    2101        .!      MOVS     r1,#1
        0x100040fe:    2233        3"      MOVS     r2,#0x33
        0x10004100:    47c0        .G      BLX      r8
        0x10004102:    b128        (.      CBZ      r0,0x10004110 ; main + 7664
        0x10004104:    f2490090    I...    MOV      r0,#0x9090
        0x10004108:    f2c10000    ....    MOVT     r0,#0x1000
        0x1000410c:    2101        .!      MOVS     r1,#1
        0x1000410e:    6081        .`      STR      r1,[r0,#8]
        0x10004110:    f2443021    D.!0    MOV      r0,#0x4321
        0x10004114:    f2c12034    ..4     MOVT     r0,#0x1234
        0x10004118:    2101        .!      MOVS     r1,#1
        0x1000411a:    2235        5"      MOVS     r2,#0x35
        0x1000411c:    47c0        .G      BLX      r8
        0x1000411e:    b128        (.      CBZ      r0,0x1000412c ; main + 7692
        0x10004120:    f2490090    I...    MOV      r0,#0x9090
        0x10004124:    f2c10000    ....    MOVT     r0,#0x1000
        0x10004128:    2101        .!      MOVS     r1,#1
        0x1000412a:    6081        .`      STR      r1,[r0,#8]
        0x1000412c:    f2443021    D.!0    MOV      r0,#0x4321
        0x10004130:    f2c12034    ..4     MOVT     r0,#0x1234
        0x10004134:    2101        .!      MOVS     r1,#1
        0x10004136:    2237        7"      MOVS     r2,#0x37
        0x10004138:    47c0        .G      BLX      r8
        0x1000413a:    b128        (.      CBZ      r0,0x10004148 ; main + 7720
        0x1000413c:    f2490090    I...    MOV      r0,#0x9090
        0x10004140:    f2c10000    ....    MOVT     r0,#0x1000
        0x10004144:    2101        .!      MOVS     r1,#1
        0x10004146:    6081        .`      STR      r1,[r0,#8]
        0x10004148:    f2443021    D.!0    MOV      r0,#0x4321
        0x1000414c:    f2c12034    ..4     MOVT     r0,#0x1234
        0x10004150:    2101        .!      MOVS     r1,#1
        0x10004152:    2239        9"      MOVS     r2,#0x39
        0x10004154:    47c0        .G      BLX      r8
        0x10004156:    b128        (.      CBZ      r0,0x10004164 ; main + 7748
        0x10004158:    f2490090    I...    MOV      r0,#0x9090
        0x1000415c:    f2c10000    ....    MOVT     r0,#0x1000
        0x10004160:    2101        .!      MOVS     r1,#1
        0x10004162:    6081        .`      STR      r1,[r0,#8]
        0x10004164:    f2443021    D.!0    MOV      r0,#0x4321
        0x10004168:    f2c12034    ..4     MOVT     r0,#0x1234
        0x1000416c:    2101        .!      MOVS     r1,#1
        0x1000416e:    223b        ;"      MOVS     r2,#0x3b
        0x10004170:    47c0        .G      BLX      r8
        0x10004172:    b128        (.      CBZ      r0,0x10004180 ; main + 7776
        0x10004174:    f2490090    I...    MOV      r0,#0x9090
        0x10004178:    f2c10000    ....    MOVT     r0,#0x1000
        0x1000417c:    2101        .!      MOVS     r1,#1
        0x1000417e:    6081        .`      STR      r1,[r0,#8]
        0x10004180:    f2443021    D.!0    MOV      r0,#0x4321
        0x10004184:    f2c12034    ..4     MOVT     r0,#0x1234
        0x10004188:    2101        .!      MOVS     r1,#1
        0x1000418a:    223d        ="      MOVS     r2,#0x3d
        0x1000418c:    47c0        .G      BLX      r8
        0x1000418e:    b128        (.      CBZ      r0,0x1000419c ; main + 7804
        0x10004190:    f2490090    I...    MOV      r0,#0x9090
        0x10004194:    f2c10000    ....    MOVT     r0,#0x1000
        0x10004198:    2101        .!      MOVS     r1,#1
        0x1000419a:    6081        .`      STR      r1,[r0,#8]
        0x1000419c:    f2443021    D.!0    MOV      r0,#0x4321
        0x100041a0:    f2c12034    ..4     MOVT     r0,#0x1234
        0x100041a4:    2101        .!      MOVS     r1,#1
        0x100041a6:    223f        ?"      MOVS     r2,#0x3f
        0x100041a8:    47c0        .G      BLX      r8
        0x100041aa:    b128        (.      CBZ      r0,0x100041b8 ; main + 7832
        0x100041ac:    f2490090    I...    MOV      r0,#0x9090
        0x100041b0:    f2c10000    ....    MOVT     r0,#0x1000
        0x100041b4:    2101        .!      MOVS     r1,#1
        0x100041b6:    6081        .`      STR      r1,[r0,#8]
        0x100041b8:    f44f4040    O.@@    MOV      r0,#0xc000
        0x100041bc:    6800        .h      LDR      r0,[r0,#0]
        0x100041be:    3001        .0      ADDS     r0,#1
        0x100041c0:    bf1e        ..      ITTT     NE
        0x100041c2:    f44f3080    O..0    MOVNE    r0,#0x10000
        0x100041c6:    6800        .h      LDRNE    r0,[r0,#0]
        0x100041c8:    f1100001    ....    ADDSNE   r0,r0,#1
        0x100041cc:    f0008536    ..6.    BEQ.W    0x10004c3c ; main + 10524
        0x100041d0:    f44f30a0    O..0    MOV      r0,#0x14000
        0x100041d4:    6800        .h      LDR      r0,[r0,#0]
        0x100041d6:    3001        .0      ADDS     r0,#1
        0x100041d8:    bf1e        ..      ITTT     NE
        0x100041da:    f44f30c0    O..0    MOVNE    r0,#0x18000
        0x100041de:    6800        .h      LDRNE    r0,[r0,#0]
        0x100041e0:    f1100001    ....    ADDSNE   r0,r0,#1
        0x100041e4:    f000852a    ..*.    BEQ.W    0x10004c3c ; main + 10524
        0x100041e8:    f44f30e0    O..0    MOV      r0,#0x1c000
        0x100041ec:    6800        .h      LDR      r0,[r0,#0]
        0x100041ee:    3001        .0      ADDS     r0,#1
        0x100041f0:    bf1e        ..      ITTT     NE
        0x100041f2:    f44f3000    O..0    MOVNE    r0,#0x20000
        0x100041f6:    6800        .h      LDRNE    r0,[r0,#0]
        0x100041f8:    f1100001    ....    ADDSNE   r0,r0,#1
        0x100041fc:    f000851e    ....    BEQ.W    0x10004c3c ; main + 10524
        0x10004200:    f44f3010    O..0    MOV      r0,#0x24000
        0x10004204:    6800        .h      LDR      r0,[r0,#0]
        0x10004206:    3001        .0      ADDS     r0,#1
        0x10004208:    bf1e        ..      ITTT     NE
        0x1000420a:    f44f3020    O. 0    MOVNE    r0,#0x28000
        0x1000420e:    6800        .h      LDRNE    r0,[r0,#0]
        0x10004210:    f1100001    ....    ADDSNE   r0,r0,#1
        0x10004214:    f0008512    ....    BEQ.W    0x10004c3c ; main + 10524
        0x10004218:    f44f3030    O.00    MOV      r0,#0x2c000
        0x1000421c:    6800        .h      LDR      r0,[r0,#0]
        0x1000421e:    3001        .0      ADDS     r0,#1
        0x10004220:    bf1e        ..      ITTT     NE
        0x10004222:    f44f3040    O.@0    MOVNE    r0,#0x30000
        0x10004226:    6800        .h      LDRNE    r0,[r0,#0]
        0x10004228:    f1100001    ....    ADDSNE   r0,r0,#1
        0x1000422c:    f0008506    ....    BEQ.W    0x10004c3c ; main + 10524
        0x10004230:    f44f3050    O.P0    MOV      r0,#0x34000
        0x10004234:    6800        .h      LDR      r0,[r0,#0]
        0x10004236:    3001        .0      ADDS     r0,#1
        0x10004238:    bf1e        ..      ITTT     NE
        0x1000423a:    f44f3060    O.`0    MOVNE    r0,#0x38000
        0x1000423e:    6800        .h      LDRNE    r0,[r0,#0]
        0x10004240:    f1100001    ....    ADDSNE   r0,r0,#1
        0x10004244:    f00084fa    ....    BEQ.W    0x10004c3c ; main + 10524
        0x10004248:    f44f3070    O.p0    MOV      r0,#0x3c000
        0x1000424c:    6800        .h      LDR      r0,[r0,#0]
        0x1000424e:    3001        .0      ADDS     r0,#1
        0x10004250:    bf1e        ..      ITTT     NE
        0x10004252:    f44f2080    O..     MOVNE    r0,#0x40000
        0x10004256:    6800        .h      LDRNE    r0,[r0,#0]
        0x10004258:    f1100001    ....    ADDSNE   r0,r0,#1
        0x1000425c:    f00084ee    ....    BEQ.W    0x10004c3c ; main + 10524
        0x10004260:    f44f2088    O..     MOV      r0,#0x44000
        0x10004264:    6800        .h      LDR      r0,[r0,#0]
        0x10004266:    3001        .0      ADDS     r0,#1
        0x10004268:    bf1e        ..      ITTT     NE
        0x1000426a:    f44f2090    O..     MOVNE    r0,#0x48000
        0x1000426e:    6800        .h      LDRNE    r0,[r0,#0]
        0x10004270:    f1100001    ....    ADDSNE   r0,r0,#1
        0x10004274:    f00084e2    ....    BEQ.W    0x10004c3c ; main + 10524
        0x10004278:    f44f2098    O..     MOV      r0,#0x4c000
        0x1000427c:    6800        .h      LDR      r0,[r0,#0]
        0x1000427e:    3001        .0      ADDS     r0,#1
        0x10004280:    bf1e        ..      ITTT     NE
        0x10004282:    f44f20a0    O..     MOVNE    r0,#0x50000
        0x10004286:    6800        .h      LDRNE    r0,[r0,#0]
        0x10004288:    f1100001    ....    ADDSNE   r0,r0,#1
        0x1000428c:    f00084d6    ....    BEQ.W    0x10004c3c ; main + 10524
        0x10004290:    f44f20a8    O..     MOV      r0,#0x54000
        0x10004294:    6800        .h      LDR      r0,[r0,#0]
        0x10004296:    3001        .0      ADDS     r0,#1
        0x10004298:    bf1e        ..      ITTT     NE
        0x1000429a:    f44f20b0    O..     MOVNE    r0,#0x58000
        0x1000429e:    6800        .h      LDRNE    r0,[r0,#0]
        0x100042a0:    f1100001    ....    ADDSNE   r0,r0,#1
        0x100042a4:    f00084ca    ....    BEQ.W    0x10004c3c ; main + 10524
        0x100042a8:    f44f20b8    O..     MOV      r0,#0x5c000
        0x100042ac:    6800        .h      LDR      r0,[r0,#0]
        0x100042ae:    3001        .0      ADDS     r0,#1
        0x100042b0:    bf1e        ..      ITTT     NE
        0x100042b2:    f44f20c0    O..     MOVNE    r0,#0x60000
        0x100042b6:    6800        .h      LDRNE    r0,[r0,#0]
        0x100042b8:    f1100001    ....    ADDSNE   r0,r0,#1
        0x100042bc:    f00084be    ....    BEQ.W    0x10004c3c ; main + 10524
        0x100042c0:    f44f20c8    O..     MOV      r0,#0x64000
        0x100042c4:    6800        .h      LDR      r0,[r0,#0]
        0x100042c6:    3001        .0      ADDS     r0,#1
        0x100042c8:    bf1e        ..      ITTT     NE
        0x100042ca:    f44f20d0    O..     MOVNE    r0,#0x68000
        0x100042ce:    6800        .h      LDRNE    r0,[r0,#0]
        0x100042d0:    f1100001    ....    ADDSNE   r0,r0,#1
        0x100042d4:    f00084b2    ....    BEQ.W    0x10004c3c ; main + 10524
        0x100042d8:    f44f20d8    O..     MOV      r0,#0x6c000
        0x100042dc:    6800        .h      LDR      r0,[r0,#0]
        0x100042de:    3001        .0      ADDS     r0,#1
        0x100042e0:    bf1e        ..      ITTT     NE
        0x100042e2:    f44f20e0    O..     MOVNE    r0,#0x70000
        0x100042e6:    6800        .h      LDRNE    r0,[r0,#0]
        0x100042e8:    f1100001    ....    ADDSNE   r0,r0,#1
        0x100042ec:    f00084a6    ....    BEQ.W    0x10004c3c ; main + 10524
        0x100042f0:    f44f20e8    O..     MOV      r0,#0x74000
        0x100042f4:    6800        .h      LDR      r0,[r0,#0]
        0x100042f6:    3001        .0      ADDS     r0,#1
        0x100042f8:    bf1e        ..      ITTT     NE
        0x100042fa:    f44f20f0    O..     MOVNE    r0,#0x78000
        0x100042fe:    6800        .h      LDRNE    r0,[r0,#0]
        0x10004300:    f1100001    ....    ADDSNE   r0,r0,#1
        0x10004304:    f000849a    ....    BEQ.W    0x10004c3c ; main + 10524
        0x10004308:    f44f20f8    O..     MOV      r0,#0x7c000
        0x1000430c:    6800        .h      LDR      r0,[r0,#0]
        0x1000430e:    3001        .0      ADDS     r0,#1
        0x10004310:    bf1e        ..      ITTT     NE
        0x10004312:    f44f2000    O..     MOVNE    r0,#0x80000
        0x10004316:    6800        .h      LDRNE    r0,[r0,#0]
        0x10004318:    f1100001    ....    ADDSNE   r0,r0,#1
        0x1000431c:    f000848e    ....    BEQ.W    0x10004c3c ; main + 10524
        0x10004320:    f44f2004    O..     MOV      r0,#0x84000
        0x10004324:    6800        .h      LDR      r0,[r0,#0]
        0x10004326:    3001        .0      ADDS     r0,#1
        0x10004328:    bf1e        ..      ITTT     NE
        0x1000432a:    f44f2008    O..     MOVNE    r0,#0x88000
        0x1000432e:    6800        .h      LDRNE    r0,[r0,#0]
        0x10004330:    f1100001    ....    ADDSNE   r0,r0,#1
        0x10004334:    f0008482    ....    BEQ.W    0x10004c3c ; main + 10524
        0x10004338:    f44f200c    O..     MOV      r0,#0x8c000
        0x1000433c:    6800        .h      LDR      r0,[r0,#0]
        0x1000433e:    3001        .0      ADDS     r0,#1
        0x10004340:    bf1e        ..      ITTT     NE
        0x10004342:    f44f2010    O..     MOVNE    r0,#0x90000
        0x10004346:    6800        .h      LDRNE    r0,[r0,#0]
        0x10004348:    f1100001    ....    ADDSNE   r0,r0,#1
        0x1000434c:    f0008476    ..v.    BEQ.W    0x10004c3c ; main + 10524
        0x10004350:    f44f2014    O..     MOV      r0,#0x94000
        0x10004354:    6800        .h      LDR      r0,[r0,#0]
        0x10004356:    3001        .0      ADDS     r0,#1
        0x10004358:    bf1e        ..      ITTT     NE
        0x1000435a:    f44f2018    O..     MOVNE    r0,#0x98000
        0x1000435e:    6800        .h      LDRNE    r0,[r0,#0]
        0x10004360:    f1100001    ....    ADDSNE   r0,r0,#1
        0x10004364:    f000846a    ..j.    BEQ.W    0x10004c3c ; main + 10524
        0x10004368:    f44f201c    O..     MOV      r0,#0x9c000
        0x1000436c:    6800        .h      LDR      r0,[r0,#0]
        0x1000436e:    3001        .0      ADDS     r0,#1
        0x10004370:    bf1e        ..      ITTT     NE
        0x10004372:    f44f2020    O.      MOVNE    r0,#0xa0000
        0x10004376:    6800        .h      LDRNE    r0,[r0,#0]
        0x10004378:    f1100001    ....    ADDSNE   r0,r0,#1
        0x1000437c:    f000845e    ..^.    BEQ.W    0x10004c3c ; main + 10524
        0x10004380:    f44f2024    O.$     MOV      r0,#0xa4000
        0x10004384:    6800        .h      LDR      r0,[r0,#0]
        0x10004386:    3001        .0      ADDS     r0,#1
        0x10004388:    bf1e        ..      ITTT     NE
        0x1000438a:    f44f2028    O.(     MOVNE    r0,#0xa8000
        0x1000438e:    6800        .h      LDRNE    r0,[r0,#0]
        0x10004390:    f1100001    ....    ADDSNE   r0,r0,#1
        0x10004394:    f0008452    ..R.    BEQ.W    0x10004c3c ; main + 10524
        0x10004398:    f44f202c    O.,     MOV      r0,#0xac000
        0x1000439c:    6800        .h      LDR      r0,[r0,#0]
        0x1000439e:    3001        .0      ADDS     r0,#1
        0x100043a0:    bf1e        ..      ITTT     NE
        0x100043a2:    f44f2030    O.0     MOVNE    r0,#0xb0000
        0x100043a6:    6800        .h      LDRNE    r0,[r0,#0]
        0x100043a8:    f1100001    ....    ADDSNE   r0,r0,#1
        0x100043ac:    f0008446    ..F.    BEQ.W    0x10004c3c ; main + 10524
        0x100043b0:    f44f2034    O.4     MOV      r0,#0xb4000
        0x100043b4:    6800        .h      LDR      r0,[r0,#0]
        0x100043b6:    3001        .0      ADDS     r0,#1
        0x100043b8:    bf1e        ..      ITTT     NE
        0x100043ba:    f44f2038    O.8     MOVNE    r0,#0xb8000
        0x100043be:    6800        .h      LDRNE    r0,[r0,#0]
        0x100043c0:    f1100001    ....    ADDSNE   r0,r0,#1
        0x100043c4:    f000843a    ..:.    BEQ.W    0x10004c3c ; main + 10524
        0x100043c8:    f44f203c    O.<     MOV      r0,#0xbc000
        0x100043cc:    6800        .h      LDR      r0,[r0,#0]
        0x100043ce:    3001        .0      ADDS     r0,#1
        0x100043d0:    bf1e        ..      ITTT     NE
        0x100043d2:    f44f2040    O.@     MOVNE    r0,#0xc0000
        0x100043d6:    6800        .h      LDRNE    r0,[r0,#0]
        0x100043d8:    f1100001    ....    ADDSNE   r0,r0,#1
        0x100043dc:    f000842e    ....    BEQ.W    0x10004c3c ; main + 10524
        0x100043e0:    f44f2044    O.D     MOV      r0,#0xc4000
        0x100043e4:    6800        .h      LDR      r0,[r0,#0]
        0x100043e6:    3001        .0      ADDS     r0,#1
        0x100043e8:    bf1e        ..      ITTT     NE
        0x100043ea:    f44f2048    O.H     MOVNE    r0,#0xc8000
        0x100043ee:    6800        .h      LDRNE    r0,[r0,#0]
        0x100043f0:    f1100001    ....    ADDSNE   r0,r0,#1
        0x100043f4:    f0008422    ..".    BEQ.W    0x10004c3c ; main + 10524
        0x100043f8:    f44f204c    O.L     MOV      r0,#0xcc000
        0x100043fc:    6800        .h      LDR      r0,[r0,#0]
        0x100043fe:    3001        .0      ADDS     r0,#1
        0x10004400:    bf1e        ..      ITTT     NE
        0x10004402:    f44f2050    O.P     MOVNE    r0,#0xd0000
        0x10004406:    6800        .h      LDRNE    r0,[r0,#0]
        0x10004408:    f1100001    ....    ADDSNE   r0,r0,#1
        0x1000440c:    f0008416    ....    BEQ.W    0x10004c3c ; main + 10524
        0x10004410:    f44f2054    O.T     MOV      r0,#0xd4000
        0x10004414:    6800        .h      LDR      r0,[r0,#0]
        0x10004416:    3001        .0      ADDS     r0,#1
        0x10004418:    bf1e        ..      ITTT     NE
        0x1000441a:    f44f2058    O.X     MOVNE    r0,#0xd8000
        0x1000441e:    6800        .h      LDRNE    r0,[r0,#0]
        0x10004420:    f1100001    ....    ADDSNE   r0,r0,#1
        0x10004424:    f000840a    ....    BEQ.W    0x10004c3c ; main + 10524
        0x10004428:    f44f205c    O.\     MOV      r0,#0xdc000
        0x1000442c:    6800        .h      LDR      r0,[r0,#0]
        0x1000442e:    3001        .0      ADDS     r0,#1
        0x10004430:    bf1e        ..      ITTT     NE
        0x10004432:    f44f2060    O.`     MOVNE    r0,#0xe0000
        0x10004436:    6800        .h      LDRNE    r0,[r0,#0]
        0x10004438:    f1100001    ....    ADDSNE   r0,r0,#1
        0x1000443c:    f00083fe    ....    BEQ.W    0x10004c3c ; main + 10524
        0x10004440:    f44f2064    O.d     MOV      r0,#0xe4000
        0x10004444:    6800        .h      LDR      r0,[r0,#0]
        0x10004446:    3001        .0      ADDS     r0,#1
        0x10004448:    bf1e        ..      ITTT     NE
        0x1000444a:    f44f2068    O.h     MOVNE    r0,#0xe8000
        0x1000444e:    6800        .h      LDRNE    r0,[r0,#0]
        0x10004450:    f1100001    ....    ADDSNE   r0,r0,#1
        0x10004454:    f00083f2    ....    BEQ.W    0x10004c3c ; main + 10524
        0x10004458:    f44f206c    O.l     MOV      r0,#0xec000
        0x1000445c:    6800        .h      LDR      r0,[r0,#0]
        0x1000445e:    3001        .0      ADDS     r0,#1
        0x10004460:    bf1e        ..      ITTT     NE
        0x10004462:    f44f2070    O.p     MOVNE    r0,#0xf0000
        0x10004466:    6800        .h      LDRNE    r0,[r0,#0]
        0x10004468:    f1100001    ....    ADDSNE   r0,r0,#1
        0x1000446c:    f00083e6    ....    BEQ.W    0x10004c3c ; main + 10524
        0x10004470:    f2443021    D.!0    MOV      r0,#0x4321
        0x10004474:    f2c12034    ..4     MOVT     r0,#0x1234
        0x10004478:    2100        .!      MOVS     r1,#0
        0x1000447a:    2206        ."      MOVS     r2,#6
        0x1000447c:    47c0        .G      BLX      r8
        0x1000447e:    b128        (.      CBZ      r0,0x1000448c ; main + 8556
        0x10004480:    f2490090    I...    MOV      r0,#0x9090
        0x10004484:    f2c10000    ....    MOVT     r0,#0x1000
        0x10004488:    2101        .!      MOVS     r1,#1
        0x1000448a:    6081        .`      STR      r1,[r0,#8]
        0x1000448c:    f2443021    D.!0    MOV      r0,#0x4321
        0x10004490:    f2c12034    ..4     MOVT     r0,#0x1234
        0x10004494:    2100        .!      MOVS     r1,#0
        0x10004496:    2208        ."      MOVS     r2,#8
        0x10004498:    47c0        .G      BLX      r8
        0x1000449a:    b128        (.      CBZ      r0,0x100044a8 ; main + 8584
        0x1000449c:    f2490090    I...    MOV      r0,#0x9090
        0x100044a0:    f2c10000    ....    MOVT     r0,#0x1000
        0x100044a4:    2101        .!      MOVS     r1,#1
        0x100044a6:    6081        .`      STR      r1,[r0,#8]
        0x100044a8:    f2443021    D.!0    MOV      r0,#0x4321
        0x100044ac:    f2c12034    ..4     MOVT     r0,#0x1234
        0x100044b0:    2100        .!      MOVS     r1,#0
        0x100044b2:    220a        ."      MOVS     r2,#0xa
        0x100044b4:    47c0        .G      BLX      r8
        0x100044b6:    b128        (.      CBZ      r0,0x100044c4 ; main + 8612
        0x100044b8:    f2490090    I...    MOV      r0,#0x9090
        0x100044bc:    f2c10000    ....    MOVT     r0,#0x1000
        0x100044c0:    2101        .!      MOVS     r1,#1
        0x100044c2:    6081        .`      STR      r1,[r0,#8]
        0x100044c4:    f2443021    D.!0    MOV      r0,#0x4321
        0x100044c8:    f2c12034    ..4     MOVT     r0,#0x1234
        0x100044cc:    2100        .!      MOVS     r1,#0
        0x100044ce:    220c        ."      MOVS     r2,#0xc
        0x100044d0:    47c0        .G      BLX      r8
        0x100044d2:    b128        (.      CBZ      r0,0x100044e0 ; main + 8640
        0x100044d4:    f2490090    I...    MOV      r0,#0x9090
        0x100044d8:    f2c10000    ....    MOVT     r0,#0x1000
        0x100044dc:    2101        .!      MOVS     r1,#1
        0x100044de:    6081        .`      STR      r1,[r0,#8]
        0x100044e0:    f2443021    D.!0    MOV      r0,#0x4321
        0x100044e4:    f2c12034    ..4     MOVT     r0,#0x1234
        0x100044e8:    2100        .!      MOVS     r1,#0
        0x100044ea:    220e        ."      MOVS     r2,#0xe
        0x100044ec:    47c0        .G      BLX      r8
        0x100044ee:    b128        (.      CBZ      r0,0x100044fc ; main + 8668
        0x100044f0:    f2490090    I...    MOV      r0,#0x9090
        0x100044f4:    f2c10000    ....    MOVT     r0,#0x1000
        0x100044f8:    2101        .!      MOVS     r1,#1
        0x100044fa:    6081        .`      STR      r1,[r0,#8]
        0x100044fc:    f2443021    D.!0    MOV      r0,#0x4321
        0x10004500:    f2c12034    ..4     MOVT     r0,#0x1234
        0x10004504:    2100        .!      MOVS     r1,#0
        0x10004506:    2210        ."      MOVS     r2,#0x10
        0x10004508:    47c0        .G      BLX      r8
        0x1000450a:    b128        (.      CBZ      r0,0x10004518 ; main + 8696
        0x1000450c:    f2490090    I...    MOV      r0,#0x9090
        0x10004510:    f2c10000    ....    MOVT     r0,#0x1000
        0x10004514:    2101        .!      MOVS     r1,#1
        0x10004516:    6081        .`      STR      r1,[r0,#8]
        0x10004518:    f2443021    D.!0    MOV      r0,#0x4321
        0x1000451c:    f2c12034    ..4     MOVT     r0,#0x1234
        0x10004520:    2100        .!      MOVS     r1,#0
        0x10004522:    2212        ."      MOVS     r2,#0x12
        0x10004524:    47c0        .G      BLX      r8
        0x10004526:    b128        (.      CBZ      r0,0x10004534 ; main + 8724
        0x10004528:    f2490090    I...    MOV      r0,#0x9090
        0x1000452c:    f2c10000    ....    MOVT     r0,#0x1000
        0x10004530:    2101        .!      MOVS     r1,#1
        0x10004532:    6081        .`      STR      r1,[r0,#8]
        0x10004534:    f2443021    D.!0    MOV      r0,#0x4321
        0x10004538:    f2c12034    ..4     MOVT     r0,#0x1234
        0x1000453c:    2100        .!      MOVS     r1,#0
        0x1000453e:    2214        ."      MOVS     r2,#0x14
        0x10004540:    47c0        .G      BLX      r8
        0x10004542:    b128        (.      CBZ      r0,0x10004550 ; main + 8752
        0x10004544:    f2490090    I...    MOV      r0,#0x9090
        0x10004548:    f2c10000    ....    MOVT     r0,#0x1000
        0x1000454c:    2101        .!      MOVS     r1,#1
        0x1000454e:    6081        .`      STR      r1,[r0,#8]
        0x10004550:    f2443021    D.!0    MOV      r0,#0x4321
        0x10004554:    f2c12034    ..4     MOVT     r0,#0x1234
        0x10004558:    2100        .!      MOVS     r1,#0
        0x1000455a:    2216        ."      MOVS     r2,#0x16
        0x1000455c:    47c0        .G      BLX      r8
        0x1000455e:    b128        (.      CBZ      r0,0x1000456c ; main + 8780
        0x10004560:    f2490090    I...    MOV      r0,#0x9090
        0x10004564:    f2c10000    ....    MOVT     r0,#0x1000
        0x10004568:    2101        .!      MOVS     r1,#1
        0x1000456a:    6081        .`      STR      r1,[r0,#8]
        0x1000456c:    f2443021    D.!0    MOV      r0,#0x4321
        0x10004570:    f2c12034    ..4     MOVT     r0,#0x1234
        0x10004574:    2100        .!      MOVS     r1,#0
        0x10004576:    2218        ."      MOVS     r2,#0x18
        0x10004578:    47c0        .G      BLX      r8
        0x1000457a:    b128        (.      CBZ      r0,0x10004588 ; main + 8808
        0x1000457c:    f2490090    I...    MOV      r0,#0x9090
        0x10004580:    f2c10000    ....    MOVT     r0,#0x1000
        0x10004584:    2101        .!      MOVS     r1,#1
        0x10004586:    6081        .`      STR      r1,[r0,#8]
        0x10004588:    f2443021    D.!0    MOV      r0,#0x4321
        0x1000458c:    f2c12034    ..4     MOVT     r0,#0x1234
        0x10004590:    2100        .!      MOVS     r1,#0
        0x10004592:    221a        ."      MOVS     r2,#0x1a
        0x10004594:    47c0        .G      BLX      r8
        0x10004596:    b128        (.      CBZ      r0,0x100045a4 ; main + 8836
        0x10004598:    f2490090    I...    MOV      r0,#0x9090
        0x1000459c:    f2c10000    ....    MOVT     r0,#0x1000
        0x100045a0:    2101        .!      MOVS     r1,#1
        0x100045a2:    6081        .`      STR      r1,[r0,#8]
        0x100045a4:    f2443021    D.!0    MOV      r0,#0x4321
        0x100045a8:    f2c12034    ..4     MOVT     r0,#0x1234
        0x100045ac:    2100        .!      MOVS     r1,#0
        0x100045ae:    221c        ."      MOVS     r2,#0x1c
        0x100045b0:    47c0        .G      BLX      r8
        0x100045b2:    b128        (.      CBZ      r0,0x100045c0 ; main + 8864
        0x100045b4:    f2490090    I...    MOV      r0,#0x9090
        0x100045b8:    f2c10000    ....    MOVT     r0,#0x1000
        0x100045bc:    2101        .!      MOVS     r1,#1
        0x100045be:    6081        .`      STR      r1,[r0,#8]
        0x100045c0:    f2443021    D.!0    MOV      r0,#0x4321
        0x100045c4:    f2c12034    ..4     MOVT     r0,#0x1234
        0x100045c8:    2100        .!      MOVS     r1,#0
        0x100045ca:    221e        ."      MOVS     r2,#0x1e
        0x100045cc:    47c0        .G      BLX      r8
        0x100045ce:    b128        (.      CBZ      r0,0x100045dc ; main + 8892
        0x100045d0:    f2490090    I...    MOV      r0,#0x9090
        0x100045d4:    f2c10000    ....    MOVT     r0,#0x1000
        0x100045d8:    2101        .!      MOVS     r1,#1
        0x100045da:    6081        .`      STR      r1,[r0,#8]
        0x100045dc:    f2443021    D.!0    MOV      r0,#0x4321
        0x100045e0:    f2c12034    ..4     MOVT     r0,#0x1234
        0x100045e4:    2100        .!      MOVS     r1,#0
        0x100045e6:    2220         "      MOVS     r2,#0x20
        0x100045e8:    47c0        .G      BLX      r8
        0x100045ea:    b128        (.      CBZ      r0,0x100045f8 ; main + 8920
        0x100045ec:    f2490090    I...    MOV      r0,#0x9090
        0x100045f0:    f2c10000    ....    MOVT     r0,#0x1000
        0x100045f4:    2101        .!      MOVS     r1,#1
        0x100045f6:    6081        .`      STR      r1,[r0,#8]
        0x100045f8:    f2443021    D.!0    MOV      r0,#0x4321
        0x100045fc:    f2c12034    ..4     MOVT     r0,#0x1234
        0x10004600:    2100        .!      MOVS     r1,#0
        0x10004602:    2222        ""      MOVS     r2,#0x22
        0x10004604:    47c0        .G      BLX      r8
        0x10004606:    b128        (.      CBZ      r0,0x10004614 ; main + 8948
        0x10004608:    f2490090    I...    MOV      r0,#0x9090
        0x1000460c:    f2c10000    ....    MOVT     r0,#0x1000
        0x10004610:    2101        .!      MOVS     r1,#1
        0x10004612:    6081        .`      STR      r1,[r0,#8]
        0x10004614:    f2443021    D.!0    MOV      r0,#0x4321
        0x10004618:    f2c12034    ..4     MOVT     r0,#0x1234
        0x1000461c:    2100        .!      MOVS     r1,#0
        0x1000461e:    2224        $"      MOVS     r2,#0x24
        0x10004620:    47c0        .G      BLX      r8
        0x10004622:    b128        (.      CBZ      r0,0x10004630 ; main + 8976
        0x10004624:    f2490090    I...    MOV      r0,#0x9090
        0x10004628:    f2c10000    ....    MOVT     r0,#0x1000
        0x1000462c:    2101        .!      MOVS     r1,#1
        0x1000462e:    6081        .`      STR      r1,[r0,#8]
        0x10004630:    f2443021    D.!0    MOV      r0,#0x4321
        0x10004634:    f2c12034    ..4     MOVT     r0,#0x1234
        0x10004638:    2100        .!      MOVS     r1,#0
        0x1000463a:    2226        &"      MOVS     r2,#0x26
        0x1000463c:    47c0        .G      BLX      r8
        0x1000463e:    b128        (.      CBZ      r0,0x1000464c ; main + 9004
        0x10004640:    f2490090    I...    MOV      r0,#0x9090
        0x10004644:    f2c10000    ....    MOVT     r0,#0x1000
        0x10004648:    2101        .!      MOVS     r1,#1
        0x1000464a:    6081        .`      STR      r1,[r0,#8]
        0x1000464c:    f2443021    D.!0    MOV      r0,#0x4321
        0x10004650:    f2c12034    ..4     MOVT     r0,#0x1234
        0x10004654:    2100        .!      MOVS     r1,#0
        0x10004656:    2228        ("      MOVS     r2,#0x28
        0x10004658:    47c0        .G      BLX      r8
        0x1000465a:    b128        (.      CBZ      r0,0x10004668 ; main + 9032
        0x1000465c:    f2490090    I...    MOV      r0,#0x9090
        0x10004660:    f2c10000    ....    MOVT     r0,#0x1000
        0x10004664:    2101        .!      MOVS     r1,#1
        0x10004666:    6081        .`      STR      r1,[r0,#8]
        0x10004668:    f2443021    D.!0    MOV      r0,#0x4321
        0x1000466c:    f2c12034    ..4     MOVT     r0,#0x1234
        0x10004670:    2100        .!      MOVS     r1,#0
        0x10004672:    222a        *"      MOVS     r2,#0x2a
        0x10004674:    47c0        .G      BLX      r8
        0x10004676:    b128        (.      CBZ      r0,0x10004684 ; main + 9060
        0x10004678:    f2490090    I...    MOV      r0,#0x9090
        0x1000467c:    f2c10000    ....    MOVT     r0,#0x1000
        0x10004680:    2101        .!      MOVS     r1,#1
        0x10004682:    6081        .`      STR      r1,[r0,#8]
        0x10004684:    f2443021    D.!0    MOV      r0,#0x4321
        0x10004688:    f2c12034    ..4     MOVT     r0,#0x1234
        0x1000468c:    2100        .!      MOVS     r1,#0
        0x1000468e:    222c        ,"      MOVS     r2,#0x2c
        0x10004690:    47c0        .G      BLX      r8
        0x10004692:    b128        (.      CBZ      r0,0x100046a0 ; main + 9088
        0x10004694:    f2490090    I...    MOV      r0,#0x9090
        0x10004698:    f2c10000    ....    MOVT     r0,#0x1000
        0x1000469c:    2101        .!      MOVS     r1,#1
        0x1000469e:    6081        .`      STR      r1,[r0,#8]
        0x100046a0:    f2443021    D.!0    MOV      r0,#0x4321
        0x100046a4:    f2c12034    ..4     MOVT     r0,#0x1234
        0x100046a8:    2100        .!      MOVS     r1,#0
        0x100046aa:    222e        ."      MOVS     r2,#0x2e
        0x100046ac:    47c0        .G      BLX      r8
        0x100046ae:    b128        (.      CBZ      r0,0x100046bc ; main + 9116
        0x100046b0:    f2490090    I...    MOV      r0,#0x9090
        0x100046b4:    f2c10000    ....    MOVT     r0,#0x1000
        0x100046b8:    2101        .!      MOVS     r1,#1
        0x100046ba:    6081        .`      STR      r1,[r0,#8]
        0x100046bc:    f2443021    D.!0    MOV      r0,#0x4321
        0x100046c0:    f2c12034    ..4     MOVT     r0,#0x1234
        0x100046c4:    2100        .!      MOVS     r1,#0
        0x100046c6:    2230        0"      MOVS     r2,#0x30
        0x100046c8:    47c0        .G      BLX      r8
        0x100046ca:    b128        (.      CBZ      r0,0x100046d8 ; main + 9144
        0x100046cc:    f2490090    I...    MOV      r0,#0x9090
        0x100046d0:    f2c10000    ....    MOVT     r0,#0x1000
        0x100046d4:    2101        .!      MOVS     r1,#1
        0x100046d6:    6081        .`      STR      r1,[r0,#8]
        0x100046d8:    f2443021    D.!0    MOV      r0,#0x4321
        0x100046dc:    f2c12034    ..4     MOVT     r0,#0x1234
        0x100046e0:    2100        .!      MOVS     r1,#0
        0x100046e2:    2232        2"      MOVS     r2,#0x32
        0x100046e4:    47c0        .G      BLX      r8
        0x100046e6:    b128        (.      CBZ      r0,0x100046f4 ; main + 9172
        0x100046e8:    f2490090    I...    MOV      r0,#0x9090
        0x100046ec:    f2c10000    ....    MOVT     r0,#0x1000
        0x100046f0:    2101        .!      MOVS     r1,#1
        0x100046f2:    6081        .`      STR      r1,[r0,#8]
        0x100046f4:    f2443021    D.!0    MOV      r0,#0x4321
        0x100046f8:    f2c12034    ..4     MOVT     r0,#0x1234
        0x100046fc:    2100        .!      MOVS     r1,#0
        0x100046fe:    2234        4"      MOVS     r2,#0x34
        0x10004700:    47c0        .G      BLX      r8
        0x10004702:    b128        (.      CBZ      r0,0x10004710 ; main + 9200
        0x10004704:    f2490090    I...    MOV      r0,#0x9090
        0x10004708:    f2c10000    ....    MOVT     r0,#0x1000
        0x1000470c:    2101        .!      MOVS     r1,#1
        0x1000470e:    6081        .`      STR      r1,[r0,#8]
        0x10004710:    f2443021    D.!0    MOV      r0,#0x4321
        0x10004714:    f2c12034    ..4     MOVT     r0,#0x1234
        0x10004718:    2100        .!      MOVS     r1,#0
        0x1000471a:    2236        6"      MOVS     r2,#0x36
        0x1000471c:    47c0        .G      BLX      r8
        0x1000471e:    b128        (.      CBZ      r0,0x1000472c ; main + 9228
        0x10004720:    f2490090    I...    MOV      r0,#0x9090
        0x10004724:    f2c10000    ....    MOVT     r0,#0x1000
        0x10004728:    2101        .!      MOVS     r1,#1
        0x1000472a:    6081        .`      STR      r1,[r0,#8]
        0x1000472c:    f2443021    D.!0    MOV      r0,#0x4321
        0x10004730:    f2c12034    ..4     MOVT     r0,#0x1234
        0x10004734:    2100        .!      MOVS     r1,#0
        0x10004736:    2238        8"      MOVS     r2,#0x38
        0x10004738:    47c0        .G      BLX      r8
        0x1000473a:    b128        (.      CBZ      r0,0x10004748 ; main + 9256
        0x1000473c:    f2490090    I...    MOV      r0,#0x9090
        0x10004740:    f2c10000    ....    MOVT     r0,#0x1000
        0x10004744:    2101        .!      MOVS     r1,#1
        0x10004746:    6081        .`      STR      r1,[r0,#8]
        0x10004748:    f2443021    D.!0    MOV      r0,#0x4321
        0x1000474c:    f2c12034    ..4     MOVT     r0,#0x1234
        0x10004750:    2100        .!      MOVS     r1,#0
        0x10004752:    223a        :"      MOVS     r2,#0x3a
        0x10004754:    47c0        .G      BLX      r8
        0x10004756:    b128        (.      CBZ      r0,0x10004764 ; main + 9284
        0x10004758:    f2490090    I...    MOV      r0,#0x9090
        0x1000475c:    f2c10000    ....    MOVT     r0,#0x1000
        0x10004760:    2101        .!      MOVS     r1,#1
        0x10004762:    6081        .`      STR      r1,[r0,#8]
        0x10004764:    f2443021    D.!0    MOV      r0,#0x4321
        0x10004768:    f2c12034    ..4     MOVT     r0,#0x1234
        0x1000476c:    2100        .!      MOVS     r1,#0
        0x1000476e:    223c        <"      MOVS     r2,#0x3c
        0x10004770:    47c0        .G      BLX      r8
        0x10004772:    b128        (.      CBZ      r0,0x10004780 ; main + 9312
        0x10004774:    f2490090    I...    MOV      r0,#0x9090
        0x10004778:    f2c10000    ....    MOVT     r0,#0x1000
        0x1000477c:    2101        .!      MOVS     r1,#1
        0x1000477e:    6081        .`      STR      r1,[r0,#8]
        0x10004780:    f2443021    D.!0    MOV      r0,#0x4321
        0x10004784:    f2c12034    ..4     MOVT     r0,#0x1234
        0x10004788:    2100        .!      MOVS     r1,#0
        0x1000478a:    223e        >"      MOVS     r2,#0x3e
        0x1000478c:    47c0        .G      BLX      r8
        0x1000478e:    b128        (.      CBZ      r0,0x1000479c ; main + 9340
        0x10004790:    f2490090    I...    MOV      r0,#0x9090
        0x10004794:    f2c10000    ....    MOVT     r0,#0x1000
        0x10004798:    2101        .!      MOVS     r1,#1
        0x1000479a:    6081        .`      STR      r1,[r0,#8]
        0x1000479c:    f2443021    D.!0    MOV      r0,#0x4321
        0x100047a0:    f2c12034    ..4     MOVT     r0,#0x1234
        0x100047a4:    2101        .!      MOVS     r1,#1
        0x100047a6:    2200        ."      MOVS     r2,#0
        0x100047a8:    47c0        .G      BLX      r8
        0x100047aa:    b128        (.      CBZ      r0,0x100047b8 ; main + 9368
        0x100047ac:    f2490090    I...    MOV      r0,#0x9090
        0x100047b0:    f2c10000    ....    MOVT     r0,#0x1000
        0x100047b4:    2101        .!      MOVS     r1,#1
        0x100047b6:    6081        .`      STR      r1,[r0,#8]
        0x100047b8:    f2443021    D.!0    MOV      r0,#0x4321
        0x100047bc:    f2c12034    ..4     MOVT     r0,#0x1234
        0x100047c0:    2101        .!      MOVS     r1,#1
        0x100047c2:    2202        ."      MOVS     r2,#2
        0x100047c4:    47c0        .G      BLX      r8
        0x100047c6:    b128        (.      CBZ      r0,0x100047d4 ; main + 9396
        0x100047c8:    f2490090    I...    MOV      r0,#0x9090
        0x100047cc:    f2c10000    ....    MOVT     r0,#0x1000
        0x100047d0:    2101        .!      MOVS     r1,#1
        0x100047d2:    6081        .`      STR      r1,[r0,#8]
        0x100047d4:    f2443021    D.!0    MOV      r0,#0x4321
        0x100047d8:    f2c12034    ..4     MOVT     r0,#0x1234
        0x100047dc:    2101        .!      MOVS     r1,#1
        0x100047de:    2204        ."      MOVS     r2,#4
        0x100047e0:    47c0        .G      BLX      r8
        0x100047e2:    b128        (.      CBZ      r0,0x100047f0 ; main + 9424
        0x100047e4:    f2490090    I...    MOV      r0,#0x9090
        0x100047e8:    f2c10000    ....    MOVT     r0,#0x1000
        0x100047ec:    2101        .!      MOVS     r1,#1
        0x100047ee:    6081        .`      STR      r1,[r0,#8]
        0x100047f0:    f2443021    D.!0    MOV      r0,#0x4321
        0x100047f4:    f2c12034    ..4     MOVT     r0,#0x1234
        0x100047f8:    2101        .!      MOVS     r1,#1
        0x100047fa:    2206        ."      MOVS     r2,#6
        0x100047fc:    47c0        .G      BLX      r8
        0x100047fe:    b128        (.      CBZ      r0,0x1000480c ; main + 9452
        0x10004800:    f2490090    I...    MOV      r0,#0x9090
        0x10004804:    f2c10000    ....    MOVT     r0,#0x1000
        0x10004808:    2101        .!      MOVS     r1,#1
        0x1000480a:    6081        .`      STR      r1,[r0,#8]
        0x1000480c:    f2443021    D.!0    MOV      r0,#0x4321
        0x10004810:    f2c12034    ..4     MOVT     r0,#0x1234
        0x10004814:    2101        .!      MOVS     r1,#1
        0x10004816:    2208        ."      MOVS     r2,#8
        0x10004818:    47c0        .G      BLX      r8
        0x1000481a:    b128        (.      CBZ      r0,0x10004828 ; main + 9480
        0x1000481c:    f2490090    I...    MOV      r0,#0x9090
        0x10004820:    f2c10000    ....    MOVT     r0,#0x1000
        0x10004824:    2101        .!      MOVS     r1,#1
        0x10004826:    6081        .`      STR      r1,[r0,#8]
        0x10004828:    f2443021    D.!0    MOV      r0,#0x4321
        0x1000482c:    f2c12034    ..4     MOVT     r0,#0x1234
        0x10004830:    2101        .!      MOVS     r1,#1
        0x10004832:    220a        ."      MOVS     r2,#0xa
        0x10004834:    47c0        .G      BLX      r8
        0x10004836:    b128        (.      CBZ      r0,0x10004844 ; main + 9508
        0x10004838:    f2490090    I...    MOV      r0,#0x9090
        0x1000483c:    f2c10000    ....    MOVT     r0,#0x1000
        0x10004840:    2101        .!      MOVS     r1,#1
        0x10004842:    6081        .`      STR      r1,[r0,#8]
        0x10004844:    f2443021    D.!0    MOV      r0,#0x4321
        0x10004848:    f2c12034    ..4     MOVT     r0,#0x1234
        0x1000484c:    2101        .!      MOVS     r1,#1
        0x1000484e:    220c        ."      MOVS     r2,#0xc
        0x10004850:    47c0        .G      BLX      r8
        0x10004852:    b128        (.      CBZ      r0,0x10004860 ; main + 9536
        0x10004854:    f2490090    I...    MOV      r0,#0x9090
        0x10004858:    f2c10000    ....    MOVT     r0,#0x1000
        0x1000485c:    2101        .!      MOVS     r1,#1
        0x1000485e:    6081        .`      STR      r1,[r0,#8]
        0x10004860:    f2443021    D.!0    MOV      r0,#0x4321
        0x10004864:    f2c12034    ..4     MOVT     r0,#0x1234
        0x10004868:    2101        .!      MOVS     r1,#1
        0x1000486a:    220e        ."      MOVS     r2,#0xe
        0x1000486c:    47c0        .G      BLX      r8
        0x1000486e:    b128        (.      CBZ      r0,0x1000487c ; main + 9564
        0x10004870:    f2490090    I...    MOV      r0,#0x9090
        0x10004874:    f2c10000    ....    MOVT     r0,#0x1000
        0x10004878:    2101        .!      MOVS     r1,#1
        0x1000487a:    6081        .`      STR      r1,[r0,#8]
        0x1000487c:    f2443021    D.!0    MOV      r0,#0x4321
        0x10004880:    f2c12034    ..4     MOVT     r0,#0x1234
        0x10004884:    2101        .!      MOVS     r1,#1
        0x10004886:    2210        ."      MOVS     r2,#0x10
        0x10004888:    47c0        .G      BLX      r8
        0x1000488a:    b128        (.      CBZ      r0,0x10004898 ; main + 9592
        0x1000488c:    f2490090    I...    MOV      r0,#0x9090
        0x10004890:    f2c10000    ....    MOVT     r0,#0x1000
        0x10004894:    2101        .!      MOVS     r1,#1
        0x10004896:    6081        .`      STR      r1,[r0,#8]
        0x10004898:    f2443021    D.!0    MOV      r0,#0x4321
        0x1000489c:    f2c12034    ..4     MOVT     r0,#0x1234
        0x100048a0:    2101        .!      MOVS     r1,#1
        0x100048a2:    2212        ."      MOVS     r2,#0x12
        0x100048a4:    47c0        .G      BLX      r8
        0x100048a6:    b128        (.      CBZ      r0,0x100048b4 ; main + 9620
        0x100048a8:    f2490090    I...    MOV      r0,#0x9090
        0x100048ac:    f2c10000    ....    MOVT     r0,#0x1000
        0x100048b0:    2101        .!      MOVS     r1,#1
        0x100048b2:    6081        .`      STR      r1,[r0,#8]
        0x100048b4:    f2443021    D.!0    MOV      r0,#0x4321
        0x100048b8:    f2c12034    ..4     MOVT     r0,#0x1234
        0x100048bc:    2101        .!      MOVS     r1,#1
        0x100048be:    2214        ."      MOVS     r2,#0x14
        0x100048c0:    47c0        .G      BLX      r8
        0x100048c2:    b128        (.      CBZ      r0,0x100048d0 ; main + 9648
        0x100048c4:    f2490090    I...    MOV      r0,#0x9090
        0x100048c8:    f2c10000    ....    MOVT     r0,#0x1000
        0x100048cc:    2101        .!      MOVS     r1,#1
        0x100048ce:    6081        .`      STR      r1,[r0,#8]
        0x100048d0:    f2443021    D.!0    MOV      r0,#0x4321
        0x100048d4:    f2c12034    ..4     MOVT     r0,#0x1234
        0x100048d8:    2101        .!      MOVS     r1,#1
        0x100048da:    2216        ."      MOVS     r2,#0x16
        0x100048dc:    47c0        .G      BLX      r8
        0x100048de:    b128        (.      CBZ      r0,0x100048ec ; main + 9676
        0x100048e0:    f2490090    I...    MOV      r0,#0x9090
        0x100048e4:    f2c10000    ....    MOVT     r0,#0x1000
        0x100048e8:    2101        .!      MOVS     r1,#1
        0x100048ea:    6081        .`      STR      r1,[r0,#8]
        0x100048ec:    f2443021    D.!0    MOV      r0,#0x4321
        0x100048f0:    f2c12034    ..4     MOVT     r0,#0x1234
        0x100048f4:    2101        .!      MOVS     r1,#1
        0x100048f6:    2218        ."      MOVS     r2,#0x18
        0x100048f8:    47c0        .G      BLX      r8
        0x100048fa:    b128        (.      CBZ      r0,0x10004908 ; main + 9704
        0x100048fc:    f2490090    I...    MOV      r0,#0x9090
        0x10004900:    f2c10000    ....    MOVT     r0,#0x1000
        0x10004904:    2101        .!      MOVS     r1,#1
        0x10004906:    6081        .`      STR      r1,[r0,#8]
        0x10004908:    f2443021    D.!0    MOV      r0,#0x4321
        0x1000490c:    f2c12034    ..4     MOVT     r0,#0x1234
        0x10004910:    2101        .!      MOVS     r1,#1
        0x10004912:    221a        ."      MOVS     r2,#0x1a
        0x10004914:    47c0        .G      BLX      r8
        0x10004916:    b128        (.      CBZ      r0,0x10004924 ; main + 9732
        0x10004918:    f2490090    I...    MOV      r0,#0x9090
        0x1000491c:    f2c10000    ....    MOVT     r0,#0x1000
        0x10004920:    2101        .!      MOVS     r1,#1
        0x10004922:    6081        .`      STR      r1,[r0,#8]
        0x10004924:    f2443021    D.!0    MOV      r0,#0x4321
        0x10004928:    f2c12034    ..4     MOVT     r0,#0x1234
        0x1000492c:    2101        .!      MOVS     r1,#1
        0x1000492e:    221c        ."      MOVS     r2,#0x1c
        0x10004930:    47c0        .G      BLX      r8
        0x10004932:    b128        (.      CBZ      r0,0x10004940 ; main + 9760
        0x10004934:    f2490090    I...    MOV      r0,#0x9090
        0x10004938:    f2c10000    ....    MOVT     r0,#0x1000
        0x1000493c:    2101        .!      MOVS     r1,#1
        0x1000493e:    6081        .`      STR      r1,[r0,#8]
        0x10004940:    f2443021    D.!0    MOV      r0,#0x4321
        0x10004944:    f2c12034    ..4     MOVT     r0,#0x1234
        0x10004948:    2101        .!      MOVS     r1,#1
        0x1000494a:    221e        ."      MOVS     r2,#0x1e
        0x1000494c:    47c0        .G      BLX      r8
        0x1000494e:    b128        (.      CBZ      r0,0x1000495c ; main + 9788
        0x10004950:    f2490090    I...    MOV      r0,#0x9090
        0x10004954:    f2c10000    ....    MOVT     r0,#0x1000
        0x10004958:    2101        .!      MOVS     r1,#1
        0x1000495a:    6081        .`      STR      r1,[r0,#8]
        0x1000495c:    f2443021    D.!0    MOV      r0,#0x4321
        0x10004960:    f2c12034    ..4     MOVT     r0,#0x1234
        0x10004964:    2101        .!      MOVS     r1,#1
        0x10004966:    2220         "      MOVS     r2,#0x20
        0x10004968:    47c0        .G      BLX      r8
        0x1000496a:    b128        (.      CBZ      r0,0x10004978 ; main + 9816
        0x1000496c:    f2490090    I...    MOV      r0,#0x9090
        0x10004970:    f2c10000    ....    MOVT     r0,#0x1000
        0x10004974:    2101        .!      MOVS     r1,#1
        0x10004976:    6081        .`      STR      r1,[r0,#8]
        0x10004978:    f2443021    D.!0    MOV      r0,#0x4321
        0x1000497c:    f2c12034    ..4     MOVT     r0,#0x1234
        0x10004980:    2101        .!      MOVS     r1,#1
        0x10004982:    2222        ""      MOVS     r2,#0x22
        0x10004984:    47c0        .G      BLX      r8
        0x10004986:    b128        (.      CBZ      r0,0x10004994 ; main + 9844
        0x10004988:    f2490090    I...    MOV      r0,#0x9090
        0x1000498c:    f2c10000    ....    MOVT     r0,#0x1000
        0x10004990:    2101        .!      MOVS     r1,#1
        0x10004992:    6081        .`      STR      r1,[r0,#8]
        0x10004994:    f2443021    D.!0    MOV      r0,#0x4321
        0x10004998:    f2c12034    ..4     MOVT     r0,#0x1234
        0x1000499c:    2101        .!      MOVS     r1,#1
        0x1000499e:    2224        $"      MOVS     r2,#0x24
        0x100049a0:    47c0        .G      BLX      r8
        0x100049a2:    b128        (.      CBZ      r0,0x100049b0 ; main + 9872
        0x100049a4:    f2490090    I...    MOV      r0,#0x9090
        0x100049a8:    f2c10000    ....    MOVT     r0,#0x1000
        0x100049ac:    2101        .!      MOVS     r1,#1
        0x100049ae:    6081        .`      STR      r1,[r0,#8]
        0x100049b0:    f2443021    D.!0    MOV      r0,#0x4321
        0x100049b4:    f2c12034    ..4     MOVT     r0,#0x1234
        0x100049b8:    2101        .!      MOVS     r1,#1
        0x100049ba:    2226        &"      MOVS     r2,#0x26
        0x100049bc:    47c0        .G      BLX      r8
        0x100049be:    b128        (.      CBZ      r0,0x100049cc ; main + 9900
        0x100049c0:    f2490090    I...    MOV      r0,#0x9090
        0x100049c4:    f2c10000    ....    MOVT     r0,#0x1000
        0x100049c8:    2101        .!      MOVS     r1,#1
        0x100049ca:    6081        .`      STR      r1,[r0,#8]
        0x100049cc:    f2443021    D.!0    MOV      r0,#0x4321
        0x100049d0:    f2c12034    ..4     MOVT     r0,#0x1234
        0x100049d4:    2101        .!      MOVS     r1,#1
        0x100049d6:    2228        ("      MOVS     r2,#0x28
        0x100049d8:    47c0        .G      BLX      r8
        0x100049da:    b128        (.      CBZ      r0,0x100049e8 ; main + 9928
        0x100049dc:    f2490090    I...    MOV      r0,#0x9090
        0x100049e0:    f2c10000    ....    MOVT     r0,#0x1000
        0x100049e4:    2101        .!      MOVS     r1,#1
        0x100049e6:    6081        .`      STR      r1,[r0,#8]
        0x100049e8:    f2443021    D.!0    MOV      r0,#0x4321
        0x100049ec:    f2c12034    ..4     MOVT     r0,#0x1234
        0x100049f0:    2101        .!      MOVS     r1,#1
        0x100049f2:    222a        *"      MOVS     r2,#0x2a
        0x100049f4:    47c0        .G      BLX      r8
        0x100049f6:    b128        (.      CBZ      r0,0x10004a04 ; main + 9956
        0x100049f8:    f2490090    I...    MOV      r0,#0x9090
        0x100049fc:    f2c10000    ....    MOVT     r0,#0x1000
        0x10004a00:    2101        .!      MOVS     r1,#1
        0x10004a02:    6081        .`      STR      r1,[r0,#8]
        0x10004a04:    f2443021    D.!0    MOV      r0,#0x4321
        0x10004a08:    f2c12034    ..4     MOVT     r0,#0x1234
        0x10004a0c:    2101        .!      MOVS     r1,#1
        0x10004a0e:    222c        ,"      MOVS     r2,#0x2c
        0x10004a10:    47c0        .G      BLX      r8
        0x10004a12:    b128        (.      CBZ      r0,0x10004a20 ; main + 9984
        0x10004a14:    f2490090    I...    MOV      r0,#0x9090
        0x10004a18:    f2c10000    ....    MOVT     r0,#0x1000
        0x10004a1c:    2101        .!      MOVS     r1,#1
        0x10004a1e:    6081        .`      STR      r1,[r0,#8]
        0x10004a20:    f2443021    D.!0    MOV      r0,#0x4321
        0x10004a24:    f2c12034    ..4     MOVT     r0,#0x1234
        0x10004a28:    2101        .!      MOVS     r1,#1
        0x10004a2a:    222e        ."      MOVS     r2,#0x2e
        0x10004a2c:    47c0        .G      BLX      r8
        0x10004a2e:    b128        (.      CBZ      r0,0x10004a3c ; main + 10012
        0x10004a30:    f2490090    I...    MOV      r0,#0x9090
        0x10004a34:    f2c10000    ....    MOVT     r0,#0x1000
        0x10004a38:    2101        .!      MOVS     r1,#1
        0x10004a3a:    6081        .`      STR      r1,[r0,#8]
        0x10004a3c:    f2443021    D.!0    MOV      r0,#0x4321
        0x10004a40:    f2c12034    ..4     MOVT     r0,#0x1234
        0x10004a44:    2101        .!      MOVS     r1,#1
        0x10004a46:    2230        0"      MOVS     r2,#0x30
        0x10004a48:    47c0        .G      BLX      r8
        0x10004a4a:    b128        (.      CBZ      r0,0x10004a58 ; main + 10040
        0x10004a4c:    f2490090    I...    MOV      r0,#0x9090
        0x10004a50:    f2c10000    ....    MOVT     r0,#0x1000
        0x10004a54:    2101        .!      MOVS     r1,#1
        0x10004a56:    6081        .`      STR      r1,[r0,#8]
        0x10004a58:    f2443021    D.!0    MOV      r0,#0x4321
        0x10004a5c:    f2c12034    ..4     MOVT     r0,#0x1234
        0x10004a60:    2101        .!      MOVS     r1,#1
        0x10004a62:    2232        2"      MOVS     r2,#0x32
        0x10004a64:    47c0        .G      BLX      r8
        0x10004a66:    b128        (.      CBZ      r0,0x10004a74 ; main + 10068
        0x10004a68:    f2490090    I...    MOV      r0,#0x9090
        0x10004a6c:    f2c10000    ....    MOVT     r0,#0x1000
        0x10004a70:    2101        .!      MOVS     r1,#1
        0x10004a72:    6081        .`      STR      r1,[r0,#8]
        0x10004a74:    f2443021    D.!0    MOV      r0,#0x4321
        0x10004a78:    f2c12034    ..4     MOVT     r0,#0x1234
        0x10004a7c:    2101        .!      MOVS     r1,#1
        0x10004a7e:    2234        4"      MOVS     r2,#0x34
        0x10004a80:    47c0        .G      BLX      r8
        0x10004a82:    b128        (.      CBZ      r0,0x10004a90 ; main + 10096
        0x10004a84:    f2490090    I...    MOV      r0,#0x9090
        0x10004a88:    f2c10000    ....    MOVT     r0,#0x1000
        0x10004a8c:    2101        .!      MOVS     r1,#1
        0x10004a8e:    6081        .`      STR      r1,[r0,#8]
        0x10004a90:    f2443021    D.!0    MOV      r0,#0x4321
        0x10004a94:    f2c12034    ..4     MOVT     r0,#0x1234
        0x10004a98:    2101        .!      MOVS     r1,#1
        0x10004a9a:    2236        6"      MOVS     r2,#0x36
        0x10004a9c:    47c0        .G      BLX      r8
        0x10004a9e:    b128        (.      CBZ      r0,0x10004aac ; main + 10124
        0x10004aa0:    f2490090    I...    MOV      r0,#0x9090
        0x10004aa4:    f2c10000    ....    MOVT     r0,#0x1000
        0x10004aa8:    2101        .!      MOVS     r1,#1
        0x10004aaa:    6081        .`      STR      r1,[r0,#8]
        0x10004aac:    f2443021    D.!0    MOV      r0,#0x4321
        0x10004ab0:    f2c12034    ..4     MOVT     r0,#0x1234
        0x10004ab4:    2101        .!      MOVS     r1,#1
        0x10004ab6:    2238        8"      MOVS     r2,#0x38
        0x10004ab8:    47c0        .G      BLX      r8
        0x10004aba:    b128        (.      CBZ      r0,0x10004ac8 ; main + 10152
        0x10004abc:    f2490090    I...    MOV      r0,#0x9090
        0x10004ac0:    f2c10000    ....    MOVT     r0,#0x1000
        0x10004ac4:    2101        .!      MOVS     r1,#1
        0x10004ac6:    6081        .`      STR      r1,[r0,#8]
        0x10004ac8:    f2443021    D.!0    MOV      r0,#0x4321
        0x10004acc:    f2c12034    ..4     MOVT     r0,#0x1234
        0x10004ad0:    2101        .!      MOVS     r1,#1
        0x10004ad2:    223a        :"      MOVS     r2,#0x3a
        0x10004ad4:    47c0        .G      BLX      r8
        0x10004ad6:    b128        (.      CBZ      r0,0x10004ae4 ; main + 10180
        0x10004ad8:    f2490090    I...    MOV      r0,#0x9090
        0x10004adc:    f2c10000    ....    MOVT     r0,#0x1000
        0x10004ae0:    2101        .!      MOVS     r1,#1
        0x10004ae2:    6081        .`      STR      r1,[r0,#8]
        0x10004ae4:    f2443021    D.!0    MOV      r0,#0x4321
        0x10004ae8:    f2c12034    ..4     MOVT     r0,#0x1234
        0x10004aec:    2101        .!      MOVS     r1,#1
        0x10004aee:    223c        <"      MOVS     r2,#0x3c
        0x10004af0:    47c0        .G      BLX      r8
        0x10004af2:    b128        (.      CBZ      r0,0x10004b00 ; main + 10208
        0x10004af4:    f2490090    I...    MOV      r0,#0x9090
        0x10004af8:    f2c10000    ....    MOVT     r0,#0x1000
        0x10004afc:    2101        .!      MOVS     r1,#1
        0x10004afe:    6081        .`      STR      r1,[r0,#8]
        0x10004b00:    f2443021    D.!0    MOV      r0,#0x4321
        0x10004b04:    f2c12034    ..4     MOVT     r0,#0x1234
        0x10004b08:    2101        .!      MOVS     r1,#1
        0x10004b0a:    223e        >"      MOVS     r2,#0x3e
        0x10004b0c:    2601        .&      MOVS     r6,#1
        0x10004b0e:    47c0        .G      BLX      r8
        0x10004b10:    f04f35aa    O..5    MOV      r5,#0xaaaaaaaa
        0x10004b14:    2800        .(      CMP      r0,#0
        0x10004b16:    f04f3155    O.U1    MOV      r1,#0x55555555
        0x10004b1a:    f43daebc    =...    BEQ      0x10002896 ; main + 1398
        0x10004b1e:    f2490090    I...    MOV      r0,#0x9090
        0x10004b22:    f2c10000    ....    MOVT     r0,#0x1000
        0x10004b26:    6086        .`      STR      r6,[r0,#8]
        0x10004b28:    f04f35aa    O..5    MOV      r5,#0xaaaaaaaa
        0x10004b2c:    f04f3155    O.U1    MOV      r1,#0x55555555
        0x10004b30:    f7fdbeb1    ....    B        0x10002896 ; main + 1398
        0x10004b34:    2606        .&      MOVS     r6,#6
        0x10004b36:    e002        ..      B        0x10004b3e ; main + 10270
        0x10004b38:    3601        .6      ADDS     r6,#1
        0x10004b3a:    2e40        @.      CMP      r6,#0x40
        0x10004b3c:    d010        ..      BEQ      0x10004b60 ; main + 10304
        0x10004b3e:    f2443021    D.!0    MOV      r0,#0x4321
        0x10004b42:    f2c12034    ..4     MOVT     r0,#0x1234
        0x10004b46:    2100        .!      MOVS     r1,#0
        0x10004b48:    4632        2F      MOV      r2,r6
        0x10004b4a:    47c0        .G      BLX      r8
        0x10004b4c:    2800        .(      CMP      r0,#0
        0x10004b4e:    d0f3        ..      BEQ      0x10004b38 ; main + 10264
        0x10004b50:    f2490090    I...    MOV      r0,#0x9090
        0x10004b54:    f2c10000    ....    MOVT     r0,#0x1000
        0x10004b58:    2101        .!      MOVS     r1,#1
        0x10004b5a:    6081        .`      STR      r1,[r0,#8]
        0x10004b5c:    e7ec        ..      B        0x10004b38 ; main + 10264
        0x10004b5e:    bf00        ..      NOP      
        0x10004b60:    f2443021    D.!0    MOV      r0,#0x4321
        0x10004b64:    9a02        ..      LDR      r2,[sp,#8]
        0x10004b66:    f2c12034    ..4     MOVT     r0,#0x1234
        0x10004b6a:    2101        .!      MOVS     r1,#1
        0x10004b6c:    4790        .G      BLX      r2
        0x10004b6e:    2800        .(      CMP      r0,#0
        0x10004b70:    d176        v.      BNE      0x10004c60 ; main + 10560
        0x10004b72:    2601        .&      MOVS     r6,#1
        0x10004b74:    f04f3155    O.U1    MOV      r1,#0x55555555
        0x10004b78:    465d        ]F      MOV      r5,r11
        0x10004b7a:    f1bb3faa    ...?    CMP      r11,#0xaaaaaaaa
        0x10004b7e:    f43dae8a    =...    BEQ      0x10002896 ; main + 1398
        0x10004b82:    f11b0001    ....    ADDS     r0,r11,#1
        0x10004b86:    d173        s.      BNE      0x10004c70 ; main + 10576
        0x10004b88:    2100        .!      MOVS     r1,#0
        0x10004b8a:    f04f35ff    O..5    MOV      r5,#0xffffffff
        0x10004b8e:    2600        .&      MOVS     r6,#0
        0x10004b90:    f7fdbe81    ....    B        0x10002896 ; main + 1398
        0x10004b94:    f2480730    H.0.    MOV      r7,#0x8030
        0x10004b98:    f2c02784    ...'    MOVT     r7,#0x284
        0x10004b9c:    37d4        .7      ADDS     r7,r7,#0xd4
        0x10004b9e:    f7fdbdf4    ....    B        0x1000278a ; main + 1130
        0x10004ba2:    bf00        ..      NOP      
        0x10004ba4:    f2480730    H.0.    MOV      r7,#0x8030
        0x10004ba8:    f2c02784    ...'    MOVT     r7,#0x284
        0x10004bac:    37d5        .7      ADDS     r7,r7,#0xd5
        0x10004bae:    f7fdbdec    ....    B        0x1000278a ; main + 1130
        0x10004bb2:    bf00        ..      NOP      
        0x10004bb4:    f2480730    H.0.    MOV      r7,#0x8030
        0x10004bb8:    f2c02784    ...'    MOVT     r7,#0x284
        0x10004bbc:    3f0c        .?      SUBS     r7,r7,#0xc
        0x10004bbe:    f7fdbde4    ....    B        0x1000278a ; main + 1130
        0x10004bc2:    bf00        ..      NOP      
        0x10004bc4:    f2480730    H.0.    MOV      r7,#0x8030
        0x10004bc8:    f2c02784    ...'    MOVT     r7,#0x284
        0x10004bcc:    3f0b        .?      SUBS     r7,r7,#0xb
        0x10004bce:    f7fdbddc    ....    B        0x1000278a ; main + 1130
        0x10004bd2:    bf00        ..      NOP      
        0x10004bd4:    f2480730    H.0.    MOV      r7,#0x8030
        0x10004bd8:    f2c02784    ...'    MOVT     r7,#0x284
        0x10004bdc:    3f0a        .?      SUBS     r7,r7,#0xa
        0x10004bde:    f7fdbdd4    ....    B        0x1000278a ; main + 1130
        0x10004be2:    bf00        ..      NOP      
        0x10004be4:    f2480730    H.0.    MOV      r7,#0x8030
        0x10004be8:    f2c02784    ...'    MOVT     r7,#0x284
        0x10004bec:    3f09        .?      SUBS     r7,r7,#9
        0x10004bee:    f7fdbdcc    ....    B        0x1000278a ; main + 1130
        0x10004bf2:    bf00        ..      NOP      
        0x10004bf4:    f2480730    H.0.    MOV      r7,#0x8030
        0x10004bf8:    f2c02784    ...'    MOVT     r7,#0x284
        0x10004bfc:    3f0e        .?      SUBS     r7,r7,#0xe
        0x10004bfe:    f7fdbdc4    ....    B        0x1000278a ; main + 1130
        0x10004c02:    bf00        ..      NOP      
        0x10004c04:    f2480730    H.0.    MOV      r7,#0x8030
        0x10004c08:    f2c02784    ...'    MOVT     r7,#0x284
        0x10004c0c:    3f0d        .?      SUBS     r7,r7,#0xd
        0x10004c0e:    f7fdbdbc    ....    B        0x1000278a ; main + 1130
        0x10004c12:    bf00        ..      NOP      
        0x10004c14:    f2480730    H.0.    MOV      r7,#0x8030
        0x10004c18:    f2c02784    ...'    MOVT     r7,#0x284
        0x10004c1c:    3f0f        .?      SUBS     r7,r7,#0xf
        0x10004c1e:    f7fdbdb4    ....    B        0x1000278a ; main + 1130
        0x10004c22:    bf00        ..      NOP      
        0x10004c24:    f2480730    H.0.    MOV      r7,#0x8030
        0x10004c28:    f2c02784    ...'    MOVT     r7,#0x284
        0x10004c2c:    3f10        .?      SUBS     r7,r7,#0x10
        0x10004c2e:    f7fdbdac    ....    B        0x1000278a ; main + 1130
        0x10004c32:    bf00        ..      NOP      
        0x10004c34:    4607        .F      MOV      r7,r0
        0x10004c36:    f7fdbda8    ....    B        0x1000278a ; main + 1130
        0x10004c3a:    bf00        ..      NOP      
        0x10004c3c:    f2400998    @...    MOVW     r9,#0x98
        0x10004c40:    f2490b90    I...    MOV      r11,#0x9090
        0x10004c44:    f2480a00    H...    MOVW     r10,#0x8000
        0x10004c48:    f2480730    H.0.    MOV      r7,#0x8030
        0x10004c4c:    f2c40901    ....    MOVT     r9,#0x4001
        0x10004c50:    f2c10b00    ....    MOVT     r11,#0x1000
        0x10004c54:    f2c10a00    ....    MOVT     r10,#0x1000
        0x10004c58:    f2c02784    ...'    MOVT     r7,#0x284
        0x10004c5c:    f7fdbdab    ....    B        0x100027b6 ; main + 1174
        0x10004c60:    f2480730    H.0.    MOV      r7,#0x8030
        0x10004c64:    f2c02784    ...'    MOVT     r7,#0x284
        0x10004c68:    37e0        .7      ADDS     r7,r7,#0xe0
        0x10004c6a:    f7fdbd8e    ....    B        0x1000278a ; main + 1130
        0x10004c6e:    bf00        ..      NOP      
        0x10004c70:    f24945a8    I..E    MOV      r5,#0x94a8
        0x10004c74:    f2c10500    ....    MOVT     r5,#0x1000
        0x10004c78:    4628        (F      MOV      r0,r5
        0x10004c7a:    f44f7100    O..q    MOV      r1,#0x200
        0x10004c7e:    f7fbfab5    ....    BL       __aeabi_memclr4 ; 0x100001ec
        0x10004c82:    f2443021    D.!0    MOV      r0,#0x4321
        0x10004c86:    9f03        ..      LDR      r7,[sp,#0xc]
        0x10004c88:    f2c12034    ..4     MOVT     r0,#0x1234
        0x10004c8c:    4629        )F      MOV      r1,r5
        0x10004c8e:    f44f4254    O.TB    MOV      r2,#0xd400
        0x10004c92:    2380        .#      MOVS     r3,#0x80
        0x10004c94:    f44f4554    O.TE    MOV      r5,#0xd400
        0x10004c98:    47b8        .G      BLX      r7
        0x10004c9a:    b138        8.      CBZ      r0,0x10004cac ; main + 10636
        0x10004c9c:    f2480730    H.0.    MOV      r7,#0x8030
        0x10004ca0:    f2c02784    ...'    MOVT     r7,#0x284
        0x10004ca4:    37e2        .7      ADDS     r7,r7,#0xe2
        0x10004ca6:    f7fdbd70    ..p.    B        0x1000278a ; main + 1130
        0x10004caa:    bf00        ..      NOP      
        0x10004cac:    2000        .       MOVS     r0,#0
        0x10004cae:    f8551020    U. .    LDR      r1,[r5,r0,LSL #2]
        0x10004cb2:    2900        .)      CMP      r1,#0
        0x10004cb4:    d148        H.      BNE      0x10004d48 ; main + 10792
        0x10004cb6:    eb050180    ....    ADD      r1,r5,r0,LSL #2
        0x10004cba:    684a        Jh      LDR      r2,[r1,#4]
        0x10004cbc:    2a00        .*      CMP      r2,#0
        0x10004cbe:    d143        C.      BNE      0x10004d48 ; main + 10792
        0x10004cc0:    688a        .h      LDR      r2,[r1,#8]
        0x10004cc2:    2a00        .*      CMP      r2,#0
        0x10004cc4:    d140        @.      BNE      0x10004d48 ; main + 10792
        0x10004cc6:    68ca        .h      LDR      r2,[r1,#0xc]
        0x10004cc8:    2a00        .*      CMP      r2,#0
        0x10004cca:    d13d        =.      BNE      0x10004d48 ; main + 10792
        0x10004ccc:    690a        .i      LDR      r2,[r1,#0x10]
        0x10004cce:    bbda        ..      CBNZ     r2,0x10004d48 ; main + 10792
        0x10004cd0:    694a        Ji      LDR      r2,[r1,#0x14]
        0x10004cd2:    bbca        ..      CBNZ     r2,0x10004d48 ; main + 10792
        0x10004cd4:    698a        .i      LDR      r2,[r1,#0x18]
        0x10004cd6:    bbba        ..      CBNZ     r2,0x10004d48 ; main + 10792
        0x10004cd8:    69ca        .i      LDR      r2,[r1,#0x1c]
        0x10004cda:    bbaa        ..      CBNZ     r2,0x10004d48 ; main + 10792
        0x10004cdc:    6a0a        .j      LDR      r2,[r1,#0x20]
        0x10004cde:    bb9a        ..      CBNZ     r2,0x10004d48 ; main + 10792
        0x10004ce0:    6a4a        Jj      LDR      r2,[r1,#0x24]
        0x10004ce2:    bb8a        ..      CBNZ     r2,0x10004d48 ; main + 10792
        0x10004ce4:    6a8a        .j      LDR      r2,[r1,#0x28]
        0x10004ce6:    bb7a        z.      CBNZ     r2,0x10004d48 ; main + 10792
        0x10004ce8:    6aca        .j      LDR      r2,[r1,#0x2c]
        0x10004cea:    bb6a        j.      CBNZ     r2,0x10004d48 ; main + 10792
        0x10004cec:    6b0a        .k      LDR      r2,[r1,#0x30]
        0x10004cee:    bb5a        Z.      CBNZ     r2,0x10004d48 ; main + 10792
        0x10004cf0:    6b4a        Jk      LDR      r2,[r1,#0x34]
        0x10004cf2:    bb4a        J.      CBNZ     r2,0x10004d48 ; main + 10792
        0x10004cf4:    6b8a        .k      LDR      r2,[r1,#0x38]
        0x10004cf6:    bb3a        :.      CBNZ     r2,0x10004d48 ; main + 10792
        0x10004cf8:    6bc9        .k      LDR      r1,[r1,#0x3c]
        0x10004cfa:    bb29        ).      CBNZ     r1,0x10004d48 ; main + 10792
        0x10004cfc:    3010        .0      ADDS     r0,r0,#0x10
        0x10004cfe:    2880        .(      CMP      r0,#0x80
        0x10004d00:    d1d5        ..      BNE      0x10004cae ; main + 10638
        0x10004d02:    f2400998    @...    MOVW     r9,#0x98
        0x10004d06:    f2490b90    I...    MOV      r11,#0x9090
        0x10004d0a:    f2480a00    H...    MOVW     r10,#0x8000
        0x10004d0e:    2506        .%      MOVS     r5,#6
        0x10004d10:    2601        .&      MOVS     r6,#1
        0x10004d12:    2700        .'      MOVS     r7,#0
        0x10004d14:    f2c40901    ....    MOVT     r9,#0x4001
        0x10004d18:    f2c10b00    ....    MOVT     r11,#0x1000
        0x10004d1c:    f2c10a00    ....    MOVT     r10,#0x1000
        0x10004d20:    f2443021    D.!0    MOV      r0,#0x4321
        0x10004d24:    f2c12034    ..4     MOVT     r0,#0x1234
        0x10004d28:    2100        .!      MOVS     r1,#0
        0x10004d2a:    462a        *F      MOV      r2,r5
        0x10004d2c:    47c0        .G      BLX      r8
        0x10004d2e:    2800        .(      CMP      r0,#0
        0x10004d30:    f1050501    ....    ADD      r5,r5,#1
        0x10004d34:    bf1e        ..      ITTT     NE
        0x10004d36:    f2490090    I...    MOVNE    r0,#0x9090
        0x10004d3a:    f2c10000    ....    MOVTNE   r0,#0x1000
        0x10004d3e:    6086        .`      STRNE    r6,[r0,#8]
        0x10004d40:    2d40        @-      CMP      r5,#0x40
        0x10004d42:    d1ed        ..      BNE      0x10004d20 ; main + 10752
        0x10004d44:    f7fdbd37    ..7.    B        0x100027b6 ; main + 1174
        0x10004d48:    f2480730    H.0.    MOV      r7,#0x8030
        0x10004d4c:    f2c02784    ...'    MOVT     r7,#0x284
        0x10004d50:    3710        .7      ADDS     r7,r7,#0x10
        0x10004d52:    f7fdbd1a    ....    B        0x1000278a ; main + 1130
        0x10004d56:    0000        ..      MOVS     r0,r0
    $t
    x$fpl$d2f
    $v0
    __aeabi_d2f
    _d2f
        0x10004d58:    f0214200    !..B    BIC      r2,r1,#0x80000000
        0x10004d5c:    f0014300    ...C    AND      r3,r1,#0x80000000
        0x10004d60:    f1a25260    ..`R    SUB      r2,r2,#0x38000000
        0x10004d64:    f5b21f80    ....    CMP      r2,#0x100000
        0x10004d68:    bf28        (.      IT       CS
        0x10004d6a:    f1d26c7f    ...l    RSBSCS   r12,r2,#0xff00000
        0x10004d6e:    d90b        ..      BLS      0x10004d88 ; __aeabi_d2f + 48
        0x10004d70:    ea5f1c00    _...    LSLS     r12,r0,#4
        0x10004d74:    ea4302c2    C...    ORR      r2,r3,r2,LSL #3
        0x10004d78:    eb427050    B.Pp    ADC      r0,r2,r0,LSR #29
        0x10004d7c:    bf18        ..      IT       NE
        0x10004d7e:    4770        pG      BXNE     lr
        0x10004d80:    bf28        (.      IT       CS
        0x10004d82:    f0200001     ...    BICCS    r0,r0,#1
        0x10004d86:    4770        pG      BX       lr
        0x10004d88:    f5b21f80    ....    CMP      r2,#0x100000
        0x10004d8c:    bfbc        ..      ITT      LT
        0x10004d8e:    4618        .F      MOVLT    r0,r3
        0x10004d90:    4770        pG      BXLT     lr
        0x10004d92:    ea4f0c41    O.A.    LSL      r12,r1,#1
        0x10004d96:    f51c1f00    ....    CMN      r12,#0x200000
        0x10004d9a:    d202        ..      BCS      0x10004da2 ; __aeabi_d2f + 74
        0x10004d9c:    4608        .F      MOV      r0,r1
        0x10004d9e:    f000b867    ..g.    B.W      __fpl_fretinf ; 0x10004e70
        0x10004da2:    b570        p.      PUSH     {r4-r6,lr}
        0x10004da4:    f000f809    ....    BL       __fpl_dnaninf ; 0x10004dba
    $d
        0x10004da8:    89000000    ....    DCD    2298478592
    $t
        0x10004dac:    f7ffbff6    ....    B.W      0x10004d9c ; __aeabi_d2f + 68
        0x10004db0:    f04f4000    O..@    MOV      r0,#0x80000000
        0x10004db4:    f5a00080    ....    SUB      r0,r0,#0x400000
        0x10004db8:    4770        pG      BX       lr
    x$fpl$dnaninf
    $v0
    __fpl_dnaninf
        0x10004dba:    f10e0e02    ....    ADD      lr,lr,#2
        0x10004dbe:    f02e0e03    ....    BIC      lr,lr,#3
        0x10004dc2:    f85e6b04    ^..k    LDR      r6,[lr],#4
        0x10004dc6:    4236        6B      TST      r6,r6
        0x10004dc8:    d405        ..      BMI      0x10004dd6 ; __fpl_dnaninf + 28
        0x10004dca:    2a01        .*      CMP      r2,#1
        0x10004dcc:    eb430503    C...    ADC      r5,r3,r3
        0x10004dd0:    f5151f00    ....    CMN      r5,#0x200000
        0x10004dd4:    d812        ..      BHI      0x10004dfc ; __fpl_dnaninf + 66
        0x10004dd6:    2801        .(      CMP      r0,#1
        0x10004dd8:    eb410c01    A...    ADC      r12,r1,r1
        0x10004ddc:    f51c1f00    ....    CMN      r12,#0x200000
        0x10004de0:    d80c        ..      BHI      0x10004dfc ; __fpl_dnaninf + 66
        0x10004de2:    d10e        ..      BNE      0x10004e02 ; __fpl_dnaninf + 72
        0x10004de4:    ea4f7cd1    O..|    LSR      r12,r1,#31
        0x10004de8:    eb0c0c4c    ..L.    ADD      r12,r12,r12,LSL #1
        0x10004dec:    f10c0c02    ....    ADD      r12,r12,#2
        0x10004df0:    f5151f00    ....    CMN      r5,#0x200000
        0x10004df4:    bf08        ..      IT       EQ
        0x10004df6:    eb4c7cd3    L..|    ADCEQ    r12,r12,r3,LSR #31
        0x10004dfa:    e004        ..      B        0x10004e06 ; __fpl_dnaninf + 76
        0x10004dfc:    f04f0c08    O...    MOV      r12,#8
        0x10004e00:    e001        ..      B        0x10004e06 ; __fpl_dnaninf + 76
        0x10004e02:    ea4f7cd3    O..|    LSR      r12,r3,#31
        0x10004e06:    eb0c054c    ..L.    ADD      r5,r12,r12,LSL #1
        0x10004e0a:    fa26f605    &...    LSR      r6,r6,r5
        0x10004e0e:    f0060607    ....    AND      r6,r6,#7
        0x10004e12:    f1b60c04    ....    SUBS     r12,r6,#4
        0x10004e16:    d206        ..      BCS      0x10004e26 ; __fpl_dnaninf + 108
        0x10004e18:    eb0e0c86    ....    ADD      r12,lr,r6,LSL #2
        0x10004e1c:    e8bd4070    ..p@    POP      {r4-r6,lr}
        0x10004e20:    f04c0c01    L...    ORR      r12,r12,#1
        0x10004e24:    4760        `G      BX       r12
        0x10004e26:    e8dff00c    ....    TBB      [pc,r12]
    $d
        0x10004e2a:    0b09        ..      DCW    2825
        0x10004e2c:    0202        ..      DCW    514
    $t
        0x10004e2e:    f04f4100    O..A    MOV      r1,#0x80000000
        0x10004e32:    f5a12100    ...!    SUB      r1,r1,#0x80000
        0x10004e36:    f04f0000    O...    MOV      r0,#0
        0x10004e3a:    bd70        p.      POP      {r4-r6,pc}
        0x10004e3c:    4619        .F      MOV      r1,r3
        0x10004e3e:    4610        .F      MOV      r0,r2
        0x10004e40:    2801        .(      CMP      r0,#1
        0x10004e42:    eb510401    Q...    ADCS     r4,r1,r1
        0x10004e46:    bf18        ..      IT       NE
        0x10004e48:    f5d41400    ....    RSBSNE   r4,r4,#0x200000
        0x10004e4c:    bf84        ..      ITT      HI
        0x10004e4e:    2000        .       MOVHI    r0,#0
        0x10004e50:    f0014100    ...A    ANDHI    r1,r1,#0x80000000
        0x10004e54:    bd70        p.      POP      {r4-r6,pc}
    x$fpl$fpinit
    $v0
    _fp_init
        0x10004e56:    eef10a10    ....    VMRS     r0,FPSCR
        0x10004e5a:    f64f71ff    O..q    MOV      r1,#0xffff
        0x10004e5e:    f2c031c0    ...1    MOVT     r1,#0x3c0
        0x10004e62:    ea200001     ...    BIC      r0,r0,r1
        0x10004e66:    f0407040    @.@p    ORR      r0,r0,#0x3000000
        0x10004e6a:    eee10a10    ....    VMSR     FPSCR,r0
    __fplib_config_fpu_vfp
    __fplib_config_pureend_doubles
        0x10004e6e:    4770        pG      BX       lr
    x$fpl$fretinf
    $v0
    __fpl_fretinf
        0x10004e70:    21ff        .!      MOVS     r1,#0xff
        0x10004e72:    ea4150d0    A..P    ORR      r0,r1,r0,LSR #23
        0x10004e76:    05c0        ..      LSLS     r0,r0,#23
        0x10004e78:    4770        pG      BX       lr
    x$fpl$usenofp
    __I$use$fp
        0x10004e7a:    0000        ..      MOVS     r0,r0
    $d.realdata
    am_hal_pwrctrl_memory_control
        0x10004e7c:    00000000    ....    DCD    0
        0x10004e80:    00000000    ....    DCD    0
        0x10004e84:    00000000    ....    DCD    0
        0x10004e88:    00000000    ....    DCD    0
        0x10004e8c:    00000000    ....    DCD    0
        0x10004e90:    00000000    ....    DCD    0
        0x10004e94:    00000001    ....    DCD    1
        0x10004e98:    00000001    ....    DCD    1
        0x10004e9c:    00000001    ....    DCD    1
        0x10004ea0:    00001fff    ....    DCD    8191
        0x10004ea4:    00001fff    ....    DCD    8191
        0x10004ea8:    00000001    ....    DCD    1
        0x10004eac:    00000003    ....    DCD    3
        0x10004eb0:    00000003    ....    DCD    3
        0x10004eb4:    00000003    ....    DCD    3
        0x10004eb8:    00001fff    ....    DCD    8191
        0x10004ebc:    00001fff    ....    DCD    8191
        0x10004ec0:    00000003    ....    DCD    3
        0x10004ec4:    00000007    ....    DCD    7
        0x10004ec8:    00000007    ....    DCD    7
        0x10004ecc:    00000007    ....    DCD    7
        0x10004ed0:    00001fff    ....    DCD    8191
        0x10004ed4:    00001fff    ....    DCD    8191
        0x10004ed8:    00000007    ....    DCD    7
        0x10004edc:    0000000f    ....    DCD    15
        0x10004ee0:    0000000f    ....    DCD    15
        0x10004ee4:    0000000f    ....    DCD    15
        0x10004ee8:    00001fff    ....    DCD    8191
        0x10004eec:    00001fff    ....    DCD    8191
        0x10004ef0:    0000000f    ....    DCD    15
        0x10004ef4:    0000001f    ....    DCD    31
        0x10004ef8:    0000001f    ....    DCD    31
        0x10004efc:    0000001f    ....    DCD    31
        0x10004f00:    00001fff    ....    DCD    8191
        0x10004f04:    00001fff    ....    DCD    8191
        0x10004f08:    0000001f    ....    DCD    31
        0x10004f0c:    0000003f    ?...    DCD    63
        0x10004f10:    0000003f    ?...    DCD    63
        0x10004f14:    0000003f    ?...    DCD    63
        0x10004f18:    00001fff    ....    DCD    8191
        0x10004f1c:    00001fff    ....    DCD    8191
        0x10004f20:    0000003f    ?...    DCD    63
        0x10004f24:    0000007f    ....    DCD    127
        0x10004f28:    0000007f    ....    DCD    127
        0x10004f2c:    0000007f    ....    DCD    127
        0x10004f30:    00001fff    ....    DCD    8191
        0x10004f34:    00001fff    ....    DCD    8191
        0x10004f38:    0000007f    ....    DCD    127
        0x10004f3c:    000000ff    ....    DCD    255
        0x10004f40:    000000ff    ....    DCD    255
        0x10004f44:    000000ff    ....    DCD    255
        0x10004f48:    00001fff    ....    DCD    8191
        0x10004f4c:    00001fff    ....    DCD    8191
        0x10004f50:    000000ff    ....    DCD    255
        0x10004f54:    000001ff    ....    DCD    511
        0x10004f58:    000001ff    ....    DCD    511
        0x10004f5c:    000001ff    ....    DCD    511
        0x10004f60:    00001fff    ....    DCD    8191
        0x10004f64:    00001fff    ....    DCD    8191
        0x10004f68:    000001ff    ....    DCD    511
        0x10004f6c:    000003ff    ....    DCD    1023
        0x10004f70:    000003ff    ....    DCD    1023
        0x10004f74:    000003ff    ....    DCD    1023
        0x10004f78:    00001fff    ....    DCD    8191
        0x10004f7c:    00001fff    ....    DCD    8191
        0x10004f80:    000003ff    ....    DCD    1023
        0x10004f84:    000007ff    ....    DCD    2047
        0x10004f88:    000007ff    ....    DCD    2047
        0x10004f8c:    000007ff    ....    DCD    2047
        0x10004f90:    00001fff    ....    DCD    8191
        0x10004f94:    00001fff    ....    DCD    8191
        0x10004f98:    000007ff    ....    DCD    2047
        0x10004f9c:    00000fff    ....    DCD    4095
        0x10004fa0:    00000fff    ....    DCD    4095
        0x10004fa4:    00000fff    ....    DCD    4095
        0x10004fa8:    00001fff    ....    DCD    8191
        0x10004fac:    00001fff    ....    DCD    8191
        0x10004fb0:    00000fff    ....    DCD    4095
        0x10004fb4:    00001fff    ....    DCD    8191
        0x10004fb8:    00001fff    ....    DCD    8191
        0x10004fbc:    00001fff    ....    DCD    8191
        0x10004fc0:    00001fff    ....    DCD    8191
        0x10004fc4:    00001fff    ....    DCD    8191
        0x10004fc8:    00001fff    ....    DCD    8191
        0x10004fcc:    00002000    . ..    DCD    8192
        0x10004fd0:    00002000    . ..    DCD    8192
        0x10004fd4:    00002000    . ..    DCD    8192
        0x10004fd8:    00006000    .`..    DCD    24576
        0x10004fdc:    00006000    .`..    DCD    24576
        0x10004fe0:    00002000    . ..    DCD    8192
        0x10004fe4:    00006000    .`..    DCD    24576
        0x10004fe8:    00006000    .`..    DCD    24576
        0x10004fec:    00006000    .`..    DCD    24576
        0x10004ff0:    00006000    .`..    DCD    24576
        0x10004ff4:    00006000    .`..    DCD    24576
        0x10004ff8:    00006000    .`..    DCD    24576
        0x10004ffc:    c0000000    ....    DCD    3221225472
        0x10005000:    00000000    ....    DCD    0
        0x10005004:    c0000000    ....    DCD    3221225472
        0x10005008:    c0000000    ....    DCD    3221225472
        0x1000500c:    00000000    ....    DCD    0
        0x10005010:    80000000    ....    DCD    2147483648
        0x10005014:    c0007fff    ....    DCD    3221258239
        0x10005018:    00007fff    ....    DCD    32767
        0x1000501c:    c0007fff    ....    DCD    3221258239
        0x10005020:    c0007fff    ....    DCD    3221258239
        0x10005024:    00007fff    ....    DCD    32767
        0x10005028:    80007fff    ....    DCD    2147516415
    am_hal_pwrctrl_peripheral_control
        0x1000502c:    00000000    ....    DCD    0
        0x10005030:    00000000    ....    DCD    0
        0x10005034:    00000000    ....    DCD    0
        0x10005038:    00000001    ....    DCD    1
        0x1000503c:    00000004    ....    DCD    4
        0x10005040:    00000004    ....    DCD    4
        0x10005044:    00000002    ....    DCD    2
        0x10005048:    00000008    ....    DCD    8
        0x1000504c:    00000008    ....    DCD    8
        0x10005050:    00000004    ....    DCD    4
        0x10005054:    00000008    ....    DCD    8
        0x10005058:    00000008    ....    DCD    8
        0x1000505c:    00000008    ....    DCD    8
        0x10005060:    00000008    ....    DCD    8
        0x10005064:    00000008    ....    DCD    8
        0x10005068:    00000010    ....    DCD    16
        0x1000506c:    00000010    ....    DCD    16
        0x10005070:    00000010    ....    DCD    16
        0x10005074:    00000020     ...    DCD    32
        0x10005078:    00000010    ....    DCD    16
        0x1000507c:    00000010    ....    DCD    16
        0x10005080:    00000040    @...    DCD    64
        0x10005084:    00000010    ....    DCD    16
        0x10005088:    00000010    ....    DCD    16
        0x1000508c:    00000080    ....    DCD    128
        0x10005090:    00000004    ....    DCD    4
        0x10005094:    00000004    ....    DCD    4
        0x10005098:    00000100    ....    DCD    256
        0x1000509c:    00000004    ....    DCD    4
        0x100050a0:    00000004    ....    DCD    4
        0x100050a4:    00000200    ....    DCD    512
        0x100050a8:    00000020     ...    DCD    32
        0x100050ac:    00000020     ...    DCD    32
        0x100050b0:    00000400    ....    DCD    1024
        0x100050b4:    00000004    ....    DCD    4
        0x100050b8:    00000004    ....    DCD    4
        0x100050bc:    00000800    ....    DCD    2048
        0x100050c0:    00000040    @...    DCD    64
        0x100050c4:    00000040    @...    DCD    64
        0x100050c8:    00001000    ....    DCD    4096
        0x100050cc:    00000080    ....    DCD    128
        0x100050d0:    00000080    ....    DCD    128
        0x100050d4:    00002000    . ..    DCD    8192
        0x100050d8:    00000100    ....    DCD    256
        0x100050dc:    00000100    ....    DCD    256
    flash_selftest_cachectrl_config
        0x100050e0:    00000305    ....    DCD    773
    g_AM_BSP_GPIO_ITM_SWO
        0x100050e4:    00000002    ....    DCD    2
    g_AM_HAL_GPIO_DISABLE
        0x100050e8:    00000003    ....    DCD    3
    g_AM_HAL_GPIO_OUTPUT_12
        0x100050ec:    00000703    ....    DCD    1795
    g_am_hal_flash
        0x100050f0:    0800004d    M...    DCD    134217805
        0x100050f4:    08000051    Q...    DCD    134217809
        0x100050f8:    08000055    U...    DCD    134217813
        0x100050fc:    08000059    Y...    DCD    134217817
        0x10005100:    0800006d    m...    DCD    134217837
        0x10005104:    08000071    q...    DCD    134217841
        0x10005108:    08000095    ....    DCD    134217877
        0x1000510c:    0800007d    }...    DCD    134217853
        0x10005110:    08000075    u...    DCD    134217845
        0x10005114:    08000079    y...    DCD    134217849
        0x10005118:    0800009d    ....    DCD    134217885
        0x1000511c:    08000081    ....    DCD    134217857
        0x10005120:    08000089    ....    DCD    134217865
        0x10005124:    08000091    ....    DCD    134217873
        0x10005128:    08000099    ....    DCD    134217881
        0x1000512c:    0800005d    ]...    DCD    134217821
        0x10005130:    08000061    a...    DCD    134217825
        0x10005134:    08000065    e...    DCD    134217829
        0x10005138:    08000069    i...    DCD    134217833
        0x1000513c:    08000085    ....    DCD    134217861
        0x10005140:    0800008d    ....    DCD    134217869
        0x10005144:    080000a1    ....    DCD    134217889
        0x10005148:    080000a5    ....    DCD    134217893
        0x1000514c:    080000a9    ....    DCD    134217897
    g_ui8Inpen
        0x10005150:    62272323    ##'b    DCD    1646732067
        0x10005154:    108703a1    ....    DCD    277283745
        0x10005158:    e1005303    .S..    DCD    3774894851
        0x1000515c:    55418151    Q.AU    DCD    1430356305
        0x10005160:    4080c405    ...@    DCD    1082180613
        0x10005164:    4140b101    ..@A    DCD    1094758657
        0x10005168:    31a03114    .1.1    DCD    832581908
        0x1000516c:    1180f100    ....    DCD    293662976
        0x10005170:    11c12191    .!..    DCD    297869713
        0x10005174:    304511e5    ..E0    DCD    809832933
        0x10005178:    31300037    7.01    DCD    825229367
        0x1000517c:    40007100    .q.@    DCD    1073770752
        0x10005180:    3130        01      DCW    12592
    g_ui8NCEtable
        0x10005182:    4232        2B      DCW    16946
        0x10005184:    12021352    R...    DCD    302125906
        0x10005188:    43336022    "`3C    DCD    1127440418
        0x1000518c:    40302153    S!0@    DCD    1076896083
        0x10005190:    41312050    P 1A    DCD    1093738576
        0x10005194:    ffff1151    Q...    DCD    4294906193
        0x10005198:    ffffffff    ....    DCD    4294967295
        0x1000519c:    4131ffff    ..1A    DCD    1093795839
        0x100051a0:    40306051    Q`0@    DCD    1076912209
        0x100051a4:    43330050    P.3C    DCD    1127415888
        0x100051a8:    42322353    S#2B    DCD    1110582099
        0x100051ac:    10006052    R`..    DCD    268460114
        0x100051b0:    40303020     00@    DCD    1076899872
        0x100051b4:    41316150    Pa1A    DCD    1093755216
        0x100051b8:    12020151    Q...    DCD    302121297
        0x100051bc:    13034222    "B..    DCD    318980642
        0x100051c0:    10006023    #`..    DCD    268460067
        0x100051c4:    11015020     P..    DCD    285298720
        0x100051c8:    12024121    !A..    DCD    302137633
        0x100051cc:    13033222    "2..    DCD    318976546
        0x100051d0:    41316033    3`1A    DCD    1093754931
        0x100051d4:    42322151    Q!2B    DCD    1110581585
        0x100051d8:    43332252    R"3C    DCD    1127424594
        0x100051dc:    10000353    S...    DCD    268436307
        0x100051e0:    11014020     @..    DCD    285294624
        0x100051e4:    42325121    !Q2B    DCD    1110593825
        0x100051e8:    43330252    R.3C    DCD    1127416402
        0x100051ec:    40301353    S.0@    DCD    1076892499
        0x100051f0:    41311050    P.1A    DCD    1093734480
        0x100051f4:    42326051    Q`2B    DCD    1110597713
        0x100051f8:    43331252    R.3C    DCD    1127420498
        0x100051fc:    10000353    S...    DCD    268436307
        0x10005200:    11014020     @..    DCD    285294624
        0x10005204:    12026121    !a..    DCD    302145825
        0x10005208:    13035222    "R..    DCD    318984738
        0x1000520c:    10003323    #3..    DCD    268448547
        0x10005210:    41313020     01A    DCD    1093742624
        0x10005214:    42326151    Qa2B    DCD    1110597969
        0x10005218:    13030252    R...    DCD    318964306
        0x1000521c:    ffff5333    3S..    DCD    4294923059
        0x10005220:    ffffffff    ....    DCD    4294967295
        0x10005224:    1101ffff    ....    DCD    285343743
        0x10005228:    10006121    !a..    DCD    268460321
        0x1000522c:    11015020     P..    DCD    285298720
        0x10005230:    12026121    !a..    DCD    302145825
        0x10005234:    43335222    "R3C    DCD    1127436834
        0x10005238:    40301353    S.0@    DCD    1076892499
        0x1000523c:    11016150    Pa..    DCD    285303120
        0x10005240:    12023121    !1..    DCD    302133537
        0x10005244:    13033222    "2..    DCD    318976546
        0x10005248:    4323        #C      DCW    17187
    .L.str.2
        0x1000524a:    4146        FA      DCW    16710
        0x1000524c:    44454c49    ILED    DCD    1145392201
        0x10005250:    00000a2e    ....    DCD    2606
    Region$$Table$$Base
        0x10005254:    10005278    xR..    DCD    268456568
        0x10005258:    10008000    ....    DCD    268468224
        0x1000525c:    00000028    (...    DCD    40
        0x10005260:    10000170    p...    DCD    268435824
        0x10005264:    100052a0    .R..    DCD    268456608
        0x10005268:    10008028    (...    DCD    268468264
        0x1000526c:    00001880    ....    DCD    6272
        0x10005270:    1000018c    ....    DCD    268435852
    Region$$Table$$Limit

** Section #2 'SRAM' (SHT_PROGBITS) [SHF_ALLOC + SHF_WRITE]
    Size   : 40 bytes (alignment 8)
    Address: 0x10008000

    0x10008000:   00 00 03 10 04 00 03 10 08 00 03 10 01 00 00 00    ................
    0x10008010:   88 01 00 00 00 00 00 00 ff ff ff ff ff ff ff ff    ................
    0x10008020:   ff ff ff ff ff ff ff ff                            ........


** Section #3 'SRAM' (SHT_NOBITS) [SHF_ALLOC + SHF_WRITE]
    Size   : 6272 bytes (alignment 8)
    Address: 0x10008028


** Section #4 '.debug_abbrev' (SHT_PROGBITS)
    Size   : 1152 bytes


** Section #5 '.debug_frame' (SHT_PROGBITS)
    Size   : 5144 bytes


** Section #6 '.debug_info' (SHT_PROGBITS)
    Size   : 5990 bytes


** Section #7 '.debug_line' (SHT_PROGBITS)
    Size   : 8872 bytes


** Section #8 '.debug_loc' (SHT_PROGBITS)
    Size   : 24749 bytes


** Section #9 '.debug_ranges' (SHT_PROGBITS)
    Size   : 720 bytes


** Section #10 '.debug_str' (SHT_PROGBITS)
    Size   : 3417 bytes


** Section #11 '.symtab' (SHT_SYMTAB)
    Size   : 5952 bytes (alignment 4)
    String table #12 '.strtab'
    Last local symbol no. 199

    Symbol table .symtab (371 symbols, 199 local)

      #  Symbol Name                Value      Bind  Sec  Type  Vis  Size
    ========================================================================

      1  $d                         0x10000000   Lc    1   --   De 
      2  $t                         0x10000100   Lc    1   --   De 
      3  $d                         0x10000130   Lc    1   --   De 
      4  $t                         0x10000134   Lc    1   --   De 
      5  $d                         0x10000168   Lc    1   --   De 
      6  $t                         0x10000170   Lc    1   --   De 
      7  $d                         0x100001de   Lc    1   --   De 
      8  $t                         0x100001ec   Lc    1   --   De 
      9  $d                         0x100002a0   Lc    1   --   De 
     10  $t                         0x100002a4   Lc    1   --   De 
     11  $d                         0x100002ac   Lc    1   --   De 
     12  $t                         0x100002b0   Lc    1   --   De 
     13  $t.5                       0x100002b4   Lc    1   --   De 
     14  $d.1                       0x100003e8   Lc    1   --   De 
     15  $t.2                       0x100003f4   Lc    1   --   De 
     16  $d.13                      0x1000068c   Lc    1   --   De 
     17  $t.9                       0x100006cc   Lc    1   --   De 
     18  $d.2                       0x100008f8   Lc    1   --   De 
     19  $t.3                       0x100008fc   Lc    1   --   De 
     20  $d.4                       0x100009c8   Lc    1   --   De 
     21  $t.1                       0x10000a30   Lc    1   --   De 
     22  $d.12                      0x10001178   Lc    1   --   De 
     23  $t.3                       0x1000118c   Lc    1   --   De 
     24  $d.4                       0x100013a8   Lc    1   --   De 
     25  $t.5                       0x10001410   Lc    1   --   De 
     26  $d.2                       0x10002a4c   Lc    1   --   De 
     27  $t.3                       0x10002ab8   Lc    1   --   De 
     28  $t                         0x10004d58   Lc    1   --   De 
     29  $d                         0x10004da8   Lc    1   --   De 
     30  $t                         0x10004dac   Lc    1   --   De 
     31  $d                         0x10004e2a   Lc    1   --   De 
     32  $t                         0x10004e2e   Lc    1   --   De 
     33  $d.realdata                0x10004e7c   Lc    1   --   De 
     34  $d.realdata                0x10008000   Lc    2   --   De 
     35  flash_selftest.c           0x00000000   Lc  Abs  File  De 
     36  .L.str.2                   0x1000524a   Lc    1  Data  De   0x9
     37  .L_MergedGlobals           0x10008000   Lc    2  Data  De   0x18
     38  g_sContTimer               0x1000800c   Lc    2  Data  De   0xc
     39  .L_MergedGlobals.5         0x10009090   Lc    3  Data  De   0xc
     40  am_util_stdio.c            0x00000000   Lc  Abs  File  De 
     41  g_bTxtXlate                0x100090a0   Lc    3  Data  De   0x1
     42  g_prfbuf                   0x100090a8   Lc    3  Data  De   0x400
     43  ../keil6/startup_keil6.s   0x00000000   Lc  Abs  File  De 
     44  STACK                      0x10008028   Lc    3  Sect  De   0x1000
     45  StackMem                   0x10008028   Lc    3  Data  De 
     46  HEAP                       0x100098a8   Lc    3  Sect  De 
     47  HeapMem                    0x100098a8   Lc    3  Data  De 
     48  RESET                      0x10000000   Lc    1  Sect  De   0x134
     49  $v0                        0x10000100   Lc    1   --   De 
     50  .text                      0x100001d4   Lc    1  Sect  De   0x18
     51  $v0                        0x100001d4   Lc    1   --   De 
     52  am_bsp.c                   0x00000000   Lc  Abs  File  De 
     53  .L_MergedGlobals           0x10009088   Lc    3  Data  De   0x8
     54  g_ui32PrintInterface       0x10009088   Lc    3  Data  De   0x4
     55  g_sCOMUART                 0x1000908c   Lc    3  Data  De   0x4
     56  am_hal_cachectrl.c         0x00000000   Lc  Abs  File  De 
     57  am_hal_clkgen.c            0x00000000   Lc  Abs  File  De 
     58  am_hal_ctimer.c            0x00000000   Lc  Abs  File  De 
     59  g_ui32TMRAddrTbl           0x1000068c   Lc    1   --   De 
     60  g_ui8TmrClkSrcMask         0x100006ac   Lc    1   --   De 
     61  g_ui8ClkSrc                0x10008018   Lc    2  Data  De   0x10
     62  am_hal_flash.c             0x00000000   Lc  Abs  File  De 
     63  am_hal_gpio.c              0x00000000   Lc  Abs  File  De 
     64  g_ui8Bit76Capabilities     0x100009c8   Lc    1   --   De 
     65  g_ui8nCEpins               0x100009fc   Lc    1   --   De 
     66  g_ui8Inpen                 0x10005150   Lc    1  Data  De   0x32
     67  g_ui8NCEtable              0x10005182   Lc    1  Data  De   0xc8
     68  am_hal_pwrctrl.c           0x00000000   Lc  Abs  File  De 
     69  am_bsp_pins.c              0x00000000   Lc  Abs  File  De 
     70  am_hal_debug.c             0x00000000   Lc  Abs  File  De 
     71  am_hal_global.c            0x00000000   Lc  Abs  File  De 
     72  am_hal_interrupt.c         0x00000000   Lc  Abs  File  De 
     73  am_hal_itm.c               0x00000000   Lc  Abs  File  De 
     74  am_hal_reset.c             0x00000000   Lc  Abs  File  De 
     75  am_hal_rtc.c               0x00000000   Lc  Abs  File  De 
     76  am_hal_tpiu.c              0x00000000   Lc  Abs  File  De 
     77  am_hal_uart.c              0x00000000   Lc  Abs  File  De 
     78  am_hal_queue.c             0x00000000   Lc  Abs  File  De 
     79  dc.s                       0x00000000   Lc  Abs  File  De 
     80  ../clib/memcpset.s         0x00000000   Lc  Abs  File  De 
     81  .text                      0x100001ec   Lc    1  Sect  De   0x4e
     82  ../clib/heapaux.c          0x00000000   Lc  Abs  File  De 
     83  .text                      0x1000023a   Lc    1  Sect  De 
     84  ../clib/angel/startup.s    0x00000000   Lc  Abs  File  De 
     85  !!!main                    0x10000134   Lc    1  Sect  De   0x8
     86  ../clib/angel/handlers.s   0x00000000   Lc  Abs  File  De 
     87  !!handler_copy             0x10000170   Lc    1  Sect  De   0x1a
     88  ../fplib/d2f.s             0x00000000   Lc  Abs  File  De 
     89  x$fpl$d2f                  0x10004d58   Lc    1  Sect  De   0x62
     90  $v0                        0x10004d58   Lc    1   --   De 
     91  ../clib/angel/kernel.s     0x00000000   Lc  Abs  File  De 
     92  .ARM.Collect$$rtentry$$00000000
                                    0x100001b4   Lc    1  Sect  De 
     93  ../fplib/dnaninf.s         0x00000000   Lc  Abs  File  De 
     94  x$fpl$dnaninf              0x10004dba   Lc    1  Sect  De   0x9c
     95  $v0                        0x10004dba   Lc    1   --   De 
     96  ../fplib/fretinf.s         0x00000000   Lc  Abs  File  De 
     97  x$fpl$fretinf              0x10004e70   Lc    1  Sect  De   0xa
     98  $v0                        0x10004e70   Lc    1   --   De 
     99  ../fplib/usenofp.s         0x00000000   Lc  Abs  File  De 
    100  x$fpl$usenofp              0x10004e7a   Lc    1  Sect  De 
    101  ../clib/angel/kernel.s     0x00000000   Lc  Abs  File  De 
    102  .ARM.Collect$$rtentry$$00000002
                                    0x100001b4   Lc    1  Sect  De 
    103  .ARM.Collect$$rtentry$$00000009
                                    0x100001ba   Lc    1  Sect  De 
    104  .ARM.Collect$$rtentry$$0000000A
                                    0x100001ba   Lc    1  Sect  De   0x4
    105  .ARM.Collect$$rtentry$$0000000C
                                    0x100001be   Lc    1  Sect  De 
    106  .ARM.Collect$$rtentry$$0000000D
                                    0x100001be   Lc    1  Sect  De   0x8
    107  ../clib/angel/kernel.s     0x00000000   Lc  Abs  File  De 
    108  .ARM.Collect$$rtentry$$00000004
                                    0x100001b4   Lc    1  Sect  De   0x6
    109  ../clib/angel/sys.s        0x00000000   Lc  Abs  File  De 
    110  .text                      0x10000240   Lc    1  Sect  De   0x4a
    111  ../clib/stdlib.c           0x00000000   Lc  Abs  File  De 
    112  .text                      0x1000028a   Lc    1  Sect  De 
    113  ../clib/angel/boardlib.s   0x00000000   Lc  Abs  File  De 
    114  ../clib/angel/boardlib.s   0x00000000   Lc  Abs  File  De 
    115  ../clib/angel/boardlib.s   0x00000000   Lc  Abs  File  De 
    116  ../clib/libinit.s          0x00000000   Lc  Abs  File  De 
    117  .ARM.Collect$$libinit$$00000000
                                    0x100001a8   Lc    1  Sect  De   0x2
    118  ../clib/angel/sys.s        0x00000000   Lc  Abs  File  De 
    119  .text                      0x1000029c   Lc    1  Sect  De   0x8
    120  .bss                       0x10009028   Lc    3  Sect  De   0x60
    121  ../clib/angel/kernel.s     0x00000000   Lc  Abs  File  De 
    122  .ARM.Collect$$rtexit$$00000000
                                    0x100001c6   Lc    1  Sect  De   0x2
    123  ../clib/libinit.s          0x00000000   Lc  Abs  File  De 
    124  .ARM.Collect$$libinit$$00000001
                                    0x100001aa   Lc    1  Sect  De   0x4
    125  .ARM.Collect$$libinit$$00000004
                                    0x100001ae   Lc    1  Sect  De 
    126  .ARM.Collect$$libinit$$00000006
                                    0x100001ae   Lc    1  Sect  De 
    127  .ARM.Collect$$libinit$$0000000C
                                    0x100001ae   Lc    1  Sect  De 
    128  .ARM.Collect$$libinit$$0000000E
                                    0x100001ae   Lc    1  Sect  De 
    129  .ARM.Collect$$libinit$$00000010
                                    0x100001ae   Lc    1  Sect  De 
    130  .ARM.Collect$$libinit$$00000013
                                    0x100001ae   Lc    1  Sect  De 
    131  .ARM.Collect$$libinit$$00000015
                                    0x100001ae   Lc    1  Sect  De 
    132  .ARM.Collect$$libinit$$00000017
                                    0x100001ae   Lc    1  Sect  De 
    133  .ARM.Collect$$libinit$$00000019
                                    0x100001ae   Lc    1  Sect  De 
    134  .ARM.Collect$$libinit$$0000001B
                                    0x100001ae   Lc    1  Sect  De 
    135  .ARM.Collect$$libinit$$0000001D
                                    0x100001ae   Lc    1  Sect  De 
    136  .ARM.Collect$$libinit$$0000001F
                                    0x100001ae   Lc    1  Sect  De 
    137  .ARM.Collect$$libinit$$00000021
                                    0x100001ae   Lc    1  Sect  De 
    138  .ARM.Collect$$libinit$$00000023
                                    0x100001ae   Lc    1  Sect  De 
    139  .ARM.Collect$$libinit$$00000025
                                    0x100001ae   Lc    1  Sect  De 
    140  .ARM.Collect$$libinit$$00000027
                                    0x100001ae   Lc    1  Sect  De 
    141  .ARM.Collect$$libinit$$0000002E
                                    0x100001ae   Lc    1  Sect  De 
    142  .ARM.Collect$$libinit$$00000030
                                    0x100001ae   Lc    1  Sect  De 
    143  .ARM.Collect$$libinit$$00000032
                                    0x100001ae   Lc    1  Sect  De 
    144  .ARM.Collect$$libinit$$00000034
                                    0x100001ae   Lc    1  Sect  De 
    145  .ARM.Collect$$libinit$$00000035
                                    0x100001ae   Lc    1  Sect  De   0x2
    146  ../clib/angel/kernel.s     0x00000000   Lc  Abs  File  De 
    147  .ARM.Collect$$rtexit$$00000002
                                    0x100001c8   Lc    1  Sect  De 
    148  .ARM.Collect$$rtexit$$00000003
                                    0x100001c8   Lc    1  Sect  De   0x4
    149  .ARM.Collect$$rtexit$$00000004
                                    0x100001cc   Lc    1  Sect  De   0x6
    150  ../clib/armsys.c           0x00000000   Lc  Abs  File  De 
    151  ../clib/armsys.c           0x00000000   Lc  Abs  File  De 
    152  ../fplib/fpinit.s          0x00000000   Lc  Abs  File  De 
    153  x$fpl$fpinit               0x10004e56   Lc    1  Sect  De   0x1a
    154  $v0                        0x10004e56   Lc    1   --   De 
    155  ../clib/angel/sysapp.c     0x00000000   Lc  Abs  File  De 
    156  .text                      0x100002a4   Lc    1  Sect  De 
    157  ../clib/angel/sysapp.c     0x00000000   Lc  Abs  File  De 
    158  ../clib/angel/boardlib.s   0x00000000   Lc  Abs  File  De 
    159  ../clib/armsys.c           0x00000000   Lc  Abs  File  De 
    160  ../clib/armsys.c           0x00000000   Lc  Abs  File  De 
    161  ../clib/libinit.s          0x00000000   Lc  Abs  File  De 
    162  .ARM.Collect$$libshutdown$$00000000
                                    0x100001b0   Lc    1  Sect  De   0x2
    163  ../clib/angel/sysapp.c     0x00000000   Lc  Abs  File  De 
    164  ../clib/angel/sysapp.c     0x00000000   Lc  Abs  File  De 
    165  ../clib/angel/sys.s        0x00000000   Lc  Abs  File  De 
    166  .text                      0x100002b0   Lc    1  Sect  De   0x2
    167  ../clib/angel/sys.s        0x00000000   Lc  Abs  File  De 
    168  .text                      0x100002b2   Lc    1  Sect  De 
    169  ../clib/heapalloc.c        0x00000000   Lc  Abs  File  De 
    170  ../clib/signal.c           0x00000000   Lc  Abs  File  De 
    171  ../clib/signal.c           0x00000000   Lc  Abs  File  De 
    172  ../clib/libinit.s          0x00000000   Lc  Abs  File  De 
    173  .ARM.Collect$$libshutdown$$00000002
                                    0x100001b2   Lc    1  Sect  De 
    174  .ARM.Collect$$libshutdown$$00000004
                                    0x100001b2   Lc    1  Sect  De 
    175  .ARM.Collect$$libshutdown$$00000007
                                    0x100001b2   Lc    1  Sect  De 
    176  .ARM.Collect$$libshutdown$$0000000A
                                    0x100001b2   Lc    1  Sect  De 
    177  .ARM.Collect$$libshutdown$$0000000C
                                    0x100001b2   Lc    1  Sect  De 
    178  .ARM.Collect$$libshutdown$$0000000F
                                    0x100001b2   Lc    1  Sect  De 
    179  .ARM.Collect$$libshutdown$$00000010
                                    0x100001b2   Lc    1  Sect  De   0x2
    180  ../clib/angel/rt.s         0x00000000   Lc  Abs  File  De 
    181  ../clib/signal.c           0x00000000   Lc  Abs  File  De 
    182  ../clib/signal.c           0x00000000   Lc  Abs  File  De 
    183  ../clib/signal.c           0x00000000   Lc  Abs  File  De 
    184  ../clib/signal.c           0x00000000   Lc  Abs  File  De 
    185  ../clib/angel/sysapp.c     0x00000000   Lc  Abs  File  De 
    186  ../clib/angel/sysapp.c     0x00000000   Lc  Abs  File  De 
    187  ../clib/signal.s           0x00000000   Lc  Abs  File  De 
    188  ../clib/signal.c           0x00000000   Lc  Abs  File  De 
    189  ../clib/signal.c           0x00000000   Lc  Abs  File  De 
    190  ../clib/signal.c           0x00000000   Lc  Abs  File  De 
    191  ../clib/signal.c           0x00000000   Lc  Abs  File  De 
    192  ../clib/signal.c           0x00000000   Lc  Abs  File  De 
    193  ../clib/signal.c           0x00000000   Lc  Abs  File  De 
    194  ../clib/signal.c           0x00000000   Lc  Abs  File  De 
    195  ../clib/signal.c           0x00000000   Lc  Abs  File  De 
    196  ../clib/angel/scatter.s    0x00000000   Lc  Abs  File  De 
    197  !!!scatter                 0x1000013c   Lc    1  Sect  De   0x34
    198  ../clib/angel/handlers.s   0x00000000   Lc  Abs  File  De 
    199  !!handler_zi               0x1000018c   Lc    1  Sect  De   0x1c
    200  BuildAttributes$$THM_ISAv4$E$P$D$K$B$S$7EM$VFPi3$EXTD16$VFPS$VFMA$PE$A:L22UL41UL21$X:L11$S22US41US21$IEEE1$IW$~IW$USESV6$~STKCKD$USESV7$~SHL$OTIME$ROPI$EBA8$UX$STANDARDLIB$REQ8$PRES8$EABIv2
                                    0x00000000   Gb  Abs   --   Hi 
    201  __Vectors                  0x10000000   Gb    1  Data  Hi 
    202  __Patchable                0x100000c0   Gb    1  Data  Hi 
    203  Reset_Handler              0x10000101   Wk    1  Code  Hi   0x1c
    204  HardFault_Handler          0x1000011d   Wk    1  Code  Hi   0x2
    205  NMI_Handler                0x1000011f   Wk    1  Code  Hi   0x2
    206  MemManage_Handler          0x10000121   Wk    1  Code  Hi   0x2
    207  BusFault_Handler           0x10000123   Wk    1  Code  Hi   0x2
    208  UsageFault_Handler         0x10000125   Wk    1  Code  Hi   0x2
    209  SVC_Handler                0x10000127   Wk    1  Code  Hi   0x2
    210  DebugMon_Handler           0x10000129   Wk    1  Code  Hi   0x2
    211  PendSV_Handler             0x1000012b   Wk    1  Code  Hi   0x2
    212  SysTick_Handler            0x1000012d   Wk    1  Code  Hi   0x2
    213  am_adc_isr                 0x1000012f   Wk    1  Code  Hi 
    214  am_ble_isr                 0x1000012f   Wk    1  Code  Hi 
    215  am_brownout_isr            0x1000012f   Wk    1  Code  Hi 
    216  am_clkgen_isr              0x1000012f   Wk    1  Code  Hi 
    217  am_ctimer_isr              0x1000012f   Wk    1  Code  Hi 
    218  am_gpio_isr                0x1000012f   Wk    1  Code  Hi 
    219  am_iomaster0_isr           0x1000012f   Wk    1  Code  Hi 
    220  am_iomaster1_isr           0x1000012f   Wk    1  Code  Hi 
    221  am_iomaster2_isr           0x1000012f   Wk    1  Code  Hi 
    222  am_iomaster3_isr           0x1000012f   Wk    1  Code  Hi 
    223  am_iomaster4_isr           0x1000012f   Wk    1  Code  Hi 
    224  am_iomaster5_isr           0x1000012f   Wk    1  Code  Hi 
    225  am_ioslave_acc_isr         0x1000012f   Wk    1  Code  Hi 
    226  am_ioslave_ios_isr         0x1000012f   Wk    1  Code  Hi 
    227  am_mspi0_isr               0x1000012f   Wk    1  Code  Hi 
    228  am_pdm0_isr                0x1000012f   Wk    1  Code  Hi 
    229  am_rtc_isr                 0x1000012f   Wk    1  Code  Hi 
    230  am_scard_isr               0x1000012f   Wk    1  Code  Hi 
    231  am_software0_isr           0x1000012f   Wk    1  Code  Hi 
    232  am_stimer_cmpr0_isr        0x1000012f   Wk    1  Code  Hi 
    233  am_stimer_cmpr1_isr        0x1000012f   Wk    1  Code  Hi 
    234  am_stimer_cmpr2_isr        0x1000012f   Wk    1  Code  Hi 
    235  am_stimer_cmpr3_isr        0x1000012f   Wk    1  Code  Hi 
    236  am_stimer_cmpr4_isr        0x1000012f   Wk    1  Code  Hi 
    237  am_stimer_cmpr5_isr        0x1000012f   Wk    1  Code  Hi 
    238  am_stimer_cmpr6_isr        0x1000012f   Wk    1  Code  Hi 
    239  am_stimer_cmpr7_isr        0x1000012f   Wk    1  Code  Hi 
    240  am_stimer_isr              0x1000012f   Wk    1  Code  Hi 
    241  am_uart0_isr               0x1000012f   Wk    1  Code  Hi 
    242  am_uart1_isr               0x1000012f   Wk    1  Code  Hi 
    243  am_uart_isr                0x1000012f   Wk    1  Code  Hi 
    244  am_vcomp_isr               0x1000012f   Wk    1  Code  Hi 
    245  am_watchdog_isr            0x1000012f   Wk    1  Code  Hi 
    246  __main                     0x10000135   Gb    1  Code  Hi   0x8
    247  __scatterload              0x1000013d   Gb    1  Code  Hi 
    248  __scatterload_rt2          0x1000013d   Gb    1  Code  Hi   0x2c
    249  __scatterload_rt2_thumb_only
                                    0x1000013d   Gb    1  Code  Hi 
    250  __scatterload_null         0x1000014b   Gb    1  Code  Hi 
    251  __scatterload_copy         0x10000171   Gb    1  Code  Hi   0x1a
    252  __scatterload_zeroinit     0x1000018d   Gb    1  Code  Hi   0x1c
    253  __rt_lib_init              0x100001a9   Gb    1  Code  De 
    254  __rt_lib_init_fp_1         0x100001ab   Gb    1  Code  Hi 
    255  __rt_lib_init_alloca_1     0x100001af   Gb    1  Code  Hi 
    256  __rt_lib_init_argv_1       0x100001af   Gb    1  Code  Hi 
    257  __rt_lib_init_atexit_1     0x100001af   Gb    1  Code  Hi 
    258  __rt_lib_init_clock_1      0x100001af   Gb    1  Code  Hi 
    259  __rt_lib_init_cpp_1        0x100001af   Gb    1  Code  Hi 
    260  __rt_lib_init_exceptions_1 0x100001af   Gb    1  Code  Hi 
    261  __rt_lib_init_fp_trap_1    0x100001af   Gb    1  Code  Hi 
    262  __rt_lib_init_getenv_1     0x100001af   Gb    1  Code  Hi 
    263  __rt_lib_init_heap_1       0x100001af   Gb    1  Code  Hi 
    264  __rt_lib_init_lc_collate_1 0x100001af   Gb    1  Code  Hi 
    265  __rt_lib_init_lc_ctype_1   0x100001af   Gb    1  Code  Hi 
    266  __rt_lib_init_lc_monetary_1
                                    0x100001af   Gb    1  Code  Hi 
    267  __rt_lib_init_lc_numeric_1 0x100001af   Gb    1  Code  Hi 
    268  __rt_lib_init_lc_time_1    0x100001af   Gb    1  Code  Hi 
    269  __rt_lib_init_preinit_1    0x100001af   Gb    1  Code  Hi 
    270  __rt_lib_init_rand_1       0x100001af   Gb    1  Code  Hi 
    271  __rt_lib_init_relocate_pie_1
                                    0x100001af   Gb    1  Code  Hi 
    272  __rt_lib_init_return       0x100001af   Gb    1  Code  Hi 
    273  __rt_lib_init_signal_1     0x100001af   Gb    1  Code  Hi 
    274  __rt_lib_init_stdio_1      0x100001af   Gb    1  Code  Hi 
    275  __rt_lib_init_user_alloc_1 0x100001af   Gb    1  Code  Hi 
    276  __rt_lib_shutdown          0x100001b1   Gb    1  Code  De 
    277  __rt_lib_shutdown_cpp_1    0x100001b3   Gb    1  Code  Hi 
    278  __rt_lib_shutdown_fp_trap_1
                                    0x100001b3   Gb    1  Code  Hi 
    279  __rt_lib_shutdown_heap_1   0x100001b3   Gb    1  Code  Hi 
    280  __rt_lib_shutdown_return   0x100001b3   Gb    1  Code  Hi 
    281  __rt_lib_shutdown_signal_1 0x100001b3   Gb    1  Code  Hi 
    282  __rt_lib_shutdown_stdio_1  0x100001b3   Gb    1  Code  Hi 
    283  __rt_lib_shutdown_user_alloc_1
                                    0x100001b3   Gb    1  Code  Hi 
    284  __rt_entry                 0x100001b5   Gb    1  Code  Hi 
    285  __rt_entry_presh_1         0x100001b5   Gb    1  Code  Hi 
    286  __rt_entry_sh              0x100001b5   Gb    1  Code  Hi 
    287  __rt_entry_li              0x100001bb   Gb    1  Code  Hi 
    288  __rt_entry_postsh_1        0x100001bb   Gb    1  Code  Hi 
    289  __rt_entry_main            0x100001bf   Gb    1  Code  Hi 
    290  __rt_entry_postli_1        0x100001bf   Gb    1  Code  Hi 
    291  __rt_exit                  0x100001c7   Gb    1  Code  De 
    292  __rt_exit_ls               0x100001c9   Gb    1  Code  Hi 
    293  __rt_exit_prels_1          0x100001c9   Gb    1  Code  Hi 
    294  __rt_exit_exit             0x100001cd   Gb    1  Code  Hi 
    295  __user_initial_stackheap   0x100001d5   Gb    1  Code  Hi   0xa
    296  __aeabi_memclr4            0x100001ed   Gb    1  Code  De 
    297  __aeabi_memclr8            0x100001ed   Gb    1  Code  De 
    298  __rt_memclr_w              0x100001ed   Gb    1  Code  De 
    299  _memset_w                  0x100001f1   Gb    1  Code  De   0x4a
    300  __use_two_region_memory    0x1000023b   Gb    1  Code  Hi   0x2
    301  __rt_heap_escrow$2region   0x1000023d   Gb    1  Code  De   0x2
    302  __rt_heap_expand$2region   0x1000023f   Gb    1  Code  De   0x2
    303  __user_setup_stackheap     0x10000241   Gb    1  Code  De   0x4a
    304  exit                       0x1000028b   Gb    1  Code  De   0x12
    305  __user_libspace            0x1000029d   Wk    1  Code  De   0x8
    306  __user_perproc_libspace    0x1000029d   Wk    1  Code  De 
    307  __user_perthread_libspace  0x1000029d   Wk    1  Code  De 
    308  _sys_exit                  0x100002a5   Gb    1  Code  De   0x8
    309  __I$use$semihosting        0x100002b1   Gb    1  Code  Hi 
    310  __use_no_semihosting_swi   0x100002b1   Gb    1  Code  Hi   0x2
    311  __semihosting_library_function
                                    0x100002b3   Gb    1  Code  Hi 
    312  am_bsp_debug_printf_disable
                                    0x100002b5   Gb    1  Code  Hi   0x6e
    313  am_bsp_itm_printf_enable   0x10000325   Gb    1  Code  Hi   0x44
    314  am_hal_cachectrl_config    0x10000369   Gb    1  Code  Hi   0x48
    315  am_hal_cachectrl_enable    0x100003b1   Gb    1  Code  Hi   0x14
    316  am_hal_clkgen_control      0x100003c5   Gb    1  Code  Hi   0x15a
    317  am_hal_clkgen_status_get   0x10000521   Gb    1  Code  Hi   0x3a
    318  am_hal_ctimer_clear        0x1000055d   Gb    1  Code  Hi   0x2c
    319  am_hal_ctimer_config       0x10000589   Gb    1  Code  Hi   0x7a
    320  am_hal_ctimer_read         0x10000605   Gb    1  Code  Hi   0x88
    321  am_hal_ctimer_start        0x100006cd   Gb    1  Code  Hi   0x60
    322  am_hal_ctimer_stop         0x1000072d   Gb    1  Code  Hi   0x30
    323  am_hal_flash_delay         0x1000075d   Gb    1  Code  Hi   0x2a
    324  am_hal_gpio_pinconfig      0x10000789   Gb    1  Code  Hi   0x240
    325  am_hal_interrupt_master_disable
                                    0x10000a31   Gb    1  Code  Hi   0x8
    326  am_hal_interrupt_master_set
                                    0x10000a39   Gb    1  Code  Hi   0x6
    327  am_hal_itm_disable         0x10000a41   Gb    1  Code  Hi   0x188
    328  am_hal_itm_enable          0x10000bc9   Gb    1  Code  Hi   0x56
    329  am_hal_itm_print           0x10000c21   Gb    1  Code  Hi   0x136
    330  am_hal_pwrctrl_memory_enable
                                    0x10000d59   Gb    1  Code  Hi   0x70
    331  am_hal_pwrctrl_periph_disable
                                    0x10000dc9   Gb    1  Code  Hi   0x8c
    332  am_hal_pwrctrl_periph_enable
                                    0x10000e55   Gb    1  Code  Hi   0x76
    333  am_hal_tpiu_enable         0x10000ecd   Gb    1  Code  Hi   0x98
    334  am_hal_triple_read         0x10000f65   Gb    1  Code  Hi   0x24
    335  am_hal_uart_deinitialize   0x10000f89   Gb    1  Code  Hi   0x28
    336  am_hal_uart_power_control  0x10000fb1   Gb    1  Code  Hi   0x10e
    337  am_hal_uart_tx_flush       0x100010c1   Gb    1  Code  Hi   0x5a
    338  am_util_stdio_printf       0x1000111d   Gb    1  Code  Hi   0x46
    339  am_util_stdio_printf_init  0x10001165   Gb    1  Code  Hi   0xc
    340  am_util_stdio_terminal_clear
                                    0x10001171   Gb    1  Code  Hi   0x8
    341  am_util_stdio_vsprintf     0x1000118d   Gb    1  Code  Hi   0x1194
    342  main                       0x10002321   Gb    1  Code  Hi   0x2a36
    343  __aeabi_d2f                0x10004d59   Gb    1  Code  De 
    344  _d2f                       0x10004d59   Gb    1  Code  De   0x62
    345  __fpl_dnaninf              0x10004dbb   Gb    1  Code  De   0x9c
    346  _fp_init                   0x10004e57   Gb    1  Code  De   0x1a
    347  __fplib_config_fpu_vfp     0x10004e6f   Gb    1  Code  De 
    348  __fplib_config_pureend_doubles
                                    0x10004e6f   Gb    1  Code  De 
    349  __fpl_fretinf              0x10004e71   Gb    1  Code  De   0xa
    350  __I$use$fp                 0x10004e7a   Gb    1   --   De 
    351  am_hal_pwrctrl_memory_control
                                    0x10004e7c   Gb    1  Data  Hi   0x1b0
    352  am_hal_pwrctrl_peripheral_control
                                    0x1000502c   Gb    1  Data  Hi   0xb4
    353  flash_selftest_cachectrl_config
                                    0x100050e0   Gb    1  Data  Hi   0x3
    354  g_AM_BSP_GPIO_ITM_SWO      0x100050e4   Gb    1  Data  Hi   0x4
    355  g_AM_HAL_GPIO_DISABLE      0x100050e8   Gb    1  Data  Hi   0x4
    356  g_AM_HAL_GPIO_OUTPUT_12    0x100050ec   Gb    1  Data  Hi   0x4
    357  g_am_hal_flash             0x100050f0   Gb    1  Data  Hi   0x60
    358  Region$$Table$$Base        0x10005254   Gb    1   --   Hi 
    359  Region$$Table$$Limit       0x10005274   Gb    1   --   Hi 
    360  g_pui32Result              0x10008000   Gb    2  Data  Hi   0x4
    361  pui32_timer_elapsed_sec    0x10008004   Gb    2  Data  Hi   0x4
    362  pui32_timer_elapsed_frac   0x10008008   Gb    2  Data  Hi   0x4
    363  __libspace_start           0x10009028   Gb    3  Data  De   0x60
    364  __temporary_stack_top$libspace
                                    0x10009088   Gb    3  Data  De 
    365  g_TestSA1                  0x10009090   Gb    3  Data  Hi   0x4
    366  g_TestSA0                  0x10009094   Gb    3  Data  Hi   0x4
    367  g_TestFail                 0x10009098   Gb    3  Data  Hi   0x4
    368  gAmHalResetStatus          0x1000909c   Gb    3  Data  Hi   0x4
    369  g_pfnCharPrint             0x100090a4   Gb    3  Data  Hi   0x4
    370  g_ui32RowBuffer            0x100094a8   Gb    3  Data  Hi   0x200
    371  g_ui32RowBufferNot         0x100096a8   Gb    3  Data  Hi   0x200


** Section #12 '.strtab' (SHT_STRTAB)
    Size   : 6080 bytes

            #  Offset String
        ====================================

            1      1: $d
            2      4: $t
            3      7: $t.5
            4     12: $d.1
            5     17: $t.2
            6     22: $d.13
            7     28: $t.9
            8     33: $d.2
            9     38: $t.3
           10     43: $d.4
           11     48: $t.1
           12     53: $d.12
           13     59: $d.realdata
           14     71: flash_selftest.c
           15     88: .L.str.2
           16     97: .L_MergedGlobals
           17    114: g_sContTimer
           18    127: .L_MergedGlobals.5
           19    146: am_util_stdio.c
           20    162: g_bTxtXlate
           21    174: g_prfbuf
           22    183: ../keil6/startup_keil6.s
           23    208: STACK
           24    214: StackMem
           25    223: HEAP
           26    228: HeapMem
           27    236: RESET
           28    242: $v0
           29    246: .text
           30    252: am_bsp.c
           31    261: g_ui32PrintInterface
           32    282: g_sCOMUART
           33    293: am_hal_cachectrl.c
           34    312: am_hal_clkgen.c
           35    328: am_hal_ctimer.c
           36    344: g_ui32TMRAddrTbl
           37    361: g_ui8TmrClkSrcMask
           38    380: g_ui8ClkSrc
           39    392: am_hal_flash.c
           40    407: am_hal_gpio.c
           41    421: g_ui8Bit76Capabilities
           42    444: g_ui8nCEpins
           43    457: g_ui8Inpen
           44    468: g_ui8NCEtable
           45    482: am_hal_pwrctrl.c
           46    499: am_bsp_pins.c
           47    513: am_hal_debug.c
           48    528: am_hal_global.c
           49    544: am_hal_interrupt.c
           50    563: am_hal_itm.c
           51    576: am_hal_reset.c
           52    591: am_hal_rtc.c
           53    604: am_hal_tpiu.c
           54    618: am_hal_uart.c
           55    632: am_hal_queue.c
           56    647: dc.s
           57    652: ../clib/memcpset.s
           58    671: ../clib/heapaux.c
           59    689: ../clib/angel/startup.s
           60    713: !!!main
           61    721: ../clib/angel/handlers.s
           62    746: !!handler_copy
           63    761: ../fplib/d2f.s
           64    776: x$fpl$d2f
           65    786: ../clib/angel/kernel.s
           66    809: .ARM.Collect$$rtentry$$00000000
           67    841: ../fplib/dnaninf.s
           68    860: x$fpl$dnaninf
           69    874: ../fplib/fretinf.s
           70    893: x$fpl$fretinf
           71    907: ../fplib/usenofp.s
           72    926: x$fpl$usenofp
           73    940: .ARM.Collect$$rtentry$$00000002
           74    972: .ARM.Collect$$rtentry$$00000009
           75   1004: .ARM.Collect$$rtentry$$0000000A
           76   1036: .ARM.Collect$$rtentry$$0000000C
           77   1068: .ARM.Collect$$rtentry$$0000000D
           78   1100: .ARM.Collect$$rtentry$$00000004
           79   1132: ../clib/angel/sys.s
           80   1152: ../clib/stdlib.c
           81   1169: ../clib/angel/boardlib.s
           82   1194: ../clib/libinit.s
           83   1212: .ARM.Collect$$libinit$$00000000
           84   1244: .bss
           85   1249: .ARM.Collect$$rtexit$$00000000
           86   1280: .ARM.Collect$$libinit$$00000001
           87   1312: .ARM.Collect$$libinit$$00000004
           88   1344: .ARM.Collect$$libinit$$00000006
           89   1376: .ARM.Collect$$libinit$$0000000C
           90   1408: .ARM.Collect$$libinit$$0000000E
           91   1440: .ARM.Collect$$libinit$$00000010
           92   1472: .ARM.Collect$$libinit$$00000013
           93   1504: .ARM.Collect$$libinit$$00000015
           94   1536: .ARM.Collect$$libinit$$00000017
           95   1568: .ARM.Collect$$libinit$$00000019
           96   1600: .ARM.Collect$$libinit$$0000001B
           97   1632: .ARM.Collect$$libinit$$0000001D
           98   1664: .ARM.Collect$$libinit$$0000001F
           99   1696: .ARM.Collect$$libinit$$00000021
          100   1728: .ARM.Collect$$libinit$$00000023
          101   1760: .ARM.Collect$$libinit$$00000025
          102   1792: .ARM.Collect$$libinit$$00000027
          103   1824: .ARM.Collect$$libinit$$0000002E
          104   1856: .ARM.Collect$$libinit$$00000030
          105   1888: .ARM.Collect$$libinit$$00000032
          106   1920: .ARM.Collect$$libinit$$00000034
          107   1952: .ARM.Collect$$libinit$$00000035
          108   1984: .ARM.Collect$$rtexit$$00000002
          109   2015: .ARM.Collect$$rtexit$$00000003
          110   2046: .ARM.Collect$$rtexit$$00000004
          111   2077: ../clib/armsys.c
          112   2094: ../fplib/fpinit.s
          113   2112: x$fpl$fpinit
          114   2125: ../clib/angel/sysapp.c
          115   2148: .ARM.Collect$$libshutdown$$00000000
          116   2184: ../clib/heapalloc.c
          117   2204: ../clib/signal.c
          118   2221: .ARM.Collect$$libshutdown$$00000002
          119   2257: .ARM.Collect$$libshutdown$$00000004
          120   2293: .ARM.Collect$$libshutdown$$00000007
          121   2329: .ARM.Collect$$libshutdown$$0000000A
          122   2365: .ARM.Collect$$libshutdown$$0000000C
          123   2401: .ARM.Collect$$libshutdown$$0000000F
          124   2437: .ARM.Collect$$libshutdown$$00000010
          125   2473: ../clib/angel/rt.s
          126   2492: ../clib/signal.s
          127   2509: ../clib/angel/scatter.s
          128   2533: !!!scatter
          129   2544: !!handler_zi
          130   2557: BuildAttributes$$THM_ISAv4$E$P$D$K$B$S$7EM$VFPi3$EXTD16$VFPS$VFMA$PE$A:L22UL41UL21$X:L11$S22US41US21$IEEE1$IW$~IW$USESV6$~STKCKD$USESV7$~SHL$OTIME$ROPI$EBA8$UX$STANDARDLIB$REQ8$PRES8$EABIv2
          131   2747: __Vectors
          132   2757: __Patchable
          133   2769: Reset_Handler
          134   2783: HardFault_Handler
          135   2801: NMI_Handler
          136   2813: MemManage_Handler
          137   2831: BusFault_Handler
          138   2848: UsageFault_Handler
          139   2867: SVC_Handler
          140   2879: DebugMon_Handler
          141   2896: PendSV_Handler
          142   2911: SysTick_Handler
          143   2927: am_adc_isr
          144   2938: am_ble_isr
          145   2949: am_brownout_isr
          146   2965: am_clkgen_isr
          147   2979: am_ctimer_isr
          148   2993: am_gpio_isr
          149   3005: am_iomaster0_isr
          150   3022: am_iomaster1_isr
          151   3039: am_iomaster2_isr
          152   3056: am_iomaster3_isr
          153   3073: am_iomaster4_isr
          154   3090: am_iomaster5_isr
          155   3107: am_ioslave_acc_isr
          156   3126: am_ioslave_ios_isr
          157   3145: am_mspi0_isr
          158   3158: am_pdm0_isr
          159   3170: am_rtc_isr
          160   3181: am_scard_isr
          161   3194: am_software0_isr
          162   3211: am_stimer_cmpr0_isr
          163   3231: am_stimer_cmpr1_isr
          164   3251: am_stimer_cmpr2_isr
          165   3271: am_stimer_cmpr3_isr
          166   3291: am_stimer_cmpr4_isr
          167   3311: am_stimer_cmpr5_isr
          168   3331: am_stimer_cmpr6_isr
          169   3351: am_stimer_cmpr7_isr
          170   3371: am_stimer_isr
          171   3385: am_uart0_isr
          172   3398: am_uart1_isr
          173   3411: am_uart_isr
          174   3423: am_vcomp_isr
          175   3436: am_watchdog_isr
          176   3452: __main
          177   3459: __scatterload
          178   3473: __scatterload_rt2
          179   3491: __scatterload_rt2_thumb_only
          180   3520: __scatterload_null
          181   3539: __scatterload_copy
          182   3558: __scatterload_zeroinit
          183   3581: __rt_lib_init
          184   3595: __rt_lib_init_fp_1
          185   3614: __rt_lib_init_alloca_1
          186   3637: __rt_lib_init_argv_1
          187   3658: __rt_lib_init_atexit_1
          188   3681: __rt_lib_init_clock_1
          189   3703: __rt_lib_init_cpp_1
          190   3723: __rt_lib_init_exceptions_1
          191   3750: __rt_lib_init_fp_trap_1
          192   3774: __rt_lib_init_getenv_1
          193   3797: __rt_lib_init_heap_1
          194   3818: __rt_lib_init_lc_collate_1
          195   3845: __rt_lib_init_lc_ctype_1
          196   3870: __rt_lib_init_lc_monetary_1
          197   3898: __rt_lib_init_lc_numeric_1
          198   3925: __rt_lib_init_lc_time_1
          199   3949: __rt_lib_init_preinit_1
          200   3973: __rt_lib_init_rand_1
          201   3994: __rt_lib_init_relocate_pie_1
          202   4023: __rt_lib_init_return
          203   4044: __rt_lib_init_signal_1
          204   4067: __rt_lib_init_stdio_1
          205   4089: __rt_lib_init_user_alloc_1
          206   4116: __rt_lib_shutdown
          207   4134: __rt_lib_shutdown_cpp_1
          208   4158: __rt_lib_shutdown_fp_trap_1
          209   4186: __rt_lib_shutdown_heap_1
          210   4211: __rt_lib_shutdown_return
          211   4236: __rt_lib_shutdown_signal_1
          212   4263: __rt_lib_shutdown_stdio_1
          213   4289: __rt_lib_shutdown_user_alloc_1
          214   4320: __rt_entry
          215   4331: __rt_entry_presh_1
          216   4350: __rt_entry_sh
          217   4364: __rt_entry_li
          218   4378: __rt_entry_postsh_1
          219   4398: __rt_entry_main
          220   4414: __rt_entry_postli_1
          221   4434: __rt_exit
          222   4444: __rt_exit_ls
          223   4457: __rt_exit_prels_1
          224   4475: __rt_exit_exit
          225   4490: __user_initial_stackheap
          226   4515: __aeabi_memclr4
          227   4531: __aeabi_memclr8
          228   4547: __rt_memclr_w
          229   4561: _memset_w
          230   4571: __use_two_region_memory
          231   4595: __rt_heap_escrow$2region
          232   4620: __rt_heap_expand$2region
          233   4645: __user_setup_stackheap
          234   4668: exit
          235   4673: __user_libspace
          236   4689: __user_perproc_libspace
          237   4713: __user_perthread_libspace
          238   4739: _sys_exit
          239   4749: __I$use$semihosting
          240   4769: __use_no_semihosting_swi
          241   4794: __semihosting_library_function
          242   4825: am_bsp_debug_printf_disable
          243   4853: am_bsp_itm_printf_enable
          244   4878: am_hal_cachectrl_config
          245   4902: am_hal_cachectrl_enable
          246   4926: am_hal_clkgen_control
          247   4948: am_hal_clkgen_status_get
          248   4973: am_hal_ctimer_clear
          249   4993: am_hal_ctimer_config
          250   5014: am_hal_ctimer_read
          251   5033: am_hal_ctimer_start
          252   5053: am_hal_ctimer_stop
          253   5072: am_hal_flash_delay
          254   5091: am_hal_gpio_pinconfig
          255   5113: am_hal_interrupt_master_disable
          256   5145: am_hal_interrupt_master_set
          257   5173: am_hal_itm_disable
          258   5192: am_hal_itm_enable
          259   5210: am_hal_itm_print
          260   5227: am_hal_pwrctrl_memory_enable
          261   5256: am_hal_pwrctrl_periph_disable
          262   5286: am_hal_pwrctrl_periph_enable
          263   5315: am_hal_tpiu_enable
          264   5334: am_hal_triple_read
          265   5353: am_hal_uart_deinitialize
          266   5378: am_hal_uart_power_control
          267   5404: am_hal_uart_tx_flush
          268   5425: am_util_stdio_printf
          269   5446: am_util_stdio_printf_init
          270   5472: am_util_stdio_terminal_clear
          271   5501: am_util_stdio_vsprintf
          272   5524: main
          273   5529: __aeabi_d2f
          274   5541: _d2f
          275   5546: __fpl_dnaninf
          276   5560: _fp_init
          277   5569: __fplib_config_fpu_vfp
          278   5592: __fplib_config_pureend_doubles
          279   5623: __fpl_fretinf
          280   5637: __I$use$fp
          281   5648: am_hal_pwrctrl_memory_control
          282   5678: am_hal_pwrctrl_peripheral_control
          283   5712: flash_selftest_cachectrl_config
          284   5744: g_AM_BSP_GPIO_ITM_SWO
          285   5766: g_AM_HAL_GPIO_DISABLE
          286   5788: g_AM_HAL_GPIO_OUTPUT_12
          287   5812: g_am_hal_flash
          288   5827: Region$$Table$$Base
          289   5847: Region$$Table$$Limit
          290   5868: g_pui32Result
          291   5882: pui32_timer_elapsed_sec
          292   5906: pui32_timer_elapsed_frac
          293   5931: __libspace_start
          294   5948: __temporary_stack_top$libspace
          295   5979: g_TestSA1
          296   5989: g_TestSA0
          297   5999: g_TestFail
          298   6010: gAmHalResetStatus
          299   6028: g_pfnCharPrint
          300   6043: g_ui32RowBuffer
          301   6059: g_ui32RowBufferNot
          302   6078: 
          303   6079: 


** Section #13 '.note' (SHT_NOTE)
    Size   : 28 bytes (alignment 4)


** Section #14 '.comment' (SHT_PROGBITS)
    Size   : 1488 bytes


** Section #15 '.shstrtab' (SHT_STRTAB)
    Size   : 140 bytes

            #  Offset String
        ====================================

            1      1: FLASH
            2      7: SRAM
            3     12: .debug_abbrev
            4     26: .debug_frame
            5     39: .debug_info
            6     51: .debug_line
            7     63: .debug_loc
            8     74: .debug_ranges
            9     88: .debug_str
           10     99: .symtab
           11    107: .strtab
           12    115: .note
           13    121: .comment
           14    130: .shstrtab


