
========================================================================

** ELF Header Information

    File Name: bin\deepsleep_wake.axf

    Machine class: ELFCLASS32 (32-bit)
    Data encoding: ELFDATA2LSB (Little endian)
    Header version: EV_CURRENT (Current version)
    Operating System ABI: none
    ABI Version: 0
    File Type: ET_EXEC (Executable) (2)
    Machine: EM_ARM (ARM)

    Image Entry point: 0x0000c135
    Flags: EF_ARM_HASENTRY + EF_ARM_ABI_FLOAT_HARD (0x05000402)

    ARM ELF revision: 5 (ABI version 2)

    Conforms to Hard float procedure-call standard

    Built with
    Component: Arm Compiler for Embedded 6.19 Tool: armasm [5e73cb00]
    Component: Arm Compiler for Embedded 6.19 Tool: armlink [5e73cb00]

    Header size: 52 bytes (0x34)
    Program header entry size: 32 bytes (0x20)
    Section header entry size: 40 bytes (0x28)

    Program header entries: 1
    Section header entries: 16

    Program header offset: 57240 (0x0000df98)
    Section header offset: 57272 (0x0000dfb8)

    Section header string table index: 15

========================================================================

** Program header #0 (PT_LOAD) [PF_X + PF_W + PF_R + PF_ARM_ENTRY]
    Size : 20344 bytes (15672 bytes in file)
    Virtual address: 0x0000c000 (Alignment 8)


========================================================================

** Section #1 'ROMEM' (SHT_PROGBITS) [SHF_ALLOC + SHF_EXECINSTR]
    Size   : 15632 bytes (alignment 4)
    Address: 0x0000c000

    $d
    RESET
    __Vectors
        0x0000c000:    10001000    ....    DCD    268439552
        0x0000c004:    0000c101    ....    DCD    49409
        0x0000c008:    0000c11f    ....    DCD    49439
        0x0000c00c:    0000c11d    ....    DCD    49437
        0x0000c010:    0000c121    !...    DCD    49441
        0x0000c014:    0000c123    #...    DCD    49443
        0x0000c018:    0000c125    %...    DCD    49445
        0x0000c01c:    00000000    ....    DCD    0
        0x0000c020:    00000000    ....    DCD    0
        0x0000c024:    00000000    ....    DCD    0
        0x0000c028:    00000000    ....    DCD    0
        0x0000c02c:    0000c127    '...    DCD    49447
        0x0000c030:    0000c129    )...    DCD    49449
        0x0000c034:    00000000    ....    DCD    0
        0x0000c038:    0000c12b    +...    DCD    49451
        0x0000c03c:    0000c12d    -...    DCD    49453
        0x0000c040:    0000c12f    /...    DCD    49455
        0x0000c044:    0000c12f    /...    DCD    49455
        0x0000c048:    0000e3b9    ....    DCD    58297
        0x0000c04c:    0000c12f    /...    DCD    49455
        0x0000c050:    0000c12f    /...    DCD    49455
        0x0000c054:    0000c12f    /...    DCD    49455
        0x0000c058:    0000c12f    /...    DCD    49455
        0x0000c05c:    0000c12f    /...    DCD    49455
        0x0000c060:    0000c12f    /...    DCD    49455
        0x0000c064:    0000c12f    /...    DCD    49455
        0x0000c068:    0000c12f    /...    DCD    49455
        0x0000c06c:    0000c12f    /...    DCD    49455
        0x0000c070:    0000c12f    /...    DCD    49455
        0x0000c074:    0000c67d    }...    DCD    50813
        0x0000c078:    0000c12f    /...    DCD    49455
        0x0000c07c:    0000c12f    /...    DCD    49455
        0x0000c080:    0000c12f    /...    DCD    49455
        0x0000c084:    0000c12f    /...    DCD    49455
        0x0000c088:    0000c12f    /...    DCD    49455
        0x0000c08c:    0000c12f    /...    DCD    49455
        0x0000c090:    0000c12f    /...    DCD    49455
        0x0000c094:    0000c12f    /...    DCD    49455
        0x0000c098:    0000c12f    /...    DCD    49455
        0x0000c09c:    0000c12f    /...    DCD    49455
        0x0000c0a0:    0000c12f    /...    DCD    49455
        0x0000c0a4:    0000c12f    /...    DCD    49455
        0x0000c0a8:    0000c12f    /...    DCD    49455
        0x0000c0ac:    0000c12f    /...    DCD    49455
        0x0000c0b0:    0000c12f    /...    DCD    49455
        0x0000c0b4:    0000c12f    /...    DCD    49455
        0x0000c0b8:    0000c12f    /...    DCD    49455
        0x0000c0bc:    0000c12f    /...    DCD    49455
        0x0000c0c0:    0000c12f    /...    DCD    49455
        0x0000c0c4:    0000c12f    /...    DCD    49455
    __Patchable
        0x0000c0c8:    00000000    ....    DCD    0
        0x0000c0cc:    00000000    ....    DCD    0
        0x0000c0d0:    00000000    ....    DCD    0
        0x0000c0d4:    00000000    ....    DCD    0
        0x0000c0d8:    00000000    ....    DCD    0
        0x0000c0dc:    00000000    ....    DCD    0
        0x0000c0e0:    00000000    ....    DCD    0
        0x0000c0e4:    00000000    ....    DCD    0
        0x0000c0e8:    00000000    ....    DCD    0
        0x0000c0ec:    00000000    ....    DCD    0
        0x0000c0f0:    00000000    ....    DCD    0
        0x0000c0f4:    00000000    ....    DCD    0
        0x0000c0f8:    00000000    ....    DCD    0
        0x0000c0fc:    00000000    ....    DCD    0
    $t
    $v0
    Reset_Handler
        0x0000c100:    f64e5088    N..P    MOV      r0,#0xed88
        0x0000c104:    f2ce0000    ....    MOVT     r0,#0xe000
        0x0000c108:    6801        .h      LDR      r1,[r0,#0]
        0x0000c10a:    f4410170    A.p.    ORR      r1,r1,#0xf00000
        0x0000c10e:    6001        .`      STR      r1,[r0,#0]
        0x0000c110:    f3bf8f4f    ..O.    DSB      
        0x0000c114:    f3bf8f6f    ..o.    ISB      
        0x0000c118:    4805        .H      LDR      r0,[pc,#20] ; [0xc130] = 0xc135
        0x0000c11a:    4700        .G      BX       r0
    HardFault_Handler
        0x0000c11c:    e7fe        ..      B        HardFault_Handler ; 0xc11c
    NMI_Handler
        0x0000c11e:    e7fe        ..      B        NMI_Handler ; 0xc11e
    MemManage_Handler
        0x0000c120:    e7fe        ..      B        MemManage_Handler ; 0xc120
    BusFault_Handler
        0x0000c122:    e7fe        ..      B        BusFault_Handler ; 0xc122
    UsageFault_Handler
        0x0000c124:    e7fe        ..      B        UsageFault_Handler ; 0xc124
    SVC_Handler
        0x0000c126:    e7fe        ..      B        SVC_Handler ; 0xc126
    DebugMon_Handler
        0x0000c128:    e7fe        ..      B        DebugMon_Handler ; 0xc128
    PendSV_Handler
        0x0000c12a:    e7fe        ..      B        PendSV_Handler ; 0xc12a
    SysTick_Handler
        0x0000c12c:    e7fe        ..      B        SysTick_Handler ; 0xc12c
    am_adc_isr
    am_ble_isr
    am_brownout_isr
    am_clkgen_isr
    am_ctimer_isr
    am_iomaster0_isr
    am_iomaster1_isr
    am_iomaster2_isr
    am_iomaster3_isr
    am_iomaster4_isr
    am_iomaster5_isr
    am_ioslave_acc_isr
    am_ioslave_ios_isr
    am_mspi0_isr
    am_mspi1_isr
    am_mspi2_isr
    am_pdm0_isr
    am_scard_isr
    am_software0_isr
    am_stimer_cmpr0_isr
    am_stimer_cmpr1_isr
    am_stimer_cmpr2_isr
    am_stimer_cmpr3_isr
    am_stimer_cmpr4_isr
    am_stimer_cmpr5_isr
    am_stimer_cmpr6_isr
    am_stimer_cmpr7_isr
    am_stimer_isr
    am_uart0_isr
    am_uart1_isr
    am_uart_isr
    am_vcomp_isr
    am_watchdog_isr
        0x0000c12e:    e7fe        ..      B        am_adc_isr ; 0xc12e
    $d
        0x0000c130:    0000c135    5...    DCD    49461
    $t
    !!!main
    __main
        0x0000c134:    f000f802    ....    BL       __scatterload ; 0xc13c
        0x0000c138:    f000f83c    ..<.    BL       __rt_entry ; 0xc1b4
    !!!scatter
    __scatterload
    __scatterload_rt2
    __scatterload_rt2_thumb_only
        0x0000c13c:    a00a        ..      ADR      r0,{pc}+0x2c ; 0xc168
        0x0000c13e:    e8900c00    ....    LDM      r0,{r10,r11}
        0x0000c142:    4482        .D      ADD      r10,r10,r0
        0x0000c144:    4483        .D      ADD      r11,r11,r0
        0x0000c146:    f1aa0701    ....    SUB      r7,r10,#1
    __scatterload_null
        0x0000c14a:    45da        .E      CMP      r10,r11
        0x0000c14c:    d101        ..      BNE      0xc152 ; __scatterload_null + 8
        0x0000c14e:    f000f831    ..1.    BL       __rt_entry ; 0xc1b4
        0x0000c152:    f2af0e09    ....    ADR      lr,{pc}-7 ; 0xc14b
        0x0000c156:    e8ba000f    ....    LDM      r10!,{r0-r3}
        0x0000c15a:    f0130f01    ....    TST      r3,#1
        0x0000c15e:    bf18        ..      IT       NE
        0x0000c160:    1afb        ..      SUBNE    r3,r7,r3
        0x0000c162:    f0430301    C...    ORR      r3,r3,#1
        0x0000c166:    4718        .G      BX       r3
    $d
        0x0000c168:    00003b78    x;..    DCD    15224
        0x0000c16c:    00003ba8    .;..    DCD    15272
    $t
    !!handler_copy
    __scatterload_copy
        0x0000c170:    3a10        .:      SUBS     r2,r2,#0x10
        0x0000c172:    bf24        $.      ITT      CS
        0x0000c174:    c878        x.      LDMCS    r0!,{r3-r6}
        0x0000c176:    c178        x.      STMCS    r1!,{r3-r6}
        0x0000c178:    d8fa        ..      BHI      __scatterload_copy ; 0xc170
        0x0000c17a:    0752        R.      LSLS     r2,r2,#29
        0x0000c17c:    bf24        $.      ITT      CS
        0x0000c17e:    c830        0.      LDMCS    r0!,{r4,r5}
        0x0000c180:    c130        0.      STMCS    r1!,{r4,r5}
        0x0000c182:    bf44        D.      ITT      MI
        0x0000c184:    6804        .h      LDRMI    r4,[r0,#0]
        0x0000c186:    600c        .`      STRMI    r4,[r1,#0]
        0x0000c188:    4770        pG      BX       lr
        0x0000c18a:    0000        ..      MOVS     r0,r0
    !!handler_zi
    __scatterload_zeroinit
        0x0000c18c:    2300        .#      MOVS     r3,#0
        0x0000c18e:    2400        .$      MOVS     r4,#0
        0x0000c190:    2500        .%      MOVS     r5,#0
        0x0000c192:    2600        .&      MOVS     r6,#0
        0x0000c194:    3a10        .:      SUBS     r2,r2,#0x10
        0x0000c196:    bf28        (.      IT       CS
        0x0000c198:    c178        x.      STMCS    r1!,{r3-r6}
        0x0000c19a:    d8fb        ..      BHI      0xc194 ; __scatterload_zeroinit + 8
        0x0000c19c:    0752        R.      LSLS     r2,r2,#29
        0x0000c19e:    bf28        (.      IT       CS
        0x0000c1a0:    c130        0.      STMCS    r1!,{r4,r5}
        0x0000c1a2:    bf48        H.      IT       MI
        0x0000c1a4:    600b        .`      STRMI    r3,[r1,#0]
        0x0000c1a6:    4770        pG      BX       lr
    .ARM.Collect$$libinit$$00000000
    __rt_lib_init
        0x0000c1a8:    b51f        ..      PUSH     {r0-r4,lr}
    .ARM.Collect$$libinit$$00000001
    __rt_lib_init_fp_1
        0x0000c1aa:    f003fb0c    ....    BL       _fp_init ; 0xf7c6
    .ARM.Collect$$libinit$$00000004
    .ARM.Collect$$libinit$$00000006
    .ARM.Collect$$libinit$$0000000C
    .ARM.Collect$$libinit$$0000000E
    .ARM.Collect$$libinit$$00000010
    .ARM.Collect$$libinit$$00000013
    .ARM.Collect$$libinit$$00000015
    .ARM.Collect$$libinit$$00000017
    .ARM.Collect$$libinit$$00000019
    .ARM.Collect$$libinit$$0000001B
    .ARM.Collect$$libinit$$0000001D
    .ARM.Collect$$libinit$$0000001F
    .ARM.Collect$$libinit$$00000021
    .ARM.Collect$$libinit$$00000023
    .ARM.Collect$$libinit$$00000025
    .ARM.Collect$$libinit$$00000027
    .ARM.Collect$$libinit$$0000002E
    .ARM.Collect$$libinit$$00000030
    .ARM.Collect$$libinit$$00000032
    .ARM.Collect$$libinit$$00000034
    .ARM.Collect$$libinit$$00000035
    __rt_lib_init_alloca_1
    __rt_lib_init_argv_1
    __rt_lib_init_atexit_1
    __rt_lib_init_clock_1
    __rt_lib_init_cpp_1
    __rt_lib_init_exceptions_1
    __rt_lib_init_fp_trap_1
    __rt_lib_init_getenv_1
    __rt_lib_init_heap_1
    __rt_lib_init_lc_collate_1
    __rt_lib_init_lc_ctype_1
    __rt_lib_init_lc_monetary_1
    __rt_lib_init_lc_numeric_1
    __rt_lib_init_lc_time_1
    __rt_lib_init_preinit_1
    __rt_lib_init_rand_1
    __rt_lib_init_relocate_pie_1
    __rt_lib_init_return
    __rt_lib_init_signal_1
    __rt_lib_init_stdio_1
    __rt_lib_init_user_alloc_1
        0x0000c1ae:    bd1f        ..      POP      {r0-r4,pc}
    .ARM.Collect$$libshutdown$$00000000
    __rt_lib_shutdown
        0x0000c1b0:    b510        ..      PUSH     {r4,lr}
    .ARM.Collect$$libshutdown$$00000002
    .ARM.Collect$$libshutdown$$00000004
    .ARM.Collect$$libshutdown$$00000007
    .ARM.Collect$$libshutdown$$0000000A
    .ARM.Collect$$libshutdown$$0000000C
    .ARM.Collect$$libshutdown$$0000000F
    .ARM.Collect$$libshutdown$$00000010
    __rt_lib_shutdown_cpp_1
    __rt_lib_shutdown_fp_trap_1
    __rt_lib_shutdown_heap_1
    __rt_lib_shutdown_return
    __rt_lib_shutdown_signal_1
    __rt_lib_shutdown_stdio_1
    __rt_lib_shutdown_user_alloc_1
        0x0000c1b2:    bd10        ..      POP      {r4,pc}
    .ARM.Collect$$rtentry$$00000000
    .ARM.Collect$$rtentry$$00000002
    .ARM.Collect$$rtentry$$00000004
    __rt_entry
    __rt_entry_presh_1
    __rt_entry_sh
        0x0000c1b4:    f000f81d    ....    BL       __user_setup_stackheap ; 0xc1f2
        0x0000c1b8:    4611        .F      MOV      r1,r2
    .ARM.Collect$$rtentry$$00000009
    .ARM.Collect$$rtentry$$0000000A
    __rt_entry_li
    __rt_entry_postsh_1
        0x0000c1ba:    f7fffff5    ....    BL       __rt_lib_init ; 0xc1a8
    .ARM.Collect$$rtentry$$0000000C
    .ARM.Collect$$rtentry$$0000000D
    __rt_entry_main
    __rt_entry_postli_1
        0x0000c1be:    f002fe93    ....    BL       main ; 0xeee8
        0x0000c1c2:    f000f83b    ..;.    BL       exit ; 0xc23c
    .ARM.Collect$$rtexit$$00000000
    __rt_exit
        0x0000c1c6:    b403        ..      PUSH     {r0,r1}
    .ARM.Collect$$rtexit$$00000002
    .ARM.Collect$$rtexit$$00000003
    __rt_exit_ls
    __rt_exit_prels_1
        0x0000c1c8:    f7fffff2    ....    BL       __rt_lib_shutdown ; 0xc1b0
    .ARM.Collect$$rtexit$$00000004
    __rt_exit_exit
        0x0000c1cc:    bc03        ..      POP      {r0,r1}
        0x0000c1ce:    f000f843    ..C.    BL       _sys_exit ; 0xc258
        0x0000c1d2:    0000        ..      MOVS     r0,r0
    .text
    $v0
    __user_initial_stackheap
        0x0000c1d4:    4802        .H      LDR      r0,[pc,#8] ; [0xc1e0] = 0x10001268
        0x0000c1d6:    4903        .I      LDR      r1,[pc,#12] ; [0xc1e4] = 0x10001000
        0x0000c1d8:    4a01        .J      LDR      r2,[pc,#4] ; [0xc1e0] = 0x10001268
        0x0000c1da:    4b03        .K      LDR      r3,[pc,#12] ; [0xc1e8] = 0x10000000
        0x0000c1dc:    4770        pG      BX       lr
    $d
        0x0000c1de:    0000        ..      DCW    0
        0x0000c1e0:    10001268    h...    DCD    268440168
        0x0000c1e4:    10001000    ....    DCD    268439552
        0x0000c1e8:    10000000    ....    DCD    268435456
    $t
    .text
    __use_two_region_memory
        0x0000c1ec:    4770        pG      BX       lr
    __rt_heap_escrow$2region
        0x0000c1ee:    4770        pG      BX       lr
    __rt_heap_expand$2region
        0x0000c1f0:    4770        pG      BX       lr
    .text
    __user_setup_stackheap
        0x0000c1f2:    4675        uF      MOV      r5,lr
        0x0000c1f4:    f000f82c    ..,.    BL       __user_libspace ; 0xc250
        0x0000c1f8:    46ae        .F      MOV      lr,r5
        0x0000c1fa:    0005        ..      MOVS     r5,r0
        0x0000c1fc:    4669        iF      MOV      r1,sp
        0x0000c1fe:    4653        SF      MOV      r3,r10
        0x0000c200:    f0200007     ...    BIC      r0,r0,#7
        0x0000c204:    4685        .F      MOV      sp,r0
        0x0000c206:    b018        ..      ADD      sp,sp,#0x60
        0x0000c208:    b520         .      PUSH     {r5,lr}
        0x0000c20a:    f7ffffe3    ....    BL       __user_initial_stackheap ; 0xc1d4
        0x0000c20e:    e8bd4020    .. @    POP      {r5,lr}
        0x0000c212:    f04f0600    O...    MOV      r6,#0
        0x0000c216:    f04f0700    O...    MOV      r7,#0
        0x0000c21a:    f04f0800    O...    MOV      r8,#0
        0x0000c21e:    f04f0b00    O...    MOV      r11,#0
        0x0000c222:    46ac        .F      MOV      r12,r5
        0x0000c224:    e8ac09c0    ....    STM      r12!,{r6-r8,r11}
        0x0000c228:    e8ac09c0    ....    STM      r12!,{r6-r8,r11}
        0x0000c22c:    e8ac09c0    ....    STM      r12!,{r6-r8,r11}
        0x0000c230:    e8ac09c0    ....    STM      r12!,{r6-r8,r11}
        0x0000c234:    f0210107    !...    BIC      r1,r1,#7
        0x0000c238:    468d        .F      MOV      sp,r1
        0x0000c23a:    4770        pG      BX       lr
    .text
    exit
        0x0000c23c:    b510        ..      PUSH     {r4,lr}
        0x0000c23e:    4604        .F      MOV      r4,r0
        0x0000c240:    f3af8000    ....    NOP.W    
        0x0000c244:    4620         F      MOV      r0,r4
        0x0000c246:    e8bd4010    ...@    POP      {r4,lr}
        0x0000c24a:    f7ffbfbc    ....    B.W      __rt_exit ; 0xc1c6
        0x0000c24e:    0000        ..      MOVS     r0,r0
    .text
    __user_libspace
    __user_perproc_libspace
    __user_perthread_libspace
        0x0000c250:    4800        .H      LDR      r0,[pc,#0] ; [0xc254] = 0x10001028
        0x0000c252:    4770        pG      BX       lr
    $d
        0x0000c254:    10001028    (...    DCD    268439592
    $t
    .text
    _sys_exit
        0x0000c258:    4901        .I      LDR      r1,[pc,#4] ; [0xc260] = 0x20026
        0x0000c25a:    2018        .       MOVS     r0,#0x18
        0x0000c25c:    beab        ..      BKPT     #0xab
        0x0000c25e:    e7fe        ..      B        0xc25e ; _sys_exit + 6
    $d
        0x0000c260:    00020026    &...    DCD    131110
    $t
    .text
    __I$use$semihosting
    __use_no_semihosting_swi
        0x0000c264:    4770        pG      BX       lr
    .text
    __semihosting_library_function
        0x0000c266:    0000        ..      MOVS     r0,r0
    $t.1
    AM_HAL_GPIO_MASKBIT
        0x0000c268:    b082        ..      SUB      sp,sp,#8
        0x0000c26a:    9001        ..      STR      r0,[sp,#4]
        0x0000c26c:    9100        ..      STR      r1,[sp,#0]
        0x0000c26e:    9a00        ..      LDR      r2,[sp,#0]
        0x0000c270:    f002011f    ....    AND      r1,r2,#0x1f
        0x0000c274:    2001        .       MOVS     r0,#1
        0x0000c276:    4088        .@      LSLS     r0,r0,r1
        0x0000c278:    9901        ..      LDR      r1,[sp,#4]
        0x0000c27a:    0952        R.      LSRS     r2,r2,#5
        0x0000c27c:    f8410022    A.".    STR      r0,[r1,r2,LSL #2]
        0x0000c280:    9801        ..      LDR      r0,[sp,#4]
        0x0000c282:    b002        ..      ADD      sp,sp,#8
        0x0000c284:    4770        pG      BX       lr
        0x0000c286:    0000        ..      MOVS     r0,r0
    __NVIC_EnableIRQ
        0x0000c288:    b081        ..      SUB      sp,sp,#4
        0x0000c28a:    f88d0003    ....    STRB     r0,[sp,#3]
        0x0000c28e:    f99d0003    ....    LDRSB    r0,[sp,#3]
        0x0000c292:    2800        .(      CMP      r0,#0
        0x0000c294:    d40e        ..      BMI      0xc2b4 ; __NVIC_EnableIRQ + 44
        0x0000c296:    e7ff        ..      B        0xc298 ; __NVIC_EnableIRQ + 16
        0x0000c298:    f99d1003    ....    LDRSB    r1,[sp,#3]
        0x0000c29c:    f001021f    ....    AND      r2,r1,#0x1f
        0x0000c2a0:    2001        .       MOVS     r0,#1
        0x0000c2a2:    4090        .@      LSLS     r0,r0,r2
        0x0000c2a4:    094a        J.      LSRS     r2,r1,#5
        0x0000c2a6:    f24e1100    N...    MOVW     r1,#0xe100
        0x0000c2aa:    f2ce0100    ....    MOVT     r1,#0xe000
        0x0000c2ae:    f8410022    A.".    STR      r0,[r1,r2,LSL #2]
        0x0000c2b2:    e7ff        ..      B        0xc2b4 ; __NVIC_EnableIRQ + 44
        0x0000c2b4:    b001        ..      ADD      sp,sp,#4
        0x0000c2b6:    4770        pG      BX       lr
    am_bsp_low_power_init
        0x0000c2b8:    b570        p.      PUSH     {r4-r6,lr}
        0x0000c2ba:    f001f86f    ..o.    BL       am_hal_pwrctrl_low_power_init ; 0xd39c
        0x0000c2be:    f001fd35    ..5.    BL       am_hal_rtc_osc_disable ; 0xdd2c
        0x0000c2c2:    f64f2078    O.x     MOV      r0,#0xfa78
        0x0000c2c6:    f2410600    A...    MOVW     r6,#0x1000
        0x0000c2ca:    f2c00000    ....    MOVT     r0,#0
        0x0000c2ce:    f2c10600    ....    MOVT     r6,#0x1000
        0x0000c2d2:    6804        .h      LDR      r4,[r0,#0]
        0x0000c2d4:    6835        5h      LDR      r5,[r6,#0]
        0x0000c2d6:    4621        !F      MOV      r1,r4
        0x0000c2d8:    4628        (F      MOV      r0,r5
        0x0000c2da:    f000fe91    ....    BL       am_hal_gpio_pinconfig ; 0xd000
        0x0000c2de:    4628        (F      MOV      r0,r5
        0x0000c2e0:    2103        .!      MOVS     r1,#3
        0x0000c2e2:    f000fff5    ....    BL       am_hal_gpio_state_write ; 0xd2d0
        0x0000c2e6:    4628        (F      MOV      r0,r5
        0x0000c2e8:    2100        .!      MOVS     r1,#0
        0x0000c2ea:    f000fff1    ....    BL       am_hal_gpio_state_write ; 0xd2d0
        0x0000c2ee:    68b5        .h      LDR      r5,[r6,#8]
        0x0000c2f0:    4621        !F      MOV      r1,r4
        0x0000c2f2:    4628        (F      MOV      r0,r5
        0x0000c2f4:    f000fe84    ....    BL       am_hal_gpio_pinconfig ; 0xd000
        0x0000c2f8:    4628        (F      MOV      r0,r5
        0x0000c2fa:    2103        .!      MOVS     r1,#3
        0x0000c2fc:    f000ffe8    ....    BL       am_hal_gpio_state_write ; 0xd2d0
        0x0000c300:    4628        (F      MOV      r0,r5
        0x0000c302:    2100        .!      MOVS     r1,#0
        0x0000c304:    f000ffe4    ....    BL       am_hal_gpio_state_write ; 0xd2d0
        0x0000c308:    6935        5i      LDR      r5,[r6,#0x10]
        0x0000c30a:    4621        !F      MOV      r1,r4
        0x0000c30c:    4628        (F      MOV      r0,r5
        0x0000c30e:    f000fe77    ..w.    BL       am_hal_gpio_pinconfig ; 0xd000
        0x0000c312:    4628        (F      MOV      r0,r5
        0x0000c314:    2103        .!      MOVS     r1,#3
        0x0000c316:    f000ffdb    ....    BL       am_hal_gpio_state_write ; 0xd2d0
        0x0000c31a:    4628        (F      MOV      r0,r5
        0x0000c31c:    2100        .!      MOVS     r1,#0
        0x0000c31e:    f000ffd7    ....    BL       am_hal_gpio_state_write ; 0xd2d0
        0x0000c322:    69b5        .i      LDR      r5,[r6,#0x18]
        0x0000c324:    4621        !F      MOV      r1,r4
        0x0000c326:    4628        (F      MOV      r0,r5
        0x0000c328:    f000fe6a    ..j.    BL       am_hal_gpio_pinconfig ; 0xd000
        0x0000c32c:    4628        (F      MOV      r0,r5
        0x0000c32e:    2103        .!      MOVS     r1,#3
        0x0000c330:    f000ffce    ....    BL       am_hal_gpio_state_write ; 0xd2d0
        0x0000c334:    4628        (F      MOV      r0,r5
        0x0000c336:    2100        .!      MOVS     r1,#0
        0x0000c338:    f000ffca    ....    BL       am_hal_gpio_state_write ; 0xd2d0
        0x0000c33c:    6a35        5j      LDR      r5,[r6,#0x20]
        0x0000c33e:    4621        !F      MOV      r1,r4
        0x0000c340:    4628        (F      MOV      r0,r5
        0x0000c342:    f000fe5d    ..].    BL       am_hal_gpio_pinconfig ; 0xd000
        0x0000c346:    4628        (F      MOV      r0,r5
        0x0000c348:    2103        .!      MOVS     r1,#3
        0x0000c34a:    f000ffc1    ....    BL       am_hal_gpio_state_write ; 0xd2d0
        0x0000c34e:    4628        (F      MOV      r0,r5
        0x0000c350:    2100        .!      MOVS     r1,#0
        0x0000c352:    e8bd4070    ..p@    POP      {r4-r6,lr}
        0x0000c356:    f000bfbb    ....    B.W      am_hal_gpio_state_write ; 0xd2d0
        0x0000c35a:    0000        ..      MOVS     r0,r0
    am_bsp_uart_printf_disable
        0x0000c35c:    b510        ..      PUSH     {r4,lr}
        0x0000c35e:    f2410488    A...    MOV      r4,#0x1088
        0x0000c362:    f2c10400    ....    MOVT     r4,#0x1000
        0x0000c366:    6860        `h      LDR      r0,[r4,#4]
        0x0000c368:    f001fff8    ....    BL       am_hal_uart_tx_flush ; 0xe35c
        0x0000c36c:    2000        .       MOVS     r0,#0
        0x0000c36e:    f002f887    ....    BL       am_util_stdio_printf_init ; 0xe480
        0x0000c372:    6860        `h      LDR      r0,[r4,#4]
        0x0000c374:    2102        .!      MOVS     r1,#2
        0x0000c376:    2200        ."      MOVS     r2,#0
        0x0000c378:    f001feb4    ....    BL       am_hal_uart_power_control ; 0xe0e4
        0x0000c37c:    6860        `h      LDR      r0,[r4,#4]
        0x0000c37e:    f001fe73    ..s.    BL       am_hal_uart_deinitialize ; 0xe068
        0x0000c382:    f64f2074    O.t     MOV      r0,#0xfa74
        0x0000c386:    f2c00000    ....    MOVT     r0,#0
        0x0000c38a:    6804        .h      LDR      r4,[r0,#0]
        0x0000c38c:    2016        .       MOVS     r0,#0x16
        0x0000c38e:    4621        !F      MOV      r1,r4
        0x0000c390:    f000fe36    ..6.    BL       am_hal_gpio_pinconfig ; 0xd000
        0x0000c394:    2017        .       MOVS     r0,#0x17
        0x0000c396:    4621        !F      MOV      r1,r4
        0x0000c398:    e8bd4010    ...@    POP      {r4,lr}
        0x0000c39c:    f000be30    ..0.    B.W      am_hal_gpio_pinconfig ; 0xd000
    am_bsp_uart_printf_enable
        0x0000c3a0:    b510        ..      PUSH     {r4,lr}
        0x0000c3a2:    f2410488    A...    MOV      r4,#0x1088
        0x0000c3a6:    f2c10400    ....    MOVT     r4,#0x1000
        0x0000c3aa:    2002        .       MOVS     r0,#2
        0x0000c3ac:    6020         `      STR      r0,[r4,#0]
        0x0000c3ae:    1d21        !.      ADDS     r1,r4,#4
        0x0000c3b0:    2000        .       MOVS     r0,#0
        0x0000c3b2:    f001fe6d    ..m.    BL       am_hal_uart_initialize ; 0xe090
        0x0000c3b6:    6860        `h      LDR      r0,[r4,#4]
        0x0000c3b8:    2100        .!      MOVS     r1,#0
        0x0000c3ba:    2200        ."      MOVS     r2,#0
        0x0000c3bc:    f001fe92    ....    BL       am_hal_uart_power_control ; 0xe0e4
        0x0000c3c0:    6860        `h      LDR      r0,[r4,#4]
        0x0000c3c2:    f64f2184    O..!    MOV      r1,#0xfa84
        0x0000c3c6:    f2c00100    ....    MOVT     r1,#0
        0x0000c3ca:    f001fd93    ....    BL       am_hal_uart_configure ; 0xdef4
        0x0000c3ce:    f64f2070    O.p     MOV      r0,#0xfa70
        0x0000c3d2:    f2c00000    ....    MOVT     r0,#0
        0x0000c3d6:    6801        .h      LDR      r1,[r0,#0]
        0x0000c3d8:    2016        .       MOVS     r0,#0x16
        0x0000c3da:    f000fe11    ....    BL       am_hal_gpio_pinconfig ; 0xd000
        0x0000c3de:    f64f206c    O.l     MOV      r0,#0xfa6c
        0x0000c3e2:    f2c00000    ....    MOVT     r0,#0
        0x0000c3e6:    6801        .h      LDR      r1,[r0,#0]
        0x0000c3e8:    2017        .       MOVS     r0,#0x17
        0x0000c3ea:    f000fe09    ....    BL       am_hal_gpio_pinconfig ; 0xd000
        0x0000c3ee:    f24c4001    L..@    MOV      r0,#0xc401
        0x0000c3f2:    f2c00000    ....    MOVT     r0,#0
        0x0000c3f6:    e8bd4010    ...@    POP      {r4,lr}
        0x0000c3fa:    f002b841    ..A.    B.W      am_util_stdio_printf_init ; 0xe480
        0x0000c3fe:    0000        ..      MOVS     r0,r0
    am_bsp_uart_string_print
        0x0000c400:    b510        ..      PUSH     {r4,lr}
        0x0000c402:    b086        ..      SUB      sp,sp,#0x18
        0x0000c404:    2100        .!      MOVS     r1,#0
        0x0000c406:    f04f34ff    O..4    MOV      r4,#0xffffffff
        0x0000c40a:    9105        ..      STR      r1,[sp,#0x14]
        0x0000c40c:    1901        ..      ADDS     r1,r0,r4
        0x0000c40e:    784a        Jx      LDRB     r2,[r1,#1]
        0x0000c410:    b142        B.      CBZ      r2,0xc424 ; am_bsp_uart_string_print + 36
        0x0000c412:    788a        .x      LDRB     r2,[r1,#2]
        0x0000c414:    b142        B.      CBZ      r2,0xc428 ; am_bsp_uart_string_print + 40
        0x0000c416:    78ca        .x      LDRB     r2,[r1,#3]
        0x0000c418:    b142        B.      CBZ      r2,0xc42c ; am_bsp_uart_string_print + 44
        0x0000c41a:    7909        .y      LDRB     r1,[r1,#4]
        0x0000c41c:    3404        .4      ADDS     r4,#4
        0x0000c41e:    2900        .)      CMP      r1,#0
        0x0000c420:    d1f4        ..      BNE      0xc40c ; am_bsp_uart_string_print + 12
        0x0000c422:    e004        ..      B        0xc42e ; am_bsp_uart_string_print + 46
        0x0000c424:    3401        .4      ADDS     r4,#1
        0x0000c426:    e002        ..      B        0xc42e ; am_bsp_uart_string_print + 46
        0x0000c428:    3402        .4      ADDS     r4,#2
        0x0000c42a:    e000        ..      B        0xc42e ; am_bsp_uart_string_print + 46
        0x0000c42c:    3403        .4      ADDS     r4,#3
        0x0000c42e:    2100        .!      MOVS     r1,#0
        0x0000c430:    e9cd1000    ....    STRD     r1,r0,[sp,#0]
        0x0000c434:    f04f30ff    O..0    MOV      r0,#0xffffffff
        0x0000c438:    9003        ..      STR      r0,[sp,#0xc]
        0x0000c43a:    f2410088    A...    MOV      r0,#0x1088
        0x0000c43e:    f2c10000    ....    MOVT     r0,#0x1000
        0x0000c442:    a905        ..      ADD      r1,sp,#0x14
        0x0000c444:    6840        @h      LDR      r0,[r0,#4]
        0x0000c446:    9104        ..      STR      r1,[sp,#0x10]
        0x0000c448:    4669        iF      MOV      r1,sp
        0x0000c44a:    9402        ..      STR      r4,[sp,#8]
        0x0000c44c:    f001fed2    ....    BL       am_hal_uart_transfer ; 0xe1f4
        0x0000c450:    9805        ..      LDR      r0,[sp,#0x14]
        0x0000c452:    42a0        .B      CMP      r0,r4
        0x0000c454:    bf04        ..      ITT      EQ
        0x0000c456:    b006        ..      ADDEQ    sp,sp,#0x18
        0x0000c458:    bd10        ..      POPEQ    {r4,pc}
        0x0000c45a:    bf00        ..      NOP      
        0x0000c45c:    e7fe        ..      B        0xc45c ; am_bsp_uart_string_print + 92
        0x0000c45e:    0000        ..      MOVS     r0,r0
    am_devices_led_array_init
        0x0000c460:    b580        ..      PUSH     {r7,lr}
        0x0000c462:    b084        ..      SUB      sp,sp,#0x10
        0x0000c464:    9003        ..      STR      r0,[sp,#0xc]
        0x0000c466:    9102        ..      STR      r1,[sp,#8]
        0x0000c468:    9803        ..      LDR      r0,[sp,#0xc]
        0x0000c46a:    b120         .      CBZ      r0,0xc476 ; am_devices_led_array_init + 22
        0x0000c46c:    e7ff        ..      B        0xc46e ; am_devices_led_array_init + 14
        0x0000c46e:    9802        ..      LDR      r0,[sp,#8]
        0x0000c470:    2820         (      CMP      r0,#0x20
        0x0000c472:    d301        ..      BCC      0xc478 ; am_devices_led_array_init + 24
        0x0000c474:    e7ff        ..      B        0xc476 ; am_devices_led_array_init + 22
        0x0000c476:    e012        ..      B        0xc49e ; am_devices_led_array_init + 62
        0x0000c478:    2000        .       MOVS     r0,#0
        0x0000c47a:    9001        ..      STR      r0,[sp,#4]
        0x0000c47c:    e7ff        ..      B        0xc47e ; am_devices_led_array_init + 30
        0x0000c47e:    9801        ..      LDR      r0,[sp,#4]
        0x0000c480:    9902        ..      LDR      r1,[sp,#8]
        0x0000c482:    4288        .B      CMP      r0,r1
        0x0000c484:    d20b        ..      BCS      0xc49e ; am_devices_led_array_init + 62
        0x0000c486:    e7ff        ..      B        0xc488 ; am_devices_led_array_init + 40
        0x0000c488:    9803        ..      LDR      r0,[sp,#0xc]
        0x0000c48a:    9901        ..      LDR      r1,[sp,#4]
        0x0000c48c:    eb0000c1    ....    ADD      r0,r0,r1,LSL #3
        0x0000c490:    f000f808    ....    BL       am_devices_led_init ; 0xc4a4
        0x0000c494:    e7ff        ..      B        0xc496 ; am_devices_led_array_init + 54
        0x0000c496:    9801        ..      LDR      r0,[sp,#4]
        0x0000c498:    3001        .0      ADDS     r0,#1
        0x0000c49a:    9001        ..      STR      r0,[sp,#4]
        0x0000c49c:    e7ef        ..      B        0xc47e ; am_devices_led_array_init + 30
        0x0000c49e:    b004        ..      ADD      sp,sp,#0x10
        0x0000c4a0:    bd80        ..      POP      {r7,pc}
        0x0000c4a2:    0000        ..      MOVS     r0,r0
    am_devices_led_init
        0x0000c4a4:    b580        ..      PUSH     {r7,lr}
        0x0000c4a6:    b082        ..      SUB      sp,sp,#8
        0x0000c4a8:    9001        ..      STR      r0,[sp,#4]
        0x0000c4aa:    9801        ..      LDR      r0,[sp,#4]
        0x0000c4ac:    b128        (.      CBZ      r0,0xc4ba ; am_devices_led_init + 22
        0x0000c4ae:    e7ff        ..      B        0xc4b0 ; am_devices_led_init + 12
        0x0000c4b0:    9801        ..      LDR      r0,[sp,#4]
        0x0000c4b2:    6800        .h      LDR      r0,[r0,#0]
        0x0000c4b4:    284a        J(      CMP      r0,#0x4a
        0x0000c4b6:    d301        ..      BCC      0xc4bc ; am_devices_led_init + 24
        0x0000c4b8:    e7ff        ..      B        0xc4ba ; am_devices_led_init + 22
        0x0000c4ba:    e031        1.      B        0xc520 ; am_devices_led_init + 124
        0x0000c4bc:    9801        ..      LDR      r0,[sp,#4]
        0x0000c4be:    7900        .y      LDRB     r0,[r0,#4]
        0x0000c4c0:    0780        ..      LSLS     r0,r0,#30
        0x0000c4c2:    2800        .(      CMP      r0,#0
        0x0000c4c4:    d516        ..      BPL      0xc4f4 ; am_devices_led_init + 80
        0x0000c4c6:    e7ff        ..      B        0xc4c8 ; am_devices_led_init + 36
        0x0000c4c8:    9801        ..      LDR      r0,[sp,#4]
        0x0000c4ca:    6800        .h      LDR      r0,[r0,#0]
        0x0000c4cc:    f64f2178    O.x!    MOV      r1,#0xfa78
        0x0000c4d0:    f2c00100    ....    MOVT     r1,#0
        0x0000c4d4:    6809        .h      LDR      r1,[r1,#0]
        0x0000c4d6:    f000fd93    ....    BL       am_hal_gpio_pinconfig ; 0xd000
        0x0000c4da:    9801        ..      LDR      r0,[sp,#4]
        0x0000c4dc:    6800        .h      LDR      r0,[r0,#0]
        0x0000c4de:    2103        .!      MOVS     r1,#3
        0x0000c4e0:    f000fef6    ....    BL       am_hal_gpio_state_write ; 0xd2d0
        0x0000c4e4:    9901        ..      LDR      r1,[sp,#4]
        0x0000c4e6:    6808        .h      LDR      r0,[r1,#0]
        0x0000c4e8:    6849        Ih      LDR      r1,[r1,#4]
        0x0000c4ea:    f0010101    ....    AND      r1,r1,#1
        0x0000c4ee:    f000feef    ....    BL       am_hal_gpio_state_write ; 0xd2d0
        0x0000c4f2:    e015        ..      B        0xc520 ; am_devices_led_init + 124
        0x0000c4f4:    9801        ..      LDR      r0,[sp,#4]
        0x0000c4f6:    6800        .h      LDR      r0,[r0,#0]
        0x0000c4f8:    f64f217c    O.|!    MOV      r1,#0xfa7c
        0x0000c4fc:    f2c00100    ....    MOVT     r1,#0
        0x0000c500:    6809        .h      LDR      r1,[r1,#0]
        0x0000c502:    f000fd7d    ..}.    BL       am_hal_gpio_pinconfig ; 0xd000
        0x0000c506:    9801        ..      LDR      r0,[sp,#4]
        0x0000c508:    6800        .h      LDR      r0,[r0,#0]
        0x0000c50a:    2103        .!      MOVS     r1,#3
        0x0000c50c:    f000fee0    ....    BL       am_hal_gpio_state_write ; 0xd2d0
        0x0000c510:    9901        ..      LDR      r1,[sp,#4]
        0x0000c512:    6808        .h      LDR      r0,[r1,#0]
        0x0000c514:    6849        Ih      LDR      r1,[r1,#4]
        0x0000c516:    f0010101    ....    AND      r1,r1,#1
        0x0000c51a:    f000fed9    ....    BL       am_hal_gpio_state_write ; 0xd2d0
        0x0000c51e:    e7ff        ..      B        0xc520 ; am_devices_led_init + 124
        0x0000c520:    b002        ..      ADD      sp,sp,#8
        0x0000c522:    bd80        ..      POP      {r7,pc}
    am_devices_led_off
        0x0000c524:    b580        ..      PUSH     {r7,lr}
        0x0000c526:    b082        ..      SUB      sp,sp,#8
        0x0000c528:    9001        ..      STR      r0,[sp,#4]
        0x0000c52a:    9100        ..      STR      r1,[sp,#0]
        0x0000c52c:    9801        ..      LDR      r0,[sp,#4]
        0x0000c52e:    b158        X.      CBZ      r0,0xc548 ; am_devices_led_off + 36
        0x0000c530:    e7ff        ..      B        0xc532 ; am_devices_led_off + 14
        0x0000c532:    9800        ..      LDR      r0,[sp,#0]
        0x0000c534:    281e        .(      CMP      r0,#0x1e
        0x0000c536:    d807        ..      BHI      0xc548 ; am_devices_led_off + 36
        0x0000c538:    e7ff        ..      B        0xc53a ; am_devices_led_off + 22
        0x0000c53a:    9801        ..      LDR      r0,[sp,#4]
        0x0000c53c:    9900        ..      LDR      r1,[sp,#0]
        0x0000c53e:    f8500031    P.1.    LDR      r0,[r0,r1,LSL #3]
        0x0000c542:    284a        J(      CMP      r0,#0x4a
        0x0000c544:    d301        ..      BCC      0xc54a ; am_devices_led_off + 38
        0x0000c546:    e7ff        ..      B        0xc548 ; am_devices_led_off + 36
        0x0000c548:    e01c        ..      B        0xc584 ; am_devices_led_off + 96
        0x0000c54a:    9801        ..      LDR      r0,[sp,#4]
        0x0000c54c:    9900        ..      LDR      r1,[sp,#0]
        0x0000c54e:    eb0000c1    ....    ADD      r0,r0,r1,LSL #3
        0x0000c552:    7900        .y      LDRB     r0,[r0,#4]
        0x0000c554:    0780        ..      LSLS     r0,r0,#30
        0x0000c556:    2800        .(      CMP      r0,#0
        0x0000c558:    d50c        ..      BPL      0xc574 ; am_devices_led_off + 80
        0x0000c55a:    e7ff        ..      B        0xc55c ; am_devices_led_off + 56
        0x0000c55c:    9801        ..      LDR      r0,[sp,#4]
        0x0000c55e:    9a00        ..      LDR      r2,[sp,#0]
        0x0000c560:    eb0001c2    ....    ADD      r1,r0,r2,LSL #3
        0x0000c564:    f8500032    P.2.    LDR      r0,[r0,r2,LSL #3]
        0x0000c568:    684a        Jh      LDR      r2,[r1,#4]
        0x0000c56a:    2101        .!      MOVS     r1,#1
        0x0000c56c:    4391        .C      BICS     r1,r1,r2
        0x0000c56e:    f000feaf    ....    BL       am_hal_gpio_state_write ; 0xd2d0
        0x0000c572:    e007        ..      B        0xc584 ; am_devices_led_off + 96
        0x0000c574:    9801        ..      LDR      r0,[sp,#4]
        0x0000c576:    9900        ..      LDR      r1,[sp,#0]
        0x0000c578:    f8500031    P.1.    LDR      r0,[r0,r1,LSL #3]
        0x0000c57c:    2103        .!      MOVS     r1,#3
        0x0000c57e:    f000fea7    ....    BL       am_hal_gpio_state_write ; 0xd2d0
        0x0000c582:    e7ff        ..      B        0xc584 ; am_devices_led_off + 96
        0x0000c584:    b002        ..      ADD      sp,sp,#8
        0x0000c586:    bd80        ..      POP      {r7,pc}
    am_devices_led_on
        0x0000c588:    b580        ..      PUSH     {r7,lr}
        0x0000c58a:    b082        ..      SUB      sp,sp,#8
        0x0000c58c:    9001        ..      STR      r0,[sp,#4]
        0x0000c58e:    9100        ..      STR      r1,[sp,#0]
        0x0000c590:    9801        ..      LDR      r0,[sp,#4]
        0x0000c592:    b158        X.      CBZ      r0,0xc5ac ; am_devices_led_on + 36
        0x0000c594:    e7ff        ..      B        0xc596 ; am_devices_led_on + 14
        0x0000c596:    9800        ..      LDR      r0,[sp,#0]
        0x0000c598:    281e        .(      CMP      r0,#0x1e
        0x0000c59a:    d807        ..      BHI      0xc5ac ; am_devices_led_on + 36
        0x0000c59c:    e7ff        ..      B        0xc59e ; am_devices_led_on + 22
        0x0000c59e:    9801        ..      LDR      r0,[sp,#4]
        0x0000c5a0:    9900        ..      LDR      r1,[sp,#0]
        0x0000c5a2:    f8500031    P.1.    LDR      r0,[r0,r1,LSL #3]
        0x0000c5a6:    284a        J(      CMP      r0,#0x4a
        0x0000c5a8:    d301        ..      BCC      0xc5ae ; am_devices_led_on + 38
        0x0000c5aa:    e7ff        ..      B        0xc5ac ; am_devices_led_on + 36
        0x0000c5ac:    e01c        ..      B        0xc5e8 ; am_devices_led_on + 96
        0x0000c5ae:    9801        ..      LDR      r0,[sp,#4]
        0x0000c5b0:    9900        ..      LDR      r1,[sp,#0]
        0x0000c5b2:    eb0000c1    ....    ADD      r0,r0,r1,LSL #3
        0x0000c5b6:    7900        .y      LDRB     r0,[r0,#4]
        0x0000c5b8:    0780        ..      LSLS     r0,r0,#30
        0x0000c5ba:    2800        .(      CMP      r0,#0
        0x0000c5bc:    d50c        ..      BPL      0xc5d8 ; am_devices_led_on + 80
        0x0000c5be:    e7ff        ..      B        0xc5c0 ; am_devices_led_on + 56
        0x0000c5c0:    9801        ..      LDR      r0,[sp,#4]
        0x0000c5c2:    9a00        ..      LDR      r2,[sp,#0]
        0x0000c5c4:    eb0001c2    ....    ADD      r1,r0,r2,LSL #3
        0x0000c5c8:    f8500032    P.2.    LDR      r0,[r0,r2,LSL #3]
        0x0000c5cc:    6849        Ih      LDR      r1,[r1,#4]
        0x0000c5ce:    f0010101    ....    AND      r1,r1,#1
        0x0000c5d2:    f000fe7d    ..}.    BL       am_hal_gpio_state_write ; 0xd2d0
        0x0000c5d6:    e007        ..      B        0xc5e8 ; am_devices_led_on + 96
        0x0000c5d8:    9801        ..      LDR      r0,[sp,#4]
        0x0000c5da:    9900        ..      LDR      r1,[sp,#0]
        0x0000c5dc:    f8500031    P.1.    LDR      r0,[r0,r1,LSL #3]
        0x0000c5e0:    2104        .!      MOVS     r1,#4
        0x0000c5e2:    f000fe75    ..u.    BL       am_hal_gpio_state_write ; 0xd2d0
        0x0000c5e6:    e7ff        ..      B        0xc5e8 ; am_devices_led_on + 96
        0x0000c5e8:    b002        ..      ADD      sp,sp,#8
        0x0000c5ea:    bd80        ..      POP      {r7,pc}
    am_devices_led_toggle
        0x0000c5ec:    b580        ..      PUSH     {r7,lr}
        0x0000c5ee:    b084        ..      SUB      sp,sp,#0x10
        0x0000c5f0:    9003        ..      STR      r0,[sp,#0xc]
        0x0000c5f2:    9102        ..      STR      r1,[sp,#8]
        0x0000c5f4:    9803        ..      LDR      r0,[sp,#0xc]
        0x0000c5f6:    b158        X.      CBZ      r0,0xc610 ; am_devices_led_toggle + 36
        0x0000c5f8:    e7ff        ..      B        0xc5fa ; am_devices_led_toggle + 14
        0x0000c5fa:    9802        ..      LDR      r0,[sp,#8]
        0x0000c5fc:    281e        .(      CMP      r0,#0x1e
        0x0000c5fe:    d807        ..      BHI      0xc610 ; am_devices_led_toggle + 36
        0x0000c600:    e7ff        ..      B        0xc602 ; am_devices_led_toggle + 22
        0x0000c602:    9803        ..      LDR      r0,[sp,#0xc]
        0x0000c604:    9902        ..      LDR      r1,[sp,#8]
        0x0000c606:    f8500031    P.1.    LDR      r0,[r0,r1,LSL #3]
        0x0000c60a:    284a        J(      CMP      r0,#0x4a
        0x0000c60c:    d301        ..      BCC      0xc612 ; am_devices_led_toggle + 38
        0x0000c60e:    e7ff        ..      B        0xc610 ; am_devices_led_toggle + 36
        0x0000c610:    e031        1.      B        0xc676 ; am_devices_led_toggle + 138
        0x0000c612:    9803        ..      LDR      r0,[sp,#0xc]
        0x0000c614:    9902        ..      LDR      r1,[sp,#8]
        0x0000c616:    eb0000c1    ....    ADD      r0,r0,r1,LSL #3
        0x0000c61a:    7900        .y      LDRB     r0,[r0,#4]
        0x0000c61c:    0780        ..      LSLS     r0,r0,#30
        0x0000c61e:    2800        .(      CMP      r0,#0
        0x0000c620:    d508        ..      BPL      0xc634 ; am_devices_led_toggle + 72
        0x0000c622:    e7ff        ..      B        0xc624 ; am_devices_led_toggle + 56
        0x0000c624:    9803        ..      LDR      r0,[sp,#0xc]
        0x0000c626:    9902        ..      LDR      r1,[sp,#8]
        0x0000c628:    f8500031    P.1.    LDR      r0,[r0,r1,LSL #3]
        0x0000c62c:    2102        .!      MOVS     r1,#2
        0x0000c62e:    f000fe4f    ..O.    BL       am_hal_gpio_state_write ; 0xd2d0
        0x0000c632:    e020         .      B        0xc676 ; am_devices_led_toggle + 138
        0x0000c634:    9803        ..      LDR      r0,[sp,#0xc]
        0x0000c636:    9902        ..      LDR      r1,[sp,#8]
        0x0000c638:    f8500031    P.1.    LDR      r0,[r0,r1,LSL #3]
        0x0000c63c:    2102        .!      MOVS     r1,#2
        0x0000c63e:    466a        jF      MOV      r2,sp
        0x0000c640:    f000fe14    ....    BL       am_hal_gpio_state_read ; 0xd26c
        0x0000c644:    9001        ..      STR      r0,[sp,#4]
        0x0000c646:    9801        ..      LDR      r0,[sp,#4]
        0x0000c648:    b9a0        ..      CBNZ     r0,0xc674 ; am_devices_led_toggle + 136
        0x0000c64a:    e7ff        ..      B        0xc64c ; am_devices_led_toggle + 96
        0x0000c64c:    9800        ..      LDR      r0,[sp,#0]
        0x0000c64e:    b140        @.      CBZ      r0,0xc662 ; am_devices_led_toggle + 118
        0x0000c650:    e7ff        ..      B        0xc652 ; am_devices_led_toggle + 102
        0x0000c652:    9803        ..      LDR      r0,[sp,#0xc]
        0x0000c654:    9902        ..      LDR      r1,[sp,#8]
        0x0000c656:    f8500031    P.1.    LDR      r0,[r0,r1,LSL #3]
        0x0000c65a:    2103        .!      MOVS     r1,#3
        0x0000c65c:    f000fe38    ..8.    BL       am_hal_gpio_state_write ; 0xd2d0
        0x0000c660:    e007        ..      B        0xc672 ; am_devices_led_toggle + 134
        0x0000c662:    9803        ..      LDR      r0,[sp,#0xc]
        0x0000c664:    9902        ..      LDR      r1,[sp,#8]
        0x0000c666:    f8500031    P.1.    LDR      r0,[r0,r1,LSL #3]
        0x0000c66a:    2104        .!      MOVS     r1,#4
        0x0000c66c:    f000fe30    ..0.    BL       am_hal_gpio_state_write ; 0xd2d0
        0x0000c670:    e7ff        ..      B        0xc672 ; am_devices_led_toggle + 134
        0x0000c672:    e7ff        ..      B        0xc674 ; am_devices_led_toggle + 136
        0x0000c674:    e7ff        ..      B        0xc676 ; am_devices_led_toggle + 138
        0x0000c676:    b004        ..      ADD      sp,sp,#0x10
        0x0000c678:    bd80        ..      POP      {r7,pc}
        0x0000c67a:    0000        ..      MOVS     r0,r0
    am_gpio_isr
        0x0000c67c:    b580        ..      PUSH     {r7,lr}
        0x0000c67e:    b086        ..      SUB      sp,sp,#0x18
        0x0000c680:    20c8        .       MOVS     r0,#0xc8
        0x0000c682:    f001feb7    ....    BL       am_util_delay_ms ; 0xe3f4
        0x0000c686:    a803        ..      ADD      r0,sp,#0xc
        0x0000c688:    9002        ..      STR      r0,[sp,#8]
        0x0000c68a:    2000        .       MOVS     r0,#0
        0x0000c68c:    9001        ..      STR      r0,[sp,#4]
        0x0000c68e:    9005        ..      STR      r0,[sp,#0x14]
        0x0000c690:    9004        ..      STR      r0,[sp,#0x10]
        0x0000c692:    9003        ..      STR      r0,[sp,#0xc]
        0x0000c694:    9802        ..      LDR      r0,[sp,#8]
        0x0000c696:    2110        .!      MOVS     r1,#0x10
        0x0000c698:    f7fffde6    ....    BL       AM_HAL_GPIO_MASKBIT ; 0xc268
        0x0000c69c:    f000fc60    ..`.    BL       am_hal_gpio_interrupt_clear ; 0xcf60
        0x0000c6a0:    9901        ..      LDR      r1,[sp,#4]
        0x0000c6a2:    f2410000    A...    MOVW     r0,#0x1000
        0x0000c6a6:    f2c10000    ....    MOVT     r0,#0x1000
        0x0000c6aa:    f7ffff9f    ....    BL       am_devices_led_toggle ; 0xc5ec
        0x0000c6ae:    b006        ..      ADD      sp,sp,#0x18
        0x0000c6b0:    bd80        ..      POP      {r7,pc}
        0x0000c6b2:    0000        ..      MOVS     r0,r0
    am_hal_burst_ldo_charge
        0x0000c6b4:    b510        ..      PUSH     {r4,lr}
        0x0000c6b6:    f6430038    C.8.    MOV      r0,#0x3838
        0x0000c6ba:    f2c50002    ....    MOVT     r0,#0x5002
        0x0000c6be:    6800        .h      LDR      r0,[r0,#0]
        0x0000c6c0:    0700        ..      LSLS     r0,r0,#28
        0x0000c6c2:    bf48        H.      IT       MI
        0x0000c6c4:    bd10        ..      POPMI    {r4,pc}
        0x0000c6c6:    2464        d$      MOVS     r4,#0x64
        0x0000c6c8:    f2c40402    ....    MOVT     r4,#0x4002
        0x0000c6cc:    f8540c04    T...    LDR      r0,[r4,#-4]
        0x0000c6d0:    f0200080     ...    BIC      r0,r0,#0x80
        0x0000c6d4:    f8440c04    D...    STR      r0,[r4,#-4]
        0x0000c6d8:    f8540c04    T...    LDR      r0,[r4,#-4]
        0x0000c6dc:    f0200020     . .    BIC      r0,r0,#0x20
        0x0000c6e0:    f8440c04    D...    STR      r0,[r4,#-4]
        0x0000c6e4:    f8540c04    T...    LDR      r0,[r4,#-4]
        0x0000c6e8:    f0400040    @.@.    ORR      r0,r0,#0x40
        0x0000c6ec:    f8440c04    D...    STR      r0,[r4,#-4]
        0x0000c6f0:    f8540c04    T...    LDR      r0,[r4,#-4]
        0x0000c6f4:    f4407080    @..p    ORR      r0,r0,#0x100
        0x0000c6f8:    f8440c04    D...    STR      r0,[r4,#-4]
        0x0000c6fc:    f2471000    G...    MOVW     r0,#0x7100
        0x0000c700:    f2c00002    ....    MOVT     r0,#2
        0x0000c704:    f000fba0    ....    BL       am_hal_flash_delay ; 0xce48
        0x0000c708:    6820         h      LDR      r0,[r4,#0]
        0x0000c70a:    f0400008    @...    ORR      r0,r0,#8
        0x0000c70e:    6020         `      STR      r0,[r4,#0]
        0x0000c710:    6820         h      LDR      r0,[r4,#0]
        0x0000c712:    f0400001    @...    ORR      r0,r0,#1
        0x0000c716:    6020         `      STR      r0,[r4,#0]
        0x0000c718:    6820         h      LDR      r0,[r4,#0]
        0x0000c71a:    f0400004    @...    ORR      r0,r0,#4
        0x0000c71e:    6020         `      STR      r0,[r4,#0]
        0x0000c720:    6820         h      LDR      r0,[r4,#0]
        0x0000c722:    f0200002     ...    BIC      r0,r0,#2
        0x0000c726:    6020         `      STR      r0,[r4,#0]
        0x0000c728:    6820         h      LDR      r0,[r4,#0]
        0x0000c72a:    f0400010    @...    ORR      r0,r0,#0x10
        0x0000c72e:    6020         `      STR      r0,[r4,#0]
        0x0000c730:    2020                MOVS     r0,#0x20
        0x0000c732:    f000fb89    ....    BL       am_hal_flash_delay ; 0xce48
        0x0000c736:    6820         h      LDR      r0,[r4,#0]
        0x0000c738:    f0400002    @...    ORR      r0,r0,#2
        0x0000c73c:    6020         `      STR      r0,[r4,#0]
        0x0000c73e:    f44f40fa    O..@    MOV      r0,#0x7d00
        0x0000c742:    f000fb81    ....    BL       am_hal_flash_delay ; 0xce48
        0x0000c746:    6820         h      LDR      r0,[r4,#0]
        0x0000c748:    f0200001     ...    BIC      r0,r0,#1
        0x0000c74c:    6020         `      STR      r0,[r4,#0]
        0x0000c74e:    6820         h      LDR      r0,[r4,#0]
        0x0000c750:    f0200004     ...    BIC      r0,r0,#4
        0x0000c754:    6020         `      STR      r0,[r4,#0]
        0x0000c756:    6820         h      LDR      r0,[r4,#0]
        0x0000c758:    f0200002     ...    BIC      r0,r0,#2
        0x0000c75c:    6020         `      STR      r0,[r4,#0]
        0x0000c75e:    f8540c04    T...    LDR      r0,[r4,#-4]
        0x0000c762:    f0200040     .@.    BIC      r0,r0,#0x40
        0x0000c766:    f8440c04    D...    STR      r0,[r4,#-4]
        0x0000c76a:    f8540c04    T...    LDR      r0,[r4,#-4]
        0x0000c76e:    f4207080     ..p    BIC      r0,r0,#0x100
        0x0000c772:    f8440c04    D...    STR      r0,[r4,#-4]
        0x0000c776:    bd10        ..      POP      {r4,pc}
    am_hal_burst_ldo_patch_check
        0x0000c778:    f6430038    C.8.    MOV      r0,#0x3838
        0x0000c77c:    f2c50002    ....    MOVT     r0,#0x5002
        0x0000c780:    6800        .h      LDR      r0,[r0,#0]
        0x0000c782:    2101        .!      MOVS     r1,#1
        0x0000c784:    f0000008    ....    AND      r0,r0,#8
        0x0000c788:    ea8100d0    ....    EOR      r0,r1,r0,LSR #3
        0x0000c78c:    4770        pG      BX       lr
        0x0000c78e:    0000        ..      MOVS     r0,r0
    am_hal_burst_mode_disable
        0x0000c790:    b570        p.      PUSH     {r4-r6,lr}
        0x0000c792:    b082        ..      SUB      sp,sp,#8
        0x0000c794:    f2411560    A.`.    MOVW     r5,#0x1160
        0x0000c798:    f2c10500    ....    MOVT     r5,#0x1000
        0x0000c79c:    7829        )x      LDRB     r1,[r5,#0]
        0x0000c79e:    4604        .F      MOV      r4,r0
        0x0000c7a0:    b311        ..      CBZ      r1,0xc7e8 ; am_hal_burst_mode_disable + 88
        0x0000c7a2:    f2440534    D.4.    MOV      r5,#0x4034
        0x0000c7a6:    f2c40500    ....    MOVT     r5,#0x4000
        0x0000c7aa:    f000fdeb    ....    BL       am_hal_interrupt_master_disable ; 0xd384
        0x0000c7ae:    9001        ..      STR      r0,[sp,#4]
        0x0000c7b0:    4628        (F      MOV      r0,r5
        0x0000c7b2:    2100        .!      MOVS     r1,#0
        0x0000c7b4:    f000fbbe    ....    BL       am_hal_flash_store_ui32 ; 0xcf34
        0x0000c7b8:    9801        ..      LDR      r0,[sp,#4]
        0x0000c7ba:    f000fdeb    ....    BL       am_hal_interrupt_master_set ; 0xd394
        0x0000c7be:    f2410028    A.(.    MOV      r0,#0x1028
        0x0000c7c2:    f2c40002    ....    MOVT     r0,#0x4002
        0x0000c7c6:    6801        .h      LDR      r1,[r0,#0]
        0x0000c7c8:    2601        .&      MOVS     r6,#1
        0x0000c7ca:    f0214100    !..A    BIC      r1,r1,#0x80000000
        0x0000c7ce:    6001        .`      STR      r1,[r0,#0]
        0x0000c7d0:    f2427010    B..p    MOV      r0,#0x2710
        0x0000c7d4:    4629        )F      MOV      r1,r5
        0x0000c7d6:    2204        ."      MOVS     r2,#4
        0x0000c7d8:    2300        .#      MOVS     r3,#0
        0x0000c7da:    9600        ..      STR      r6,[sp,#0]
        0x0000c7dc:    f000fb4a    ..J.    BL       am_hal_flash_delay_status_check ; 0xce74
        0x0000c7e0:    b160        `.      CBZ      r0,0xc7fc ; am_hal_burst_mode_disable + 108
        0x0000c7e2:    7026        &p      STRB     r6,[r4,#0]
        0x0000c7e4:    b002        ..      ADD      sp,sp,#8
        0x0000c7e6:    bd70        p.      POP      {r4-r6,pc}
        0x0000c7e8:    b184        ..      CBZ      r4,0xc80c ; am_hal_burst_mode_disable + 124
        0x0000c7ea:    2001        .       MOVS     r0,#1
        0x0000c7ec:    7028        (p      STRB     r0,[r5,#0]
        0x0000c7ee:    4620         F      MOV      r0,r4
        0x0000c7f0:    f7ffffce    ....    BL       am_hal_burst_mode_disable ; 0xc790
        0x0000c7f4:    2100        .!      MOVS     r1,#0
        0x0000c7f6:    7029        )p      STRB     r1,[r5,#0]
        0x0000c7f8:    e009        ..      B        0xc80e ; am_hal_burst_mode_disable + 126
        0x0000c7fa:    bf00        ..      NOP      
        0x0000c7fc:    6828        (h      LDR      r0,[r5,#0]
        0x0000c7fe:    ea260090    &...    BIC      r0,r6,r0,LSR #2
        0x0000c802:    7020         p      STRB     r0,[r4,#0]
        0x0000c804:    2000        .       MOVS     r0,#0
        0x0000c806:    b002        ..      ADD      sp,sp,#8
        0x0000c808:    bd70        p.      POP      {r4-r6,pc}
        0x0000c80a:    bf00        ..      NOP      
        0x0000c80c:    2002        .       MOVS     r0,#2
        0x0000c80e:    f6430138    C.8.    MOV      r1,#0x3838
        0x0000c812:    f2c50102    ....    MOVT     r1,#0x5002
        0x0000c816:    6809        .h      LDR      r1,[r1,#0]
        0x0000c818:    0709        ..      LSLS     r1,r1,#28
        0x0000c81a:    d4f4        ..      BMI      0xc806 ; am_hal_burst_mode_disable + 118
        0x0000c81c:    2164        d!      MOVS     r1,#0x64
        0x0000c81e:    f2c40102    ....    MOVT     r1,#0x4002
        0x0000c822:    680a        .h      LDR      r2,[r1,#0]
        0x0000c824:    f0220204    "...    BIC      r2,r2,#4
        0x0000c828:    600a        .`      STR      r2,[r1,#0]
        0x0000c82a:    680a        .h      LDR      r2,[r1,#0]
        0x0000c82c:    f0220202    "...    BIC      r2,r2,#2
        0x0000c830:    600a        .`      STR      r2,[r1,#0]
        0x0000c832:    f8d12fc0    .../    LDR      r2,[r1,#0xfc0]
        0x0000c836:    f0220280    "...    BIC      r2,r2,#0x80
        0x0000c83a:    f8c12fc0    .../    STR      r2,[r1,#0xfc0]
        0x0000c83e:    b002        ..      ADD      sp,sp,#8
        0x0000c840:    bd70        p.      POP      {r4-r6,pc}
        0x0000c842:    0000        ..      MOVS     r0,r0
    am_hal_burst_mode_enable
        0x0000c844:    b570        p.      PUSH     {r4-r6,lr}
        0x0000c846:    b082        ..      SUB      sp,sp,#8
        0x0000c848:    f2410192    A...    MOV      r1,#0x1092
        0x0000c84c:    f2c10100    ....    MOVT     r1,#0x1000
        0x0000c850:    784a        Jx      LDRB     r2,[r1,#1]
        0x0000c852:    4604        .F      MOV      r4,r0
        0x0000c854:    b1b2        ..      CBZ      r2,0xc884 ; am_hal_burst_mode_enable + 64
        0x0000c856:    7808        .x      LDRB     r0,[r1,#0]
        0x0000c858:    b1d0        ..      CBZ      r0,0xc890 ; am_hal_burst_mode_enable + 76
        0x0000c85a:    f2440534    D.4.    MOV      r5,#0x4034
        0x0000c85e:    f2c40500    ....    MOVT     r5,#0x4000
        0x0000c862:    6828        (h      LDR      r0,[r5,#0]
        0x0000c864:    2601        .&      MOVS     r6,#1
        0x0000c866:    f0400001    @...    ORR      r0,r0,#1
        0x0000c86a:    6028        (`      STR      r0,[r5,#0]
        0x0000c86c:    f2427010    B..p    MOV      r0,#0x2710
        0x0000c870:    4629        )F      MOV      r1,r5
        0x0000c872:    2204        ."      MOVS     r2,#4
        0x0000c874:    2304        .#      MOVS     r3,#4
        0x0000c876:    9600        ..      STR      r6,[sp,#0]
        0x0000c878:    f000fafc    ....    BL       am_hal_flash_delay_status_check ; 0xce74
        0x0000c87c:    b170        p.      CBZ      r0,0xc89c ; am_hal_burst_mode_enable + 88
        0x0000c87e:    7026        &p      STRB     r6,[r4,#0]
        0x0000c880:    b002        ..      ADD      sp,sp,#8
        0x0000c882:    bd70        p.      POP      {r4-r6,pc}
        0x0000c884:    4620         F      MOV      r0,r4
        0x0000c886:    b002        ..      ADD      sp,sp,#8
        0x0000c888:    e8bd4070    ..p@    POP      {r4-r6,lr}
        0x0000c88c:    f000b816    ....    B.W      am_hal_burst_mode_enable_w_manual_sequence ; 0xc8bc
        0x0000c890:    2001        .       MOVS     r0,#1
        0x0000c892:    7020         p      STRB     r0,[r4,#0]
        0x0000c894:    2007        .       MOVS     r0,#7
        0x0000c896:    b002        ..      ADD      sp,sp,#8
        0x0000c898:    bd70        p.      POP      {r4-r6,pc}
        0x0000c89a:    bf00        ..      NOP      
        0x0000c89c:    6828        (h      LDR      r0,[r5,#0]
        0x0000c89e:    0780        ..      LSLS     r0,r0,#30
        0x0000c8a0:    d404        ..      BMI      0xc8ac ; am_hal_burst_mode_enable + 104
        0x0000c8a2:    2001        .       MOVS     r0,#1
        0x0000c8a4:    7020         p      STRB     r0,[r4,#0]
        0x0000c8a6:    b002        ..      ADD      sp,sp,#8
        0x0000c8a8:    bd70        p.      POP      {r4-r6,pc}
        0x0000c8aa:    bf00        ..      NOP      
        0x0000c8ac:    6828        (h      LDR      r0,[r5,#0]
        0x0000c8ae:    2101        .!      MOVS     r1,#1
        0x0000c8b0:    ea210090    !...    BIC      r0,r1,r0,LSR #2
        0x0000c8b4:    7020         p      STRB     r0,[r4,#0]
        0x0000c8b6:    2000        .       MOVS     r0,#0
        0x0000c8b8:    b002        ..      ADD      sp,sp,#8
        0x0000c8ba:    bd70        p.      POP      {r4-r6,pc}
    am_hal_burst_mode_enable_w_manual_sequence
        0x0000c8bc:    e92d43f0    -..C    PUSH     {r4-r9,lr}
        0x0000c8c0:    b083        ..      SUB      sp,sp,#0xc
        0x0000c8c2:    f2410892    A...    MOV      r8,#0x1092
        0x0000c8c6:    f2c10800    ....    MOVT     r8,#0x1000
        0x0000c8ca:    f8981000    ....    LDRB     r1,[r8,#0]
        0x0000c8ce:    4604        .F      MOV      r4,r0
        0x0000c8d0:    2900        .)      CMP      r1,#0
        0x0000c8d2:    d04d        M.      BEQ      0xc970 ; am_hal_burst_mode_enable_w_manual_sequence + 180
        0x0000c8d4:    f6430038    C.8.    MOV      r0,#0x3838
        0x0000c8d8:    f2c50002    ....    MOVT     r0,#0x5002
        0x0000c8dc:    6800        .h      LDR      r0,[r0,#0]
        0x0000c8de:    0700        ..      LSLS     r0,r0,#28
        0x0000c8e0:    d44e        N.      BMI      0xc980 ; am_hal_burst_mode_enable_w_manual_sequence + 196
        0x0000c8e2:    2760        `'      MOVS     r7,#0x60
        0x0000c8e4:    f2c40702    ....    MOVT     r7,#0x4002
        0x0000c8e8:    f000fd4c    ..L.    BL       am_hal_interrupt_master_disable ; 0xd384
        0x0000c8ec:    9002        ..      STR      r0,[sp,#8]
        0x0000c8ee:    f000ffaf    ....    BL       am_hal_pwrctrl_wa_vddf_restore ; 0xd850
        0x0000c8f2:    6838        8h      LDR      r0,[r7,#0]
        0x0000c8f4:    f2410524    A.$.    MOV      r5,#0x1024
        0x0000c8f8:    f0400080    @...    ORR      r0,r0,#0x80
        0x0000c8fc:    6038        8`      STR      r0,[r7,#0]
        0x0000c8fe:    6838        8h      LDR      r0,[r7,#0]
        0x0000c900:    f2c40502    ....    MOVT     r5,#0x4002
        0x0000c904:    f0400040    @.@.    ORR      r0,r0,#0x40
        0x0000c908:    6038        8`      STR      r0,[r7,#0]
        0x0000c90a:    f8550c20    U. .    LDR      r0,[r5,#-0x20]
        0x0000c90e:    6839        9h      LDR      r1,[r7,#0]
        0x0000c910:    0840        @.      LSRS     r0,r0,#1
        0x0000c912:    f3601145    `.E.    BFI      r1,r0,#5,#1
        0x0000c916:    6039        9`      STR      r1,[r7,#0]
        0x0000c918:    6838        8h      LDR      r0,[r7,#0]
        0x0000c91a:    f4407080    @..p    ORR      r0,r0,#0x100
        0x0000c91e:    6038        8`      STR      r0,[r7,#0]
        0x0000c920:    20a0        .       MOVS     r0,#0xa0
        0x0000c922:    f000fa91    ....    BL       am_hal_flash_delay ; 0xce48
        0x0000c926:    6838        8h      LDR      r0,[r7,#0]
        0x0000c928:    f0400020    @. .    ORR      r0,r0,#0x20
        0x0000c92c:    6038        8`      STR      r0,[r7,#0]
        0x0000c92e:    6828        (h      LDR      r0,[r5,#0]
        0x0000c930:    f0400080    @...    ORR      r0,r0,#0x80
        0x0000c934:    6028        (`      STR      r0,[r5,#0]
        0x0000c936:    f8d70fa0    ....    LDR      r0,[r7,#0xfa0]
        0x0000c93a:    f0400001    @...    ORR      r0,r0,#1
        0x0000c93e:    f8c70fa0    ....    STR      r0,[r7,#0xfa0]
        0x0000c942:    6879        yh      LDR      r1,[r7,#4]
        0x0000c944:    6878        xh      LDR      r0,[r7,#4]
        0x0000c946:    06c9        ..      LSLS     r1,r1,#27
        0x0000c948:    d430        0.      BMI      0xc9ac ; am_hal_burst_mode_enable_w_manual_sequence + 240
        0x0000c94a:    f0400008    @...    ORR      r0,r0,#8
        0x0000c94e:    6078        x`      STR      r0,[r7,#4]
        0x0000c950:    6878        xh      LDR      r0,[r7,#4]
        0x0000c952:    f0400001    @...    ORR      r0,r0,#1
        0x0000c956:    6078        x`      STR      r0,[r7,#4]
        0x0000c958:    6878        xh      LDR      r0,[r7,#4]
        0x0000c95a:    f0400004    @...    ORR      r0,r0,#4
        0x0000c95e:    6078        x`      STR      r0,[r7,#4]
        0x0000c960:    6878        xh      LDR      r0,[r7,#4]
        0x0000c962:    f0200002     ...    BIC      r0,r0,#2
        0x0000c966:    6078        x`      STR      r0,[r7,#4]
        0x0000c968:    6878        xh      LDR      r0,[r7,#4]
        0x0000c96a:    f0400010    @...    ORR      r0,r0,#0x10
        0x0000c96e:    e01f        ..      B        0xc9b0 ; am_hal_burst_mode_enable_w_manual_sequence + 244
        0x0000c970:    2001        .       MOVS     r0,#1
        0x0000c972:    7020         p      STRB     r0,[r4,#0]
        0x0000c974:    2507        .%      MOVS     r5,#7
        0x0000c976:    4628        (F      MOV      r0,r5
        0x0000c978:    b003        ..      ADD      sp,sp,#0xc
        0x0000c97a:    e8bd83f0    ....    POP      {r4-r9,pc}
        0x0000c97e:    bf00        ..      NOP      
        0x0000c980:    f2440634    D.4.    MOV      r6,#0x4034
        0x0000c984:    2701        .'      MOVS     r7,#1
        0x0000c986:    f2c40600    ....    MOVT     r6,#0x4000
        0x0000c98a:    f8887001    ...p    STRB     r7,[r8,#1]
        0x0000c98e:    6830        0h      LDR      r0,[r6,#0]
        0x0000c990:    4631        1F      MOV      r1,r6
        0x0000c992:    f0400001    @...    ORR      r0,r0,#1
        0x0000c996:    6030        0`      STR      r0,[r6,#0]
        0x0000c998:    f2427010    B..p    MOV      r0,#0x2710
        0x0000c99c:    2204        ."      MOVS     r2,#4
        0x0000c99e:    2304        .#      MOVS     r3,#4
        0x0000c9a0:    9700        ..      STR      r7,[sp,#0]
        0x0000c9a2:    f000fa67    ..g.    BL       am_hal_flash_delay_status_check ; 0xce74
        0x0000c9a6:    b348        H.      CBZ      r0,0xc9fc ; am_hal_burst_mode_enable_w_manual_sequence + 320
        0x0000c9a8:    4605        .F      MOV      r5,r0
        0x0000c9aa:    e03b        ;.      B        0xca24 ; am_hal_burst_mode_enable_w_manual_sequence + 360
        0x0000c9ac:    f0400004    @...    ORR      r0,r0,#4
        0x0000c9b0:    6078        x`      STR      r0,[r7,#4]
        0x0000c9b2:    2020                MOVS     r0,#0x20
        0x0000c9b4:    f000fa48    ..H.    BL       am_hal_flash_delay ; 0xce48
        0x0000c9b8:    6878        xh      LDR      r0,[r7,#4]
        0x0000c9ba:    f0400002    @...    ORR      r0,r0,#2
        0x0000c9be:    6078        x`      STR      r0,[r7,#4]
        0x0000c9c0:    2010        .       MOVS     r0,#0x10
        0x0000c9c2:    f000fa41    ..A.    BL       am_hal_flash_delay ; 0xce48
        0x0000c9c6:    f8980000    ....    LDRB     r0,[r8,#0]
        0x0000c9ca:    2601        .&      MOVS     r6,#1
        0x0000c9cc:    f8886001    ...`    STRB     r6,[r8,#1]
        0x0000c9d0:    b1d0        ..      CBZ      r0,0xca08 ; am_hal_burst_mode_enable_w_manual_sequence + 332
        0x0000c9d2:    f2440934    D.4.    MOV      r9,#0x4034
        0x0000c9d6:    f2c40900    ....    MOVT     r9,#0x4000
        0x0000c9da:    f8d90000    ....    LDR      r0,[r9,#0]
        0x0000c9de:    4649        IF      MOV      r1,r9
        0x0000c9e0:    f0400001    @...    ORR      r0,r0,#1
        0x0000c9e4:    f8c90000    ....    STR      r0,[r9,#0]
        0x0000c9e8:    f2427010    B..p    MOV      r0,#0x2710
        0x0000c9ec:    2204        ."      MOVS     r2,#4
        0x0000c9ee:    2304        .#      MOVS     r3,#4
        0x0000c9f0:    9600        ..      STR      r6,[sp,#0]
        0x0000c9f2:    f000fa3f    ..?.    BL       am_hal_flash_delay_status_check ; 0xce74
        0x0000c9f6:    b148        H.      CBZ      r0,0xca0c ; am_hal_burst_mode_enable_w_manual_sequence + 336
        0x0000c9f8:    4605        .F      MOV      r5,r0
        0x0000c9fa:    e020         .      B        0xca3e ; am_hal_burst_mode_enable_w_manual_sequence + 386
        0x0000c9fc:    6830        0h      LDR      r0,[r6,#0]
        0x0000c9fe:    2701        .'      MOVS     r7,#1
        0x0000ca00:    0780        ..      LSLS     r0,r0,#30
        0x0000ca02:    d40b        ..      BMI      0xca1c ; am_hal_burst_mode_enable_w_manual_sequence + 352
        0x0000ca04:    2501        .%      MOVS     r5,#1
        0x0000ca06:    e00d        ..      B        0xca24 ; am_hal_burst_mode_enable_w_manual_sequence + 360
        0x0000ca08:    2507        .%      MOVS     r5,#7
        0x0000ca0a:    e018        ..      B        0xca3e ; am_hal_burst_mode_enable_w_manual_sequence + 386
        0x0000ca0c:    f8d90000    ....    LDR      r0,[r9,#0]
        0x0000ca10:    2601        .&      MOVS     r6,#1
        0x0000ca12:    0780        ..      LSLS     r0,r0,#30
        0x0000ca14:    d40e        ..      BMI      0xca34 ; am_hal_burst_mode_enable_w_manual_sequence + 376
        0x0000ca16:    2501        .%      MOVS     r5,#1
        0x0000ca18:    e011        ..      B        0xca3e ; am_hal_burst_mode_enable_w_manual_sequence + 386
        0x0000ca1a:    bf00        ..      NOP      
        0x0000ca1c:    6830        0h      LDR      r0,[r6,#0]
        0x0000ca1e:    2500        .%      MOVS     r5,#0
        0x0000ca20:    ea270790    '...    BIC      r7,r7,r0,LSR #2
        0x0000ca24:    2000        .       MOVS     r0,#0
        0x0000ca26:    7027        'p      STRB     r7,[r4,#0]
        0x0000ca28:    f8880001    ....    STRB     r0,[r8,#1]
        0x0000ca2c:    4628        (F      MOV      r0,r5
        0x0000ca2e:    b003        ..      ADD      sp,sp,#0xc
        0x0000ca30:    e8bd83f0    ....    POP      {r4-r9,pc}
        0x0000ca34:    f8d90000    ....    LDR      r0,[r9,#0]
        0x0000ca38:    2500        .%      MOVS     r5,#0
        0x0000ca3a:    ea260690    &...    BIC      r6,r6,r0,LSR #2
        0x0000ca3e:    2000        .       MOVS     r0,#0
        0x0000ca40:    7026        &p      STRB     r6,[r4,#0]
        0x0000ca42:    f8880001    ....    STRB     r0,[r8,#1]
        0x0000ca46:    f44f70c8    O..p    MOV      r0,#0x190
        0x0000ca4a:    f000f9fd    ....    BL       am_hal_flash_delay ; 0xce48
        0x0000ca4e:    6838        8h      LDR      r0,[r7,#0]
        0x0000ca50:    f4207080     ..p    BIC      r0,r0,#0x100
        0x0000ca54:    6038        8`      STR      r0,[r7,#0]
        0x0000ca56:    6838        8h      LDR      r0,[r7,#0]
        0x0000ca58:    f0200080     ...    BIC      r0,r0,#0x80
        0x0000ca5c:    6038        8`      STR      r0,[r7,#0]
        0x0000ca5e:    6838        8h      LDR      r0,[r7,#0]
        0x0000ca60:    f0200040     .@.    BIC      r0,r0,#0x40
        0x0000ca64:    6038        8`      STR      r0,[r7,#0]
        0x0000ca66:    6838        8h      LDR      r0,[r7,#0]
        0x0000ca68:    f0200020     . .    BIC      r0,r0,#0x20
        0x0000ca6c:    6038        8`      STR      r0,[r7,#0]
        0x0000ca6e:    6878        xh      LDR      r0,[r7,#4]
        0x0000ca70:    07c0        ..      LSLS     r0,r0,#31
        0x0000ca72:    d003        ..      BEQ      0xca7c ; am_hal_burst_mode_enable_w_manual_sequence + 448
        0x0000ca74:    6878        xh      LDR      r0,[r7,#4]
        0x0000ca76:    f0200001     ...    BIC      r0,r0,#1
        0x0000ca7a:    6078        x`      STR      r0,[r7,#4]
        0x0000ca7c:    f000fe84    ....    BL       am_hal_pwrctrl_wa_vddf_boost ; 0xd788
        0x0000ca80:    9802        ..      LDR      r0,[sp,#8]
        0x0000ca82:    f000fc87    ....    BL       am_hal_interrupt_master_set ; 0xd394
        0x0000ca86:    4628        (F      MOV      r0,r5
        0x0000ca88:    b003        ..      ADD      sp,sp,#0xc
        0x0000ca8a:    e8bd83f0    ....    POP      {r4-r9,pc}
        0x0000ca8e:    0000        ..      MOVS     r0,r0
    am_hal_cachectrl_config
        0x0000ca90:    b5b0        ..      PUSH     {r4,r5,r7,lr}
        0x0000ca92:    b082        ..      SUB      sp,sp,#8
        0x0000ca94:    4604        .F      MOV      r4,r0
        0x0000ca96:    f000fc75    ..u.    BL       am_hal_interrupt_master_disable ; 0xd384
        0x0000ca9a:    f2480500    H...    MOVW     r5,#0x8000
        0x0000ca9e:    9001        ..      STR      r0,[sp,#4]
        0x0000caa0:    f2c40501    ....    MOVT     r5,#0x4001
        0x0000caa4:    6828        (h      LDR      r0,[r5,#0]
        0x0000caa6:    f4207040     .@p    BIC      r0,r0,#0x300
        0x0000caaa:    6028        (`      STR      r0,[r5,#0]
        0x0000caac:    9801        ..      LDR      r0,[sp,#4]
        0x0000caae:    f000fc71    ..q.    BL       am_hal_interrupt_master_set ; 0xd394
        0x0000cab2:    78a1        .x      LDRB     r1,[r4,#2]
        0x0000cab4:    7820         x      LDRB     r0,[r4,#0]
        0x0000cab6:    7862        bx      LDRB     r2,[r4,#1]
        0x0000cab8:    0049        I.      LSLS     r1,r1,#1
        0x0000caba:    b2c9        ..      UXTB     r1,r1
        0x0000cabc:    f0020203    ....    AND      r2,r2,#3
        0x0000cac0:    f3601107    `...    BFI      r1,r0,#4,#4
        0x0000cac4:    ea412002    A..     ORR      r0,r1,r2,LSL #8
        0x0000cac8:    f4401080    @...    ORR      r0,r0,#0x100000
        0x0000cacc:    f4406180    @..a    ORR      r1,r0,#0x400
        0x0000cad0:    2000        .       MOVS     r0,#0
        0x0000cad2:    6029        )`      STR      r1,[r5,#0]
        0x0000cad4:    b002        ..      ADD      sp,sp,#8
        0x0000cad6:    bdb0        ..      POP      {r4,r5,r7,pc}
    am_hal_cachectrl_control
        0x0000cad8:    b510        ..      PUSH     {r4,lr}
        0x0000cada:    b082        ..      SUB      sp,sp,#8
        0x0000cadc:    1e42        B.      SUBS     r2,r0,#1
        0x0000cade:    2a10        .*      CMP      r2,#0x10
        0x0000cae0:    f20080a0    ....    BHI.W    0xcc24 ; am_hal_cachectrl_control + 332
        0x0000cae4:    e8dff002    ....    TBB      [pc,r2]
    $d.4
        0x0000cae8:    18140aa3    ....    DCD    403966627
        0x0000caec:    24201e1c    .. $    DCD    606084636
        0x0000caf0:    58483628    (6HX    DCD    1481127464
        0x0000caf4:    8a827a62    bz..    DCD    2323806818
        0x0000caf8:    bf000094    ....    DCD    3204448404
    $t.5
        0x0000cafc:    f2480000    H...    MOVW     r0,#0x8000
        0x0000cb00:    f2c40001    ....    MOVT     r0,#0x4001
        0x0000cb04:    6800        .h      LDR      r0,[r0,#0]
        0x0000cb06:    01c0        ..      LSLS     r0,r0,#7
        0x0000cb08:    f1008090    ....    BMI.W    0xcc2c ; am_hal_cachectrl_control + 340
        0x0000cb0c:    2407        .$      MOVS     r4,#7
        0x0000cb0e:    e061        a.      B        0xcbd4 ; am_hal_cachectrl_control + 252
        0x0000cb10:    f44f6088    O..`    MOV      r0,#0x440
        0x0000cb14:    e08b        ..      B        0xcc2e ; am_hal_cachectrl_control + 342
        0x0000cb16:    bf00        ..      NOP      
        0x0000cb18:    f44f7008    O..p    MOV      r0,#0x220
        0x0000cb1c:    e087        ..      B        0xcc2e ; am_hal_cachectrl_control + 342
        0x0000cb1e:    bf00        ..      NOP      
        0x0000cb20:    2040        @       MOVS     r0,#0x40
        0x0000cb22:    e084        ..      B        0xcc2e ; am_hal_cachectrl_control + 342
        0x0000cb24:    2020                MOVS     r0,#0x20
        0x0000cb26:    e082        ..      B        0xcc2e ; am_hal_cachectrl_control + 342
        0x0000cb28:    f44f6080    O..`    MOV      r0,#0x400
        0x0000cb2c:    e07f        ..      B        0xcc2e ; am_hal_cachectrl_control + 342
        0x0000cb2e:    bf00        ..      NOP      
        0x0000cb30:    f44f7000    O..p    MOV      r0,#0x200
        0x0000cb34:    e07b        {.      B        0xcc2e ; am_hal_cachectrl_control + 342
        0x0000cb36:    bf00        ..      NOP      
        0x0000cb38:    f000fc24    ..$.    BL       am_hal_interrupt_master_disable ; 0xd384
        0x0000cb3c:    9001        ..      STR      r0,[sp,#4]
        0x0000cb3e:    f2480000    H...    MOVW     r0,#0x8000
        0x0000cb42:    f2c40001    ....    MOVT     r0,#0x4001
        0x0000cb46:    6801        .h      LDR      r1,[r0,#0]
        0x0000cb48:    f0417180    A..q    ORR      r1,r1,#0x1000000
        0x0000cb4c:    6001        .`      STR      r1,[r0,#0]
        0x0000cb4e:    9801        ..      LDR      r0,[sp,#4]
        0x0000cb50:    e00c        ..      B        0xcb6c ; am_hal_cachectrl_control + 148
        0x0000cb52:    bf00        ..      NOP      
        0x0000cb54:    f000fc16    ....    BL       am_hal_interrupt_master_disable ; 0xd384
        0x0000cb58:    9000        ..      STR      r0,[sp,#0]
        0x0000cb5a:    f2480000    H...    MOVW     r0,#0x8000
        0x0000cb5e:    f2c40001    ....    MOVT     r0,#0x4001
        0x0000cb62:    6801        .h      LDR      r1,[r0,#0]
        0x0000cb64:    f0217180    !..q    BIC      r1,r1,#0x1000000
        0x0000cb68:    6001        .`      STR      r1,[r0,#0]
        0x0000cb6a:    9800        ..      LDR      r0,[sp,#0]
        0x0000cb6c:    f000fc12    ....    BL       am_hal_interrupt_master_set ; 0xd394
        0x0000cb70:    2400        .$      MOVS     r4,#0
        0x0000cb72:    4620         F      MOV      r0,r4
        0x0000cb74:    b002        ..      ADD      sp,sp,#8
        0x0000cb76:    bd10        ..      POP      {r4,pc}
        0x0000cb78:    2000        .       MOVS     r0,#0
        0x0000cb7a:    f002fb45    ..E.    BL       set_LPMMODE ; 0xf208
        0x0000cb7e:    2800        .(      CMP      r0,#0
        0x0000cb80:    d042        B.      BEQ      0xcc08 ; am_hal_cachectrl_control + 304
        0x0000cb82:    2007        .       MOVS     r0,#7
        0x0000cb84:    f002fbf6    ....    BL       set_SEDELAY ; 0xf374
        0x0000cb88:    2800        .(      CMP      r0,#0
        0x0000cb8a:    d03d        =.      BEQ      0xcc08 ; am_hal_cachectrl_control + 304
        0x0000cb8c:    2003        .       MOVS     r0,#3
        0x0000cb8e:    f002fb99    ....    BL       set_RDWAIT ; 0xf2c4
        0x0000cb92:    2800        .(      CMP      r0,#0
        0x0000cb94:    d1ec        ..      BNE      0xcb70 ; am_hal_cachectrl_control + 152
        0x0000cb96:    e037        7.      B        0xcc08 ; am_hal_cachectrl_control + 304
        0x0000cb98:    2001        .       MOVS     r0,#1
        0x0000cb9a:    2401        .$      MOVS     r4,#1
        0x0000cb9c:    f002fb34    ..4.    BL       set_LPMMODE ; 0xf208
        0x0000cba0:    b1c0        ..      CBZ      r0,0xcbd4 ; am_hal_cachectrl_control + 252
        0x0000cba2:    2005        .       MOVS     r0,#5
        0x0000cba4:    f002fbe6    ....    BL       set_SEDELAY ; 0xf374
        0x0000cba8:    b948        H.      CBNZ     r0,0xcbbe ; am_hal_cachectrl_control + 230
        0x0000cbaa:    e02d        -.      B        0xcc08 ; am_hal_cachectrl_control + 304
        0x0000cbac:    2001        .       MOVS     r0,#1
        0x0000cbae:    2401        .$      MOVS     r4,#1
        0x0000cbb0:    f002fb2a    ..*.    BL       set_LPMMODE ; 0xf208
        0x0000cbb4:    b170        p.      CBZ      r0,0xcbd4 ; am_hal_cachectrl_control + 252
        0x0000cbb6:    2006        .       MOVS     r0,#6
        0x0000cbb8:    f002fbdc    ....    BL       set_SEDELAY ; 0xf374
        0x0000cbbc:    b320         .      CBZ      r0,0xcc08 ; am_hal_cachectrl_control + 304
        0x0000cbbe:    2001        .       MOVS     r0,#1
        0x0000cbc0:    2401        .$      MOVS     r4,#1
        0x0000cbc2:    f002fb7f    ....    BL       set_RDWAIT ; 0xf2c4
        0x0000cbc6:    2800        .(      CMP      r0,#0
        0x0000cbc8:    bf18        ..      IT       NE
        0x0000cbca:    2400        .$      MOVNE    r4,#0
        0x0000cbcc:    4620         F      MOV      r0,r4
        0x0000cbce:    b002        ..      ADD      sp,sp,#8
        0x0000cbd0:    bd10        ..      POP      {r4,pc}
        0x0000cbd2:    bf00        ..      NOP      
        0x0000cbd4:    4620         F      MOV      r0,r4
        0x0000cbd6:    b002        ..      ADD      sp,sp,#8
        0x0000cbd8:    bd10        ..      POP      {r4,pc}
        0x0000cbda:    bf00        ..      NOP      
        0x0000cbdc:    b311        ..      CBZ      r1,0xcc24 ; am_hal_cachectrl_control + 332
        0x0000cbde:    6808        .h      LDR      r0,[r1,#0]
        0x0000cbe0:    f002fb12    ....    BL       set_LPMMODE ; 0xf208
        0x0000cbe4:    2800        .(      CMP      r0,#0
        0x0000cbe6:    d1c3        ..      BNE      0xcb70 ; am_hal_cachectrl_control + 152
        0x0000cbe8:    e00e        ..      B        0xcc08 ; am_hal_cachectrl_control + 304
        0x0000cbea:    bf00        ..      NOP      
        0x0000cbec:    b1d1        ..      CBZ      r1,0xcc24 ; am_hal_cachectrl_control + 332
        0x0000cbee:    6808        .h      LDR      r0,[r1,#0]
        0x0000cbf0:    f002fbc0    ....    BL       set_SEDELAY ; 0xf374
        0x0000cbf4:    2800        .(      CMP      r0,#0
        0x0000cbf6:    d1bb        ..      BNE      0xcb70 ; am_hal_cachectrl_control + 152
        0x0000cbf8:    e006        ..      B        0xcc08 ; am_hal_cachectrl_control + 304
        0x0000cbfa:    bf00        ..      NOP      
        0x0000cbfc:    b191        ..      CBZ      r1,0xcc24 ; am_hal_cachectrl_control + 332
        0x0000cbfe:    6808        .h      LDR      r0,[r1,#0]
        0x0000cc00:    f002fb60    ..`.    BL       set_RDWAIT ; 0xf2c4
        0x0000cc04:    2800        .(      CMP      r0,#0
        0x0000cc06:    d1b3        ..      BNE      0xcb70 ; am_hal_cachectrl_control + 152
        0x0000cc08:    2401        .$      MOVS     r4,#1
        0x0000cc0a:    4620         F      MOV      r0,r4
        0x0000cc0c:    b002        ..      ADD      sp,sp,#8
        0x0000cc0e:    bd10        ..      POP      {r4,pc}
        0x0000cc10:    b141        A.      CBZ      r1,0xcc24 ; am_hal_cachectrl_control + 332
        0x0000cc12:    6848        Hh      LDR      r0,[r1,#4]
        0x0000cc14:    220f        ."      MOVS     r2,#0xf
        0x0000cc16:    f6cf0200    ....    MOVT     r2,#0xf800
        0x0000cc1a:    4210        .B      TST      r0,r2
        0x0000cc1c:    d102        ..      BNE      0xcc24 ; am_hal_cachectrl_control + 332
        0x0000cc1e:    688b        .h      LDR      r3,[r1,#8]
        0x0000cc20:    4213        .B      TST      r3,r2
        0x0000cc22:    d00d        ..      BEQ      0xcc40 ; am_hal_cachectrl_control + 360
        0x0000cc24:    2406        .$      MOVS     r4,#6
        0x0000cc26:    4620         F      MOV      r0,r4
        0x0000cc28:    b002        ..      ADD      sp,sp,#8
        0x0000cc2a:    bd10        ..      POP      {r4,pc}
        0x0000cc2c:    2002        .       MOVS     r0,#2
        0x0000cc2e:    f2480100    H...    MOVW     r1,#0x8000
        0x0000cc32:    f2c40101    ....    MOVT     r1,#0x4001
        0x0000cc36:    2400        .$      MOVS     r4,#0
        0x0000cc38:    6088        .`      STR      r0,[r1,#8]
        0x0000cc3a:    4620         F      MOV      r0,r4
        0x0000cc3c:    b002        ..      ADD      sp,sp,#8
        0x0000cc3e:    bd10        ..      POP      {r4,pc}
        0x0000cc40:    780a        .x      LDRB     r2,[r1,#0]
        0x0000cc42:    2a01        .*      CMP      r2,#1
        0x0000cc44:    d016        ..      BEQ      0xcc74 ; am_hal_cachectrl_control + 412
        0x0000cc46:    2a00        .*      CMP      r2,#0
        0x0000cc48:    d1ec        ..      BNE      0xcc24 ; am_hal_cachectrl_control + 332
        0x0000cc4a:    f2480200    H...    MOVW     r2,#0x8000
        0x0000cc4e:    f2c40201    ....    MOVT     r2,#0x4001
        0x0000cc52:    6110        .a      STR      r0,[r2,#0x10]
        0x0000cc54:    6888        .h      LDR      r0,[r1,#8]
        0x0000cc56:    2400        .$      MOVS     r4,#0
        0x0000cc58:    6150        Pa      STR      r0,[r2,#0x14]
        0x0000cc5a:    7848        Hx      LDRB     r0,[r1,#1]
        0x0000cc5c:    6811        .h      LDR      r1,[r2,#0]
        0x0000cc5e:    f000003f    ..?.    AND      r0,r0,#0x3f
        0x0000cc62:    f0210104    !...    BIC      r1,r1,#4
        0x0000cc66:    ea410080    A...    ORR      r0,r1,r0,LSL #2
        0x0000cc6a:    6010        .`      STR      r0,[r2,#0]
        0x0000cc6c:    4620         F      MOV      r0,r4
        0x0000cc6e:    b002        ..      ADD      sp,sp,#8
        0x0000cc70:    bd10        ..      POP      {r4,pc}
        0x0000cc72:    bf00        ..      NOP      
        0x0000cc74:    f2480200    H...    MOVW     r2,#0x8000
        0x0000cc78:    f2c40201    ....    MOVT     r2,#0x4001
        0x0000cc7c:    6190        .a      STR      r0,[r2,#0x18]
        0x0000cc7e:    6888        .h      LDR      r0,[r1,#8]
        0x0000cc80:    2400        .$      MOVS     r4,#0
        0x0000cc82:    61d0        .a      STR      r0,[r2,#0x1c]
        0x0000cc84:    7848        Hx      LDRB     r0,[r1,#1]
        0x0000cc86:    6811        .h      LDR      r1,[r2,#0]
        0x0000cc88:    f000001f    ....    AND      r0,r0,#0x1f
        0x0000cc8c:    f0210108    !...    BIC      r1,r1,#8
        0x0000cc90:    ea4100c0    A...    ORR      r0,r1,r0,LSL #3
        0x0000cc94:    6010        .`      STR      r0,[r2,#0]
        0x0000cc96:    4620         F      MOV      r0,r4
        0x0000cc98:    b002        ..      ADD      sp,sp,#8
        0x0000cc9a:    bd10        ..      POP      {r4,pc}
    am_hal_cachectrl_enable
        0x0000cc9c:    f2480100    H...    MOVW     r1,#0x8000
        0x0000cca0:    f2c40101    ....    MOVT     r1,#0x4001
        0x0000cca4:    6808        .h      LDR      r0,[r1,#0]
        0x0000cca6:    f0400201    @...    ORR      r2,r0,#1
        0x0000ccaa:    2000        .       MOVS     r0,#0
        0x0000ccac:    600a        .`      STR      r2,[r1,#0]
        0x0000ccae:    4770        pG      BX       lr
    am_hal_clkgen_control
        0x0000ccb0:    b510        ..      PUSH     {r4,lr}
        0x0000ccb2:    f2410294    A...    MOV      r2,#0x1094
        0x0000ccb6:    f2c10200    ....    MOVT     r2,#0x1000
        0x0000ccba:    6813        .h      LDR      r3,[r2,#0]
        0x0000ccbc:    460c        .F      MOV      r4,r1
        0x0000ccbe:    b92b        +.      CBNZ     r3,0xcccc ; am_hal_clkgen_control + 28
        0x0000ccc0:    f24f0100    O...    MOVW     r1,#0xf000
        0x0000ccc4:    f6c471ff    ...q    MOVT     r1,#0x4fff
        0x0000ccc8:    6809        .h      LDR      r1,[r1,#0]
        0x0000ccca:    6011        .`      STR      r1,[r2,#0]
        0x0000cccc:    2809        .(      CMP      r0,#9
        0x0000ccce:    d811        ..      BHI      0xccf4 ; am_hal_clkgen_control + 68
        0x0000ccd0:    e8dff000    ....    TBB      [pc,r0]
    $d.1
        0x0000ccd4:    261c1206    ...&    DCD    639373830
        0x0000ccd8:    62584c42    BLXb    DCD    1649953858
        0x0000ccdc:    bf00866c    l...    DCD    3204482668
    $t.2
        0x0000cce0:    f244010c    D...    MOV      r1,#0x400c
        0x0000cce4:    f2c40100    ....    MOVT     r1,#0x4000
        0x0000cce8:    2047        G       MOVS     r0,#0x47
        0x0000ccea:    6088        .`      STR      r0,[r1,#8]
        0x0000ccec:    2000        .       MOVS     r0,#0
        0x0000ccee:    60c8        .`      STR      r0,[r1,#0xc]
        0x0000ccf0:    6088        .`      STR      r0,[r1,#8]
        0x0000ccf2:    bd10        ..      POP      {r4,pc}
        0x0000ccf4:    2006        .       MOVS     r0,#6
        0x0000ccf6:    bd10        ..      POP      {r4,pc}
        0x0000ccf8:    f244000c    D...    MOV      r0,#0x400c
        0x0000ccfc:    f2c40000    ....    MOVT     r0,#0x4000
        0x0000cd00:    6801        .h      LDR      r1,[r0,#0]
        0x0000cd02:    f0210101    !...    BIC      r1,r1,#1
        0x0000cd06:    6001        .`      STR      r1,[r0,#0]
        0x0000cd08:    2000        .       MOVS     r0,#0
        0x0000cd0a:    bd10        ..      POP      {r4,pc}
        0x0000cd0c:    f244000c    D...    MOV      r0,#0x400c
        0x0000cd10:    f2c40000    ....    MOVT     r0,#0x4000
        0x0000cd14:    6801        .h      LDR      r1,[r0,#0]
        0x0000cd16:    f0210102    !...    BIC      r1,r1,#2
        0x0000cd1a:    6001        .`      STR      r1,[r0,#0]
        0x0000cd1c:    2000        .       MOVS     r0,#0
        0x0000cd1e:    bd10        ..      POP      {r4,pc}
        0x0000cd20:    f2401020    @. .    MOVW     r0,#0x120
        0x0000cd24:    f64f61ec    O..a    MOV      r1,#0xfeec
        0x0000cd28:    f2c40002    ....    MOVT     r0,#0x4002
        0x0000cd2c:    f6cf71ff    ...q    MOVT     r1,#0xffff
        0x0000cd30:    5841        AX      LDR      r1,[r0,r1]
        0x0000cd32:    b2c9        ..      UXTB     r1,r1
        0x0000cd34:    2921        !)      CMP      r1,#0x21
        0x0000cd36:    d304        ..      BCC      0xcd42 ; am_hal_clkgen_control + 146
        0x0000cd38:    6801        .h      LDR      r1,[r0,#0]
        0x0000cd3a:    2201        ."      MOVS     r2,#1
        0x0000cd3c:    f3622109    b..!    BFI      r1,r2,#8,#2
        0x0000cd40:    6001        .`      STR      r1,[r0,#0]
        0x0000cd42:    f244000c    D...    MOV      r0,#0x400c
        0x0000cd46:    f2c40000    ....    MOVT     r0,#0x4000
        0x0000cd4a:    6801        .h      LDR      r1,[r0,#0]
        0x0000cd4c:    f0410101    A...    ORR      r1,r1,#1
        0x0000cd50:    6001        .`      STR      r1,[r0,#0]
        0x0000cd52:    2000        .       MOVS     r0,#0
        0x0000cd54:    bd10        ..      POP      {r4,pc}
        0x0000cd56:    bf00        ..      NOP      
        0x0000cd58:    f244000c    D...    MOV      r0,#0x400c
        0x0000cd5c:    f2c40000    ....    MOVT     r0,#0x4000
        0x0000cd60:    6801        .h      LDR      r1,[r0,#0]
        0x0000cd62:    f0410102    A...    ORR      r1,r1,#2
        0x0000cd66:    6001        .`      STR      r1,[r0,#0]
        0x0000cd68:    2000        .       MOVS     r0,#0
        0x0000cd6a:    bd10        ..      POP      {r4,pc}
        0x0000cd6c:    f244010c    D...    MOV      r1,#0x400c
        0x0000cd70:    f2c40100    ....    MOVT     r1,#0x4000
        0x0000cd74:    2047        G       MOVS     r0,#0x47
        0x0000cd76:    6088        .`      STR      r0,[r1,#8]
        0x0000cd78:    2001        .       MOVS     r0,#1
        0x0000cd7a:    60c8        .`      STR      r0,[r1,#0xc]
        0x0000cd7c:    2000        .       MOVS     r0,#0
        0x0000cd7e:    6088        .`      STR      r0,[r1,#8]
        0x0000cd80:    bd10        ..      POP      {r4,pc}
        0x0000cd82:    bf00        ..      NOP      
        0x0000cd84:    f244000c    D...    MOV      r0,#0x400c
        0x0000cd88:    f2c40000    ....    MOVT     r0,#0x4000
        0x0000cd8c:    6801        .h      LDR      r1,[r0,#0]
        0x0000cd8e:    f0210180    !...    BIC      r1,r1,#0x80
        0x0000cd92:    6001        .`      STR      r1,[r0,#0]
        0x0000cd94:    2000        .       MOVS     r0,#0
        0x0000cd96:    bd10        ..      POP      {r4,pc}
        0x0000cd98:    f244000c    D...    MOV      r0,#0x400c
        0x0000cd9c:    f2c40000    ....    MOVT     r0,#0x4000
        0x0000cda0:    6801        .h      LDR      r1,[r0,#0]
        0x0000cda2:    f0410180    A...    ORR      r1,r1,#0x80
        0x0000cda6:    6001        .`      STR      r1,[r0,#0]
        0x0000cda8:    2000        .       MOVS     r0,#0
        0x0000cdaa:    bd10        ..      POP      {r4,pc}
        0x0000cdac:    f2401020    @. .    MOVW     r0,#0x120
        0x0000cdb0:    f64f61ec    O..a    MOV      r1,#0xfeec
        0x0000cdb4:    f2c40002    ....    MOVT     r0,#0x4002
        0x0000cdb8:    f6cf71ff    ...q    MOVT     r1,#0xffff
        0x0000cdbc:    5841        AX      LDR      r1,[r0,r1]
        0x0000cdbe:    b2c9        ..      UXTB     r1,r1
        0x0000cdc0:    2921        !)      CMP      r1,#0x21
        0x0000cdc2:    d307        ..      BCC      0xcdd4 ; am_hal_clkgen_control + 292
        0x0000cdc4:    6801        .h      LDR      r1,[r0,#0]
        0x0000cdc6:    f4417140    A.@q    ORR      r1,r1,#0x300
        0x0000cdca:    6001        .`      STR      r1,[r0,#0]
        0x0000cdcc:    f44f507a    O.zP    MOV      r0,#0x3e80
        0x0000cdd0:    f000f83a    ..:.    BL       am_hal_flash_delay ; 0xce48
        0x0000cdd4:    b174        t.      CBZ      r4,0xcdf4 ; am_hal_clkgen_control + 324
        0x0000cdd6:    6820         h      LDR      r0,[r4,#0]
        0x0000cdd8:    f0400001    @...    ORR      r0,r0,#1
        0x0000cddc:    e00e        ..      B        0xcdfc ; am_hal_clkgen_control + 332
        0x0000cdde:    bf00        ..      NOP      
        0x0000cde0:    f244000c    D...    MOV      r0,#0x400c
        0x0000cde4:    f2c40000    ....    MOVT     r0,#0x4000
        0x0000cde8:    6941        Ai      LDR      r1,[r0,#0x14]
        0x0000cdea:    f0210101    !...    BIC      r1,r1,#1
        0x0000cdee:    6141        Aa      STR      r1,[r0,#0x14]
        0x0000cdf0:    2000        .       MOVS     r0,#0
        0x0000cdf2:    bd10        ..      POP      {r4,pc}
        0x0000cdf4:    f64b0001    K...    MOV      r0,#0xb801
        0x0000cdf8:    f2c00025    ..%.    MOVT     r0,#0x25
        0x0000cdfc:    f244010c    D...    MOV      r1,#0x400c
        0x0000ce00:    f2c40100    ....    MOVT     r1,#0x4000
        0x0000ce04:    6148        Ha      STR      r0,[r1,#0x14]
        0x0000ce06:    2000        .       MOVS     r0,#0
        0x0000ce08:    bd10        ..      POP      {r4,pc}
        0x0000ce0a:    0000        ..      MOVS     r0,r0
    am_hal_clkgen_status_get
        0x0000ce0c:    2800        .(      CMP      r0,#0
        0x0000ce0e:    bf04        ..      ITT      EQ
        0x0000ce10:    2006        .       MOVEQ    r0,#6
        0x0000ce12:    4770        pG      BXEQ     lr
        0x0000ce14:    f2440118    D...    MOV      r1,#0x4018
        0x0000ce18:    f2c40100    ....    MOVT     r1,#0x4000
        0x0000ce1c:    680a        .h      LDR      r2,[r1,#0]
        0x0000ce1e:    07d2        ..      LSLS     r2,r2,#31
        0x0000ce20:    f2436200    C..b    MOVW     r2,#0x3600
        0x0000ce24:    f2c0126e    ..n.    MOVT     r2,#0x16e
        0x0000ce28:    bf04        ..      ITT      EQ
        0x0000ce2a:    f6464200    F..B    MOVWEQ   r2,#0x6c00
        0x0000ce2e:    f2c022dc    ..."    MOVTEQ   r2,#0x2dc
        0x0000ce32:    6002        .`      STR      r2,[r0,#0]
        0x0000ce34:    6849        Ih      LDR      r1,[r1,#4]
        0x0000ce36:    f0010201    ....    AND      r2,r1,#1
        0x0000ce3a:    f3c10140    ..@.    UBFX     r1,r1,#1,#1
        0x0000ce3e:    6042        B`      STR      r2,[r0,#4]
        0x0000ce40:    7201        .r      STRB     r1,[r0,#8]
        0x0000ce42:    2000        .       MOVS     r0,#0
        0x0000ce44:    4770        pG      BX       lr
        0x0000ce46:    0000        ..      MOVS     r0,r0
    am_hal_flash_delay
        0x0000ce48:    f2440134    D.4.    MOV      r1,#0x4034
        0x0000ce4c:    f2c40100    ....    MOVT     r1,#0x4000
        0x0000ce50:    680a        .h      LDR      r2,[r1,#0]
        0x0000ce52:    f3c20180    ....    UBFX     r1,r2,#2,#1
        0x0000ce56:    4088        .@      LSLS     r0,r0,r1
        0x0000ce58:    210e        .!      MOVS     r1,#0xe
        0x0000ce5a:    f0120f04    ....    TST      r2,#4
        0x0000ce5e:    bf08        ..      IT       EQ
        0x0000ce60:    210b        .!      MOVEQ    r1,#0xb
        0x0000ce62:    4281        .B      CMP      r1,r0
        0x0000ce64:    bf28        (.      IT       CS
        0x0000ce66:    4770        pG      BXCS     lr
        0x0000ce68:    1a40        @.      SUBS     r0,r0,r1
        0x0000ce6a:    219d        .!      MOVS     r1,#0x9d
        0x0000ce6c:    f6c00100    ....    MOVT     r1,#0x800
        0x0000ce70:    4708        .G      BX       r1
        0x0000ce72:    0000        ..      MOVS     r0,r0
    am_hal_flash_delay_status_check
        0x0000ce74:    e92d47f0    -..G    PUSH     {r4-r10,lr}
        0x0000ce78:    460e        .F      MOV      r6,r1
        0x0000ce7a:    4615        .F      MOV      r5,r2
        0x0000ce7c:    9908        ..      LDR      r1,[sp,#0x20]
        0x0000ce7e:    6832        2h      LDR      r2,[r6,#0]
        0x0000ce80:    461c        .F      MOV      r4,r3
        0x0000ce82:    2900        .)      CMP      r1,#0
        0x0000ce84:    ea020105    ....    AND      r1,r2,r5
        0x0000ce88:    d024        $.      BEQ      0xced4 ; am_hal_flash_delay_status_check + 96
        0x0000ce8a:    42a1        .B      CMP      r1,r4
        0x0000ce8c:    d047        G.      BEQ      0xcf1e ; am_hal_flash_delay_status_check + 170
        0x0000ce8e:    f2440834    D.4.    MOV      r8,#0x4034
        0x0000ce92:    f2400a9d    @...    MOVW     r10,#0x9d
        0x0000ce96:    f2c40800    ....    MOVT     r8,#0x4000
        0x0000ce9a:    1c47        G.      ADDS     r7,r0,#1
        0x0000ce9c:    f04f0910    O...    MOV      r9,#0x10
        0x0000cea0:    f6c00a00    ....    MOVT     r10,#0x800
        0x0000cea4:    3f01        .?      SUBS     r7,#1
        0x0000cea6:    d03d        =.      BEQ      0xcf24 ; am_hal_flash_delay_status_check + 176
        0x0000cea8:    f8d80000    ....    LDR      r0,[r8,#0]
        0x0000ceac:    f3c00180    ....    UBFX     r1,r0,#2,#1
        0x0000ceb0:    f0100f04    ....    TST      r0,#4
        0x0000ceb4:    f06f000d    o...    MVN      r0,#0xd
        0x0000ceb8:    bf08        ..      IT       EQ
        0x0000ceba:    f06f000a    o...    MVNEQ    r0,#0xa
        0x0000cebe:    fa09f101    ....    LSL      r1,r9,r1
        0x0000cec2:    4408        .D      ADD      r0,r0,r1
        0x0000cec4:    47d0        .G      BLX      r10
        0x0000cec6:    6830        0h      LDR      r0,[r6,#0]
        0x0000cec8:    4028        (@      ANDS     r0,r0,r5
        0x0000ceca:    42a0        .B      CMP      r0,r4
        0x0000cecc:    d1ea        ..      BNE      0xcea4 ; am_hal_flash_delay_status_check + 48
        0x0000cece:    2000        .       MOVS     r0,#0
        0x0000ced0:    e8bd87f0    ....    POP      {r4-r10,pc}
        0x0000ced4:    42a1        .B      CMP      r1,r4
        0x0000ced6:    bf1c        ..      ITT      NE
        0x0000ced8:    2000        .       MOVNE    r0,#0
        0x0000ceda:    e8bd87f0    ....    POPNE    {r4-r10,pc}
        0x0000cede:    f2440834    D.4.    MOV      r8,#0x4034
        0x0000cee2:    f2400a9d    @...    MOVW     r10,#0x9d
        0x0000cee6:    f2c40800    ....    MOVT     r8,#0x4000
        0x0000ceea:    1c47        G.      ADDS     r7,r0,#1
        0x0000ceec:    f04f0910    O...    MOV      r9,#0x10
        0x0000cef0:    f6c00a00    ....    MOVT     r10,#0x800
        0x0000cef4:    3f01        .?      SUBS     r7,#1
        0x0000cef6:    d015        ..      BEQ      0xcf24 ; am_hal_flash_delay_status_check + 176
        0x0000cef8:    f8d80000    ....    LDR      r0,[r8,#0]
        0x0000cefc:    f3c00180    ....    UBFX     r1,r0,#2,#1
        0x0000cf00:    f0100f04    ....    TST      r0,#4
        0x0000cf04:    f06f000d    o...    MVN      r0,#0xd
        0x0000cf08:    bf08        ..      IT       EQ
        0x0000cf0a:    f06f000a    o...    MVNEQ    r0,#0xa
        0x0000cf0e:    fa09f101    ....    LSL      r1,r9,r1
        0x0000cf12:    4408        .D      ADD      r0,r0,r1
        0x0000cf14:    47d0        .G      BLX      r10
        0x0000cf16:    6830        0h      LDR      r0,[r6,#0]
        0x0000cf18:    4028        (@      ANDS     r0,r0,r5
        0x0000cf1a:    42a0        .B      CMP      r0,r4
        0x0000cf1c:    d0ea        ..      BEQ      0xcef4 ; am_hal_flash_delay_status_check + 128
        0x0000cf1e:    2000        .       MOVS     r0,#0
        0x0000cf20:    e8bd87f0    ....    POP      {r4-r10,pc}
        0x0000cf24:    2004        .       MOVS     r0,#4
        0x0000cf26:    e8bd87f0    ....    POP      {r4-r10,pc}
        0x0000cf2a:    0000        ..      MOVS     r0,r0
    am_hal_flash_load_ui32
        0x0000cf2c:    2175        u!      MOVS     r1,#0x75
        0x0000cf2e:    f6c00100    ....    MOVT     r1,#0x800
        0x0000cf32:    4708        .G      BX       r1
    am_hal_flash_store_ui32
        0x0000cf34:    b580        ..      PUSH     {r7,lr}
        0x0000cf36:    b084        ..      SUB      sp,sp,#0x10
        0x0000cf38:    f2447270    D.pr    MOV      r2,#0x4770
        0x0000cf3c:    f6cb7200    ...r    MOVT     r2,#0xbf00
        0x0000cf40:    9203        ..      STR      r2,[sp,#0xc]
        0x0000cf42:    f6460200    F...    MOVW     r2,#0x6800
        0x0000cf46:    f6cb7200    ...r    MOVT     r2,#0xbf00
        0x0000cf4a:    9202        ..      STR      r2,[sp,#8]
        0x0000cf4c:    f2460201    F...    MOV      r2,#0x6001
        0x0000cf50:    f6cb7200    ...r    MOVT     r2,#0xbf00
        0x0000cf54:    9201        ..      STR      r2,[sp,#4]
        0x0000cf56:    aa01        ..      ADD      r2,sp,#4
        0x0000cf58:    3201        .2      ADDS     r2,#1
        0x0000cf5a:    4790        .G      BLX      r2
        0x0000cf5c:    b004        ..      ADD      sp,sp,#0x10
        0x0000cf5e:    bd80        ..      POP      {r7,pc}
    am_hal_gpio_interrupt_clear
        0x0000cf60:    b510        ..      PUSH     {r4,lr}
        0x0000cf62:    b082        ..      SUB      sp,sp,#8
        0x0000cf64:    b1f0        ..      CBZ      r0,0xcfa4 ; am_hal_gpio_interrupt_clear + 68
        0x0000cf66:    4604        .F      MOV      r4,r0
        0x0000cf68:    6880        .h      LDR      r0,[r0,#8]
        0x0000cf6a:    2100        .!      MOVS     r1,#0
        0x0000cf6c:    ebb12f90    .../    CMP      r1,r0,LSR #10
        0x0000cf70:    d11c        ..      BNE      0xcfac ; am_hal_gpio_interrupt_clear + 76
        0x0000cf72:    f000fa07    ....    BL       am_hal_interrupt_master_disable ; 0xd384
        0x0000cf76:    f2402108    @..!    MOVW     r1,#0x208
        0x0000cf7a:    9001        ..      STR      r0,[sp,#4]
        0x0000cf7c:    f2c40101    ....    MOVT     r1,#0x4001
        0x0000cf80:    6820         h      LDR      r0,[r4,#0]
        0x0000cf82:    680a        .h      LDR      r2,[r1,#0]
        0x0000cf84:    4310        .C      ORRS     r0,r0,r2
        0x0000cf86:    6008        .`      STR      r0,[r1,#0]
        0x0000cf88:    6860        `h      LDR      r0,[r4,#4]
        0x0000cf8a:    6a0a        .j      LDR      r2,[r1,#0x20]
        0x0000cf8c:    4310        .C      ORRS     r0,r0,r2
        0x0000cf8e:    6208        .b      STR      r0,[r1,#0x20]
        0x0000cf90:    68a0        .h      LDR      r0,[r4,#8]
        0x0000cf92:    6c0a        .l      LDR      r2,[r1,#0x40]
        0x0000cf94:    4310        .C      ORRS     r0,r0,r2
        0x0000cf96:    6408        .d      STR      r0,[r1,#0x40]
        0x0000cf98:    9801        ..      LDR      r0,[sp,#4]
        0x0000cf9a:    f000f9fb    ....    BL       am_hal_interrupt_master_set ; 0xd394
        0x0000cf9e:    2000        .       MOVS     r0,#0
        0x0000cfa0:    b002        ..      ADD      sp,sp,#8
        0x0000cfa2:    bd10        ..      POP      {r4,pc}
        0x0000cfa4:    2006        .       MOVS     r0,#6
        0x0000cfa6:    b002        ..      ADD      sp,sp,#8
        0x0000cfa8:    bd10        ..      POP      {r4,pc}
        0x0000cfaa:    bf00        ..      NOP      
        0x0000cfac:    2005        .       MOVS     r0,#5
        0x0000cfae:    b002        ..      ADD      sp,sp,#8
        0x0000cfb0:    bd10        ..      POP      {r4,pc}
        0x0000cfb2:    0000        ..      MOVS     r0,r0
    am_hal_gpio_interrupt_enable
        0x0000cfb4:    b510        ..      PUSH     {r4,lr}
        0x0000cfb6:    b082        ..      SUB      sp,sp,#8
        0x0000cfb8:    4604        .F      MOV      r4,r0
        0x0000cfba:    6880        .h      LDR      r0,[r0,#8]
        0x0000cfbc:    2100        .!      MOVS     r1,#0
        0x0000cfbe:    ebb12f90    .../    CMP      r1,r0,LSR #10
        0x0000cfc2:    d119        ..      BNE      0xcff8 ; am_hal_gpio_interrupt_enable + 68
        0x0000cfc4:    f000f9de    ....    BL       am_hal_interrupt_master_disable ; 0xd384
        0x0000cfc8:    f2402100    @..!    MOVW     r1,#0x200
        0x0000cfcc:    9001        ..      STR      r0,[sp,#4]
        0x0000cfce:    f2c40101    ....    MOVT     r1,#0x4001
        0x0000cfd2:    6820         h      LDR      r0,[r4,#0]
        0x0000cfd4:    680a        .h      LDR      r2,[r1,#0]
        0x0000cfd6:    4310        .C      ORRS     r0,r0,r2
        0x0000cfd8:    6008        .`      STR      r0,[r1,#0]
        0x0000cfda:    6860        `h      LDR      r0,[r4,#4]
        0x0000cfdc:    6a0a        .j      LDR      r2,[r1,#0x20]
        0x0000cfde:    4310        .C      ORRS     r0,r0,r2
        0x0000cfe0:    6208        .b      STR      r0,[r1,#0x20]
        0x0000cfe2:    68a0        .h      LDR      r0,[r4,#8]
        0x0000cfe4:    6c0a        .l      LDR      r2,[r1,#0x40]
        0x0000cfe6:    4310        .C      ORRS     r0,r0,r2
        0x0000cfe8:    6408        .d      STR      r0,[r1,#0x40]
        0x0000cfea:    9801        ..      LDR      r0,[sp,#4]
        0x0000cfec:    f000f9d2    ....    BL       am_hal_interrupt_master_set ; 0xd394
        0x0000cff0:    2000        .       MOVS     r0,#0
        0x0000cff2:    b002        ..      ADD      sp,sp,#8
        0x0000cff4:    bd10        ..      POP      {r4,pc}
        0x0000cff6:    bf00        ..      NOP      
        0x0000cff8:    2005        .       MOVS     r0,#5
        0x0000cffa:    b002        ..      ADD      sp,sp,#8
        0x0000cffc:    bd10        ..      POP      {r4,pc}
        0x0000cffe:    0000        ..      MOVS     r0,r0
    am_hal_gpio_pinconfig
        0x0000d000:    e92d4ff0    -..O    PUSH     {r4-r11,lr}
        0x0000d004:    b087        ..      SUB      sp,sp,#0x1c
        0x0000d006:    2849        I(      CMP      r0,#0x49
        0x0000d008:    d904        ..      BLS      0xd014 ; am_hal_gpio_pinconfig + 20
        0x0000d00a:    2506        .%      MOVS     r5,#6
        0x0000d00c:    4628        (F      MOV      r0,r5
        0x0000d00e:    b007        ..      ADD      sp,sp,#0x1c
        0x0000d010:    e8bd8ff0    ....    POP      {r4-r11,pc}
        0x0000d014:    f2401202    @...    MOVW     r2,#0x102
        0x0000d018:    f0010307    ....    AND      r3,r1,#7
        0x0000d01c:    f3c11742    ..B.    UBFX     r7,r1,#5,#3
        0x0000d020:    4604        .F      MOV      r4,r0
        0x0000d022:    f6c00200    ....    MOVT     r2,#0x800
        0x0000d026:    ea4f00c3    O...    LSL      r0,r3,#3
        0x0000d02a:    b1ff        ..      CBZ      r7,0xd06c ; am_hal_gpio_pinconfig + 108
        0x0000d02c:    f1a10640    ..@.    SUB      r6,r1,#0x40
        0x0000d030:    b276        v.      SXTB     r6,r6
        0x0000d032:    2e00        ..      CMP      r6,#0
        0x0000d034:    f0400001    @...    ORR      r0,r0,#1
        0x0000d038:    d40a        ..      BMI      0xd050 ; am_hal_gpio_pinconfig + 80
        0x0000d03a:    f64f26ac    O..&    MOV      r6,#0xfaac
        0x0000d03e:    f2c00600    ....    MOVT     r6,#0
        0x0000d042:    5d36        6]      LDRB     r6,[r6,r4]
        0x0000d044:    07f6        ..      LSLS     r6,r6,#31
        0x0000d046:    d021        !.      BEQ      0xd08c ; am_hal_gpio_pinconfig + 140
        0x0000d048:    ea401087    @...    ORR      r0,r0,r7,LSL #6
        0x0000d04c:    3880        .8      SUBS     r0,r0,#0x80
        0x0000d04e:    e00d        ..      B        0xd06c ; am_hal_gpio_pinconfig + 108
        0x0000d050:    2f06        ./      CMP      r7,#6
        0x0000d052:    d107        ..      BNE      0xd064 ; am_hal_gpio_pinconfig + 100
        0x0000d054:    2c14        .,      CMP      r4,#0x14
        0x0000d056:    d009        ..      BEQ      0xd06c ; am_hal_gpio_pinconfig + 108
        0x0000d058:    1e55        U.      SUBS     r5,r2,#1
        0x0000d05a:    4628        (F      MOV      r0,r5
        0x0000d05c:    b007        ..      ADD      sp,sp,#0x1c
        0x0000d05e:    e8bd8ff0    ....    POP      {r4-r11,pc}
        0x0000d062:    bf00        ..      NOP      
        0x0000d064:    2c14        .,      CMP      r4,#0x14
        0x0000d066:    bf08        ..      IT       EQ
        0x0000d068:    2f01        ./      CMPEQ    r7,#1
        0x0000d06a:    d00f        ..      BEQ      0xd08c ; am_hal_gpio_pinconfig + 140
        0x0000d06c:    f3c107c1    ....    UBFX     r7,r1,#3,#2
        0x0000d070:    b1cf        ..      CBZ      r7,0xd0a6 ; am_hal_gpio_pinconfig + 166
        0x0000d072:    2f02        ./      CMP      r7,#2
        0x0000d074:    d010        ..      BEQ      0xd098 ; am_hal_gpio_pinconfig + 152
        0x0000d076:    2f01        ./      CMP      r7,#1
        0x0000d078:    f0408076    @.v.    BNE.W    0xd168 ; am_hal_gpio_pinconfig + 360
        0x0000d07c:    2c24        $,      CMP      r4,#0x24
        0x0000d07e:    d002        ..      BEQ      0xd086 ; am_hal_gpio_pinconfig + 134
        0x0000d080:    2c03        .,      CMP      r4,#3
        0x0000d082:    4615        .F      MOV      r5,r2
        0x0000d084:    d1c2        ..      BNE      0xd00c ; am_hal_gpio_pinconfig + 12
        0x0000d086:    f0400040    @.@.    ORR      r0,r0,#0x40
        0x0000d08a:    e00c        ..      B        0xd0a6 ; am_hal_gpio_pinconfig + 166
        0x0000d08c:    1e95        ..      SUBS     r5,r2,#2
        0x0000d08e:    4628        (F      MOV      r0,r5
        0x0000d090:    b007        ..      ADD      sp,sp,#0x1c
        0x0000d092:    e8bd8ff0    ....    POP      {r4-r11,pc}
        0x0000d096:    bf00        ..      NOP      
        0x0000d098:    2c29        ),      CMP      r4,#0x29
        0x0000d09a:    d002        ..      BEQ      0xd0a2 ; am_hal_gpio_pinconfig + 162
        0x0000d09c:    2c25        %,      CMP      r4,#0x25
        0x0000d09e:    4615        .F      MOV      r5,r2
        0x0000d0a0:    d1b4        ..      BNE      0xd00c ; am_hal_gpio_pinconfig + 12
        0x0000d0a2:    f0400080    @...    ORR      r0,r0,#0x80
        0x0000d0a6:    f64f27f6    O..'    MOV      r7,#0xfaf6
        0x0000d0aa:    f2c00700    ....    MOVT     r7,#0
        0x0000d0ae:    5d3f        ?]      LDRB     r7,[r7,r4]
        0x0000d0b0:    40df        .@      LSRS     r7,r7,r3
        0x0000d0b2:    07ff        ..      LSLS     r7,r7,#31
        0x0000d0b4:    f64f4768    O.hG    MOV      r7,#0xfc68
        0x0000d0b8:    f2c00700    ....    MOVT     r7,#0
        0x0000d0bc:    5d3f        ?]      LDRB     r7,[r7,r4]
        0x0000d0be:    bf18        ..      IT       NE
        0x0000d0c0:    f0400002    @...    ORRNE    r0,r0,#2
        0x0000d0c4:    429f        .B      CMP      r7,r3
        0x0000d0c6:    d11f        ..      BNE      0xd108 ; am_hal_gpio_pinconfig + 264
        0x0000d0c8:    0c0b        ..      LSRS     r3,r1,#16
        0x0000d0ca:    f003070d    ....    AND      r7,r3,#0xd
        0x0000d0ce:    2f0d        ./      CMP      r7,#0xd
        0x0000d0d0:    f1020501    ....    ADD      r5,r2,#1
        0x0000d0d4:    d09a        ..      BEQ      0xd00c ; am_hal_gpio_pinconfig + 12
        0x0000d0d6:    07df        ..      LSLS     r7,r3,#31
        0x0000d0d8:    d104        ..      BNE      0xd0e4 ; am_hal_gpio_pinconfig + 228
        0x0000d0da:    f003070e    ....    AND      r7,r3,#0xe
        0x0000d0de:    2f04        ./      CMP      r7,#4
        0x0000d0e0:    f63faf94    ?...    BHI.W    0xd00c ; am_hal_gpio_pinconfig + 12
        0x0000d0e4:    f64f3c40    O.@<    MOV      r12,#0xfb40
        0x0000d0e8:    f0030630    ..0.    AND      r6,r3,#0x30
        0x0000d0ec:    f2c00c00    ....    MOVT     r12,#0
        0x0000d0f0:    f3c30542    ..B.    UBFX     r5,r3,#1,#3
        0x0000d0f4:    f36316c7    c...    BFI      r6,r3,#7,#1
        0x0000d0f8:    f81c7024    ..$p    LDRB     r7,[r12,r4,LSL #2]
        0x0000d0fc:    1973        s.      ADDS     r3,r6,r5
        0x0000d0fe:    42bb        .B      CMP      r3,r7
        0x0000d100:    f0408094    @...    BNE.W    0xd22c ; am_hal_gpio_pinconfig + 556
        0x0000d104:    2200        ."      MOVS     r2,#0
        0x0000d106:    e0a3        ..      B        0xd250 ; am_hal_gpio_pinconfig + 592
        0x0000d108:    2202        ."      MOVS     r2,#2
        0x0000d10a:    ea0222d1    ..."    AND      r2,r2,r1,LSR #11
        0x0000d10e:    f3c12307    ...#    UBFX     r3,r1,#8,#8
        0x0000d112:    4310        .C      ORRS     r0,r0,r2
        0x0000d114:    2208        ."      MOVS     r2,#8
        0x0000d116:    f3c30781    ....    UBFX     r7,r3,#2,#2
        0x0000d11a:    ea022291    ..."    AND      r2,r2,r1,LSR #10
        0x0000d11e:    ea420247    B.G.    ORR      r2,r2,r7,LSL #1
        0x0000d122:    3f01        .?      SUBS     r7,#1
        0x0000d124:    1ece        ..      SUBS     r6,r1,#3
        0x0000d126:    fab7f787    ....    CLZ      r7,r7
        0x0000d12a:    fab6f686    ....    CLZ      r6,r6
        0x0000d12e:    097f        ..      LSRS     r7,r7,#5
        0x0000d130:    0976        v.      LSRS     r6,r6,#5
        0x0000d132:    f0030360    ..`.    AND      r3,r3,#0x60
        0x0000d136:    2b40        @+      CMP      r3,#0x40
        0x0000d138:    ea470306    G...    ORR      r3,r7,r6
        0x0000d13c:    9301        ..      STR      r3,[sp,#4]
        0x0000d13e:    bf07        ..      ITTEE    EQ
        0x0000d140:    f3c133c0    ...3    UBFXEQ   r3,r1,#15,#1
        0x0000d144:    ea420c03    B...    ORREQ    r12,r2,r3
        0x0000d148:    f3c13380    ...3    UBFXNE   r3,r1,#14,#1
        0x0000d14c:    eb020c03    ....    ADDNE    r12,r2,r3
        0x0000d150:    0a09        ..      LSRS     r1,r1,#8
        0x0000d152:    f0010103    ....    AND      r1,r1,#3
        0x0000d156:    e8dff001    ....    TBB      [pc,r1]
    $d.2
        0x0000d15a:    0310        ..      DCW    784
        0x0000d15c:    bf000d0f    ....    DCD    3204451599
    $t.3
        0x0000d160:    f0400004    @...    ORR      r0,r0,#4
        0x0000d164:    2100        .!      MOVS     r1,#0
        0x0000d166:    e008        ..      B        0xd17a ; am_hal_gpio_pinconfig + 378
        0x0000d168:    4615        .F      MOV      r5,r2
        0x0000d16a:    4628        (F      MOV      r0,r5
        0x0000d16c:    b007        ..      ADD      sp,sp,#0x1c
        0x0000d16e:    e8bd8ff0    ....    POP      {r4-r11,pc}
        0x0000d172:    bf00        ..      NOP      
        0x0000d174:    f0400004    @...    ORR      r0,r0,#4
        0x0000d178:    2101        .!      MOVS     r1,#1
        0x0000d17a:    f06f0303    o...    MVN      r3,#3
        0x0000d17e:    ea030254    ..T.    AND      r2,r3,r4,LSR #1
        0x0000d182:    231c        .#      MOVS     r3,#0x1c
        0x0000d184:    ea030384    ....    AND      r3,r3,r4,LSL #2
        0x0000d188:    260f        .&      MOVS     r6,#0xf
        0x0000d18a:    409e        .@      LSLS     r6,r6,r3
        0x0000d18c:    9205        ..      STR      r2,[sp,#0x14]
        0x0000d18e:    2218        ."      MOVS     r2,#0x18
        0x0000d190:    43f6        .C      MVNS     r6,r6
        0x0000d192:    ea0202c4    ....    AND      r2,r2,r4,LSL #3
        0x0000d196:    9604        ..      STR      r6,[sp,#0x10]
        0x0000d198:    26ff        .&      MOVS     r6,#0xff
        0x0000d19a:    4096        .@      LSLS     r6,r6,r2
        0x0000d19c:    f2400a74    @.t.    MOVW     r10,#0x74
        0x0000d1a0:    ea6f0806    o...    MVN      r8,r6
        0x0000d1a4:    fa00f602    ....    LSL      r6,r0,r2
        0x0000d1a8:    fa01f002    ....    LSL      r0,r1,r2
        0x0000d1ac:    f2c40a01    ....    MOVT     r10,#0x4001
        0x0000d1b0:    9003        ..      STR      r0,[sp,#0xc]
        0x0000d1b2:    fa0cf003    ....    LSL      r0,r12,r3
        0x0000d1b6:    f1aa0928    ..(.    SUB      r9,r10,#0x28
        0x0000d1ba:    f0240703    $...    BIC      r7,r4,#3
        0x0000d1be:    f1aa0574    ..t.    SUB      r5,r10,#0x74
        0x0000d1c2:    f10a0b84    ....    ADD      r11,r10,#0x84
        0x0000d1c6:    9002        ..      STR      r0,[sp,#8]
        0x0000d1c8:    f000f8dc    ....    BL       am_hal_interrupt_master_disable ; 0xd384
        0x0000d1cc:    9901        ..      LDR      r1,[sp,#4]
        0x0000d1ce:    9006        ..      STR      r0,[sp,#0x18]
        0x0000d1d0:    b149        I.      CBZ      r1,0xd1e6 ; am_hal_gpio_pinconfig + 486
        0x0000d1d2:    f004001f    ....    AND      r0,r4,#0x1f
        0x0000d1d6:    2101        .!      MOVS     r1,#1
        0x0000d1d8:    fa01f000    ....    LSL      r0,r1,r0
        0x0000d1dc:    f3c41141    ..A.    UBFX     r1,r4,#5,#2
        0x0000d1e0:    eb0a0181    ....    ADD      r1,r10,r1,LSL #2
        0x0000d1e4:    6548        He      STR      r0,[r1,#0x54]
        0x0000d1e6:    2073        s       MOVS     r0,#0x73
        0x0000d1e8:    f8ca0000    ....    STR      r0,[r10,#0]
        0x0000d1ec:    5978        xY      LDR      r0,[r7,r5]
        0x0000d1ee:    ea000008    ....    AND      r0,r0,r8
        0x0000d1f2:    4330        0C      ORRS     r0,r0,r6
        0x0000d1f4:    5178        xQ      STR      r0,[r7,r5]
        0x0000d1f6:    9905        ..      LDR      r1,[sp,#0x14]
        0x0000d1f8:    2500        .%      MOVS     r5,#0
        0x0000d1fa:    f8510009    Q...    LDR      r0,[r1,r9]
        0x0000d1fe:    9b04        ..      LDR      r3,[sp,#0x10]
        0x0000d200:    4018        .@      ANDS     r0,r0,r3
        0x0000d202:    9b02        ..      LDR      r3,[sp,#8]
        0x0000d204:    4318        .C      ORRS     r0,r0,r3
        0x0000d206:    f8410009    A...    STR      r0,[r1,r9]
        0x0000d20a:    f857000b    W...    LDR      r0,[r7,r11]
        0x0000d20e:    9903        ..      LDR      r1,[sp,#0xc]
        0x0000d210:    ea000008    ....    AND      r0,r0,r8
        0x0000d214:    4308        .C      ORRS     r0,r0,r1
        0x0000d216:    f847000b    G...    STR      r0,[r7,r11]
        0x0000d21a:    f8ca5000    ...P    STR      r5,[r10,#0]
        0x0000d21e:    9806        ..      LDR      r0,[sp,#0x18]
        0x0000d220:    f000f8b8    ....    BL       am_hal_interrupt_master_set ; 0xd394
        0x0000d224:    4628        (F      MOV      r0,r5
        0x0000d226:    b007        ..      ADD      sp,sp,#0x1c
        0x0000d228:    e8bd8ff0    ....    POP      {r4-r11,pc}
        0x0000d22c:    eb0c0784    ....    ADD      r7,r12,r4,LSL #2
        0x0000d230:    787e        ~x      LDRB     r6,[r7,#1]
        0x0000d232:    42b3        .B      CMP      r3,r6
        0x0000d234:    d102        ..      BNE      0xd23c ; am_hal_gpio_pinconfig + 572
        0x0000d236:    2202        ."      MOVS     r2,#2
        0x0000d238:    e00a        ..      B        0xd250 ; am_hal_gpio_pinconfig + 592
        0x0000d23a:    bf00        ..      NOP      
        0x0000d23c:    78be        .x      LDRB     r6,[r7,#2]
        0x0000d23e:    42b3        .B      CMP      r3,r6
        0x0000d240:    d102        ..      BNE      0xd248 ; am_hal_gpio_pinconfig + 584
        0x0000d242:    2204        ."      MOVS     r2,#4
        0x0000d244:    e004        ..      B        0xd250 ; am_hal_gpio_pinconfig + 592
        0x0000d246:    bf00        ..      NOP      
        0x0000d248:    78ff        .x      LDRB     r7,[r7,#3]
        0x0000d24a:    42bb        .B      CMP      r3,r7
        0x0000d24c:    d108        ..      BNE      0xd260 ; am_hal_gpio_pinconfig + 608
        0x0000d24e:    2206        ."      MOVS     r2,#6
        0x0000d250:    2308        .#      MOVS     r3,#8
        0x0000d252:    ea0343d1    ...C    AND      r3,r3,r1,LSR #19
        0x0000d256:    eb020c03    ....    ADD      r12,r2,r3
        0x0000d25a:    2200        ."      MOVS     r2,#0
        0x0000d25c:    9201        ..      STR      r2,[sp,#4]
        0x0000d25e:    e777        w.      B        0xd150 ; am_hal_gpio_pinconfig + 336
        0x0000d260:    1c95        ..      ADDS     r5,r2,#2
        0x0000d262:    4628        (F      MOV      r0,r5
        0x0000d264:    b007        ..      ADD      sp,sp,#0x1c
        0x0000d266:    e8bd8ff0    ....    POP      {r4-r11,pc}
        0x0000d26a:    0000        ..      MOVS     r0,r0
    am_hal_gpio_state_read
        0x0000d26c:    2a00        .*      CMP      r2,#0
        0x0000d26e:    bf04        ..      ITT      EQ
        0x0000d270:    2006        .       MOVEQ    r0,#6
        0x0000d272:    4770        pG      BXEQ     lr
        0x0000d274:    2849        I(      CMP      r0,#0x49
        0x0000d276:    d905        ..      BLS      0xd284 ; am_hal_gpio_state_read + 24
        0x0000d278:    2005        .       MOVS     r0,#5
        0x0000d27a:    f04f31ff    O..1    MOV      r1,#0xffffffff
        0x0000d27e:    6011        .`      STR      r1,[r2,#0]
        0x0000d280:    4770        pG      BX       lr
        0x0000d282:    bf00        ..      NOP      
        0x0000d284:    230c        .#      MOVS     r3,#0xc
        0x0000d286:    2902        .)      CMP      r1,#2
        0x0000d288:    ea0303d0    ....    AND      r3,r3,r0,LSR #3
        0x0000d28c:    d00a        ..      BEQ      0xd2a4 ; am_hal_gpio_state_read + 56
        0x0000d28e:    2901        .)      CMP      r1,#1
        0x0000d290:    d00e        ..      BEQ      0xd2b0 ; am_hal_gpio_state_read + 68
        0x0000d292:    2900        .)      CMP      r1,#0
        0x0000d294:    bf1c        ..      ITT      NE
        0x0000d296:    2006        .       MOVNE    r0,#6
        0x0000d298:    4770        pG      BXNE     lr
        0x0000d29a:    2180        .!      MOVS     r1,#0x80
        0x0000d29c:    f2c40101    ....    MOVT     r1,#0x4001
        0x0000d2a0:    4319        .C      ORRS     r1,r1,r3
        0x0000d2a2:    e00a        ..      B        0xd2ba ; am_hal_gpio_state_read + 78
        0x0000d2a4:    2180        .!      MOVS     r1,#0x80
        0x0000d2a6:    f2c40101    ....    MOVT     r1,#0x4001
        0x0000d2aa:    4319        .C      ORRS     r1,r1,r3
        0x0000d2ac:    3130        01      ADDS     r1,r1,#0x30
        0x0000d2ae:    e004        ..      B        0xd2ba ; am_hal_gpio_state_read + 78
        0x0000d2b0:    2180        .!      MOVS     r1,#0x80
        0x0000d2b2:    f2c40101    ....    MOVT     r1,#0x4001
        0x0000d2b6:    4319        .C      ORRS     r1,r1,r3
        0x0000d2b8:    310c        .1      ADDS     r1,r1,#0xc
        0x0000d2ba:    6809        .h      LDR      r1,[r1,#0]
        0x0000d2bc:    f000001f    ....    AND      r0,r0,#0x1f
        0x0000d2c0:    fa21f000    !...    LSR      r0,r1,r0
        0x0000d2c4:    f0000101    ....    AND      r1,r0,#1
        0x0000d2c8:    2000        .       MOVS     r0,#0
        0x0000d2ca:    6011        .`      STR      r1,[r2,#0]
        0x0000d2cc:    4770        pG      BX       lr
        0x0000d2ce:    0000        ..      MOVS     r0,r0
    am_hal_gpio_state_write
        0x0000d2d0:    b5b0        ..      PUSH     {r4,r5,r7,lr}
        0x0000d2d2:    b082        ..      SUB      sp,sp,#8
        0x0000d2d4:    2849        I(      CMP      r0,#0x49
        0x0000d2d6:    d903        ..      BLS      0xd2e0 ; am_hal_gpio_state_write + 16
        0x0000d2d8:    2405        .$      MOVS     r4,#5
        0x0000d2da:    4620         F      MOV      r0,r4
        0x0000d2dc:    b002        ..      ADD      sp,sp,#8
        0x0000d2de:    bdb0        ..      POP      {r4,r5,r7,pc}
        0x0000d2e0:    460d        .F      MOV      r5,r1
        0x0000d2e2:    2905        .)      CMP      r1,#5
        0x0000d2e4:    d904        ..      BLS      0xd2f0 ; am_hal_gpio_state_write + 32
        0x0000d2e6:    2406        .$      MOVS     r4,#6
        0x0000d2e8:    4620         F      MOV      r0,r4
        0x0000d2ea:    b002        ..      ADD      sp,sp,#8
        0x0000d2ec:    bdb0        ..      POP      {r4,r5,r7,pc}
        0x0000d2ee:    bf00        ..      NOP      
        0x0000d2f0:    4604        .F      MOV      r4,r0
        0x0000d2f2:    f000f847    ..G.    BL       am_hal_interrupt_master_disable ; 0xd384
        0x0000d2f6:    2d05        .-      CMP      r5,#5
        0x0000d2f8:    9001        ..      STR      r0,[sp,#4]
        0x0000d2fa:    d841        A.      BHI      0xd380 ; am_hal_gpio_state_write + 176
        0x0000d2fc:    f004001f    ....    AND      r0,r4,#0x1f
        0x0000d300:    2101        .!      MOVS     r1,#1
        0x0000d302:    fa01f000    ....    LSL      r0,r1,r0
        0x0000d306:    210c        .!      MOVS     r1,#0xc
        0x0000d308:    ea0101d4    ....    AND      r1,r1,r4,LSR #3
        0x0000d30c:    e8dff005    ....    TBB      [pc,r5]
    $d.7
        0x0000d310:    1e140c04    ....    DCD    504630276
        0x0000d314:    bf002a22    "*..    DCD    3204459042
    $t.8
        0x0000d318:    22c8        ."      MOVS     r2,#0xc8
        0x0000d31a:    f2c40201    ....    MOVT     r2,#0x4001
        0x0000d31e:    4411        .D      ADD      r1,r1,r2
        0x0000d320:    f8410c24    A.$.    STR      r0,[r1,#-0x24]
        0x0000d324:    e024        $.      B        0xd370 ; am_hal_gpio_state_write + 160
        0x0000d326:    bf00        ..      NOP      
        0x0000d328:    22c8        ."      MOVS     r2,#0xc8
        0x0000d32a:    f2c40201    ....    MOVT     r2,#0x4001
        0x0000d32e:    4411        .D      ADD      r1,r1,r2
        0x0000d330:    f8410c30    A.0.    STR      r0,[r1,#-0x30]
        0x0000d334:    e01c        ..      B        0xd370 ; am_hal_gpio_state_write + 160
        0x0000d336:    bf00        ..      NOP      
        0x0000d338:    22c8        ."      MOVS     r2,#0xc8
        0x0000d33a:    f2c40201    ....    MOVT     r2,#0x4001
        0x0000d33e:    4411        .D      ADD      r1,r1,r2
        0x0000d340:    f8512c3c    Q.<,    LDR      r2,[r1,#-0x3c]
        0x0000d344:    4050        P@      EORS     r0,r0,r2
        0x0000d346:    f8410c3c    A.<.    STR      r0,[r1,#-0x3c]
        0x0000d34a:    e011        ..      B        0xd370 ; am_hal_gpio_state_write + 160
        0x0000d34c:    22c8        ."      MOVS     r2,#0xc8
        0x0000d34e:    f2c40201    ....    MOVT     r2,#0x4001
        0x0000d352:    e00c        ..      B        0xd36e ; am_hal_gpio_state_write + 158
        0x0000d354:    22c8        ."      MOVS     r2,#0xc8
        0x0000d356:    f2c40201    ....    MOVT     r2,#0x4001
        0x0000d35a:    4411        .D      ADD      r1,r1,r2
        0x0000d35c:    f8410c0c    A...    STR      r0,[r1,#-0xc]
        0x0000d360:    e006        ..      B        0xd370 ; am_hal_gpio_state_write + 160
        0x0000d362:    bf00        ..      NOP      
        0x0000d364:    22c8        ."      MOVS     r2,#0xc8
        0x0000d366:    f2c40201    ....    MOVT     r2,#0x4001
        0x0000d36a:    588b        .X      LDR      r3,[r1,r2]
        0x0000d36c:    4058        X@      EORS     r0,r0,r3
        0x0000d36e:    5088        .P      STR      r0,[r1,r2]
        0x0000d370:    2400        .$      MOVS     r4,#0
        0x0000d372:    9801        ..      LDR      r0,[sp,#4]
        0x0000d374:    f000f80e    ....    BL       am_hal_interrupt_master_set ; 0xd394
        0x0000d378:    4620         F      MOV      r0,r4
        0x0000d37a:    b002        ..      ADD      sp,sp,#8
        0x0000d37c:    bdb0        ..      POP      {r4,r5,r7,pc}
        0x0000d37e:    bf00        ..      NOP      
        0x0000d380:    2406        .$      MOVS     r4,#6
        0x0000d382:    e7f6        ..      B        0xd372 ; am_hal_gpio_state_write + 162
    am_hal_interrupt_master_disable
        0x0000d384:    f3ef8010    ....    MRS      r0,PRIMASK
        0x0000d388:    b672        r.      CPSID    i
        0x0000d38a:    4770        pG      BX       lr
    am_hal_interrupt_master_enable
        0x0000d38c:    f3ef8010    ....    MRS      r0,PRIMASK
        0x0000d390:    b662        b.      CPSIE    i
        0x0000d392:    4770        pG      BX       lr
    am_hal_interrupt_master_set
        0x0000d394:    f3808810    ....    MSR      PRIMASK,r0
        0x0000d398:    4770        pG      BX       lr
        0x0000d39a:    0000        ..      MOVS     r0,r0
    am_hal_pwrctrl_low_power_init
        0x0000d39c:    b570        p.      PUSH     {r4-r6,lr}
        0x0000d39e:    b082        ..      SUB      sp,sp,#8
        0x0000d3a0:    f2410094    A...    MOV      r0,#0x1094
        0x0000d3a4:    f2c10000    ....    MOVT     r0,#0x1000
        0x0000d3a8:    6801        .h      LDR      r1,[r0,#0]
        0x0000d3aa:    b929        ).      CBNZ     r1,0xd3b8 ; am_hal_pwrctrl_low_power_init + 28
        0x0000d3ac:    f24f0100    O...    MOVW     r1,#0xf000
        0x0000d3b0:    f6c471ff    ...q    MOVT     r1,#0x4fff
        0x0000d3b4:    6809        .h      LDR      r1,[r1,#0]
        0x0000d3b6:    6001        .`      STR      r1,[r0,#0]
        0x0000d3b8:    f2403450    @.P4    MOVW     r4,#0x350
        0x0000d3bc:    f64f45bc    O..E    MOV      r5,#0xfcbc
        0x0000d3c0:    f2c40402    ....    MOVT     r4,#0x4002
        0x0000d3c4:    f6cf75ff    ...u    MOVT     r5,#0xffff
        0x0000d3c8:    5960        `Y      LDR      r0,[r4,r5]
        0x0000d3ca:    b2c0        ..      UXTB     r0,r0
        0x0000d3cc:    2821        !(      CMP      r0,#0x21
        0x0000d3ce:    d30a        ..      BCC      0xd3e6 ; am_hal_pwrctrl_low_power_init + 74
        0x0000d3d0:    f2410090    A...    MOV      r0,#0x1090
        0x0000d3d4:    f2c10000    ....    MOVT     r0,#0x1000
        0x0000d3d8:    7801        .x      LDRB     r1,[r0,#0]
        0x0000d3da:    2900        .)      CMP      r1,#0
        0x0000d3dc:    d04e        N.      BEQ      0xd47c ; am_hal_pwrctrl_low_power_init + 224
        0x0000d3de:    7841        Ax      LDRB     r1,[r0,#1]
        0x0000d3e0:    2900        .)      CMP      r1,#0
        0x0000d3e2:    f000808e    ....    BEQ.W    0xd502 ; am_hal_pwrctrl_low_power_init + 358
        0x0000d3e6:    5960        `Y      LDR      r0,[r4,r5]
        0x0000d3e8:    f00000fe    ....    AND      r0,r0,#0xfe
        0x0000d3ec:    2812        .(      CMP      r0,#0x12
        0x0000d3ee:    d303        ..      BCC      0xd3f8 ; am_hal_pwrctrl_low_power_init + 92
        0x0000d3f0:    68e0        .h      LDR      r0,[r4,#0xc]
        0x0000d3f2:    f0207080     ..p    BIC      r0,r0,#0x1000000
        0x0000d3f6:    60e0        .`      STR      r0,[r4,#0xc]
        0x0000d3f8:    f2410600    A...    MOVW     r6,#0x1000
        0x0000d3fc:    200c        .       MOVS     r0,#0xc
        0x0000d3fe:    2100        .!      MOVS     r1,#0
        0x0000d400:    f2c40602    ....    MOVT     r6,#0x4002
        0x0000d404:    f7fffb68    ..h.    BL       am_hal_cachectrl_control ; 0xcad8
        0x0000d408:    69b0        .i      LDR      r0,[r6,#0x18]
        0x0000d40a:    05c0        ..      LSLS     r0,r0,#23
        0x0000d40c:    f10080c0    ....    BMI.W    0xd590 ; am_hal_pwrctrl_low_power_init + 500
        0x0000d410:    5960        `Y      LDR      r0,[r4,r5]
        0x0000d412:    f00000fe    ....    AND      r0,r0,#0xfe
        0x0000d416:    2812        .(      CMP      r0,#0x12
        0x0000d418:    d317        ..      BCC      0xd44a ; am_hal_pwrctrl_low_power_init + 174
        0x0000d41a:    f7ffffb3    ....    BL       am_hal_interrupt_master_disable ; 0xd384
        0x0000d41e:    9001        ..      STR      r0,[sp,#4]
        0x0000d420:    69a0        .i      LDR      r0,[r4,#0x18]
        0x0000d422:    2119        .!      MOVS     r1,#0x19
        0x0000d424:    f361108b    a...    BFI      r0,r1,#6,#6
        0x0000d428:    61a0        .a      STR      r0,[r4,#0x18]
        0x0000d42a:    69a0        .i      LDR      r0,[r4,#0x18]
        0x0000d42c:    210c        .!      MOVS     r1,#0xc
        0x0000d42e:    f3610005    a...    BFI      r0,r1,#0,#6
        0x0000d432:    61a0        .a      STR      r0,[r4,#0x18]
        0x0000d434:    f244003c    D.<.    MOV      r0,#0x403c
        0x0000d438:    f2c40000    ....    MOVT     r0,#0x4000
        0x0000d43c:    6801        .h      LDR      r1,[r0,#0]
        0x0000d43e:    f4210180    !...    BIC      r1,r1,#0x400000
        0x0000d442:    6001        .`      STR      r1,[r0,#0]
        0x0000d444:    9801        ..      LDR      r0,[sp,#4]
        0x0000d446:    f7ffffa5    ....    BL       am_hal_interrupt_master_set ; 0xd394
        0x0000d44a:    f64f40c8    O..@    MOV      r0,#0xfcc8
        0x0000d44e:    f6cf70ff    ...p    MOVT     r0,#0xffff
        0x0000d452:    5822        "X      LDR      r2,[r4,r0]
        0x0000d454:    f5a4714e    ..Nq    SUB      r1,r4,#0x338
        0x0000d458:    f0420201    B...    ORR      r2,r2,#1
        0x0000d45c:    5022        "P      STR      r2,[r4,r0]
        0x0000d45e:    2501        .%      MOVS     r5,#1
        0x0000d460:    f2427010    B..p    MOV      r0,#0x2710
        0x0000d464:    2207        ."      MOVS     r2,#7
        0x0000d466:    2307        .#      MOVS     r3,#7
        0x0000d468:    9500        ..      STR      r5,[sp,#0]
        0x0000d46a:    f7fffd03    ....    BL       am_hal_flash_delay_status_check ; 0xce74
        0x0000d46e:    2800        .(      CMP      r0,#0
        0x0000d470:    f0008086    ....    BEQ.W    0xd580 ; am_hal_pwrctrl_low_power_init + 484
        0x0000d474:    2004        .       MOVS     r0,#4
        0x0000d476:    b002        ..      ADD      sp,sp,#8
        0x0000d478:    bd70        p.      POP      {r4-r6,pc}
        0x0000d47a:    bf00        ..      NOP      
        0x0000d47c:    2101        .!      MOVS     r1,#1
        0x0000d47e:    7001        .p      STRB     r1,[r0,#0]
        0x0000d480:    6821        !h      LDR      r1,[r4,#0]
        0x0000d482:    6823        #h      LDR      r3,[r4,#0]
        0x0000d484:    f3c15185    ...Q    UBFX     r1,r1,#22,#6
        0x0000d488:    390c        .9      SUBS     r1,r1,#0xc
        0x0000d48a:    f04f0200    O...    MOV      r2,#0
        0x0000d48e:    bf38        8.      IT       CC
        0x0000d490:    4611        .F      MOVCC    r1,r2
        0x0000d492:    f023637c    #.|c    BIC      r3,r3,#0xfc00000
        0x0000d496:    ea435181    C..Q    ORR      r1,r3,r1,LSL #22
        0x0000d49a:    6021        !`      STR      r1,[r4,#0]
        0x0000d49c:    6821        !h      LDR      r1,[r4,#0]
        0x0000d49e:    6823        #h      LDR      r3,[r4,#0]
        0x0000d4a0:    f3c12185    ...!    UBFX     r1,r1,#10,#6
        0x0000d4a4:    390d        .9      SUBS     r1,r1,#0xd
        0x0000d4a6:    bf38        8.      IT       CC
        0x0000d4a8:    4611        .F      MOVCC    r1,r2
        0x0000d4aa:    f423427c    #.|B    BIC      r2,r3,#0xfc00
        0x0000d4ae:    ea422181    B..!    ORR      r1,r2,r1,LSL #10
        0x0000d4b2:    6021        !`      STR      r1,[r4,#0]
        0x0000d4b4:    6861        ah      LDR      r1,[r4,#4]
        0x0000d4b6:    2208        ."      MOVS     r2,#8
        0x0000d4b8:    f3625117    b..Q    BFI      r1,r2,#20,#4
        0x0000d4bc:    6061        a`      STR      r1,[r4,#4]
        0x0000d4be:    6861        ah      LDR      r1,[r4,#4]
        0x0000d4c0:    2305        .#      MOVS     r3,#5
        0x0000d4c2:    f3634113    c..A    BFI      r1,r3,#16,#4
        0x0000d4c6:    6061        a`      STR      r1,[r4,#4]
        0x0000d4c8:    68e1        .h      LDR      r1,[r4,#0xc]
        0x0000d4ca:    f3620103    b...    BFI      r1,r2,#0,#4
        0x0000d4ce:    60e1        .`      STR      r1,[r4,#0xc]
        0x0000d4d0:    68a1        .h      LDR      r1,[r4,#8]
        0x0000d4d2:    2206        ."      MOVS     r2,#6
        0x0000d4d4:    f36261de    b..a    BFI      r1,r2,#27,#4
        0x0000d4d8:    60a1        .`      STR      r1,[r4,#8]
        0x0000d4da:    68e1        .h      LDR      r1,[r4,#0xc]
        0x0000d4dc:    f4410100    A...    ORR      r1,r1,#0x800000
        0x0000d4e0:    60e1        .`      STR      r1,[r4,#0xc]
        0x0000d4e2:    68e1        .h      LDR      r1,[r4,#0xc]
        0x0000d4e4:    f0217180    !..q    BIC      r1,r1,#0x1000000
        0x0000d4e8:    60e1        .`      STR      r1,[r4,#0xc]
        0x0000d4ea:    6861        ah      LDR      r1,[r4,#4]
        0x0000d4ec:    f0415140    A.@Q    ORR      r1,r1,#0x30000000
        0x0000d4f0:    6061        a`      STR      r1,[r4,#4]
        0x0000d4f2:    6861        ah      LDR      r1,[r4,#4]
        0x0000d4f4:    f041011f    A...    ORR      r1,r1,#0x1f
        0x0000d4f8:    6061        a`      STR      r1,[r4,#4]
        0x0000d4fa:    7841        Ax      LDRB     r1,[r0,#1]
        0x0000d4fc:    2900        .)      CMP      r1,#0
        0x0000d4fe:    f47faf72    ..r.    BNE      0xd3e6 ; am_hal_pwrctrl_low_power_init + 74
        0x0000d502:    2101        .!      MOVS     r1,#1
        0x0000d504:    7041        Ap      STRB     r1,[r0,#1]
        0x0000d506:    f6430038    C.8.    MOV      r0,#0x3838
        0x0000d50a:    f2c50002    ....    MOVT     r0,#0x5002
        0x0000d50e:    4601        .F      MOV      r1,r0
        0x0000d510:    f8512b38    Q.8+    LDR      r2,[r1],#0x38
        0x0000d514:    f0120208    ....    ANDS     r2,r2,#8
        0x0000d518:    f5a47232    ..2r    SUB      r2,r4,#0x2c8
        0x0000d51c:    bf08        ..      IT       EQ
        0x0000d51e:    f1000234    ..4.    ADDEQ    r2,r0,#0x34
        0x0000d522:    6810        .h      LDR      r0,[r2,#0]
        0x0000d524:    f64f5238    O.8R    MOV      r2,#0xfd38
        0x0000d528:    f6cf72ff    ...r    MOVT     r2,#0xffff
        0x0000d52c:    bf18        ..      IT       NE
        0x0000d52e:    4621        !F      MOVNE    r1,r4
        0x0000d530:    58a3        .X      LDR      r3,[r4,r2]
        0x0000d532:    f000003f    ..?.    AND      r0,r0,#0x3f
        0x0000d536:    f023033f    #.?.    BIC      r3,r3,#0x3f
        0x0000d53a:    283c        <(      CMP      r0,#0x3c
        0x0000d53c:    bf28        (.      IT       CS
        0x0000d53e:    203c        <       MOVCS    r0,#0x3c
        0x0000d540:    50a3        .P      STR      r3,[r4,r2]
        0x0000d542:    58a3        .X      LDR      r3,[r4,r2]
        0x0000d544:    3003        .0      ADDS     r0,#3
        0x0000d546:    4318        .C      ORRS     r0,r0,r3
        0x0000d548:    50a0        .P      STR      r0,[r4,r2]
        0x0000d54a:    6808        .h      LDR      r0,[r1,#0]
        0x0000d54c:    6821        !h      LDR      r1,[r4,#0]
        0x0000d54e:    f3c04005    ...@    UBFX     r0,r0,#16,#6
        0x0000d552:    f421117c    !.|.    BIC      r1,r1,#0x3f0000
        0x0000d556:    283a        :(      CMP      r0,#0x3a
        0x0000d558:    bf28        (.      IT       CS
        0x0000d55a:    203a        :       MOVCS    r0,#0x3a
        0x0000d55c:    6021        !`      STR      r1,[r4,#0]
        0x0000d55e:    f44f21a0    O..!    MOV      r1,#0x50000
        0x0000d562:    eb014000    ...@    ADD      r0,r1,r0,LSL #16
        0x0000d566:    6821        !h      LDR      r1,[r4,#0]
        0x0000d568:    f400107c    ..|.    AND      r0,r0,#0x3f0000
        0x0000d56c:    4308        .C      ORRS     r0,r0,r1
        0x0000d56e:    6020         `      STR      r0,[r4,#0]
        0x0000d570:    5960        `Y      LDR      r0,[r4,r5]
        0x0000d572:    f00000fe    ....    AND      r0,r0,#0xfe
        0x0000d576:    2812        .(      CMP      r0,#0x12
        0x0000d578:    f4bfaf3a    ..:.    BCS      0xd3f0 ; am_hal_pwrctrl_low_power_init + 84
        0x0000d57c:    e73c        <.      B        0xd3f8 ; am_hal_pwrctrl_low_power_init + 92
        0x0000d57e:    bf00        ..      NOP      
        0x0000d580:    6830        0h      LDR      r0,[r6,#0]
        0x0000d582:    f0400001    @...    ORR      r0,r0,#1
        0x0000d586:    6030        0`      STR      r0,[r6,#0]
        0x0000d588:    6a70        pj      LDR      r0,[r6,#0x24]
        0x0000d58a:    f0400040    @.@.    ORR      r0,r0,#0x40
        0x0000d58e:    6270        pb      STR      r0,[r6,#0x24]
        0x0000d590:    f7fff890    ....    BL       am_hal_burst_ldo_charge ; 0xc6b4
        0x0000d594:    2000        .       MOVS     r0,#0
        0x0000d596:    b002        ..      ADD      sp,sp,#8
        0x0000d598:    bd70        p.      POP      {r4-r6,pc}
        0x0000d59a:    0000        ..      MOVS     r0,r0
    am_hal_pwrctrl_memory_deepsleep_powerdown
        0x0000d59c:    2811        .(      CMP      r0,#0x11
        0x0000d59e:    bf84        ..      ITT      HI
        0x0000d5a0:    2001        .       MOVHI    r0,#1
        0x0000d5a2:    4770        pG      BXHI     lr
        0x0000d5a4:    f24f71f0    O..q    MOV      r1,#0xf7f0
        0x0000d5a8:    eb000040    ..@.    ADD      r0,r0,r0,LSL #1
        0x0000d5ac:    f2c00100    ....    MOVT     r1,#0
        0x0000d5b0:    eb0100c0    ....    ADD      r0,r1,r0,LSL #3
        0x0000d5b4:    f241010c    A...    MOV      r1,#0x100c
        0x0000d5b8:    f2c40102    ....    MOVT     r1,#0x4002
        0x0000d5bc:    6940        @i      LDR      r0,[r0,#0x14]
        0x0000d5be:    680a        .h      LDR      r2,[r1,#0]
        0x0000d5c0:    4310        .C      ORRS     r0,r0,r2
        0x0000d5c2:    6008        .`      STR      r0,[r1,#0]
        0x0000d5c4:    2000        .       MOVS     r0,#0
        0x0000d5c6:    4770        pG      BX       lr
    am_hal_pwrctrl_memory_deepsleep_retain
        0x0000d5c8:    2811        .(      CMP      r0,#0x11
        0x0000d5ca:    bf84        ..      ITT      HI
        0x0000d5cc:    2001        .       MOVHI    r0,#1
        0x0000d5ce:    4770        pG      BXHI     lr
        0x0000d5d0:    f24f71f0    O..q    MOV      r1,#0xf7f0
        0x0000d5d4:    eb000040    ..@.    ADD      r0,r0,r0,LSL #1
        0x0000d5d8:    f2c00100    ....    MOVT     r1,#0
        0x0000d5dc:    eb0100c0    ....    ADD      r0,r1,r0,LSL #3
        0x0000d5e0:    f241010c    A...    MOV      r1,#0x100c
        0x0000d5e4:    f2c40102    ....    MOVT     r1,#0x4002
        0x0000d5e8:    6940        @i      LDR      r0,[r0,#0x14]
        0x0000d5ea:    680a        .h      LDR      r2,[r1,#0]
        0x0000d5ec:    ea220000    "...    BIC      r0,r2,r0
        0x0000d5f0:    6008        .`      STR      r0,[r1,#0]
        0x0000d5f2:    2000        .       MOVS     r0,#0
        0x0000d5f4:    4770        pG      BX       lr
        0x0000d5f6:    0000        ..      MOVS     r0,r0
    am_hal_pwrctrl_memory_enable
        0x0000d5f8:    b5f0        ..      PUSH     {r4-r7,lr}
        0x0000d5fa:    b081        ..      SUB      sp,sp,#4
        0x0000d5fc:    f24f71f0    O..q    MOV      r1,#0xf7f0
        0x0000d600:    eb000040    ..@.    ADD      r0,r0,r0,LSL #1
        0x0000d604:    f2c00100    ....    MOVT     r1,#0
        0x0000d608:    eb0106c0    ....    ADD      r6,r1,r0,LSL #3
        0x0000d60c:    f8517030    Q.0p    LDR      r7,[r1,r0,LSL #3]
        0x0000d610:    6934        4i      LDR      r4,[r6,#0x10]
        0x0000d612:    f2410510    A...    MOV      r5,#0x1010
        0x0000d616:    1c78        x.      ADDS     r0,r7,#1
        0x0000d618:    f2c40502    ....    MOVT     r5,#0x4002
        0x0000d61c:    d00c        ..      BEQ      0xd638 ; am_hal_pwrctrl_memory_enable + 64
        0x0000d61e:    68f0        .h      LDR      r0,[r6,#0xc]
        0x0000d620:    f2420101    B...    MOV      r1,#0x2001
        0x0000d624:    ea670000    g...    ORN      r0,r7,r0
        0x0000d628:    682a        *h      LDR      r2,[r5,#0]
        0x0000d62a:    4308        .C      ORRS     r0,r0,r1
        0x0000d62c:    4010        .@      ANDS     r0,r0,r2
        0x0000d62e:    6028        (`      STR      r0,[r5,#0]
        0x0000d630:    2010        .       MOVS     r0,#0x10
        0x0000d632:    f7fffc09    ....    BL       am_hal_flash_delay ; 0xce48
        0x0000d636:    b17f        ..      CBZ      r7,0xd658 ; am_hal_pwrctrl_memory_enable + 96
        0x0000d638:    6828        (h      LDR      r0,[r5,#0]
        0x0000d63a:    4338        8C      ORRS     r0,r0,r7
        0x0000d63c:    6028        (`      STR      r0,[r5,#0]
        0x0000d63e:    20a0        .       MOVS     r0,#0xa0
        0x0000d640:    f7fffc02    ....    BL       am_hal_flash_delay ; 0xce48
        0x0000d644:    6868        hh      LDR      r0,[r5,#4]
        0x0000d646:    6876        vh      LDR      r6,[r6,#4]
        0x0000d648:    4020         @      ANDS     r0,r0,r4
        0x0000d64a:    42b0        .B      CMP      r0,r6
        0x0000d64c:    d005        ..      BEQ      0xd65a ; am_hal_pwrctrl_memory_enable + 98
        0x0000d64e:    20a0        .       MOVS     r0,#0xa0
        0x0000d650:    f7fffbfa    ....    BL       am_hal_flash_delay ; 0xce48
        0x0000d654:    6868        hh      LDR      r0,[r5,#4]
        0x0000d656:    e000        ..      B        0xd65a ; am_hal_pwrctrl_memory_enable + 98
        0x0000d658:    6876        vh      LDR      r6,[r6,#4]
        0x0000d65a:    6868        hh      LDR      r0,[r5,#4]
        0x0000d65c:    4020         @      ANDS     r0,r0,r4
        0x0000d65e:    1b80        ..      SUBS     r0,r0,r6
        0x0000d660:    bf18        ..      IT       NE
        0x0000d662:    2001        .       MOVNE    r0,#1
        0x0000d664:    b001        ..      ADD      sp,sp,#4
        0x0000d666:    bdf0        ..      POP      {r4-r7,pc}
    am_hal_pwrctrl_periph_disable
        0x0000d668:    b570        p.      PUSH     {r4-r6,lr}
        0x0000d66a:    b082        ..      SUB      sp,sp,#8
        0x0000d66c:    f2410508    A...    MOV      r5,#0x1008
        0x0000d670:    4604        .F      MOV      r4,r0
        0x0000d672:    f2c40502    ....    MOVT     r5,#0x4002
        0x0000d676:    f7fffe85    ....    BL       am_hal_interrupt_master_disable ; 0xd384
        0x0000d67a:    f64f12a0    O...    MOV      r2,#0xf9a0
        0x0000d67e:    9001        ..      STR      r0,[sp,#4]
        0x0000d680:    eb040144    ..D.    ADD      r1,r4,r4,LSL #1
        0x0000d684:    f2c00200    ....    MOVT     r2,#0
        0x0000d688:    f8524021    R.!@    LDR      r4,[r2,r1,LSL #2]
        0x0000d68c:    6828        (h      LDR      r0,[r5,#0]
        0x0000d68e:    eb020681    ....    ADD      r6,r2,r1,LSL #2
        0x0000d692:    43a0        .C      BICS     r0,r0,r4
        0x0000d694:    6028        (`      STR      r0,[r5,#0]
        0x0000d696:    9801        ..      LDR      r0,[sp,#4]
        0x0000d698:    f7fffe7c    ..|.    BL       am_hal_interrupt_master_set ; 0xd394
        0x0000d69c:    20a0        .       MOVS     r0,#0xa0
        0x0000d69e:    f7fffbd3    ....    BL       am_hal_flash_delay ; 0xce48
        0x0000d6a2:    6928        (i      LDR      r0,[r5,#0x10]
        0x0000d6a4:    6876        vh      LDR      r6,[r6,#4]
        0x0000d6a6:    4206        .B      TST      r6,r0
        0x0000d6a8:    d003        ..      BEQ      0xd6b2 ; am_hal_pwrctrl_periph_disable + 74
        0x0000d6aa:    20a0        .       MOVS     r0,#0xa0
        0x0000d6ac:    f7fffbcc    ....    BL       am_hal_flash_delay ; 0xce48
        0x0000d6b0:    6928        (i      LDR      r0,[r5,#0x10]
        0x0000d6b2:    6928        (i      LDR      r0,[r5,#0x10]
        0x0000d6b4:    4206        .B      TST      r6,r0
        0x0000d6b6:    d00f        ..      BEQ      0xd6d8 ; am_hal_pwrctrl_periph_disable + 112
        0x0000d6b8:    6829        )h      LDR      r1,[r5,#0]
        0x0000d6ba:    2e0f        ..      CMP      r6,#0xf
        0x0000d6bc:    f04f0001    O...    MOV      r0,#1
        0x0000d6c0:    dc0e        ..      BGT      0xd6e0 ; am_hal_pwrctrl_periph_disable + 120
        0x0000d6c2:    2e04        ..      CMP      r6,#4
        0x0000d6c4:    d01a        ..      BEQ      0xd6fc ; am_hal_pwrctrl_periph_disable + 148
        0x0000d6c6:    2e08        ..      CMP      r6,#8
        0x0000d6c8:    d115        ..      BNE      0xd6f6 ; am_hal_pwrctrl_periph_disable + 142
        0x0000d6ca:    f0110f0e    ....    TST      r1,#0xe
        0x0000d6ce:    d10e        ..      BNE      0xd6ee ; am_hal_pwrctrl_periph_disable + 134
        0x0000d6d0:    2001        .       MOVS     r0,#1
        0x0000d6d2:    b002        ..      ADD      sp,sp,#8
        0x0000d6d4:    bd70        p.      POP      {r4-r6,pc}
        0x0000d6d6:    bf00        ..      NOP      
        0x0000d6d8:    2000        .       MOVS     r0,#0
        0x0000d6da:    b002        ..      ADD      sp,sp,#8
        0x0000d6dc:    bd70        p.      POP      {r4-r6,pc}
        0x0000d6de:    bf00        ..      NOP      
        0x0000d6e0:    2e10        ..      CMP      r6,#0x10
        0x0000d6e2:    d011        ..      BEQ      0xd708 ; am_hal_pwrctrl_periph_disable + 160
        0x0000d6e4:    2e40        @.      CMP      r6,#0x40
        0x0000d6e6:    d106        ..      BNE      0xd6f6 ; am_hal_pwrctrl_periph_disable + 142
        0x0000d6e8:    f4115f60    ..`_    TST      r1,#0x3800
        0x0000d6ec:    d0f0        ..      BEQ      0xd6d0 ; am_hal_pwrctrl_periph_disable + 104
        0x0000d6ee:    ea110004    ....    ANDS     r0,r1,r4
        0x0000d6f2:    bf18        ..      IT       NE
        0x0000d6f4:    2001        .       MOVNE    r0,#1
        0x0000d6f6:    b002        ..      ADD      sp,sp,#8
        0x0000d6f8:    bd70        p.      POP      {r4-r6,pc}
        0x0000d6fa:    bf00        ..      NOP      
        0x0000d6fc:    f2405081    @..P    MOV      r0,#0x581
        0x0000d700:    4201        .B      TST      r1,r0
        0x0000d702:    d1f4        ..      BNE      0xd6ee ; am_hal_pwrctrl_periph_disable + 134
        0x0000d704:    e7e4        ..      B        0xd6d0 ; am_hal_pwrctrl_periph_disable + 104
        0x0000d706:    bf00        ..      NOP      
        0x0000d708:    f0110f70    ..p.    TST      r1,#0x70
        0x0000d70c:    d1ef        ..      BNE      0xd6ee ; am_hal_pwrctrl_periph_disable + 134
        0x0000d70e:    e7df        ..      B        0xd6d0 ; am_hal_pwrctrl_periph_disable + 104
    am_hal_pwrctrl_periph_enable
        0x0000d710:    b570        p.      PUSH     {r4-r6,lr}
        0x0000d712:    b082        ..      SUB      sp,sp,#8
        0x0000d714:    f2410508    A...    MOV      r5,#0x1008
        0x0000d718:    4604        .F      MOV      r4,r0
        0x0000d71a:    f2c40502    ....    MOVT     r5,#0x4002
        0x0000d71e:    f7fffe31    ..1.    BL       am_hal_interrupt_master_disable ; 0xd384
        0x0000d722:    f64f12a0    O...    MOV      r2,#0xf9a0
        0x0000d726:    9001        ..      STR      r0,[sp,#4]
        0x0000d728:    eb040144    ..D.    ADD      r1,r4,r4,LSL #1
        0x0000d72c:    f2c00200    ....    MOVT     r2,#0
        0x0000d730:    f8524021    R.!@    LDR      r4,[r2,r1,LSL #2]
        0x0000d734:    6828        (h      LDR      r0,[r5,#0]
        0x0000d736:    eb020681    ....    ADD      r6,r2,r1,LSL #2
        0x0000d73a:    4320         C      ORRS     r0,r0,r4
        0x0000d73c:    6028        (`      STR      r0,[r5,#0]
        0x0000d73e:    9801        ..      LDR      r0,[sp,#4]
        0x0000d740:    f7fffe28    ..(.    BL       am_hal_interrupt_master_set ; 0xd394
        0x0000d744:    20a0        .       MOVS     r0,#0xa0
        0x0000d746:    f7fffb7f    ....    BL       am_hal_flash_delay ; 0xce48
        0x0000d74a:    6928        (i      LDR      r0,[r5,#0x10]
        0x0000d74c:    6876        vh      LDR      r6,[r6,#4]
        0x0000d74e:    4206        .B      TST      r6,r0
        0x0000d750:    d006        ..      BEQ      0xd760 ; am_hal_pwrctrl_periph_enable + 80
        0x0000d752:    6928        (i      LDR      r0,[r5,#0x10]
        0x0000d754:    4206        .B      TST      r6,r0
        0x0000d756:    d00a        ..      BEQ      0xd76e ; am_hal_pwrctrl_periph_enable + 94
        0x0000d758:    2000        .       MOVS     r0,#0
        0x0000d75a:    b002        ..      ADD      sp,sp,#8
        0x0000d75c:    bd70        p.      POP      {r4-r6,pc}
        0x0000d75e:    bf00        ..      NOP      
        0x0000d760:    20a0        .       MOVS     r0,#0xa0
        0x0000d762:    f7fffb71    ..q.    BL       am_hal_flash_delay ; 0xce48
        0x0000d766:    6928        (i      LDR      r0,[r5,#0x10]
        0x0000d768:    6928        (i      LDR      r0,[r5,#0x10]
        0x0000d76a:    4206        .B      TST      r6,r0
        0x0000d76c:    d1f4        ..      BNE      0xd758 ; am_hal_pwrctrl_periph_enable + 72
        0x0000d76e:    f7fffe09    ....    BL       am_hal_interrupt_master_disable ; 0xd384
        0x0000d772:    9000        ..      STR      r0,[sp,#0]
        0x0000d774:    6828        (h      LDR      r0,[r5,#0]
        0x0000d776:    43a0        .C      BICS     r0,r0,r4
        0x0000d778:    6028        (`      STR      r0,[r5,#0]
        0x0000d77a:    9800        ..      LDR      r0,[sp,#0]
        0x0000d77c:    f7fffe0a    ....    BL       am_hal_interrupt_master_set ; 0xd394
        0x0000d780:    2001        .       MOVS     r0,#1
        0x0000d782:    b002        ..      ADD      sp,sp,#8
        0x0000d784:    bd70        p.      POP      {r4-r6,pc}
        0x0000d786:    0000        ..      MOVS     r0,r0
    am_hal_pwrctrl_wa_vddf_boost
        0x0000d788:    b510        ..      PUSH     {r4,lr}
        0x0000d78a:    b084        ..      SUB      sp,sp,#0x10
        0x0000d78c:    f7fffdfa    ....    BL       am_hal_interrupt_master_disable ; 0xd384
        0x0000d790:    9001        ..      STR      r0,[sp,#4]
        0x0000d792:    f2410024    A.$.    MOV      r0,#0x1024
        0x0000d796:    f2c40002    ....    MOVT     r0,#0x4002
        0x0000d79a:    6804        .h      LDR      r4,[r0,#0]
        0x0000d79c:    f7feffec    ....    BL       am_hal_burst_ldo_patch_check ; 0xc778
        0x0000d7a0:    07e1        ..      LSLS     r1,r4,#31
        0x0000d7a2:    d111        ..      BNE      0xd7c8 ; am_hal_pwrctrl_wa_vddf_boost + 64
        0x0000d7a4:    2800        .(      CMP      r0,#0
        0x0000d7a6:    d049        I.      BEQ      0xd83c ; am_hal_pwrctrl_wa_vddf_boost + 180
        0x0000d7a8:    f7fffdec    ....    BL       am_hal_interrupt_master_disable ; 0xd384
        0x0000d7ac:    9003        ..      STR      r0,[sp,#0xc]
        0x0000d7ae:    f7feffe3    ....    BL       am_hal_burst_ldo_patch_check ; 0xc778
        0x0000d7b2:    b1c8        ..      CBZ      r0,0xd7e8 ; am_hal_pwrctrl_wa_vddf_boost + 96
        0x0000d7b4:    f643006c    C.l.    MOV      r0,#0x386c
        0x0000d7b8:    f2c50002    ....    MOVT     r0,#0x5002
        0x0000d7bc:    6800        .h      LDR      r0,[r0,#0]
        0x0000d7be:    f000003f    ..?.    AND      r0,r0,#0x3f
        0x0000d7c2:    3003        .0      ADDS     r0,#3
        0x0000d7c4:    e011        ..      B        0xd7ea ; am_hal_pwrctrl_wa_vddf_boost + 98
        0x0000d7c6:    bf00        ..      NOP      
        0x0000d7c8:    b3c0        ..      CBZ      r0,0xd83c ; am_hal_pwrctrl_wa_vddf_boost + 180
        0x0000d7ca:    f7fffddb    ....    BL       am_hal_interrupt_master_disable ; 0xd384
        0x0000d7ce:    9002        ..      STR      r0,[sp,#8]
        0x0000d7d0:    f7feffd2    ....    BL       am_hal_burst_ldo_patch_check ; 0xc778
        0x0000d7d4:    b1e0        ..      CBZ      r0,0xd810 ; am_hal_pwrctrl_wa_vddf_boost + 136
        0x0000d7d6:    f643006c    C.l.    MOV      r0,#0x386c
        0x0000d7da:    f2c50002    ....    MOVT     r0,#0x5002
        0x0000d7de:    6840        @h      LDR      r0,[r0,#4]
        0x0000d7e0:    f3c04005    ...@    UBFX     r0,r0,#16,#6
        0x0000d7e4:    3005        .0      ADDS     r0,#5
        0x0000d7e6:    e014        ..      B        0xd812 ; am_hal_pwrctrl_wa_vddf_boost + 138
        0x0000d7e8:    2003        .       MOVS     r0,#3
        0x0000d7ea:    2188        .!      MOVS     r1,#0x88
        0x0000d7ec:    f2c40102    ....    MOVT     r1,#0x4002
        0x0000d7f0:    680a        .h      LDR      r2,[r1,#0]
        0x0000d7f2:    283f        ?(      CMP      r0,#0x3f
        0x0000d7f4:    bf28        (.      IT       CS
        0x0000d7f6:    203f        ?       MOVCS    r0,#0x3f
        0x0000d7f8:    f022023f    ".?.    BIC      r2,r2,#0x3f
        0x0000d7fc:    4310        .C      ORRS     r0,r0,r2
        0x0000d7fe:    6008        .`      STR      r0,[r1,#0]
        0x0000d800:    f44f70a0    O..p    MOV      r0,#0x140
        0x0000d804:    f7fffb20    .. .    BL       am_hal_flash_delay ; 0xce48
        0x0000d808:    9803        ..      LDR      r0,[sp,#0xc]
        0x0000d80a:    f7fffdc3    ....    BL       am_hal_interrupt_master_set ; 0xd394
        0x0000d80e:    e015        ..      B        0xd83c ; am_hal_pwrctrl_wa_vddf_boost + 180
        0x0000d810:    2005        .       MOVS     r0,#5
        0x0000d812:    2188        .!      MOVS     r1,#0x88
        0x0000d814:    f2c40102    ....    MOVT     r1,#0x4002
        0x0000d818:    f8d122c8    ..."    LDR      r2,[r1,#0x2c8]
        0x0000d81c:    283f        ?(      CMP      r0,#0x3f
        0x0000d81e:    bf28        (.      IT       CS
        0x0000d820:    203f        ?       MOVCS    r0,#0x3f
        0x0000d822:    f422127c    ".|.    BIC      r2,r2,#0x3f0000
        0x0000d826:    ea424000    B..@    ORR      r0,r2,r0,LSL #16
        0x0000d82a:    f8c102c8    ....    STR      r0,[r1,#0x2c8]
        0x0000d82e:    f44f70a0    O..p    MOV      r0,#0x140
        0x0000d832:    f7fffb09    ....    BL       am_hal_flash_delay ; 0xce48
        0x0000d836:    9802        ..      LDR      r0,[sp,#8]
        0x0000d838:    f7fffdac    ....    BL       am_hal_interrupt_master_set ; 0xd394
        0x0000d83c:    f44f70a0    O..p    MOV      r0,#0x140
        0x0000d840:    f7fffb02    ....    BL       am_hal_flash_delay ; 0xce48
        0x0000d844:    9801        ..      LDR      r0,[sp,#4]
        0x0000d846:    b004        ..      ADD      sp,sp,#0x10
        0x0000d848:    e8bd4010    ...@    POP      {r4,lr}
        0x0000d84c:    f7ffbda2    ....    B.W      am_hal_interrupt_master_set ; 0xd394
    am_hal_pwrctrl_wa_vddf_restore
        0x0000d850:    b510        ..      PUSH     {r4,lr}
        0x0000d852:    b084        ..      SUB      sp,sp,#0x10
        0x0000d854:    f7fffd96    ....    BL       am_hal_interrupt_master_disable ; 0xd384
        0x0000d858:    9001        ..      STR      r0,[sp,#4]
        0x0000d85a:    f2410024    A.$.    MOV      r0,#0x1024
        0x0000d85e:    f2c40002    ....    MOVT     r0,#0x4002
        0x0000d862:    6804        .h      LDR      r4,[r0,#0]
        0x0000d864:    f7feff88    ....    BL       am_hal_burst_ldo_patch_check ; 0xc778
        0x0000d868:    07e1        ..      LSLS     r1,r4,#31
        0x0000d86a:    d10f        ..      BNE      0xd88c ; am_hal_pwrctrl_wa_vddf_restore + 60
        0x0000d86c:    2800        .(      CMP      r0,#0
        0x0000d86e:    d041        A.      BEQ      0xd8f4 ; am_hal_pwrctrl_wa_vddf_restore + 164
        0x0000d870:    f7fffd88    ....    BL       am_hal_interrupt_master_disable ; 0xd384
        0x0000d874:    9003        ..      STR      r0,[sp,#0xc]
        0x0000d876:    f7feff7f    ....    BL       am_hal_burst_ldo_patch_check ; 0xc778
        0x0000d87a:    b1b8        ..      CBZ      r0,0xd8ac ; am_hal_pwrctrl_wa_vddf_restore + 92
        0x0000d87c:    f643006c    C.l.    MOV      r0,#0x386c
        0x0000d880:    f2c50002    ....    MOVT     r0,#0x5002
        0x0000d884:    6800        .h      LDR      r0,[r0,#0]
        0x0000d886:    f000003f    ..?.    AND      r0,r0,#0x3f
        0x0000d88a:    e010        ..      B        0xd8ae ; am_hal_pwrctrl_wa_vddf_restore + 94
        0x0000d88c:    b390        ..      CBZ      r0,0xd8f4 ; am_hal_pwrctrl_wa_vddf_restore + 164
        0x0000d88e:    f7fffd79    ..y.    BL       am_hal_interrupt_master_disable ; 0xd384
        0x0000d892:    9002        ..      STR      r0,[sp,#8]
        0x0000d894:    f7feff70    ..p.    BL       am_hal_burst_ldo_patch_check ; 0xc778
        0x0000d898:    b1d0        ..      CBZ      r0,0xd8d0 ; am_hal_pwrctrl_wa_vddf_restore + 128
        0x0000d89a:    f643006c    C.l.    MOV      r0,#0x386c
        0x0000d89e:    f2c50002    ....    MOVT     r0,#0x5002
        0x0000d8a2:    6840        @h      LDR      r0,[r0,#4]
        0x0000d8a4:    f400107c    ..|.    AND      r0,r0,#0x3f0000
        0x0000d8a8:    e013        ..      B        0xd8d2 ; am_hal_pwrctrl_wa_vddf_restore + 130
        0x0000d8aa:    bf00        ..      NOP      
        0x0000d8ac:    2000        .       MOVS     r0,#0
        0x0000d8ae:    2188        .!      MOVS     r1,#0x88
        0x0000d8b0:    f2c40102    ....    MOVT     r1,#0x4002
        0x0000d8b4:    680a        .h      LDR      r2,[r1,#0]
        0x0000d8b6:    f022023f    ".?.    BIC      r2,r2,#0x3f
        0x0000d8ba:    4410        .D      ADD      r0,r0,r2
        0x0000d8bc:    6008        .`      STR      r0,[r1,#0]
        0x0000d8be:    f44f70a0    O..p    MOV      r0,#0x140
        0x0000d8c2:    f7fffac1    ....    BL       am_hal_flash_delay ; 0xce48
        0x0000d8c6:    9803        ..      LDR      r0,[sp,#0xc]
        0x0000d8c8:    f7fffd64    ..d.    BL       am_hal_interrupt_master_set ; 0xd394
        0x0000d8cc:    e012        ..      B        0xd8f4 ; am_hal_pwrctrl_wa_vddf_restore + 164
        0x0000d8ce:    bf00        ..      NOP      
        0x0000d8d0:    2000        .       MOVS     r0,#0
        0x0000d8d2:    2188        .!      MOVS     r1,#0x88
        0x0000d8d4:    f2c40102    ....    MOVT     r1,#0x4002
        0x0000d8d8:    f8d122c8    ..."    LDR      r2,[r1,#0x2c8]
        0x0000d8dc:    f422127c    ".|.    BIC      r2,r2,#0x3f0000
        0x0000d8e0:    4310        .C      ORRS     r0,r0,r2
        0x0000d8e2:    f8c102c8    ....    STR      r0,[r1,#0x2c8]
        0x0000d8e6:    f44f70a0    O..p    MOV      r0,#0x140
        0x0000d8ea:    f7fffaad    ....    BL       am_hal_flash_delay ; 0xce48
        0x0000d8ee:    9802        ..      LDR      r0,[sp,#8]
        0x0000d8f0:    f7fffd50    ..P.    BL       am_hal_interrupt_master_set ; 0xd394
        0x0000d8f4:    f44f70a0    O..p    MOV      r0,#0x140
        0x0000d8f8:    f7fffaa6    ....    BL       am_hal_flash_delay ; 0xce48
        0x0000d8fc:    9801        ..      LDR      r0,[sp,#4]
        0x0000d8fe:    b004        ..      ADD      sp,sp,#0x10
        0x0000d900:    e8bd4010    ...@    POP      {r4,lr}
        0x0000d904:    f7ffbd46    ..F.    B.W      am_hal_interrupt_master_set ; 0xd394
    am_hal_queue_init
        0x0000d908:    f04f0c00    O...    MOV      r12,#0
        0x0000d90c:    f8c0c000    ....    STR      r12,[r0,#0]
        0x0000d910:    f8c0c004    ....    STR      r12,[r0,#4]
        0x0000d914:    f8c0c008    ....    STR      r12,[r0,#8]
        0x0000d918:    e9c03203    ...2    STRD     r3,r2,[r0,#0xc]
        0x0000d91c:    6141        Aa      STR      r1,[r0,#0x14]
        0x0000d91e:    4770        pG      BX       lr
    am_hal_queue_item_add
        0x0000d920:    e92d43f0    -..C    PUSH     {r4-r9,lr}
        0x0000d924:    b081        ..      SUB      sp,sp,#4
        0x0000d926:    4604        .F      MOV      r4,r0
        0x0000d928:    6900        .i      LDR      r0,[r0,#0x10]
        0x0000d92a:    4688        .F      MOV      r8,r1
        0x0000d92c:    fb00f902    ....    MUL      r9,r0,r2
        0x0000d930:    f7fffd28    ..(.    BL       am_hal_interrupt_master_disable ; 0xd384
        0x0000d934:    9000        ..      STR      r0,[sp,#0]
        0x0000d936:    68e2        .h      LDR      r2,[r4,#0xc]
        0x0000d938:    68a0        .h      LDR      r0,[r4,#8]
        0x0000d93a:    eba20e00    ....    SUB      lr,r2,r0
        0x0000d93e:    45ce        .E      CMP      lr,r9
        0x0000d940:    f0c080c8    ....    BCC.W    0xdad4 ; am_hal_queue_item_add + 436
        0x0000d944:    f1b90f00    ....    CMP      r9,#0
        0x0000d948:    f00080c1    ....    BEQ.W    0xdace ; am_hal_queue_item_add + 430
        0x0000d94c:    f1a90101    ....    SUB      r1,r9,#1
        0x0000d950:    f1b80f00    ....    CMP      r8,#0
        0x0000d954:    f0090c03    ....    AND      r12,r9,#3
        0x0000d958:    d008        ..      BEQ      0xd96c ; am_hal_queue_item_add + 76
        0x0000d95a:    2903        .)      CMP      r1,#3
        0x0000d95c:    d248        H.      BCS      0xd9f0 ; am_hal_queue_item_add + 208
        0x0000d95e:    2100        .!      MOVS     r1,#0
        0x0000d960:    f1bc0f00    ....    CMP      r12,#0
        0x0000d964:    f0408085    @...    BNE.W    0xda72 ; am_hal_queue_item_add + 338
        0x0000d968:    e0b1        ..      B        0xdace ; am_hal_queue_item_add + 430
        0x0000d96a:    bf00        ..      NOP      
        0x0000d96c:    2903        .)      CMP      r1,#3
        0x0000d96e:    d323        #.      BCC      0xd9b8 ; am_hal_queue_item_add + 152
        0x0000d970:    f0290103    )...    BIC      r1,r9,#3
        0x0000d974:    6823        #h      LDR      r3,[r4,#0]
        0x0000d976:    3904        .9      SUBS     r1,#4
        0x0000d978:    f1030301    ....    ADD      r3,r3,#1
        0x0000d97c:    fbb3f7f2    ....    UDIV     r7,r3,r2
        0x0000d980:    fb073312    ...3    MLS      r3,r7,r2,r3
        0x0000d984:    6023        #`      STR      r3,[r4,#0]
        0x0000d986:    6823        #h      LDR      r3,[r4,#0]
        0x0000d988:    f1030301    ....    ADD      r3,r3,#1
        0x0000d98c:    fbb3f7f2    ....    UDIV     r7,r3,r2
        0x0000d990:    fb073312    ...3    MLS      r3,r7,r2,r3
        0x0000d994:    6023        #`      STR      r3,[r4,#0]
        0x0000d996:    6823        #h      LDR      r3,[r4,#0]
        0x0000d998:    f1030301    ....    ADD      r3,r3,#1
        0x0000d99c:    fbb3f7f2    ....    UDIV     r7,r3,r2
        0x0000d9a0:    fb073312    ...3    MLS      r3,r7,r2,r3
        0x0000d9a4:    6023        #`      STR      r3,[r4,#0]
        0x0000d9a6:    6823        #h      LDR      r3,[r4,#0]
        0x0000d9a8:    f1030301    ....    ADD      r3,r3,#1
        0x0000d9ac:    fbb3f7f2    ....    UDIV     r7,r3,r2
        0x0000d9b0:    fb073312    ...3    MLS      r3,r7,r2,r3
        0x0000d9b4:    6023        #`      STR      r3,[r4,#0]
        0x0000d9b6:    d1dd        ..      BNE      0xd974 ; am_hal_queue_item_add + 84
        0x0000d9b8:    f1bc0f00    ....    CMP      r12,#0
        0x0000d9bc:    f0008087    ....    BEQ.W    0xdace ; am_hal_queue_item_add + 430
        0x0000d9c0:    6821        !h      LDR      r1,[r4,#0]
        0x0000d9c2:    f1bc0f01    ....    CMP      r12,#1
        0x0000d9c6:    f1010101    ....    ADD      r1,r1,#1
        0x0000d9ca:    fbb1f3f2    ....    UDIV     r3,r1,r2
        0x0000d9ce:    fb031112    ....    MLS      r1,r3,r2,r1
        0x0000d9d2:    6021        !`      STR      r1,[r4,#0]
        0x0000d9d4:    d07b        {.      BEQ      0xdace ; am_hal_queue_item_add + 430
        0x0000d9d6:    6821        !h      LDR      r1,[r4,#0]
        0x0000d9d8:    f1bc0f02    ....    CMP      r12,#2
        0x0000d9dc:    f1010101    ....    ADD      r1,r1,#1
        0x0000d9e0:    fbb1f3f2    ....    UDIV     r3,r1,r2
        0x0000d9e4:    fb031112    ....    MLS      r1,r3,r2,r1
        0x0000d9e8:    6021        !`      STR      r1,[r4,#0]
        0x0000d9ea:    d070        p.      BEQ      0xdace ; am_hal_queue_item_add + 430
        0x0000d9ec:    6821        !h      LDR      r1,[r4,#0]
        0x0000d9ee:    e068        h.      B        0xdac2 ; am_hal_queue_item_add + 418
        0x0000d9f0:    f0290103    )...    BIC      r1,r9,#3
        0x0000d9f4:    424a        JB      RSBS     r2,r1,#0
        0x0000d9f6:    f1080101    ....    ADD      r1,r8,#1
        0x0000d9fa:    f06f0303    o...    MVN      r3,#3
        0x0000d9fe:    bf00        ..      NOP      
        0x0000da00:    18cd        ..      ADDS     r5,r1,r3
        0x0000da02:    78ef        .x      LDRB     r7,[r5,#3]
        0x0000da04:    6960        `i      LDR      r0,[r4,#0x14]
        0x0000da06:    6826        &h      LDR      r6,[r4,#0]
        0x0000da08:    3304        .3      ADDS     r3,#4
        0x0000da0a:    5587        .U      STRB     r7,[r0,r6]
        0x0000da0c:    6820         h      LDR      r0,[r4,#0]
        0x0000da0e:    68e6        .h      LDR      r6,[r4,#0xc]
        0x0000da10:    3001        .0      ADDS     r0,#1
        0x0000da12:    fbb0f7f6    ....    UDIV     r7,r0,r6
        0x0000da16:    fb070016    ....    MLS      r0,r7,r6,r0
        0x0000da1a:    6966        fi      LDR      r6,[r4,#0x14]
        0x0000da1c:    6020         `      STR      r0,[r4,#0]
        0x0000da1e:    7928        (y      LDRB     r0,[r5,#4]
        0x0000da20:    6827        'h      LDR      r7,[r4,#0]
        0x0000da22:    55f0        .U      STRB     r0,[r6,r7]
        0x0000da24:    6820         h      LDR      r0,[r4,#0]
        0x0000da26:    68e6        .h      LDR      r6,[r4,#0xc]
        0x0000da28:    3001        .0      ADDS     r0,#1
        0x0000da2a:    fbb0f7f6    ....    UDIV     r7,r0,r6
        0x0000da2e:    fb070016    ....    MLS      r0,r7,r6,r0
        0x0000da32:    6966        fi      LDR      r6,[r4,#0x14]
        0x0000da34:    6020         `      STR      r0,[r4,#0]
        0x0000da36:    7968        hy      LDRB     r0,[r5,#5]
        0x0000da38:    6827        'h      LDR      r7,[r4,#0]
        0x0000da3a:    55f0        .U      STRB     r0,[r6,r7]
        0x0000da3c:    6820         h      LDR      r0,[r4,#0]
        0x0000da3e:    68e6        .h      LDR      r6,[r4,#0xc]
        0x0000da40:    3001        .0      ADDS     r0,#1
        0x0000da42:    fbb0f7f6    ....    UDIV     r7,r0,r6
        0x0000da46:    fb070016    ....    MLS      r0,r7,r6,r0
        0x0000da4a:    6966        fi      LDR      r6,[r4,#0x14]
        0x0000da4c:    6020         `      STR      r0,[r4,#0]
        0x0000da4e:    79a8        .y      LDRB     r0,[r5,#6]
        0x0000da50:    6825        %h      LDR      r5,[r4,#0]
        0x0000da52:    5570        pU      STRB     r0,[r6,r5]
        0x0000da54:    6820         h      LDR      r0,[r4,#0]
        0x0000da56:    68e5        .h      LDR      r5,[r4,#0xc]
        0x0000da58:    3001        .0      ADDS     r0,#1
        0x0000da5a:    fbb0f6f5    ....    UDIV     r6,r0,r5
        0x0000da5e:    fb060015    ....    MLS      r0,r6,r5,r0
        0x0000da62:    18d5        ..      ADDS     r5,r2,r3
        0x0000da64:    3504        .5      ADDS     r5,#4
        0x0000da66:    6020         `      STR      r0,[r4,#0]
        0x0000da68:    d1ca        ..      BNE      0xda00 ; am_hal_queue_item_add + 224
        0x0000da6a:    1d19        ..      ADDS     r1,r3,#4
        0x0000da6c:    f1bc0f00    ....    CMP      r12,#0
        0x0000da70:    d02d        -.      BEQ      0xdace ; am_hal_queue_item_add + 430
        0x0000da72:    f8182001    ...     LDRB     r2,[r8,r1]
        0x0000da76:    6963        ci      LDR      r3,[r4,#0x14]
        0x0000da78:    6825        %h      LDR      r5,[r4,#0]
        0x0000da7a:    f1bc0f01    ....    CMP      r12,#1
        0x0000da7e:    555a        ZU      STRB     r2,[r3,r5]
        0x0000da80:    6822        "h      LDR      r2,[r4,#0]
        0x0000da82:    68e3        .h      LDR      r3,[r4,#0xc]
        0x0000da84:    f1020201    ....    ADD      r2,r2,#1
        0x0000da88:    fbb2f5f3    ....    UDIV     r5,r2,r3
        0x0000da8c:    fb052213    ..."    MLS      r2,r5,r3,r2
        0x0000da90:    6022        "`      STR      r2,[r4,#0]
        0x0000da92:    d01c        ..      BEQ      0xdace ; am_hal_queue_item_add + 430
        0x0000da94:    4441        AD      ADD      r1,r1,r8
        0x0000da96:    784a        Jx      LDRB     r2,[r1,#1]
        0x0000da98:    6963        ci      LDR      r3,[r4,#0x14]
        0x0000da9a:    6827        'h      LDR      r7,[r4,#0]
        0x0000da9c:    f1bc0f02    ....    CMP      r12,#2
        0x0000daa0:    55da        .U      STRB     r2,[r3,r7]
        0x0000daa2:    6822        "h      LDR      r2,[r4,#0]
        0x0000daa4:    68e3        .h      LDR      r3,[r4,#0xc]
        0x0000daa6:    f1020201    ....    ADD      r2,r2,#1
        0x0000daaa:    fbb2f7f3    ....    UDIV     r7,r2,r3
        0x0000daae:    fb072213    ..."    MLS      r2,r7,r3,r2
        0x0000dab2:    6022        "`      STR      r2,[r4,#0]
        0x0000dab4:    d00b        ..      BEQ      0xdace ; am_hal_queue_item_add + 430
        0x0000dab6:    7889        .x      LDRB     r1,[r1,#2]
        0x0000dab8:    6962        bi      LDR      r2,[r4,#0x14]
        0x0000daba:    6823        #h      LDR      r3,[r4,#0]
        0x0000dabc:    54d1        .T      STRB     r1,[r2,r3]
        0x0000dabe:    6821        !h      LDR      r1,[r4,#0]
        0x0000dac0:    68e2        .h      LDR      r2,[r4,#0xc]
        0x0000dac2:    3101        .1      ADDS     r1,#1
        0x0000dac4:    fbb1f3f2    ....    UDIV     r3,r1,r2
        0x0000dac8:    fb031112    ....    MLS      r1,r3,r2,r1
        0x0000dacc:    6021        !`      STR      r1,[r4,#0]
        0x0000dace:    68a1        .h      LDR      r1,[r4,#8]
        0x0000dad0:    4449        ID      ADD      r1,r1,r9
        0x0000dad2:    60a1        .`      STR      r1,[r4,#8]
        0x0000dad4:    9800        ..      LDR      r0,[sp,#0]
        0x0000dad6:    2400        .$      MOVS     r4,#0
        0x0000dad8:    45ce        .E      CMP      lr,r9
        0x0000dada:    bf28        (.      IT       CS
        0x0000dadc:    2401        .$      MOVCS    r4,#1
        0x0000dade:    f7fffc59    ..Y.    BL       am_hal_interrupt_master_set ; 0xd394
        0x0000dae2:    4620         F      MOV      r0,r4
        0x0000dae4:    b001        ..      ADD      sp,sp,#4
        0x0000dae6:    e8bd83f0    ....    POP      {r4-r9,pc}
        0x0000daea:    0000        ..      MOVS     r0,r0
    am_hal_queue_item_get
        0x0000daec:    e92d43f0    -..C    PUSH     {r4-r9,lr}
        0x0000daf0:    b081        ..      SUB      sp,sp,#4
        0x0000daf2:    4604        .F      MOV      r4,r0
        0x0000daf4:    6900        .i      LDR      r0,[r0,#0x10]
        0x0000daf6:    4688        .F      MOV      r8,r1
        0x0000daf8:    fb00f902    ....    MUL      r9,r0,r2
        0x0000dafc:    f7fffc42    ..B.    BL       am_hal_interrupt_master_disable ; 0xd384
        0x0000db00:    9000        ..      STR      r0,[sp,#0]
        0x0000db02:    f8d4e008    ....    LDR      lr,[r4,#8]
        0x0000db06:    45ce        .E      CMP      lr,r9
        0x0000db08:    f0c080d3    ....    BCC.W    0xdcb2 ; am_hal_queue_item_get + 454
        0x0000db0c:    f1b90f00    ....    CMP      r9,#0
        0x0000db10:    f00080cb    ....    BEQ.W    0xdcaa ; am_hal_queue_item_get + 446
        0x0000db14:    f1b80f00    ....    CMP      r8,#0
        0x0000db18:    d00c        ..      BEQ      0xdb34 ; am_hal_queue_item_get + 72
        0x0000db1a:    f1a90101    ....    SUB      r1,r9,#1
        0x0000db1e:    2903        .)      CMP      r1,#3
        0x0000db20:    f0090c03    ....    AND      r12,r9,#3
        0x0000db24:    d252        R.      BCS      0xdbcc ; am_hal_queue_item_get + 224
        0x0000db26:    2100        .!      MOVS     r1,#0
        0x0000db28:    f1bc0f00    ....    CMP      r12,#0
        0x0000db2c:    f040808f    @...    BNE.W    0xdc4e ; am_hal_queue_item_get + 354
        0x0000db30:    e0bb        ..      B        0xdcaa ; am_hal_queue_item_get + 446
        0x0000db32:    bf00        ..      NOP      
        0x0000db34:    68e1        .h      LDR      r1,[r4,#0xc]
        0x0000db36:    f1a90201    ....    SUB      r2,r9,#1
        0x0000db3a:    2a03        .*      CMP      r2,#3
        0x0000db3c:    f0090203    ....    AND      r2,r9,#3
        0x0000db40:    d324        $.      BCC      0xdb8c ; am_hal_queue_item_get + 160
        0x0000db42:    f0290303    )...    BIC      r3,r9,#3
        0x0000db46:    bf00        ..      NOP      
        0x0000db48:    6867        gh      LDR      r7,[r4,#4]
        0x0000db4a:    3b04        .;      SUBS     r3,#4
        0x0000db4c:    f1070701    ....    ADD      r7,r7,#1
        0x0000db50:    fbb7f5f1    ....    UDIV     r5,r7,r1
        0x0000db54:    fb057711    ...w    MLS      r7,r5,r1,r7
        0x0000db58:    6067        g`      STR      r7,[r4,#4]
        0x0000db5a:    6867        gh      LDR      r7,[r4,#4]
        0x0000db5c:    f1070701    ....    ADD      r7,r7,#1
        0x0000db60:    fbb7f5f1    ....    UDIV     r5,r7,r1
        0x0000db64:    fb057711    ...w    MLS      r7,r5,r1,r7
        0x0000db68:    6067        g`      STR      r7,[r4,#4]
        0x0000db6a:    6867        gh      LDR      r7,[r4,#4]
        0x0000db6c:    f1070701    ....    ADD      r7,r7,#1
        0x0000db70:    fbb7f5f1    ....    UDIV     r5,r7,r1
        0x0000db74:    fb057711    ...w    MLS      r7,r5,r1,r7
        0x0000db78:    6067        g`      STR      r7,[r4,#4]
        0x0000db7a:    6867        gh      LDR      r7,[r4,#4]
        0x0000db7c:    f1070701    ....    ADD      r7,r7,#1
        0x0000db80:    fbb7f5f1    ....    UDIV     r5,r7,r1
        0x0000db84:    fb057711    ...w    MLS      r7,r5,r1,r7
        0x0000db88:    6067        g`      STR      r7,[r4,#4]
        0x0000db8a:    d1dd        ..      BNE      0xdb48 ; am_hal_queue_item_get + 92
        0x0000db8c:    2a00        .*      CMP      r2,#0
        0x0000db8e:    f000808c    ....    BEQ.W    0xdcaa ; am_hal_queue_item_get + 446
        0x0000db92:    6863        ch      LDR      r3,[r4,#4]
        0x0000db94:    2a01        .*      CMP      r2,#1
        0x0000db96:    f1030301    ....    ADD      r3,r3,#1
        0x0000db9a:    fbb3f7f1    ....    UDIV     r7,r3,r1
        0x0000db9e:    fb073311    ...3    MLS      r3,r7,r1,r3
        0x0000dba2:    6063        c`      STR      r3,[r4,#4]
        0x0000dba4:    f0008081    ....    BEQ.W    0xdcaa ; am_hal_queue_item_get + 446
        0x0000dba8:    6863        ch      LDR      r3,[r4,#4]
        0x0000dbaa:    2a02        .*      CMP      r2,#2
        0x0000dbac:    f1030301    ....    ADD      r3,r3,#1
        0x0000dbb0:    fbb3f7f1    ....    UDIV     r7,r3,r1
        0x0000dbb4:    fb073311    ...3    MLS      r3,r7,r1,r3
        0x0000dbb8:    6063        c`      STR      r3,[r4,#4]
        0x0000dbba:    d076        v.      BEQ      0xdcaa ; am_hal_queue_item_get + 446
        0x0000dbbc:    6862        bh      LDR      r2,[r4,#4]
        0x0000dbbe:    3201        .2      ADDS     r2,#1
        0x0000dbc0:    fbb2f3f1    ....    UDIV     r3,r2,r1
        0x0000dbc4:    fb032111    ...!    MLS      r1,r3,r1,r2
        0x0000dbc8:    e06e        n.      B        0xdca8 ; am_hal_queue_item_get + 444
        0x0000dbca:    bf00        ..      NOP      
        0x0000dbcc:    f0290103    )...    BIC      r1,r9,#3
        0x0000dbd0:    424a        JB      RSBS     r2,r1,#0
        0x0000dbd2:    f1080101    ....    ADD      r1,r8,#1
        0x0000dbd6:    f06f0303    o...    MVN      r3,#3
        0x0000dbda:    bf00        ..      NOP      
        0x0000dbdc:    6865        eh      LDR      r5,[r4,#4]
        0x0000dbde:    6967        gi      LDR      r7,[r4,#0x14]
        0x0000dbe0:    5d7f        .]      LDRB     r7,[r7,r5]
        0x0000dbe2:    18cd        ..      ADDS     r5,r1,r3
        0x0000dbe4:    70ef        .p      STRB     r7,[r5,#3]
        0x0000dbe6:    6867        gh      LDR      r7,[r4,#4]
        0x0000dbe8:    68e0        .h      LDR      r0,[r4,#0xc]
        0x0000dbea:    3701        .7      ADDS     r7,#1
        0x0000dbec:    fbb7f6f0    ....    UDIV     r6,r7,r0
        0x0000dbf0:    3304        .3      ADDS     r3,#4
        0x0000dbf2:    fb067010    ...p    MLS      r0,r6,r0,r7
        0x0000dbf6:    6966        fi      LDR      r6,[r4,#0x14]
        0x0000dbf8:    6060        ``      STR      r0,[r4,#4]
        0x0000dbfa:    6860        `h      LDR      r0,[r4,#4]
        0x0000dbfc:    5c30        0\      LDRB     r0,[r6,r0]
        0x0000dbfe:    7128        (q      STRB     r0,[r5,#4]
        0x0000dc00:    6860        `h      LDR      r0,[r4,#4]
        0x0000dc02:    68e6        .h      LDR      r6,[r4,#0xc]
        0x0000dc04:    3001        .0      ADDS     r0,#1
        0x0000dc06:    fbb0f7f6    ....    UDIV     r7,r0,r6
        0x0000dc0a:    fb070016    ....    MLS      r0,r7,r6,r0
        0x0000dc0e:    6966        fi      LDR      r6,[r4,#0x14]
        0x0000dc10:    6060        ``      STR      r0,[r4,#4]
        0x0000dc12:    6860        `h      LDR      r0,[r4,#4]
        0x0000dc14:    5c30        0\      LDRB     r0,[r6,r0]
        0x0000dc16:    7168        hq      STRB     r0,[r5,#5]
        0x0000dc18:    6860        `h      LDR      r0,[r4,#4]
        0x0000dc1a:    68e6        .h      LDR      r6,[r4,#0xc]
        0x0000dc1c:    3001        .0      ADDS     r0,#1
        0x0000dc1e:    fbb0f7f6    ....    UDIV     r7,r0,r6
        0x0000dc22:    fb070016    ....    MLS      r0,r7,r6,r0
        0x0000dc26:    6966        fi      LDR      r6,[r4,#0x14]
        0x0000dc28:    6060        ``      STR      r0,[r4,#4]
        0x0000dc2a:    6860        `h      LDR      r0,[r4,#4]
        0x0000dc2c:    5c30        0\      LDRB     r0,[r6,r0]
        0x0000dc2e:    71a8        .q      STRB     r0,[r5,#6]
        0x0000dc30:    6860        `h      LDR      r0,[r4,#4]
        0x0000dc32:    68e5        .h      LDR      r5,[r4,#0xc]
        0x0000dc34:    3001        .0      ADDS     r0,#1
        0x0000dc36:    fbb0f6f5    ....    UDIV     r6,r0,r5
        0x0000dc3a:    fb060015    ....    MLS      r0,r6,r5,r0
        0x0000dc3e:    18d5        ..      ADDS     r5,r2,r3
        0x0000dc40:    3504        .5      ADDS     r5,#4
        0x0000dc42:    6060        ``      STR      r0,[r4,#4]
        0x0000dc44:    d1ca        ..      BNE      0xdbdc ; am_hal_queue_item_get + 240
        0x0000dc46:    1d19        ..      ADDS     r1,r3,#4
        0x0000dc48:    f1bc0f00    ....    CMP      r12,#0
        0x0000dc4c:    d02d        -.      BEQ      0xdcaa ; am_hal_queue_item_get + 446
        0x0000dc4e:    6862        bh      LDR      r2,[r4,#4]
        0x0000dc50:    6963        ci      LDR      r3,[r4,#0x14]
        0x0000dc52:    f1bc0f01    ....    CMP      r12,#1
        0x0000dc56:    5c9a        .\      LDRB     r2,[r3,r2]
        0x0000dc58:    f8082001    ...     STRB     r2,[r8,r1]
        0x0000dc5c:    6862        bh      LDR      r2,[r4,#4]
        0x0000dc5e:    68e3        .h      LDR      r3,[r4,#0xc]
        0x0000dc60:    f1020201    ....    ADD      r2,r2,#1
        0x0000dc64:    fbb2f5f3    ....    UDIV     r5,r2,r3
        0x0000dc68:    fb052213    ..."    MLS      r2,r5,r3,r2
        0x0000dc6c:    6062        b`      STR      r2,[r4,#4]
        0x0000dc6e:    d01c        ..      BEQ      0xdcaa ; am_hal_queue_item_get + 446
        0x0000dc70:    6862        bh      LDR      r2,[r4,#4]
        0x0000dc72:    6963        ci      LDR      r3,[r4,#0x14]
        0x0000dc74:    4441        AD      ADD      r1,r1,r8
        0x0000dc76:    5c9a        .\      LDRB     r2,[r3,r2]
        0x0000dc78:    f1bc0f02    ....    CMP      r12,#2
        0x0000dc7c:    704a        Jp      STRB     r2,[r1,#1]
        0x0000dc7e:    6862        bh      LDR      r2,[r4,#4]
        0x0000dc80:    68e3        .h      LDR      r3,[r4,#0xc]
        0x0000dc82:    f1020201    ....    ADD      r2,r2,#1
        0x0000dc86:    fbb2f7f3    ....    UDIV     r7,r2,r3
        0x0000dc8a:    fb072213    ..."    MLS      r2,r7,r3,r2
        0x0000dc8e:    6062        b`      STR      r2,[r4,#4]
        0x0000dc90:    d00b        ..      BEQ      0xdcaa ; am_hal_queue_item_get + 446
        0x0000dc92:    6862        bh      LDR      r2,[r4,#4]
        0x0000dc94:    6963        ci      LDR      r3,[r4,#0x14]
        0x0000dc96:    5c9a        .\      LDRB     r2,[r3,r2]
        0x0000dc98:    708a        .p      STRB     r2,[r1,#2]
        0x0000dc9a:    6861        ah      LDR      r1,[r4,#4]
        0x0000dc9c:    68e2        .h      LDR      r2,[r4,#0xc]
        0x0000dc9e:    3101        .1      ADDS     r1,#1
        0x0000dca0:    fbb1f3f2    ....    UDIV     r3,r1,r2
        0x0000dca4:    fb031112    ....    MLS      r1,r3,r2,r1
        0x0000dca8:    6061        a`      STR      r1,[r4,#4]
        0x0000dcaa:    68a1        .h      LDR      r1,[r4,#8]
        0x0000dcac:    eba10109    ....    SUB      r1,r1,r9
        0x0000dcb0:    60a1        .`      STR      r1,[r4,#8]
        0x0000dcb2:    9800        ..      LDR      r0,[sp,#0]
        0x0000dcb4:    2400        .$      MOVS     r4,#0
        0x0000dcb6:    45ce        .E      CMP      lr,r9
        0x0000dcb8:    bf28        (.      IT       CS
        0x0000dcba:    2401        .$      MOVCS    r4,#1
        0x0000dcbc:    f7fffb6a    ..j.    BL       am_hal_interrupt_master_set ; 0xd394
        0x0000dcc0:    4620         F      MOV      r0,r4
        0x0000dcc2:    b001        ..      ADD      sp,sp,#4
        0x0000dcc4:    e8bd83f0    ....    POP      {r4-r9,pc}
    am_hal_rtc_alarm_interval_set
        0x0000dcc8:    f2442148    D.H!    MOV      r1,#0x4248
        0x0000dccc:    2808        .(      CMP      r0,#8
        0x0000dcce:    f2c40100    ....    MOVT     r1,#0x4000
        0x0000dcd2:    d005        ..      BEQ      0xdce0 ; am_hal_rtc_alarm_interval_set + 24
        0x0000dcd4:    2809        .(      CMP      r0,#9
        0x0000dcd6:    d107        ..      BNE      0xdce8 ; am_hal_rtc_alarm_interval_set + 32
        0x0000dcd8:    200e        .       MOVS     r0,#0xe
        0x0000dcda:    22ff        ."      MOVS     r2,#0xff
        0x0000dcdc:    e00c        ..      B        0xdcf8 ; am_hal_rtc_alarm_interval_set + 48
        0x0000dcde:    bf00        ..      NOP      
        0x0000dce0:    200e        .       MOVS     r0,#0xe
        0x0000dce2:    22f0        ."      MOVS     r2,#0xf0
        0x0000dce4:    e008        ..      B        0xdcf8 ; am_hal_rtc_alarm_interval_set + 48
        0x0000dce6:    bf00        ..      NOP      
        0x0000dce8:    680a        .h      LDR      r2,[r1,#0]
        0x0000dcea:    230e        .#      MOVS     r3,#0xe
        0x0000dcec:    b2d2        ..      UXTB     r2,r2
        0x0000dcee:    ea030040    ..@.    AND      r0,r3,r0,LSL #1
        0x0000dcf2:    2aef        .*      CMP      r2,#0xef
        0x0000dcf4:    bf88        ..      IT       HI
        0x0000dcf6:    2200        ."      MOVHI    r2,#0
        0x0000dcf8:    688b        .h      LDR      r3,[r1,#8]
        0x0000dcfa:    f023030e    #...    BIC      r3,r3,#0xe
        0x0000dcfe:    4318        .C      ORRS     r0,r0,r3
        0x0000dd00:    6088        .`      STR      r0,[r1,#8]
        0x0000dd02:    6808        .h      LDR      r0,[r1,#0]
        0x0000dd04:    f02000ff     ...    BIC      r0,r0,#0xff
        0x0000dd08:    4410        .D      ADD      r0,r0,r2
        0x0000dd0a:    6008        .`      STR      r0,[r1,#0]
        0x0000dd0c:    4770        pG      BX       lr
        0x0000dd0e:    0000        ..      MOVS     r0,r0
    am_hal_rtc_int_clear
        0x0000dd10:    f2443108    D..1    MOV      r1,#0x4308
        0x0000dd14:    f2c40100    ....    MOVT     r1,#0x4000
        0x0000dd18:    6008        .`      STR      r0,[r1,#0]
        0x0000dd1a:    4770        pG      BX       lr
    am_hal_rtc_int_enable
        0x0000dd1c:    f2443100    D..1    MOVW     r1,#0x4300
        0x0000dd20:    f2c40100    ....    MOVT     r1,#0x4000
        0x0000dd24:    680a        .h      LDR      r2,[r1,#0]
        0x0000dd26:    4310        .C      ORRS     r0,r0,r2
        0x0000dd28:    6008        .`      STR      r0,[r1,#0]
        0x0000dd2a:    4770        pG      BX       lr
    am_hal_rtc_osc_disable
        0x0000dd2c:    f2442050    D.P     MOV      r0,#0x4250
        0x0000dd30:    f2c40000    ....    MOVT     r0,#0x4000
        0x0000dd34:    6801        .h      LDR      r1,[r0,#0]
        0x0000dd36:    f0410110    A...    ORR      r1,r1,#0x10
        0x0000dd3a:    6001        .`      STR      r1,[r0,#0]
        0x0000dd3c:    4770        pG      BX       lr
        0x0000dd3e:    0000        ..      MOVS     r0,r0
    am_hal_rtc_osc_enable
        0x0000dd40:    f2442050    D.P     MOV      r0,#0x4250
        0x0000dd44:    f2c40000    ....    MOVT     r0,#0x4000
        0x0000dd48:    6801        .h      LDR      r1,[r0,#0]
        0x0000dd4a:    f0210110    !...    BIC      r1,r1,#0x10
        0x0000dd4e:    6001        .`      STR      r1,[r0,#0]
        0x0000dd50:    4770        pG      BX       lr
        0x0000dd52:    0000        ..      MOVS     r0,r0
    am_hal_rtc_osc_select
        0x0000dd54:    2800        .(      CMP      r0,#0
        0x0000dd56:    bf18        ..      IT       NE
        0x0000dd58:    4770        pG      BXNE     lr
        0x0000dd5a:    f244000c    D...    MOV      r0,#0x400c
        0x0000dd5e:    f2c40000    ....    MOVT     r0,#0x4000
        0x0000dd62:    6801        .h      LDR      r1,[r0,#0]
        0x0000dd64:    f0210180    !...    BIC      r1,r1,#0x80
        0x0000dd68:    6001        .`      STR      r1,[r0,#0]
        0x0000dd6a:    4770        pG      BX       lr
    am_hal_sysctrl_control
        0x0000dd6c:    2106        .!      MOVS     r1,#6
        0x0000dd6e:    2802        .(      CMP      r0,#2
        0x0000dd70:    bf38        8.      IT       CC
        0x0000dd72:    2107        .!      MOVCC    r1,#7
        0x0000dd74:    4608        .F      MOV      r0,r1
        0x0000dd76:    4770        pG      BX       lr
    am_hal_sysctrl_sleep
        0x0000dd78:    b5b0        ..      PUSH     {r4,r5,r7,lr}
        0x0000dd7a:    b082        ..      SUB      sp,sp,#8
        0x0000dd7c:    4604        .F      MOV      r4,r0
        0x0000dd7e:    f7fffb01    ....    BL       am_hal_interrupt_master_disable ; 0xd384
        0x0000dd82:    9000        ..      STR      r0,[sp,#0]
        0x0000dd84:    f241009c    A...    MOV      r0,#0x109c
        0x0000dd88:    f2c10000    ....    MOVT     r0,#0x1000
        0x0000dd8c:    6801        .h      LDR      r1,[r0,#0]
        0x0000dd8e:    3101        .1      ADDS     r1,#1
        0x0000dd90:    6001        .`      STR      r1,[r0,#0]
        0x0000dd92:    f2440034    D.4.    MOV      r0,#0x4034
        0x0000dd96:    f2c40000    ....    MOVT     r0,#0x4000
        0x0000dd9a:    6800        .h      LDR      r0,[r0,#0]
        0x0000dd9c:    f0100504    ....    ANDS     r5,r0,#4
        0x0000dda0:    d00a        ..      BEQ      0xddb8 ; am_hal_sysctrl_sleep + 64
        0x0000dda2:    f10d0007    ....    ADD      r0,sp,#7
        0x0000dda6:    f7fefcf3    ....    BL       am_hal_burst_mode_disable ; 0xc790
        0x0000ddaa:    bb08        ..      CBNZ     r0,0xddf0 ; am_hal_sysctrl_sleep + 120
        0x0000ddac:    f89d0007    ....    LDRB     r0,[sp,#7]
        0x0000ddb0:    2801        .(      CMP      r0,#1
        0x0000ddb2:    d11d        ..      BNE      0xddf0 ; am_hal_sysctrl_sleep + 120
        0x0000ddb4:    f7fffd4c    ..L.    BL       am_hal_pwrctrl_wa_vddf_restore ; 0xd850
        0x0000ddb8:    f64e5010    N..P    MOV      r0,#0xed10
        0x0000ddbc:    f2ce0000    ....    MOVT     r0,#0xe000
        0x0000ddc0:    b1c4        ..      CBZ      r4,0xddf4 ; am_hal_sysctrl_sleep + 124
        0x0000ddc2:    f2402150    @.P!    MOVW     r1,#0x250
        0x0000ddc6:    f2c40102    ....    MOVT     r1,#0x4002
        0x0000ddca:    6809        .h      LDR      r1,[r1,#0]
        0x0000ddcc:    07c9        ..      LSLS     r1,r1,#31
        0x0000ddce:    d111        ..      BNE      0xddf4 ; am_hal_sysctrl_sleep + 124
        0x0000ddd0:    f2410194    A...    MOV      r1,#0x1094
        0x0000ddd4:    f2c10100    ....    MOVT     r1,#0x1000
        0x0000ddd8:    680a        .h      LDR      r2,[r1,#0]
        0x0000ddda:    b92a        *.      CBNZ     r2,0xdde8 ; am_hal_sysctrl_sleep + 112
        0x0000dddc:    f24f0200    O...    MOVW     r2,#0xf000
        0x0000dde0:    f6c472ff    ...r    MOVT     r2,#0x4fff
        0x0000dde4:    6812        .h      LDR      r2,[r2,#0]
        0x0000dde6:    600a        .`      STR      r2,[r1,#0]
        0x0000dde8:    6801        .h      LDR      r1,[r0,#0]
        0x0000ddea:    f0410104    A...    ORR      r1,r1,#4
        0x0000ddee:    e004        ..      B        0xddfa ; am_hal_sysctrl_sleep + 130
        0x0000ddf0:    e7fe        ..      B        0xddf0 ; am_hal_sysctrl_sleep + 120
        0x0000ddf2:    bf00        ..      NOP      
        0x0000ddf4:    6801        .h      LDR      r1,[r0,#0]
        0x0000ddf6:    f0210104    !...    BIC      r1,r1,#4
        0x0000ddfa:    6001        .`      STR      r1,[r0,#0]
        0x0000ddfc:    2000        .       MOVS     r0,#0
        0x0000ddfe:    f3bf8f4f    ..O.    DSB      
        0x0000de02:    f6c570ff    ...p    MOVT     r0,#0x5fff
        0x0000de06:    6800        .h      LDR      r0,[r0,#0]
        0x0000de08:    bf30        0.      WFI      
        0x0000de0a:    f3bf8f6f    ..o.    ISB      
        0x0000de0e:    b11d        ..      CBZ      r5,0xde18 ; am_hal_sysctrl_sleep + 160
        0x0000de10:    f10d0007    ....    ADD      r0,sp,#7
        0x0000de14:    f7fefd16    ....    BL       am_hal_burst_mode_enable ; 0xc844
        0x0000de18:    9800        ..      LDR      r0,[sp,#0]
        0x0000de1a:    f7fffabb    ....    BL       am_hal_interrupt_master_set ; 0xd394
        0x0000de1e:    b002        ..      ADD      sp,sp,#8
        0x0000de20:    bdb0        ..      POP      {r4,r5,r7,pc}
        0x0000de22:    0000        ..      MOVS     r0,r0
    am_hal_uart_buffer_configure
        0x0000de24:    b5f0        ..      PUSH     {r4-r7,lr}
        0x0000de26:    b081        ..      SUB      sp,sp,#4
        0x0000de28:    2800        .(      CMP      r0,#0
        0x0000de2a:    d05f        _.      BEQ      0xdeec ; am_hal_uart_buffer_configure + 200
        0x0000de2c:    4604        .F      MOV      r4,r0
        0x0000de2e:    6800        .h      LDR      r0,[r0,#0]
        0x0000de30:    f6496706    I..g    MOV      r7,#0x9e06
        0x0000de34:    f2c017ea    ....    MOVT     r7,#0x1ea
        0x0000de38:    f020407e     .~@    BIC      r0,r0,#0xfe000000
        0x0000de3c:    42b8        .B      CMP      r0,r7
        0x0000de3e:    d155        U.      BNE      0xdeec ; am_hal_uart_buffer_configure + 200
        0x0000de40:    f24c0600    L...    MOVW     r6,#0xc000
        0x0000de44:    461d        .F      MOV      r5,r3
        0x0000de46:    f2c40601    ....    MOVT     r6,#0x4001
        0x0000de4a:    b1b9        ..      CBZ      r1,0xde7c ; am_hal_uart_buffer_configure + 88
        0x0000de4c:    4613        .F      MOV      r3,r2
        0x0000de4e:    b1aa        ..      CBZ      r2,0xde7c ; am_hal_uart_buffer_configure + 88
        0x0000de50:    2001        .       MOVS     r0,#1
        0x0000de52:    f884005d    ..].    STRB     r0,[r4,#0x5d]
        0x0000de56:    f1040028    ..(.    ADD      r0,r4,#0x28
        0x0000de5a:    2201        ."      MOVS     r2,#1
        0x0000de5c:    f7fffd54    ..T.    BL       am_hal_queue_init ; 0xd908
        0x0000de60:    6820         h      LDR      r0,[r4,#0]
        0x0000de62:    f020407e     .~@    BIC      r0,r0,#0xfe000000
        0x0000de66:    42b8        .B      CMP      r0,r7
        0x0000de68:    d140        @.      BNE      0xdeec ; am_hal_uart_buffer_configure + 200
        0x0000de6a:    6a60        `j      LDR      r0,[r4,#0x24]
        0x0000de6c:    eb063000    ...0    ADD      r0,r6,r0,LSL #12
        0x0000de70:    6b81        .k      LDR      r1,[r0,#0x38]
        0x0000de72:    f0410120    A. .    ORR      r1,r1,#0x20
        0x0000de76:    6381        .c      STR      r1,[r0,#0x38]
        0x0000de78:    b95d        ].      CBNZ     r5,0xde92 ; am_hal_uart_buffer_configure + 110
        0x0000de7a:    e025        %.      B        0xdec8 ; am_hal_uart_buffer_configure + 164
        0x0000de7c:    6a61        aj      LDR      r1,[r4,#0x24]
        0x0000de7e:    2000        .       MOVS     r0,#0
        0x0000de80:    f884005d    ..].    STRB     r0,[r4,#0x5d]
        0x0000de84:    eb063001    ...0    ADD      r0,r6,r1,LSL #12
        0x0000de88:    6b81        .k      LDR      r1,[r0,#0x38]
        0x0000de8a:    f0210120    !. .    BIC      r1,r1,#0x20
        0x0000de8e:    6381        .c      STR      r1,[r0,#0x38]
        0x0000de90:    b1d5        ..      CBZ      r5,0xdec8 ; am_hal_uart_buffer_configure + 164
        0x0000de92:    9b06        ..      LDR      r3,[sp,#0x18]
        0x0000de94:    b1c3        ..      CBZ      r3,0xdec8 ; am_hal_uart_buffer_configure + 164
        0x0000de96:    2001        .       MOVS     r0,#1
        0x0000de98:    f884005e    ..^.    STRB     r0,[r4,#0x5e]
        0x0000de9c:    f1040040    ..@.    ADD      r0,r4,#0x40
        0x0000dea0:    4629        )F      MOV      r1,r5
        0x0000dea2:    2201        ."      MOVS     r2,#1
        0x0000dea4:    f7fffd30    ..0.    BL       am_hal_queue_init ; 0xd908
        0x0000dea8:    6820         h      LDR      r0,[r4,#0]
        0x0000deaa:    f020407e     .~@    BIC      r0,r0,#0xfe000000
        0x0000deae:    42b8        .B      CMP      r0,r7
        0x0000deb0:    d11c        ..      BNE      0xdeec ; am_hal_uart_buffer_configure + 200
        0x0000deb2:    6a60        `j      LDR      r0,[r4,#0x24]
        0x0000deb4:    eb063000    ...0    ADD      r0,r6,r0,LSL #12
        0x0000deb8:    6b81        .k      LDR      r1,[r0,#0x38]
        0x0000deba:    f0410150    A.P.    ORR      r1,r1,#0x50
        0x0000debe:    6381        .c      STR      r1,[r0,#0x38]
        0x0000dec0:    2000        .       MOVS     r0,#0
        0x0000dec2:    b001        ..      ADD      sp,sp,#4
        0x0000dec4:    bdf0        ..      POP      {r4-r7,pc}
        0x0000dec6:    bf00        ..      NOP      
        0x0000dec8:    6820         h      LDR      r0,[r4,#0]
        0x0000deca:    2100        .!      MOVS     r1,#0
        0x0000decc:    f020407e     .~@    BIC      r0,r0,#0xfe000000
        0x0000ded0:    42b8        .B      CMP      r0,r7
        0x0000ded2:    f884105e    ..^.    STRB     r1,[r4,#0x5e]
        0x0000ded6:    d109        ..      BNE      0xdeec ; am_hal_uart_buffer_configure + 200
        0x0000ded8:    6a60        `j      LDR      r0,[r4,#0x24]
        0x0000deda:    eb063000    ...0    ADD      r0,r6,r0,LSL #12
        0x0000dede:    6b81        .k      LDR      r1,[r0,#0x38]
        0x0000dee0:    f0210150    !.P.    BIC      r1,r1,#0x50
        0x0000dee4:    6381        .c      STR      r1,[r0,#0x38]
        0x0000dee6:    2000        .       MOVS     r0,#0
        0x0000dee8:    b001        ..      ADD      sp,sp,#4
        0x0000deea:    bdf0        ..      POP      {r4-r7,pc}
        0x0000deec:    2002        .       MOVS     r0,#2
        0x0000deee:    b001        ..      ADD      sp,sp,#4
        0x0000def0:    bdf0        ..      POP      {r4-r7,pc}
        0x0000def2:    0000        ..      MOVS     r0,r0
    am_hal_uart_configure
        0x0000def4:    e92d41f0    -..A    PUSH     {r4-r8,lr}
        0x0000def8:    b084        ..      SUB      sp,sp,#0x10
        0x0000defa:    4604        .F      MOV      r4,r0
        0x0000defc:    6800        .h      LDR      r0,[r0,#0]
        0x0000defe:    f6496206    I..b    MOV      r2,#0x9e06
        0x0000df02:    f020407e     .~@    BIC      r0,r0,#0xfe000000
        0x0000df06:    f2c012ea    ....    MOVT     r2,#0x1ea
        0x0000df0a:    4290        .B      CMP      r0,r2
        0x0000df0c:    d112        ..      BNE      0xdf34 ; am_hal_uart_configure + 64
        0x0000df0e:    4688        .F      MOV      r8,r1
        0x0000df10:    6a60        `j      LDR      r0,[r4,#0x24]
        0x0000df12:    f24c0100    L...    MOVW     r1,#0xc000
        0x0000df16:    f2c40101    ....    MOVT     r1,#0x4001
        0x0000df1a:    eb013700    ...7    ADD      r7,r1,r0,LSL #12
        0x0000df1e:    2000        .       MOVS     r0,#0
        0x0000df20:    6338        8c      STR      r0,[r7,#0x30]
        0x0000df22:    f894505c    ..\P    LDRB     r5,[r4,#0x5c]
        0x0000df26:    2d05        .-      CMP      r5,#5
        0x0000df28:    d90a        ..      BLS      0xdf40 ; am_hal_uart_configure + 76
        0x0000df2a:    2606        .&      MOVS     r6,#6
        0x0000df2c:    4630        0F      MOV      r0,r6
        0x0000df2e:    b004        ..      ADD      sp,sp,#0x10
        0x0000df30:    e8bd81f0    ....    POP      {r4-r8,pc}
        0x0000df34:    2602        .&      MOVS     r6,#2
        0x0000df36:    4630        0F      MOV      r0,r6
        0x0000df38:    b004        ..      ADD      sp,sp,#0x10
        0x0000df3a:    e8bd81f0    ....    POP      {r4-r8,pc}
        0x0000df3e:    bf00        ..      NOP      
        0x0000df40:    2603        .&      MOVS     r6,#3
        0x0000df42:    f6c00600    ....    MOVT     r6,#0x800
        0x0000df46:    f7fffa1d    ....    BL       am_hal_interrupt_master_disable ; 0xd384
        0x0000df4a:    9003        ..      STR      r0,[sp,#0xc]
        0x0000df4c:    6b38        8k      LDR      r0,[r7,#0x30]
        0x0000df4e:    2170        p!      MOVS     r1,#0x70
        0x0000df50:    f0400008    @...    ORR      r0,r0,#8
        0x0000df54:    6338        8c      STR      r0,[r7,#0x30]
        0x0000df56:    6b38        8k      LDR      r0,[r7,#0x30]
        0x0000df58:    eb011105    ....    ADD      r1,r1,r5,LSL #4
        0x0000df5c:    f0010170    ..p.    AND      r1,r1,#0x70
        0x0000df60:    f0200070     .p.    BIC      r0,r0,#0x70
        0x0000df64:    2d00        .-      CMP      r5,#0
        0x0000df66:    bf08        ..      IT       EQ
        0x0000df68:    2110        .!      MOVEQ    r1,#0x10
        0x0000df6a:    4408        .D      ADD      r0,r0,r1
        0x0000df6c:    6338        8c      STR      r0,[r7,#0x30]
        0x0000df6e:    9803        ..      LDR      r0,[sp,#0xc]
        0x0000df70:    f7fffa10    ....    BL       am_hal_interrupt_master_set ; 0xd394
        0x0000df74:    f7fffa06    ....    BL       am_hal_interrupt_master_disable ; 0xd384
        0x0000df78:    9002        ..      STR      r0,[sp,#8]
        0x0000df7a:    6b38        8k      LDR      r0,[r7,#0x30]
        0x0000df7c:    f0200001     ...    BIC      r0,r0,#1
        0x0000df80:    6338        8c      STR      r0,[r7,#0x30]
        0x0000df82:    6b38        8k      LDR      r0,[r7,#0x30]
        0x0000df84:    f4207000     ..p    BIC      r0,r0,#0x200
        0x0000df88:    6338        8c      STR      r0,[r7,#0x30]
        0x0000df8a:    6b38        8k      LDR      r0,[r7,#0x30]
        0x0000df8c:    f4207080     ..p    BIC      r0,r0,#0x100
        0x0000df90:    6338        8c      STR      r0,[r7,#0x30]
        0x0000df92:    9802        ..      LDR      r0,[sp,#8]
        0x0000df94:    f7fff9fe    ....    BL       am_hal_interrupt_master_set ; 0xd394
        0x0000df98:    f8d80000    ....    LDR      r0,[r8,#0]
        0x0000df9c:    f5b02f61    ..a/    CMP      r0,#0xe1000
        0x0000dfa0:    d8c4        ..      BHI      0xdf2c ; am_hal_uart_configure + 56
        0x0000dfa2:    6b39        9k      LDR      r1,[r7,#0x30]
        0x0000dfa4:    f3c11102    ....    UBFX     r1,r1,#4,#3
        0x0000dfa8:    3901        .9      SUBS     r1,#1
        0x0000dfaa:    2903        .)      CMP      r1,#3
        0x0000dfac:    d84c        L.      BHI      0xe048 ; am_hal_uart_configure + 340
        0x0000dfae:    a22a        *.      ADR      r2,{pc}+0xaa ; 0xe058
        0x0000dfb0:    f8521021    R.!.    LDR      r1,[r2,r1,LSL #2]
        0x0000dfb4:    ebb11f00    ....    CMP      r1,r0,LSL #4
        0x0000dfb8:    d347        G.      BCC      0xe04a ; am_hal_uart_configure + 342
        0x0000dfba:    0100        ..      LSLS     r0,r0,#4
        0x0000dfbc:    018b        ..      LSLS     r3,r1,#6
        0x0000dfbe:    fbb1f2f0    ....    UDIV     r2,r1,r0
        0x0000dfc2:    fbb3f0f0    ....    UDIV     r0,r3,r0
        0x0000dfc6:    627a        zb      STR      r2,[r7,#0x24]
        0x0000dfc8:    eba01082    ....    SUB      r0,r0,r2,LSL #6
        0x0000dfcc:    0883        ..      LSRS     r3,r0,#2
        0x0000dfce:    627a        zb      STR      r2,[r7,#0x24]
        0x0000dfd0:    eb031202    ....    ADD      r2,r3,r2,LSL #4
        0x0000dfd4:    fbb1f1f2    ....    UDIV     r1,r1,r2
        0x0000dfd8:    62b8        .b      STR      r0,[r7,#0x28]
        0x0000dfda:    65a1        .e      STR      r1,[r4,#0x58]
        0x0000dfdc:    6b38        8k      LDR      r0,[r7,#0x30]
        0x0000dfde:    f1080204    ....    ADD      r2,r8,#4
        0x0000dfe2:    f4204080     ..@    BIC      r0,r0,#0x4000
        0x0000dfe6:    6338        8c      STR      r0,[r7,#0x30]
        0x0000dfe8:    6b38        8k      LDR      r0,[r7,#0x30]
        0x0000dfea:    f4204000     ..@    BIC      r0,r0,#0x8000
        0x0000dfee:    6338        8c      STR      r0,[r7,#0x30]
        0x0000dff0:    f8d80010    ....    LDR      r0,[r8,#0x10]
        0x0000dff4:    6b39        9k      LDR      r1,[r7,#0x30]
        0x0000dff6:    4308        .C      ORRS     r0,r0,r1
        0x0000dff8:    6338        8c      STR      r0,[r7,#0x30]
        0x0000dffa:    f8d80014    ....    LDR      r0,[r8,#0x14]
        0x0000dffe:    6378        xc      STR      r0,[r7,#0x34]
        0x0000e000:    ca07        ..      LDM      r2,{r0-r2}
        0x0000e002:    4308        .C      ORRS     r0,r0,r1
        0x0000e004:    4310        .C      ORRS     r0,r0,r2
        0x0000e006:    f0400010    @...    ORR      r0,r0,#0x10
        0x0000e00a:    62f8        .b      STR      r0,[r7,#0x2c]
        0x0000e00c:    f7fff9ba    ....    BL       am_hal_interrupt_master_disable ; 0xd384
        0x0000e010:    9001        ..      STR      r0,[sp,#4]
        0x0000e012:    6b38        8k      LDR      r0,[r7,#0x30]
        0x0000e014:    f0400001    @...    ORR      r0,r0,#1
        0x0000e018:    6338        8c      STR      r0,[r7,#0x30]
        0x0000e01a:    6b38        8k      LDR      r0,[r7,#0x30]
        0x0000e01c:    f4407000    @..p    ORR      r0,r0,#0x200
        0x0000e020:    6338        8c      STR      r0,[r7,#0x30]
        0x0000e022:    6b38        8k      LDR      r0,[r7,#0x30]
        0x0000e024:    f4407080    @..p    ORR      r0,r0,#0x100
        0x0000e028:    6338        8c      STR      r0,[r7,#0x30]
        0x0000e02a:    9801        ..      LDR      r0,[sp,#4]
        0x0000e02c:    f7fff9b2    ....    BL       am_hal_interrupt_master_set ; 0xd394
        0x0000e030:    f1080718    ....    ADD      r7,r8,#0x18
        0x0000e034:    cf8e        ..      LDM      r7,{r1-r3,r7}
        0x0000e036:    4620         F      MOV      r0,r4
        0x0000e038:    9700        ..      STR      r7,[sp,#0]
        0x0000e03a:    f7fffef3    ....    BL       am_hal_uart_buffer_configure ; 0xde24
        0x0000e03e:    2600        .&      MOVS     r6,#0
        0x0000e040:    4630        0F      MOV      r0,r6
        0x0000e042:    b004        ..      ADD      sp,sp,#0x10
        0x0000e044:    e8bd81f0    ....    POP      {r4-r8,pc}
        0x0000e048:    3e01        .>      SUBS     r6,#1
        0x0000e04a:    2000        .       MOVS     r0,#0
        0x0000e04c:    65a0        .e      STR      r0,[r4,#0x58]
        0x0000e04e:    4630        0F      MOV      r0,r6
        0x0000e050:    b004        ..      ADD      sp,sp,#0x10
        0x0000e052:    e8bd81f0    ....    POP      {r4-r8,pc}
        0x0000e056:    bf00        ..      NOP      
    $d.5
        0x0000e058:    016e3600    .6n.    DCD    24000000
        0x0000e05c:    00b71b00    ....    DCD    12000000
        0x0000e060:    005b8d80    ..[.    DCD    6000000
        0x0000e064:    002dc6c0    ..-.    DCD    3000000
    $t.1
    am_hal_uart_deinitialize
        0x0000e068:    b180        ..      CBZ      r0,0xe08c ; am_hal_uart_deinitialize + 36
        0x0000e06a:    4601        .F      MOV      r1,r0
        0x0000e06c:    6800        .h      LDR      r0,[r0,#0]
        0x0000e06e:    f6496306    I..c    MOV      r3,#0x9e06
        0x0000e072:    f020427e     .~B    BIC      r2,r0,#0xfe000000
        0x0000e076:    f2c013ea    ....    MOVT     r3,#0x1ea
        0x0000e07a:    429a        .B      CMP      r2,r3
        0x0000e07c:    d106        ..      BNE      0xe08c ; am_hal_uart_deinitialize + 36
        0x0000e07e:    f0207080     ..p    BIC      r0,r0,#0x1000000
        0x0000e082:    6008        .`      STR      r0,[r1,#0]
        0x0000e084:    2000        .       MOVS     r0,#0
        0x0000e086:    6248        Hb      STR      r0,[r1,#0x24]
        0x0000e088:    7108        .q      STRB     r0,[r1,#4]
        0x0000e08a:    4770        pG      BX       lr
        0x0000e08c:    2002        .       MOVS     r0,#2
        0x0000e08e:    4770        pG      BX       lr
    am_hal_uart_initialize
        0x0000e090:    b580        ..      PUSH     {r7,lr}
        0x0000e092:    2801        .(      CMP      r0,#1
        0x0000e094:    bf84        ..      ITT      HI
        0x0000e096:    2005        .       MOVHI    r0,#5
        0x0000e098:    bd80        ..      POPHI    {r7,pc}
        0x0000e09a:    b309        ..      CBZ      r1,0xe0e0 ; am_hal_uart_initialize + 80
        0x0000e09c:    eb000e40    ..@.    ADD      lr,r0,r0,LSL #1
        0x0000e0a0:    f2410ca0    A...    MOVW     r12,#0x10a0
        0x0000e0a4:    f2c10c00    ....    MOVT     r12,#0x1000
        0x0000e0a8:    ea4f124e    O.N.    LSL      r2,lr,#5
        0x0000e0ac:    f85c2002    \..     LDR      r2,[r12,r2]
        0x0000e0b0:    01d3        ..      LSLS     r3,r2,#7
        0x0000e0b2:    bf44        D.      ITT      MI
        0x0000e0b4:    2007        .       MOVMI    r0,#7
        0x0000e0b6:    bd80        ..      POPMI    {r7,pc}
        0x0000e0b8:    f6496306    I..c    MOV      r3,#0x9e06
        0x0000e0bc:    eb0c1c4e    ..N.    ADD      r12,r12,lr,LSL #5
        0x0000e0c0:    f2c013ea    ....    MOVT     r3,#0x1ea
        0x0000e0c4:    f3630218    c...    BFI      r2,r3,#0,#25
        0x0000e0c8:    f8cc0024    ..$.    STR      r0,[r12,#0x24]
        0x0000e0cc:    2000        .       MOVS     r0,#0
        0x0000e0ce:    f8cc2000    ...     STR      r2,[r12,#0]
        0x0000e0d2:    f88c0004    ....    STRB     r0,[r12,#4]
        0x0000e0d6:    f8cc0058    ..X.    STR      r0,[r12,#0x58]
        0x0000e0da:    f8c1c000    ....    STR      r12,[r1,#0]
        0x0000e0de:    bd80        ..      POP      {r7,pc}
        0x0000e0e0:    2006        .       MOVS     r0,#6
        0x0000e0e2:    bd80        ..      POP      {r7,pc}
    am_hal_uart_power_control
        0x0000e0e4:    e92d41f0    -..A    PUSH     {r4-r8,lr}
        0x0000e0e8:    b082        ..      SUB      sp,sp,#8
        0x0000e0ea:    4604        .F      MOV      r4,r0
        0x0000e0ec:    6800        .h      LDR      r0,[r0,#0]
        0x0000e0ee:    f6496706    I..g    MOV      r7,#0x9e06
        0x0000e0f2:    f2c017ea    ....    MOVT     r7,#0x1ea
        0x0000e0f6:    f020437e     .~C    BIC      r3,r0,#0xfe000000
        0x0000e0fa:    42bb        .B      CMP      r3,r7
        0x0000e0fc:    d138        8.      BNE      0xe170 ; am_hal_uart_power_control + 140
        0x0000e0fe:    6a65        ej      LDR      r5,[r4,#0x24]
        0x0000e100:    1e4b        K.      SUBS     r3,r1,#1
        0x0000e102:    2b02        .+      CMP      r3,#2
        0x0000e104:    f1050608    ....    ADD      r6,r5,#8
        0x0000e108:    d238        8.      BCS      0xe17c ; am_hal_uart_power_control + 152
        0x0000e10a:    f24c0800    L...    MOVW     r8,#0xc000
        0x0000e10e:    f2c40801    ....    MOVT     r8,#0x4001
        0x0000e112:    b1c2        ..      CBZ      r2,0xe146 ; am_hal_uart_power_control + 98
        0x0000e114:    f7fff936    ..6.    BL       am_hal_interrupt_master_disable ; 0xd384
        0x0000e118:    9000        ..      STR      r0,[sp,#0]
        0x0000e11a:    eb083005    ...0    ADD      r0,r8,r5,LSL #12
        0x0000e11e:    6a01        .j      LDR      r1,[r0,#0x20]
        0x0000e120:    60a1        .`      STR      r1,[r4,#8]
        0x0000e122:    6a41        Aj      LDR      r1,[r0,#0x24]
        0x0000e124:    60e1        .`      STR      r1,[r4,#0xc]
        0x0000e126:    6a81        .j      LDR      r1,[r0,#0x28]
        0x0000e128:    6121        !a      STR      r1,[r4,#0x10]
        0x0000e12a:    6ac1        .j      LDR      r1,[r0,#0x2c]
        0x0000e12c:    6161        aa      STR      r1,[r4,#0x14]
        0x0000e12e:    6b01        .k      LDR      r1,[r0,#0x30]
        0x0000e130:    61a1        .a      STR      r1,[r4,#0x18]
        0x0000e132:    6b41        Ak      LDR      r1,[r0,#0x34]
        0x0000e134:    61e1        .a      STR      r1,[r4,#0x1c]
        0x0000e136:    6b80        .k      LDR      r0,[r0,#0x38]
        0x0000e138:    6220         b      STR      r0,[r4,#0x20]
        0x0000e13a:    2001        .       MOVS     r0,#1
        0x0000e13c:    7120         q      STRB     r0,[r4,#4]
        0x0000e13e:    9800        ..      LDR      r0,[sp,#0]
        0x0000e140:    f7fff928    ..(.    BL       am_hal_interrupt_master_set ; 0xd394
        0x0000e144:    6820         h      LDR      r0,[r4,#0]
        0x0000e146:    f020407e     .~@    BIC      r0,r0,#0xfe000000
        0x0000e14a:    42b8        .B      CMP      r0,r7
        0x0000e14c:    d105        ..      BNE      0xe15a ; am_hal_uart_power_control + 118
        0x0000e14e:    6a60        `j      LDR      r0,[r4,#0x24]
        0x0000e150:    f04f31ff    O..1    MOV      r1,#0xffffffff
        0x0000e154:    eb083000    ...0    ADD      r0,r8,r0,LSL #12
        0x0000e158:    6441        Ad      STR      r1,[r0,#0x44]
        0x0000e15a:    eb083005    ...0    ADD      r0,r8,r5,LSL #12
        0x0000e15e:    2500        .%      MOVS     r5,#0
        0x0000e160:    6305        .c      STR      r5,[r0,#0x30]
        0x0000e162:    b2f0        ..      UXTB     r0,r6
        0x0000e164:    f7fffa80    ....    BL       am_hal_pwrctrl_periph_disable ; 0xd668
        0x0000e168:    4628        (F      MOV      r0,r5
        0x0000e16a:    b002        ..      ADD      sp,sp,#8
        0x0000e16c:    e8bd81f0    ....    POP      {r4-r8,pc}
        0x0000e170:    2502        .%      MOVS     r5,#2
        0x0000e172:    4628        (F      MOV      r0,r5
        0x0000e174:    b002        ..      ADD      sp,sp,#8
        0x0000e176:    e8bd81f0    ....    POP      {r4-r8,pc}
        0x0000e17a:    bf00        ..      NOP      
        0x0000e17c:    bb31        1.      CBNZ     r1,0xe1cc ; am_hal_uart_power_control + 232
        0x0000e17e:    b35a        Z.      CBZ      r2,0xe1d8 ; am_hal_uart_power_control + 244
        0x0000e180:    7920         y      LDRB     r0,[r4,#4]
        0x0000e182:    b388        ..      CBZ      r0,0xe1e8 ; am_hal_uart_power_control + 260
        0x0000e184:    b2f0        ..      UXTB     r0,r6
        0x0000e186:    f7fffac3    ....    BL       am_hal_pwrctrl_periph_enable ; 0xd710
        0x0000e18a:    f7fff8fb    ....    BL       am_hal_interrupt_master_disable ; 0xd384
        0x0000e18e:    9001        ..      STR      r0,[sp,#4]
        0x0000e190:    f24c0100    L...    MOVW     r1,#0xc000
        0x0000e194:    68a0        .h      LDR      r0,[r4,#8]
        0x0000e196:    f2c40101    ....    MOVT     r1,#0x4001
        0x0000e19a:    eb013105    ...1    ADD      r1,r1,r5,LSL #12
        0x0000e19e:    6208        .b      STR      r0,[r1,#0x20]
        0x0000e1a0:    68e0        .h      LDR      r0,[r4,#0xc]
        0x0000e1a2:    2500        .%      MOVS     r5,#0
        0x0000e1a4:    6248        Hb      STR      r0,[r1,#0x24]
        0x0000e1a6:    6920         i      LDR      r0,[r4,#0x10]
        0x0000e1a8:    6288        .b      STR      r0,[r1,#0x28]
        0x0000e1aa:    6960        `i      LDR      r0,[r4,#0x14]
        0x0000e1ac:    62c8        .b      STR      r0,[r1,#0x2c]
        0x0000e1ae:    69a0        .i      LDR      r0,[r4,#0x18]
        0x0000e1b0:    6308        .c      STR      r0,[r1,#0x30]
        0x0000e1b2:    69e0        .i      LDR      r0,[r4,#0x1c]
        0x0000e1b4:    6348        Hc      STR      r0,[r1,#0x34]
        0x0000e1b6:    6a20         j      LDR      r0,[r4,#0x20]
        0x0000e1b8:    6388        .c      STR      r0,[r1,#0x38]
        0x0000e1ba:    7125        %q      STRB     r5,[r4,#4]
        0x0000e1bc:    9801        ..      LDR      r0,[sp,#4]
        0x0000e1be:    f7fff8e9    ....    BL       am_hal_interrupt_master_set ; 0xd394
        0x0000e1c2:    4628        (F      MOV      r0,r5
        0x0000e1c4:    b002        ..      ADD      sp,sp,#8
        0x0000e1c6:    e8bd81f0    ....    POP      {r4-r8,pc}
        0x0000e1ca:    bf00        ..      NOP      
        0x0000e1cc:    2506        .%      MOVS     r5,#6
        0x0000e1ce:    4628        (F      MOV      r0,r5
        0x0000e1d0:    b002        ..      ADD      sp,sp,#8
        0x0000e1d2:    e8bd81f0    ....    POP      {r4-r8,pc}
        0x0000e1d6:    bf00        ..      NOP      
        0x0000e1d8:    b2f0        ..      UXTB     r0,r6
        0x0000e1da:    f7fffa99    ....    BL       am_hal_pwrctrl_periph_enable ; 0xd710
        0x0000e1de:    2500        .%      MOVS     r5,#0
        0x0000e1e0:    4628        (F      MOV      r0,r5
        0x0000e1e2:    b002        ..      ADD      sp,sp,#8
        0x0000e1e4:    e8bd81f0    ....    POP      {r4-r8,pc}
        0x0000e1e8:    2507        .%      MOVS     r5,#7
        0x0000e1ea:    4628        (F      MOV      r0,r5
        0x0000e1ec:    b002        ..      ADD      sp,sp,#8
        0x0000e1ee:    e8bd81f0    ....    POP      {r4-r8,pc}
        0x0000e1f2:    0000        ..      MOVS     r0,r0
    am_hal_uart_transfer
        0x0000e1f4:    e92d4ff0    -..O    PUSH     {r4-r11,lr}
        0x0000e1f8:    b083        ..      SUB      sp,sp,#0xc
        0x0000e1fa:    680a        .h      LDR      r2,[r1,#0]
        0x0000e1fc:    4604        .F      MOV      r4,r0
        0x0000e1fe:    2a01        .*      CMP      r2,#1
        0x0000e200:    d030        0.      BEQ      0xe264 ; am_hal_uart_transfer + 112
        0x0000e202:    2a00        .*      CMP      r2,#0
        0x0000e204:    d15c        \.      BNE      0xe2c0 ; am_hal_uart_transfer + 204
        0x0000e206:    f1010a04    ....    ADD      r10,r1,#4
        0x0000e20a:    e89a04c0    ....    LDM      r10,{r6,r7,r10}
        0x0000e20e:    690b        .i      LDR      r3,[r1,#0x10]
        0x0000e210:    f1ba0f00    ....    CMP      r10,#0
        0x0000e214:    d058        X.      BEQ      0xe2c8 ; am_hal_uart_transfer + 212
        0x0000e216:    2f00        ./      CMP      r7,#0
        0x0000e218:    d066        f.      BEQ      0xe2e8 ; am_hal_uart_transfer + 244
        0x0000e21a:    f1ba38ff    ...8    SUBS     r8,r10,#0xffffffff
        0x0000e21e:    f10d0904    ....    ADD      r9,sp,#4
        0x0000e222:    f04f0500    O...    MOV      r5,#0
        0x0000e226:    f04f0b00    O...    MOV      r11,#0
        0x0000e22a:    9300        ..      STR      r3,[sp,#0]
        0x0000e22c:    bf18        ..      IT       NE
        0x0000e22e:    f04f0801    O...    MOVNE    r8,#1
        0x0000e232:    bf00        ..      NOP      
        0x0000e234:    2000        .       MOVS     r0,#0
        0x0000e236:    9001        ..      STR      r0,[sp,#4]
        0x0000e238:    1971        q.      ADDS     r1,r6,r5
        0x0000e23a:    4620         F      MOV      r0,r4
        0x0000e23c:    463a        :F      MOV      r2,r7
        0x0000e23e:    464b        KF      MOV      r3,r9
        0x0000e240:    f001f9b6    ....    BL       write_nonblocking ; 0xf5b0
        0x0000e244:    9901        ..      LDR      r1,[sp,#4]
        0x0000e246:    2800        .(      CMP      r0,#0
        0x0000e248:    440d        .D      ADD      r5,r5,r1
        0x0000e24a:    d155        U.      BNE      0xe2f8 ; am_hal_uart_transfer + 260
        0x0000e24c:    1a7f        ..      SUBS     r7,r7,r1
        0x0000e24e:    d057        W.      BEQ      0xe300 ; am_hal_uart_transfer + 268
        0x0000e250:    f44f507a    O.zP    MOV      r0,#0x3e80
        0x0000e254:    f7fefdf8    ....    BL       am_hal_flash_delay ; 0xce48
        0x0000e258:    44c3        .D      ADD      r11,r11,r8
        0x0000e25a:    45d3        .E      CMP      r11,r10
        0x0000e25c:    d3ea        ..      BCC      0xe234 ; am_hal_uart_transfer + 64
        0x0000e25e:    2000        .       MOVS     r0,#0
        0x0000e260:    e052        R.      B        0xe308 ; am_hal_uart_transfer + 276
        0x0000e262:    bf00        ..      NOP      
        0x0000e264:    f1010a04    ....    ADD      r10,r1,#4
        0x0000e268:    e89a04c0    ....    LDM      r10,{r6,r7,r10}
        0x0000e26c:    690b        .i      LDR      r3,[r1,#0x10]
        0x0000e26e:    f1ba0f00    ....    CMP      r10,#0
        0x0000e272:    d031        1.      BEQ      0xe2d8 ; am_hal_uart_transfer + 228
        0x0000e274:    b3e7        ..      CBZ      r7,0xe2f0 ; am_hal_uart_transfer + 252
        0x0000e276:    f1ba38ff    ...8    SUBS     r8,r10,#0xffffffff
        0x0000e27a:    f10d0908    ....    ADD      r9,sp,#8
        0x0000e27e:    f04f0500    O...    MOV      r5,#0
        0x0000e282:    f04f0b00    O...    MOV      r11,#0
        0x0000e286:    9300        ..      STR      r3,[sp,#0]
        0x0000e288:    bf18        ..      IT       NE
        0x0000e28a:    f04f0801    O...    MOVNE    r8,#1
        0x0000e28e:    bf00        ..      NOP      
        0x0000e290:    2000        .       MOVS     r0,#0
        0x0000e292:    9002        ..      STR      r0,[sp,#8]
        0x0000e294:    1971        q.      ADDS     r1,r6,r5
        0x0000e296:    4620         F      MOV      r0,r4
        0x0000e298:    463a        :F      MOV      r2,r7
        0x0000e29a:    464b        KF      MOV      r3,r9
        0x0000e29c:    f000ff32    ..2.    BL       read_nonblocking ; 0xf104
        0x0000e2a0:    9902        ..      LDR      r1,[sp,#8]
        0x0000e2a2:    2800        .(      CMP      r0,#0
        0x0000e2a4:    440d        .D      ADD      r5,r5,r1
        0x0000e2a6:    d13f        ?.      BNE      0xe328 ; am_hal_uart_transfer + 308
        0x0000e2a8:    1a7f        ..      SUBS     r7,r7,r1
        0x0000e2aa:    d043        C.      BEQ      0xe334 ; am_hal_uart_transfer + 320
        0x0000e2ac:    f44f507a    O.zP    MOV      r0,#0x3e80
        0x0000e2b0:    f7fefdca    ....    BL       am_hal_flash_delay ; 0xce48
        0x0000e2b4:    44c3        .D      ADD      r11,r11,r8
        0x0000e2b6:    45d3        .E      CMP      r11,r10
        0x0000e2b8:    d3ea        ..      BCC      0xe290 ; am_hal_uart_transfer + 156
        0x0000e2ba:    2000        .       MOVS     r0,#0
        0x0000e2bc:    e03e        >.      B        0xe33c ; am_hal_uart_transfer + 328
        0x0000e2be:    bf00        ..      NOP      
        0x0000e2c0:    2007        .       MOVS     r0,#7
        0x0000e2c2:    b003        ..      ADD      sp,sp,#0xc
        0x0000e2c4:    e8bd8ff0    ....    POP      {r4-r11,pc}
        0x0000e2c8:    4620         F      MOV      r0,r4
        0x0000e2ca:    4631        1F      MOV      r1,r6
        0x0000e2cc:    463a        :F      MOV      r2,r7
        0x0000e2ce:    f001f96f    ..o.    BL       write_nonblocking ; 0xf5b0
        0x0000e2d2:    b003        ..      ADD      sp,sp,#0xc
        0x0000e2d4:    e8bd8ff0    ....    POP      {r4-r11,pc}
        0x0000e2d8:    4620         F      MOV      r0,r4
        0x0000e2da:    4631        1F      MOV      r1,r6
        0x0000e2dc:    463a        :F      MOV      r2,r7
        0x0000e2de:    f000ff11    ....    BL       read_nonblocking ; 0xf104
        0x0000e2e2:    b003        ..      ADD      sp,sp,#0xc
        0x0000e2e4:    e8bd8ff0    ....    POP      {r4-r11,pc}
        0x0000e2e8:    2001        .       MOVS     r0,#1
        0x0000e2ea:    2500        .%      MOVS     r5,#0
        0x0000e2ec:    e00d        ..      B        0xe30a ; am_hal_uart_transfer + 278
        0x0000e2ee:    bf00        ..      NOP      
        0x0000e2f0:    2001        .       MOVS     r0,#1
        0x0000e2f2:    2500        .%      MOVS     r5,#0
        0x0000e2f4:    e023        #.      B        0xe33e ; am_hal_uart_transfer + 330
        0x0000e2f6:    bf00        ..      NOP      
        0x0000e2f8:    9900        ..      LDR      r1,[sp,#0]
        0x0000e2fa:    b9b9        ..      CBNZ     r1,0xe32c ; am_hal_uart_transfer + 312
        0x0000e2fc:    e02a        *.      B        0xe354 ; am_hal_uart_transfer + 352
        0x0000e2fe:    bf00        ..      NOP      
        0x0000e300:    2000        .       MOVS     r0,#0
        0x0000e302:    45d3        .E      CMP      r11,r10
        0x0000e304:    bf38        8.      IT       CC
        0x0000e306:    2001        .       MOVCC    r0,#1
        0x0000e308:    9b00        ..      LDR      r3,[sp,#0]
        0x0000e30a:    2b00        .+      CMP      r3,#0
        0x0000e30c:    bf18        ..      IT       NE
        0x0000e30e:    601d        .`      STRNE    r5,[r3,#0]
        0x0000e310:    2104        .!      MOVS     r1,#4
        0x0000e312:    2800        .(      CMP      r0,#0
        0x0000e314:    bf18        ..      IT       NE
        0x0000e316:    2100        .!      MOVNE    r1,#0
        0x0000e318:    f1ba30ff    ...0    SUBS     r0,r10,#0xffffffff
        0x0000e31c:    bf18        ..      IT       NE
        0x0000e31e:    4608        .F      MOVNE    r0,r1
        0x0000e320:    b003        ..      ADD      sp,sp,#0xc
        0x0000e322:    e8bd8ff0    ....    POP      {r4-r11,pc}
        0x0000e326:    bf00        ..      NOP      
        0x0000e328:    9900        ..      LDR      r1,[sp,#0]
        0x0000e32a:    b199        ..      CBZ      r1,0xe354 ; am_hal_uart_transfer + 352
        0x0000e32c:    600d        .`      STR      r5,[r1,#0]
        0x0000e32e:    b003        ..      ADD      sp,sp,#0xc
        0x0000e330:    e8bd8ff0    ....    POP      {r4-r11,pc}
        0x0000e334:    2000        .       MOVS     r0,#0
        0x0000e336:    45d3        .E      CMP      r11,r10
        0x0000e338:    bf38        8.      IT       CC
        0x0000e33a:    2001        .       MOVCC    r0,#1
        0x0000e33c:    9b00        ..      LDR      r3,[sp,#0]
        0x0000e33e:    2b00        .+      CMP      r3,#0
        0x0000e340:    bf18        ..      IT       NE
        0x0000e342:    601d        .`      STRNE    r5,[r3,#0]
        0x0000e344:    2104        .!      MOVS     r1,#4
        0x0000e346:    2800        .(      CMP      r0,#0
        0x0000e348:    bf18        ..      IT       NE
        0x0000e34a:    2100        .!      MOVNE    r1,#0
        0x0000e34c:    f1ba30ff    ...0    SUBS     r0,r10,#0xffffffff
        0x0000e350:    bf18        ..      IT       NE
        0x0000e352:    4608        .F      MOVNE    r0,r1
        0x0000e354:    b003        ..      ADD      sp,sp,#0xc
        0x0000e356:    e8bd8ff0    ....    POP      {r4-r11,pc}
        0x0000e35a:    0000        ..      MOVS     r0,r0
    am_hal_uart_tx_flush
        0x0000e35c:    b570        p.      PUSH     {r4-r6,lr}
        0x0000e35e:    4604        .F      MOV      r4,r0
        0x0000e360:    f890005d    ..].    LDRB     r0,[r0,#0x5d]
        0x0000e364:    6a65        ej      LDR      r5,[r4,#0x24]
        0x0000e366:    b170        p.      CBZ      r0,0xe386 ; am_hal_uart_tx_flush + 42
        0x0000e368:    6b20         k      LDR      r0,[r4,#0x30]
        0x0000e36a:    b160        `.      CBZ      r0,0xe386 ; am_hal_uart_tx_flush + 42
        0x0000e36c:    f6413600    A..6    MOVW     r6,#0x1b00
        0x0000e370:    f2c006b7    ....    MOVT     r6,#0xb7
        0x0000e374:    6da0        .m      LDR      r0,[r4,#0x58]
        0x0000e376:    fbb6f0f0    ....    UDIV     r0,r6,r0
        0x0000e37a:    0100        ..      LSLS     r0,r0,#4
        0x0000e37c:    f7fefd64    ..d.    BL       am_hal_flash_delay ; 0xce48
        0x0000e380:    6b20         k      LDR      r0,[r4,#0x30]
        0x0000e382:    2800        .(      CMP      r0,#0
        0x0000e384:    d1f6        ..      BNE      0xe374 ; am_hal_uart_tx_flush + 24
        0x0000e386:    f24c0000    L...    MOVW     r0,#0xc000
        0x0000e38a:    f2c40001    ....    MOVT     r0,#0x4001
        0x0000e38e:    eb003505    ...5    ADD      r5,r0,r5,LSL #12
        0x0000e392:    69a8        .i      LDR      r0,[r5,#0x18]
        0x0000e394:    0700        ..      LSLS     r0,r0,#28
        0x0000e396:    d50c        ..      BPL      0xe3b2 ; am_hal_uart_tx_flush + 86
        0x0000e398:    f6413600    A..6    MOVW     r6,#0x1b00
        0x0000e39c:    f2c006b7    ....    MOVT     r6,#0xb7
        0x0000e3a0:    6da0        .m      LDR      r0,[r4,#0x58]
        0x0000e3a2:    fbb6f0f0    ....    UDIV     r0,r6,r0
        0x0000e3a6:    0100        ..      LSLS     r0,r0,#4
        0x0000e3a8:    f7fefd4e    ..N.    BL       am_hal_flash_delay ; 0xce48
        0x0000e3ac:    69a8        .i      LDR      r0,[r5,#0x18]
        0x0000e3ae:    0700        ..      LSLS     r0,r0,#28
        0x0000e3b0:    d4f6        ..      BMI      0xe3a0 ; am_hal_uart_tx_flush + 68
        0x0000e3b2:    2000        .       MOVS     r0,#0
        0x0000e3b4:    bd70        p.      POP      {r4-r6,pc}
        0x0000e3b6:    0000        ..      MOVS     r0,r0
    am_rtc_isr
        0x0000e3b8:    b580        ..      PUSH     {r7,lr}
        0x0000e3ba:    2001        .       MOVS     r0,#1
        0x0000e3bc:    f7fffca8    ....    BL       am_hal_rtc_int_clear ; 0xdd10
        0x0000e3c0:    f2410198    A...    MOV      r1,#0x1098
        0x0000e3c4:    f2c10100    ....    MOVT     r1,#0x1000
        0x0000e3c8:    6808        .h      LDR      r0,[r1,#0]
        0x0000e3ca:    3001        .0      ADDS     r0,#1
        0x0000e3cc:    6008        .`      STR      r0,[r1,#0]
        0x0000e3ce:    2805        .(      CMP      r0,#5
        0x0000e3d0:    d30e        ..      BCC      0xe3f0 ; am_rtc_isr + 56
        0x0000e3d2:    e7ff        ..      B        0xe3d4 ; am_rtc_isr + 28
        0x0000e3d4:    f2410198    A...    MOV      r1,#0x1098
        0x0000e3d8:    f2c10100    ....    MOVT     r1,#0x1000
        0x0000e3dc:    2000        .       MOVS     r0,#0
        0x0000e3de:    6008        .`      STR      r0,[r1,#0]
        0x0000e3e0:    f2410000    A...    MOVW     r0,#0x1000
        0x0000e3e4:    f2c10000    ....    MOVT     r0,#0x1000
        0x0000e3e8:    2101        .!      MOVS     r1,#1
        0x0000e3ea:    f7fef8ff    ....    BL       am_devices_led_toggle ; 0xc5ec
        0x0000e3ee:    e7ff        ..      B        0xe3f0 ; am_rtc_isr + 56
        0x0000e3f0:    bd80        ..      POP      {r7,pc}
        0x0000e3f2:    0000        ..      MOVS     r0,r0
    am_util_delay_ms
        0x0000e3f4:    b580        ..      PUSH     {r7,lr}
        0x0000e3f6:    b086        ..      SUB      sp,sp,#0x18
        0x0000e3f8:    9005        ..      STR      r0,[sp,#0x14]
        0x0000e3fa:    4668        hF      MOV      r0,sp
        0x0000e3fc:    f7fefd06    ....    BL       am_hal_clkgen_status_get ; 0xce0c
        0x0000e400:    9800        ..      LDR      r0,[sp,#0]
        0x0000e402:    9003        ..      STR      r0,[sp,#0xc]
        0x0000e404:    9805        ..      LDR      r0,[sp,#0x14]
        0x0000e406:    9903        ..      LDR      r1,[sp,#0xc]
        0x0000e408:    f64112f1    A...    MOV      r2,#0x19f1
        0x0000e40c:    f2c05276    ..vR    MOVT     r2,#0x576
        0x0000e410:    fba12102    ...!    UMULL    r2,r1,r1,r2
        0x0000e414:    0989        ..      LSRS     r1,r1,#6
        0x0000e416:    4348        HC      MULS     r0,r1,r0
        0x0000e418:    9004        ..      STR      r0,[sp,#0x10]
        0x0000e41a:    9804        ..      LDR      r0,[sp,#0x10]
        0x0000e41c:    f7fefd14    ....    BL       am_hal_flash_delay ; 0xce48
        0x0000e420:    b006        ..      ADD      sp,sp,#0x18
        0x0000e422:    bd80        ..      POP      {r7,pc}
    am_util_stdio_printf
        0x0000e424:    b083        ..      SUB      sp,sp,#0xc
        0x0000e426:    b580        ..      PUSH     {r7,lr}
        0x0000e428:    b085        ..      SUB      sp,sp,#0x14
        0x0000e42a:    9309        ..      STR      r3,[sp,#0x24]
        0x0000e42c:    9208        ..      STR      r2,[sp,#0x20]
        0x0000e42e:    9107        ..      STR      r1,[sp,#0x1c]
        0x0000e430:    9003        ..      STR      r0,[sp,#0xc]
        0x0000e432:    f2411064    A.d.    MOV      r0,#0x1164
        0x0000e436:    f2c10000    ....    MOVT     r0,#0x1000
        0x0000e43a:    6800        .h      LDR      r0,[r0,#0]
        0x0000e43c:    b918        ..      CBNZ     r0,0xe446 ; am_util_stdio_printf + 34
        0x0000e43e:    e7ff        ..      B        0xe440 ; am_util_stdio_printf + 28
        0x0000e440:    2000        .       MOVS     r0,#0
        0x0000e442:    9004        ..      STR      r0,[sp,#0x10]
        0x0000e444:    e016        ..      B        0xe474 ; am_util_stdio_printf + 80
        0x0000e446:    a807        ..      ADD      r0,sp,#0x1c
        0x0000e448:    9001        ..      STR      r0,[sp,#4]
        0x0000e44a:    9903        ..      LDR      r1,[sp,#0xc]
        0x0000e44c:    9a01        ..      LDR      r2,[sp,#4]
        0x0000e44e:    f2411068    A.h.    MOV      r0,#0x1168
        0x0000e452:    f2c10000    ....    MOVT     r0,#0x1000
        0x0000e456:    9000        ..      STR      r0,[sp,#0]
        0x0000e458:    f000f824    ..$.    BL       am_util_stdio_vsprintf ; 0xe4a4
        0x0000e45c:    4601        .F      MOV      r1,r0
        0x0000e45e:    9800        ..      LDR      r0,[sp,#0]
        0x0000e460:    9102        ..      STR      r1,[sp,#8]
        0x0000e462:    f2411164    A.d.    MOV      r1,#0x1164
        0x0000e466:    f2c10100    ....    MOVT     r1,#0x1000
        0x0000e46a:    6809        .h      LDR      r1,[r1,#0]
        0x0000e46c:    4788        .G      BLX      r1
        0x0000e46e:    9802        ..      LDR      r0,[sp,#8]
        0x0000e470:    9004        ..      STR      r0,[sp,#0x10]
        0x0000e472:    e7ff        ..      B        0xe474 ; am_util_stdio_printf + 80
        0x0000e474:    9804        ..      LDR      r0,[sp,#0x10]
        0x0000e476:    b005        ..      ADD      sp,sp,#0x14
        0x0000e478:    e8bd4080    ...@    POP      {r7,lr}
        0x0000e47c:    b003        ..      ADD      sp,sp,#0xc
        0x0000e47e:    4770        pG      BX       lr
    am_util_stdio_printf_init
        0x0000e480:    b081        ..      SUB      sp,sp,#4
        0x0000e482:    9000        ..      STR      r0,[sp,#0]
        0x0000e484:    9800        ..      LDR      r0,[sp,#0]
        0x0000e486:    f2411164    A.d.    MOV      r1,#0x1164
        0x0000e48a:    f2c10100    ....    MOVT     r1,#0x1000
        0x0000e48e:    6008        .`      STR      r0,[r1,#0]
        0x0000e490:    b001        ..      ADD      sp,sp,#4
        0x0000e492:    4770        pG      BX       lr
    am_util_stdio_terminal_clear
        0x0000e494:    b580        ..      PUSH     {r7,lr}
        0x0000e496:    f64f40ca    O..@    MOV      r0,#0xfcca
        0x0000e49a:    f2c00000    ....    MOVT     r0,#0
        0x0000e49e:    f7ffffc1    ....    BL       am_util_stdio_printf ; 0xe424
        0x0000e4a2:    bd80        ..      POP      {r7,pc}
    am_util_stdio_vsprintf
        0x0000e4a4:    b580        ..      PUSH     {r7,lr}
        0x0000e4a6:    b09e        ..      SUB      sp,sp,#0x78
        0x0000e4a8:    921d        ..      STR      r2,[sp,#0x74]
        0x0000e4aa:    901c        ..      STR      r0,[sp,#0x70]
        0x0000e4ac:    911b        ..      STR      r1,[sp,#0x6c]
        0x0000e4ae:    2000        .       MOVS     r0,#0
        0x0000e4b0:    9014        ..      STR      r0,[sp,#0x50]
        0x0000e4b2:    900e        ..      STR      r0,[sp,#0x38]
        0x0000e4b4:    e7ff        ..      B        0xe4b6 ; am_util_stdio_vsprintf + 18
        0x0000e4b6:    981b        ..      LDR      r0,[sp,#0x6c]
        0x0000e4b8:    7800        .x      LDRB     r0,[r0,#0]
        0x0000e4ba:    2800        .(      CMP      r0,#0
        0x0000e4bc:    f0008312    ....    BEQ.W    0xeae4 ; am_util_stdio_vsprintf + 1600
        0x0000e4c0:    e7ff        ..      B        0xe4c2 ; am_util_stdio_vsprintf + 30
        0x0000e4c2:    2006        .       MOVS     r0,#6
        0x0000e4c4:    9011        ..      STR      r0,[sp,#0x44]
        0x0000e4c6:    981b        ..      LDR      r0,[sp,#0x6c]
        0x0000e4c8:    7800        .x      LDRB     r0,[r0,#0]
        0x0000e4ca:    2825        %(      CMP      r0,#0x25
        0x0000e4cc:    d027        '.      BEQ      0xe51e ; am_util_stdio_vsprintf + 122
        0x0000e4ce:    e7ff        ..      B        0xe4d0 ; am_util_stdio_vsprintf + 44
        0x0000e4d0:    981c        ..      LDR      r0,[sp,#0x70]
        0x0000e4d2:    b1e8        ..      CBZ      r0,0xe510 ; am_util_stdio_vsprintf + 108
        0x0000e4d4:    e7ff        ..      B        0xe4d6 ; am_util_stdio_vsprintf + 50
        0x0000e4d6:    981b        ..      LDR      r0,[sp,#0x6c]
        0x0000e4d8:    7800        .x      LDRB     r0,[r0,#0]
        0x0000e4da:    280a        .(      CMP      r0,#0xa
        0x0000e4dc:    d111        ..      BNE      0xe502 ; am_util_stdio_vsprintf + 94
        0x0000e4de:    e7ff        ..      B        0xe4e0 ; am_util_stdio_vsprintf + 60
        0x0000e4e0:    f2411061    A.a.    MOV      r0,#0x1161
        0x0000e4e4:    f2c10000    ....    MOVT     r0,#0x1000
        0x0000e4e8:    7800        .x      LDRB     r0,[r0,#0]
        0x0000e4ea:    07c0        ..      LSLS     r0,r0,#31
        0x0000e4ec:    b148        H.      CBZ      r0,0xe502 ; am_util_stdio_vsprintf + 94
        0x0000e4ee:    e7ff        ..      B        0xe4f0 ; am_util_stdio_vsprintf + 76
        0x0000e4f0:    991c        ..      LDR      r1,[sp,#0x70]
        0x0000e4f2:    1c48        H.      ADDS     r0,r1,#1
        0x0000e4f4:    901c        ..      STR      r0,[sp,#0x70]
        0x0000e4f6:    200d        .       MOVS     r0,#0xd
        0x0000e4f8:    7008        .p      STRB     r0,[r1,#0]
        0x0000e4fa:    9814        ..      LDR      r0,[sp,#0x50]
        0x0000e4fc:    3001        .0      ADDS     r0,#1
        0x0000e4fe:    9014        ..      STR      r0,[sp,#0x50]
        0x0000e500:    e7ff        ..      B        0xe502 ; am_util_stdio_vsprintf + 94
        0x0000e502:    981b        ..      LDR      r0,[sp,#0x6c]
        0x0000e504:    7800        .x      LDRB     r0,[r0,#0]
        0x0000e506:    991c        ..      LDR      r1,[sp,#0x70]
        0x0000e508:    1c4a        J.      ADDS     r2,r1,#1
        0x0000e50a:    921c        ..      STR      r2,[sp,#0x70]
        0x0000e50c:    7008        .p      STRB     r0,[r1,#0]
        0x0000e50e:    e7ff        ..      B        0xe510 ; am_util_stdio_vsprintf + 108
        0x0000e510:    981b        ..      LDR      r0,[sp,#0x6c]
        0x0000e512:    3001        .0      ADDS     r0,#1
        0x0000e514:    901b        ..      STR      r0,[sp,#0x6c]
        0x0000e516:    9814        ..      LDR      r0,[sp,#0x50]
        0x0000e518:    3001        .0      ADDS     r0,#1
        0x0000e51a:    9014        ..      STR      r0,[sp,#0x50]
        0x0000e51c:    e7cb        ..      B        0xe4b6 ; am_util_stdio_vsprintf + 18
        0x0000e51e:    981b        ..      LDR      r0,[sp,#0x6c]
        0x0000e520:    3001        .0      ADDS     r0,#1
        0x0000e522:    901b        ..      STR      r0,[sp,#0x6c]
        0x0000e524:    2000        .       MOVS     r0,#0
        0x0000e526:    f88d0040    ..@.    STRB     r0,[sp,#0x40]
        0x0000e52a:    f88d0041    ..A.    STRB     r0,[sp,#0x41]
        0x0000e52e:    2020                MOVS     r0,#0x20
        0x0000e530:    f88d0042    ..B.    STRB     r0,[sp,#0x42]
        0x0000e534:    981b        ..      LDR      r0,[sp,#0x6c]
        0x0000e536:    7800        .x      LDRB     r0,[r0,#0]
        0x0000e538:    2830        0(      CMP      r0,#0x30
        0x0000e53a:    d107        ..      BNE      0xe54c ; am_util_stdio_vsprintf + 168
        0x0000e53c:    e7ff        ..      B        0xe53e ; am_util_stdio_vsprintf + 154
        0x0000e53e:    2030        0       MOVS     r0,#0x30
        0x0000e540:    f88d0042    ..B.    STRB     r0,[sp,#0x42]
        0x0000e544:    981b        ..      LDR      r0,[sp,#0x6c]
        0x0000e546:    3001        .0      ADDS     r0,#1
        0x0000e548:    901b        ..      STR      r0,[sp,#0x6c]
        0x0000e54a:    e7ff        ..      B        0xe54c ; am_util_stdio_vsprintf + 168
        0x0000e54c:    981b        ..      LDR      r0,[sp,#0x6c]
        0x0000e54e:    a915        ..      ADD      r1,sp,#0x54
        0x0000e550:    f000fad2    ....    BL       decstr_to_int ; 0xeaf8
        0x0000e554:    9013        ..      STR      r0,[sp,#0x4c]
        0x0000e556:    9915        ..      LDR      r1,[sp,#0x54]
        0x0000e558:    981b        ..      LDR      r0,[sp,#0x6c]
        0x0000e55a:    4408        .D      ADD      r0,r0,r1
        0x0000e55c:    901b        ..      STR      r0,[sp,#0x6c]
        0x0000e55e:    981b        ..      LDR      r0,[sp,#0x6c]
        0x0000e560:    7800        .x      LDRB     r0,[r0,#0]
        0x0000e562:    2873        s(      CMP      r0,#0x73
        0x0000e564:    d009        ..      BEQ      0xe57a ; am_util_stdio_vsprintf + 214
        0x0000e566:    e7ff        ..      B        0xe568 ; am_util_stdio_vsprintf + 196
        0x0000e568:    9813        ..      LDR      r0,[sp,#0x4c]
        0x0000e56a:    f1b03fff    ...?    CMP      r0,#0xffffffff
        0x0000e56e:    dc04        ..      BGT      0xe57a ; am_util_stdio_vsprintf + 214
        0x0000e570:    e7ff        ..      B        0xe572 ; am_util_stdio_vsprintf + 206
        0x0000e572:    9813        ..      LDR      r0,[sp,#0x4c]
        0x0000e574:    4240        @B      RSBS     r0,r0,#0
        0x0000e576:    9013        ..      STR      r0,[sp,#0x4c]
        0x0000e578:    e7ff        ..      B        0xe57a ; am_util_stdio_vsprintf + 214
        0x0000e57a:    981b        ..      LDR      r0,[sp,#0x6c]
        0x0000e57c:    7800        .x      LDRB     r0,[r0,#0]
        0x0000e57e:    282e        .(      CMP      r0,#0x2e
        0x0000e580:    d10d        ..      BNE      0xe59e ; am_util_stdio_vsprintf + 250
        0x0000e582:    e7ff        ..      B        0xe584 ; am_util_stdio_vsprintf + 224
        0x0000e584:    981b        ..      LDR      r0,[sp,#0x6c]
        0x0000e586:    3001        .0      ADDS     r0,#1
        0x0000e588:    901b        ..      STR      r0,[sp,#0x6c]
        0x0000e58a:    981b        ..      LDR      r0,[sp,#0x6c]
        0x0000e58c:    a915        ..      ADD      r1,sp,#0x54
        0x0000e58e:    f000fab3    ....    BL       decstr_to_int ; 0xeaf8
        0x0000e592:    9011        ..      STR      r0,[sp,#0x44]
        0x0000e594:    9915        ..      LDR      r1,[sp,#0x54]
        0x0000e596:    981b        ..      LDR      r0,[sp,#0x6c]
        0x0000e598:    4408        .D      ADD      r0,r0,r1
        0x0000e59a:    901b        ..      STR      r0,[sp,#0x6c]
        0x0000e59c:    e7ff        ..      B        0xe59e ; am_util_stdio_vsprintf + 250
        0x0000e59e:    981b        ..      LDR      r0,[sp,#0x6c]
        0x0000e5a0:    7800        .x      LDRB     r0,[r0,#0]
        0x0000e5a2:    286c        l(      CMP      r0,#0x6c
        0x0000e5a4:    d110        ..      BNE      0xe5c8 ; am_util_stdio_vsprintf + 292
        0x0000e5a6:    e7ff        ..      B        0xe5a8 ; am_util_stdio_vsprintf + 260
        0x0000e5a8:    981b        ..      LDR      r0,[sp,#0x6c]
        0x0000e5aa:    3001        .0      ADDS     r0,#1
        0x0000e5ac:    901b        ..      STR      r0,[sp,#0x6c]
        0x0000e5ae:    981b        ..      LDR      r0,[sp,#0x6c]
        0x0000e5b0:    7800        .x      LDRB     r0,[r0,#0]
        0x0000e5b2:    286c        l(      CMP      r0,#0x6c
        0x0000e5b4:    d107        ..      BNE      0xe5c6 ; am_util_stdio_vsprintf + 290
        0x0000e5b6:    e7ff        ..      B        0xe5b8 ; am_util_stdio_vsprintf + 276
        0x0000e5b8:    981b        ..      LDR      r0,[sp,#0x6c]
        0x0000e5ba:    3001        .0      ADDS     r0,#1
        0x0000e5bc:    901b        ..      STR      r0,[sp,#0x6c]
        0x0000e5be:    2001        .       MOVS     r0,#1
        0x0000e5c0:    f88d0040    ..@.    STRB     r0,[sp,#0x40]
        0x0000e5c4:    e7ff        ..      B        0xe5c6 ; am_util_stdio_vsprintf + 290
        0x0000e5c6:    e7ff        ..      B        0xe5c8 ; am_util_stdio_vsprintf + 292
        0x0000e5c8:    981b        ..      LDR      r0,[sp,#0x6c]
        0x0000e5ca:    7800        .x      LDRB     r0,[r0,#0]
        0x0000e5cc:    3846        F8      SUBS     r0,r0,#0x46
        0x0000e5ce:    4601        .F      MOV      r1,r0
        0x0000e5d0:    910b        ..      STR      r1,[sp,#0x2c]
        0x0000e5d2:    2832        2(      CMP      r0,#0x32
        0x0000e5d4:    f2008273    ..s.    BHI.W    0xeabe ; am_util_stdio_vsprintf + 1562
        0x0000e5d8:    990b        ..      LDR      r1,[sp,#0x2c]
        0x0000e5da:    e8dff011    ....    TBH      [pc,r1,LSL #1]
    $d.4
        0x0000e5de:    0224        $.      DCW    548
        0x0000e5e0:    02700270    p.p.    DCD    40895088
        0x0000e5e4:    02700270    p.p.    DCD    40895088
        0x0000e5e8:    02700270    p.p.    DCD    40895088
        0x0000e5ec:    02700270    p.p.    DCD    40895088
        0x0000e5f0:    02700270    p.p.    DCD    40895088
        0x0000e5f4:    02700270    p.p.    DCD    40895088
        0x0000e5f8:    02700270    p.p.    DCD    40895088
        0x0000e5fc:    02700270    p.p.    DCD    40895088
        0x0000e600:    00bf0270    p...    DCD    12518000
        0x0000e604:    02700270    p.p.    DCD    40895088
        0x0000e608:    02700270    p.p.    DCD    40895088
        0x0000e60c:    02700270    p.p.    DCD    40895088
        0x0000e610:    02700270    p.p.    DCD    40895088
        0x0000e614:    02700270    p.p.    DCD    40895088
        0x0000e618:    016f0033    3.o.    DCD    24051763
        0x0000e61c:    02240270    p.$.    DCD    35914352
        0x0000e620:    02700270    p.p.    DCD    40895088
        0x0000e624:    0270016f    o.p.    DCD    40894831
        0x0000e628:    02700270    p.p.    DCD    40895088
        0x0000e62c:    02700270    p.p.    DCD    40895088
        0x0000e630:    02700270    p.p.    DCD    40895088
        0x0000e634:    02700270    p.p.    DCD    40895088
        0x0000e638:    02700047    G.p.    DCD    40894535
        0x0000e63c:    02700119    ..p.    DCD    40894745
        0x0000e640:    00bb0270    p...    DCD    12255856
    $t.5
        0x0000e644:    981d        ..      LDR      r0,[sp,#0x74]
        0x0000e646:    1d01        ..      ADDS     r1,r0,#4
        0x0000e648:    911d        ..      STR      r1,[sp,#0x74]
        0x0000e64a:    6800        .h      LDR      r0,[r0,#0]
        0x0000e64c:    f88d0043    ..C.    STRB     r0,[sp,#0x43]
        0x0000e650:    981c        ..      LDR      r0,[sp,#0x70]
        0x0000e652:    b138        8.      CBZ      r0,0xe664 ; am_util_stdio_vsprintf + 448
        0x0000e654:    e7ff        ..      B        0xe656 ; am_util_stdio_vsprintf + 434
        0x0000e656:    f89d0043    ..C.    LDRB     r0,[sp,#0x43]
        0x0000e65a:    991c        ..      LDR      r1,[sp,#0x70]
        0x0000e65c:    1c4a        J.      ADDS     r2,r1,#1
        0x0000e65e:    921c        ..      STR      r2,[sp,#0x70]
        0x0000e660:    7008        .p      STRB     r0,[r1,#0]
        0x0000e662:    e7ff        ..      B        0xe664 ; am_util_stdio_vsprintf + 448
        0x0000e664:    9814        ..      LDR      r0,[sp,#0x50]
        0x0000e666:    3001        .0      ADDS     r0,#1
        0x0000e668:    9014        ..      STR      r0,[sp,#0x50]
        0x0000e66a:    e236        6.      B        0xeada ; am_util_stdio_vsprintf + 1590
        0x0000e66c:    981d        ..      LDR      r0,[sp,#0x74]
        0x0000e66e:    1d01        ..      ADDS     r1,r0,#4
        0x0000e670:    911d        ..      STR      r1,[sp,#0x74]
        0x0000e672:    6800        .h      LDR      r0,[r0,#0]
        0x0000e674:    901a        ..      STR      r0,[sp,#0x68]
        0x0000e676:    981a        ..      LDR      r0,[sp,#0x68]
        0x0000e678:    f000feda    ....    BL       simple_strlen ; 0xf430
        0x0000e67c:    900e        ..      STR      r0,[sp,#0x38]
        0x0000e67e:    9813        ..      LDR      r0,[sp,#0x4c]
        0x0000e680:    2801        .(      CMP      r0,#1
        0x0000e682:    db25        %.      BLT      0xe6d0 ; am_util_stdio_vsprintf + 556
        0x0000e684:    e7ff        ..      B        0xe686 ; am_util_stdio_vsprintf + 482
        0x0000e686:    980e        ..      LDR      r0,[sp,#0x38]
        0x0000e688:    9913        ..      LDR      r1,[sp,#0x4c]
        0x0000e68a:    4288        .B      CMP      r0,r1
        0x0000e68c:    d21f        ..      BCS      0xe6ce ; am_util_stdio_vsprintf + 554
        0x0000e68e:    e7ff        ..      B        0xe690 ; am_util_stdio_vsprintf + 492
        0x0000e690:    990e        ..      LDR      r1,[sp,#0x38]
        0x0000e692:    9813        ..      LDR      r0,[sp,#0x4c]
        0x0000e694:    1a40        @.      SUBS     r0,r0,r1
        0x0000e696:    9013        ..      STR      r0,[sp,#0x4c]
        0x0000e698:    981c        ..      LDR      r0,[sp,#0x70]
        0x0000e69a:    f89d1042    ..B.    LDRB     r1,[sp,#0x42]
        0x0000e69e:    9a13        ..      LDR      r2,[sp,#0x4c]
        0x0000e6a0:    f000fd08    ....    BL       padbuffer ; 0xf0b4
        0x0000e6a4:    9013        ..      STR      r0,[sp,#0x4c]
        0x0000e6a6:    981c        ..      LDR      r0,[sp,#0x70]
        0x0000e6a8:    b118        ..      CBZ      r0,0xe6b2 ; am_util_stdio_vsprintf + 526
        0x0000e6aa:    e7ff        ..      B        0xe6ac ; am_util_stdio_vsprintf + 520
        0x0000e6ac:    9813        ..      LDR      r0,[sp,#0x4c]
        0x0000e6ae:    900a        ..      STR      r0,[sp,#0x28]
        0x0000e6b0:    e002        ..      B        0xe6b8 ; am_util_stdio_vsprintf + 532
        0x0000e6b2:    2000        .       MOVS     r0,#0
        0x0000e6b4:    900a        ..      STR      r0,[sp,#0x28]
        0x0000e6b6:    e7ff        ..      B        0xe6b8 ; am_util_stdio_vsprintf + 532
        0x0000e6b8:    990a        ..      LDR      r1,[sp,#0x28]
        0x0000e6ba:    981c        ..      LDR      r0,[sp,#0x70]
        0x0000e6bc:    4408        .D      ADD      r0,r0,r1
        0x0000e6be:    901c        ..      STR      r0,[sp,#0x70]
        0x0000e6c0:    9913        ..      LDR      r1,[sp,#0x4c]
        0x0000e6c2:    9814        ..      LDR      r0,[sp,#0x50]
        0x0000e6c4:    4408        .D      ADD      r0,r0,r1
        0x0000e6c6:    9014        ..      STR      r0,[sp,#0x50]
        0x0000e6c8:    2000        .       MOVS     r0,#0
        0x0000e6ca:    9013        ..      STR      r0,[sp,#0x4c]
        0x0000e6cc:    e7ff        ..      B        0xe6ce ; am_util_stdio_vsprintf + 554
        0x0000e6ce:    e7ff        ..      B        0xe6d0 ; am_util_stdio_vsprintf + 556
        0x0000e6d0:    e7ff        ..      B        0xe6d2 ; am_util_stdio_vsprintf + 558
        0x0000e6d2:    981a        ..      LDR      r0,[sp,#0x68]
        0x0000e6d4:    7800        .x      LDRB     r0,[r0,#0]
        0x0000e6d6:    b188        ..      CBZ      r0,0xe6fc ; am_util_stdio_vsprintf + 600
        0x0000e6d8:    e7ff        ..      B        0xe6da ; am_util_stdio_vsprintf + 566
        0x0000e6da:    981c        ..      LDR      r0,[sp,#0x70]
        0x0000e6dc:    b138        8.      CBZ      r0,0xe6ee ; am_util_stdio_vsprintf + 586
        0x0000e6de:    e7ff        ..      B        0xe6e0 ; am_util_stdio_vsprintf + 572
        0x0000e6e0:    981a        ..      LDR      r0,[sp,#0x68]
        0x0000e6e2:    7800        .x      LDRB     r0,[r0,#0]
        0x0000e6e4:    991c        ..      LDR      r1,[sp,#0x70]
        0x0000e6e6:    1c4a        J.      ADDS     r2,r1,#1
        0x0000e6e8:    921c        ..      STR      r2,[sp,#0x70]
        0x0000e6ea:    7008        .p      STRB     r0,[r1,#0]
        0x0000e6ec:    e7ff        ..      B        0xe6ee ; am_util_stdio_vsprintf + 586
        0x0000e6ee:    981a        ..      LDR      r0,[sp,#0x68]
        0x0000e6f0:    3001        .0      ADDS     r0,#1
        0x0000e6f2:    901a        ..      STR      r0,[sp,#0x68]
        0x0000e6f4:    9814        ..      LDR      r0,[sp,#0x50]
        0x0000e6f6:    3001        .0      ADDS     r0,#1
        0x0000e6f8:    9014        ..      STR      r0,[sp,#0x50]
        0x0000e6fa:    e7ea        ..      B        0xe6d2 ; am_util_stdio_vsprintf + 558
        0x0000e6fc:    9813        ..      LDR      r0,[sp,#0x4c]
        0x0000e6fe:    b340        @.      CBZ      r0,0xe752 ; am_util_stdio_vsprintf + 686
        0x0000e700:    e7ff        ..      B        0xe702 ; am_util_stdio_vsprintf + 606
        0x0000e702:    9813        ..      LDR      r0,[sp,#0x4c]
        0x0000e704:    4240        @B      RSBS     r0,r0,#0
        0x0000e706:    9013        ..      STR      r0,[sp,#0x4c]
        0x0000e708:    980e        ..      LDR      r0,[sp,#0x38]
        0x0000e70a:    9913        ..      LDR      r1,[sp,#0x4c]
        0x0000e70c:    4288        .B      CMP      r0,r1
        0x0000e70e:    d21f        ..      BCS      0xe750 ; am_util_stdio_vsprintf + 684
        0x0000e710:    e7ff        ..      B        0xe712 ; am_util_stdio_vsprintf + 622
        0x0000e712:    990e        ..      LDR      r1,[sp,#0x38]
        0x0000e714:    9813        ..      LDR      r0,[sp,#0x4c]
        0x0000e716:    1a40        @.      SUBS     r0,r0,r1
        0x0000e718:    9013        ..      STR      r0,[sp,#0x4c]
        0x0000e71a:    981c        ..      LDR      r0,[sp,#0x70]
        0x0000e71c:    f89d1042    ..B.    LDRB     r1,[sp,#0x42]
        0x0000e720:    9a13        ..      LDR      r2,[sp,#0x4c]
        0x0000e722:    f000fcc7    ....    BL       padbuffer ; 0xf0b4
        0x0000e726:    9013        ..      STR      r0,[sp,#0x4c]
        0x0000e728:    981c        ..      LDR      r0,[sp,#0x70]
        0x0000e72a:    b118        ..      CBZ      r0,0xe734 ; am_util_stdio_vsprintf + 656
        0x0000e72c:    e7ff        ..      B        0xe72e ; am_util_stdio_vsprintf + 650
        0x0000e72e:    9813        ..      LDR      r0,[sp,#0x4c]
        0x0000e730:    9009        ..      STR      r0,[sp,#0x24]
        0x0000e732:    e002        ..      B        0xe73a ; am_util_stdio_vsprintf + 662
        0x0000e734:    2000        .       MOVS     r0,#0
        0x0000e736:    9009        ..      STR      r0,[sp,#0x24]
        0x0000e738:    e7ff        ..      B        0xe73a ; am_util_stdio_vsprintf + 662
        0x0000e73a:    9909        ..      LDR      r1,[sp,#0x24]
        0x0000e73c:    981c        ..      LDR      r0,[sp,#0x70]
        0x0000e73e:    4408        .D      ADD      r0,r0,r1
        0x0000e740:    901c        ..      STR      r0,[sp,#0x70]
        0x0000e742:    9913        ..      LDR      r1,[sp,#0x4c]
        0x0000e744:    9814        ..      LDR      r0,[sp,#0x50]
        0x0000e746:    4408        .D      ADD      r0,r0,r1
        0x0000e748:    9014        ..      STR      r0,[sp,#0x50]
        0x0000e74a:    2000        .       MOVS     r0,#0
        0x0000e74c:    9013        ..      STR      r0,[sp,#0x4c]
        0x0000e74e:    e7ff        ..      B        0xe750 ; am_util_stdio_vsprintf + 684
        0x0000e750:    e7ff        ..      B        0xe752 ; am_util_stdio_vsprintf + 686
        0x0000e752:    e1c2        ..      B        0xeada ; am_util_stdio_vsprintf + 1590
        0x0000e754:    2001        .       MOVS     r0,#1
        0x0000e756:    f88d0041    ..A.    STRB     r0,[sp,#0x41]
        0x0000e75a:    e7ff        ..      B        0xe75c ; am_util_stdio_vsprintf + 696
        0x0000e75c:    f89d0040    ..@.    LDRB     r0,[sp,#0x40]
        0x0000e760:    07c0        ..      LSLS     r0,r0,#31
        0x0000e762:    b160        `.      CBZ      r0,0xe77e ; am_util_stdio_vsprintf + 730
        0x0000e764:    e7ff        ..      B        0xe766 ; am_util_stdio_vsprintf + 706
        0x0000e766:    981d        ..      LDR      r0,[sp,#0x74]
        0x0000e768:    3007        .0      ADDS     r0,#7
        0x0000e76a:    f0200007     ...    BIC      r0,r0,#7
        0x0000e76e:    f1000108    ....    ADD      r1,r0,#8
        0x0000e772:    911d        ..      STR      r1,[sp,#0x74]
        0x0000e774:    6801        .h      LDR      r1,[r0,#0]
        0x0000e776:    6840        @h      LDR      r0,[r0,#4]
        0x0000e778:    9107        ..      STR      r1,[sp,#0x1c]
        0x0000e77a:    9008        ..      STR      r0,[sp,#0x20]
        0x0000e77c:    e007        ..      B        0xe78e ; am_util_stdio_vsprintf + 746
        0x0000e77e:    981d        ..      LDR      r0,[sp,#0x74]
        0x0000e780:    1d01        ..      ADDS     r1,r0,#4
        0x0000e782:    911d        ..      STR      r1,[sp,#0x74]
        0x0000e784:    6801        .h      LDR      r1,[r0,#0]
        0x0000e786:    2000        .       MOVS     r0,#0
        0x0000e788:    9107        ..      STR      r1,[sp,#0x1c]
        0x0000e78a:    9008        ..      STR      r0,[sp,#0x20]
        0x0000e78c:    e7ff        ..      B        0xe78e ; am_util_stdio_vsprintf + 746
        0x0000e78e:    9907        ..      LDR      r1,[sp,#0x1c]
        0x0000e790:    9808        ..      LDR      r0,[sp,#0x20]
        0x0000e792:    9118        ..      STR      r1,[sp,#0x60]
        0x0000e794:    9019        ..      STR      r0,[sp,#0x64]
        0x0000e796:    9813        ..      LDR      r0,[sp,#0x4c]
        0x0000e798:    b318        ..      CBZ      r0,0xe7e2 ; am_util_stdio_vsprintf + 830
        0x0000e79a:    e7ff        ..      B        0xe79c ; am_util_stdio_vsprintf + 760
        0x0000e79c:    9818        ..      LDR      r0,[sp,#0x60]
        0x0000e79e:    9919        ..      LDR      r1,[sp,#0x64]
        0x0000e7a0:    f000fc32    ..2.    BL       ndigits_in_hex ; 0xf008
        0x0000e7a4:    4601        .F      MOV      r1,r0
        0x0000e7a6:    9813        ..      LDR      r0,[sp,#0x4c]
        0x0000e7a8:    1a40        @.      SUBS     r0,r0,r1
        0x0000e7aa:    9013        ..      STR      r0,[sp,#0x4c]
        0x0000e7ac:    981c        ..      LDR      r0,[sp,#0x70]
        0x0000e7ae:    f89d1042    ..B.    LDRB     r1,[sp,#0x42]
        0x0000e7b2:    9a13        ..      LDR      r2,[sp,#0x4c]
        0x0000e7b4:    f000fc7e    ..~.    BL       padbuffer ; 0xf0b4
        0x0000e7b8:    9013        ..      STR      r0,[sp,#0x4c]
        0x0000e7ba:    981c        ..      LDR      r0,[sp,#0x70]
        0x0000e7bc:    b118        ..      CBZ      r0,0xe7c6 ; am_util_stdio_vsprintf + 802
        0x0000e7be:    e7ff        ..      B        0xe7c0 ; am_util_stdio_vsprintf + 796
        0x0000e7c0:    9813        ..      LDR      r0,[sp,#0x4c]
        0x0000e7c2:    9006        ..      STR      r0,[sp,#0x18]
        0x0000e7c4:    e002        ..      B        0xe7cc ; am_util_stdio_vsprintf + 808
        0x0000e7c6:    2000        .       MOVS     r0,#0
        0x0000e7c8:    9006        ..      STR      r0,[sp,#0x18]
        0x0000e7ca:    e7ff        ..      B        0xe7cc ; am_util_stdio_vsprintf + 808
        0x0000e7cc:    9906        ..      LDR      r1,[sp,#0x18]
        0x0000e7ce:    981c        ..      LDR      r0,[sp,#0x70]
        0x0000e7d0:    4408        .D      ADD      r0,r0,r1
        0x0000e7d2:    901c        ..      STR      r0,[sp,#0x70]
        0x0000e7d4:    9913        ..      LDR      r1,[sp,#0x4c]
        0x0000e7d6:    9814        ..      LDR      r0,[sp,#0x50]
        0x0000e7d8:    4408        .D      ADD      r0,r0,r1
        0x0000e7da:    9014        ..      STR      r0,[sp,#0x50]
        0x0000e7dc:    2000        .       MOVS     r0,#0
        0x0000e7de:    9013        ..      STR      r0,[sp,#0x4c]
        0x0000e7e0:    e7ff        ..      B        0xe7e2 ; am_util_stdio_vsprintf + 830
        0x0000e7e2:    9818        ..      LDR      r0,[sp,#0x60]
        0x0000e7e4:    9919        ..      LDR      r1,[sp,#0x64]
        0x0000e7e6:    9a1c        ..      LDR      r2,[sp,#0x70]
        0x0000e7e8:    f89d3041    ..A0    LDRB     r3,[sp,#0x41]
        0x0000e7ec:    f0030301    ....    AND      r3,r3,#1
        0x0000e7f0:    f000fe3a    ..:.    BL       uint64_to_hexstr ; 0xf468
        0x0000e7f4:    9012        ..      STR      r0,[sp,#0x48]
        0x0000e7f6:    981c        ..      LDR      r0,[sp,#0x70]
        0x0000e7f8:    b128        (.      CBZ      r0,0xe806 ; am_util_stdio_vsprintf + 866
        0x0000e7fa:    e7ff        ..      B        0xe7fc ; am_util_stdio_vsprintf + 856
        0x0000e7fc:    9912        ..      LDR      r1,[sp,#0x48]
        0x0000e7fe:    981c        ..      LDR      r0,[sp,#0x70]
        0x0000e800:    4408        .D      ADD      r0,r0,r1
        0x0000e802:    901c        ..      STR      r0,[sp,#0x70]
        0x0000e804:    e7ff        ..      B        0xe806 ; am_util_stdio_vsprintf + 866
        0x0000e806:    9912        ..      LDR      r1,[sp,#0x48]
        0x0000e808:    9814        ..      LDR      r0,[sp,#0x50]
        0x0000e80a:    4408        .D      ADD      r0,r0,r1
        0x0000e80c:    9014        ..      STR      r0,[sp,#0x50]
        0x0000e80e:    e164        d.      B        0xeada ; am_util_stdio_vsprintf + 1590
        0x0000e810:    f89d0040    ..@.    LDRB     r0,[sp,#0x40]
        0x0000e814:    07c0        ..      LSLS     r0,r0,#31
        0x0000e816:    b160        `.      CBZ      r0,0xe832 ; am_util_stdio_vsprintf + 910
        0x0000e818:    e7ff        ..      B        0xe81a ; am_util_stdio_vsprintf + 886
        0x0000e81a:    981d        ..      LDR      r0,[sp,#0x74]
        0x0000e81c:    3007        .0      ADDS     r0,#7
        0x0000e81e:    f0200007     ...    BIC      r0,r0,#7
        0x0000e822:    f1000108    ....    ADD      r1,r0,#8
        0x0000e826:    911d        ..      STR      r1,[sp,#0x74]
        0x0000e828:    6801        .h      LDR      r1,[r0,#0]
        0x0000e82a:    6840        @h      LDR      r0,[r0,#4]
        0x0000e82c:    9104        ..      STR      r1,[sp,#0x10]
        0x0000e82e:    9005        ..      STR      r0,[sp,#0x14]
        0x0000e830:    e007        ..      B        0xe842 ; am_util_stdio_vsprintf + 926
        0x0000e832:    981d        ..      LDR      r0,[sp,#0x74]
        0x0000e834:    1d01        ..      ADDS     r1,r0,#4
        0x0000e836:    911d        ..      STR      r1,[sp,#0x74]
        0x0000e838:    6801        .h      LDR      r1,[r0,#0]
        0x0000e83a:    2000        .       MOVS     r0,#0
        0x0000e83c:    9104        ..      STR      r1,[sp,#0x10]
        0x0000e83e:    9005        ..      STR      r0,[sp,#0x14]
        0x0000e840:    e7ff        ..      B        0xe842 ; am_util_stdio_vsprintf + 926
        0x0000e842:    9904        ..      LDR      r1,[sp,#0x10]
        0x0000e844:    9805        ..      LDR      r0,[sp,#0x14]
        0x0000e846:    9118        ..      STR      r1,[sp,#0x60]
        0x0000e848:    9019        ..      STR      r0,[sp,#0x64]
        0x0000e84a:    9813        ..      LDR      r0,[sp,#0x4c]
        0x0000e84c:    b318        ..      CBZ      r0,0xe896 ; am_util_stdio_vsprintf + 1010
        0x0000e84e:    e7ff        ..      B        0xe850 ; am_util_stdio_vsprintf + 940
        0x0000e850:    9818        ..      LDR      r0,[sp,#0x60]
        0x0000e852:    9919        ..      LDR      r1,[sp,#0x64]
        0x0000e854:    f000fc10    ....    BL       ndigits_in_u64 ; 0xf078
        0x0000e858:    4601        .F      MOV      r1,r0
        0x0000e85a:    9813        ..      LDR      r0,[sp,#0x4c]
        0x0000e85c:    1a40        @.      SUBS     r0,r0,r1
        0x0000e85e:    9013        ..      STR      r0,[sp,#0x4c]
        0x0000e860:    981c        ..      LDR      r0,[sp,#0x70]
        0x0000e862:    f89d1042    ..B.    LDRB     r1,[sp,#0x42]
        0x0000e866:    9a13        ..      LDR      r2,[sp,#0x4c]
        0x0000e868:    f000fc24    ..$.    BL       padbuffer ; 0xf0b4
        0x0000e86c:    9013        ..      STR      r0,[sp,#0x4c]
        0x0000e86e:    981c        ..      LDR      r0,[sp,#0x70]
        0x0000e870:    b118        ..      CBZ      r0,0xe87a ; am_util_stdio_vsprintf + 982
        0x0000e872:    e7ff        ..      B        0xe874 ; am_util_stdio_vsprintf + 976
        0x0000e874:    9813        ..      LDR      r0,[sp,#0x4c]
        0x0000e876:    9003        ..      STR      r0,[sp,#0xc]
        0x0000e878:    e002        ..      B        0xe880 ; am_util_stdio_vsprintf + 988
        0x0000e87a:    2000        .       MOVS     r0,#0
        0x0000e87c:    9003        ..      STR      r0,[sp,#0xc]
        0x0000e87e:    e7ff        ..      B        0xe880 ; am_util_stdio_vsprintf + 988
        0x0000e880:    9903        ..      LDR      r1,[sp,#0xc]
        0x0000e882:    981c        ..      LDR      r0,[sp,#0x70]
        0x0000e884:    4408        .D      ADD      r0,r0,r1
        0x0000e886:    901c        ..      STR      r0,[sp,#0x70]
        0x0000e888:    9913        ..      LDR      r1,[sp,#0x4c]
        0x0000e88a:    9814        ..      LDR      r0,[sp,#0x50]
        0x0000e88c:    4408        .D      ADD      r0,r0,r1
        0x0000e88e:    9014        ..      STR      r0,[sp,#0x50]
        0x0000e890:    2000        .       MOVS     r0,#0
        0x0000e892:    9013        ..      STR      r0,[sp,#0x4c]
        0x0000e894:    e7ff        ..      B        0xe896 ; am_util_stdio_vsprintf + 1010
        0x0000e896:    9818        ..      LDR      r0,[sp,#0x60]
        0x0000e898:    9919        ..      LDR      r1,[sp,#0x64]
        0x0000e89a:    9a1c        ..      LDR      r2,[sp,#0x70]
        0x0000e89c:    f000fe44    ..D.    BL       uint64_to_str ; 0xf528
        0x0000e8a0:    9012        ..      STR      r0,[sp,#0x48]
        0x0000e8a2:    981c        ..      LDR      r0,[sp,#0x70]
        0x0000e8a4:    b128        (.      CBZ      r0,0xe8b2 ; am_util_stdio_vsprintf + 1038
        0x0000e8a6:    e7ff        ..      B        0xe8a8 ; am_util_stdio_vsprintf + 1028
        0x0000e8a8:    9912        ..      LDR      r1,[sp,#0x48]
        0x0000e8aa:    981c        ..      LDR      r0,[sp,#0x70]
        0x0000e8ac:    4408        .D      ADD      r0,r0,r1
        0x0000e8ae:    901c        ..      STR      r0,[sp,#0x70]
        0x0000e8b0:    e7ff        ..      B        0xe8b2 ; am_util_stdio_vsprintf + 1038
        0x0000e8b2:    9912        ..      LDR      r1,[sp,#0x48]
        0x0000e8b4:    9814        ..      LDR      r0,[sp,#0x50]
        0x0000e8b6:    4408        .D      ADD      r0,r0,r1
        0x0000e8b8:    9014        ..      STR      r0,[sp,#0x50]
        0x0000e8ba:    e10e        ..      B        0xeada ; am_util_stdio_vsprintf + 1590
        0x0000e8bc:    f89d0040    ..@.    LDRB     r0,[sp,#0x40]
        0x0000e8c0:    07c0        ..      LSLS     r0,r0,#31
        0x0000e8c2:    b160        `.      CBZ      r0,0xe8de ; am_util_stdio_vsprintf + 1082
        0x0000e8c4:    e7ff        ..      B        0xe8c6 ; am_util_stdio_vsprintf + 1058
        0x0000e8c6:    981d        ..      LDR      r0,[sp,#0x74]
        0x0000e8c8:    3007        .0      ADDS     r0,#7
        0x0000e8ca:    f0200007     ...    BIC      r0,r0,#7
        0x0000e8ce:    f1000108    ....    ADD      r1,r0,#8
        0x0000e8d2:    911d        ..      STR      r1,[sp,#0x74]
        0x0000e8d4:    6801        .h      LDR      r1,[r0,#0]
        0x0000e8d6:    6840        @h      LDR      r0,[r0,#4]
        0x0000e8d8:    9101        ..      STR      r1,[sp,#4]
        0x0000e8da:    9002        ..      STR      r0,[sp,#8]
        0x0000e8dc:    e007        ..      B        0xe8ee ; am_util_stdio_vsprintf + 1098
        0x0000e8de:    981d        ..      LDR      r0,[sp,#0x74]
        0x0000e8e0:    1d01        ..      ADDS     r1,r0,#4
        0x0000e8e2:    911d        ..      STR      r1,[sp,#0x74]
        0x0000e8e4:    6801        .h      LDR      r1,[r0,#0]
        0x0000e8e6:    17c8        ..      ASRS     r0,r1,#31
        0x0000e8e8:    9101        ..      STR      r1,[sp,#4]
        0x0000e8ea:    9002        ..      STR      r0,[sp,#8]
        0x0000e8ec:    e7ff        ..      B        0xe8ee ; am_util_stdio_vsprintf + 1098
        0x0000e8ee:    9901        ..      LDR      r1,[sp,#4]
        0x0000e8f0:    9802        ..      LDR      r0,[sp,#8]
        0x0000e8f2:    9116        ..      STR      r1,[sp,#0x58]
        0x0000e8f4:    9017        ..      STR      r0,[sp,#0x5c]
        0x0000e8f6:    9817        ..      LDR      r0,[sp,#0x5c]
        0x0000e8f8:    f1b03fff    ...?    CMP      r0,#0xffffffff
        0x0000e8fc:    dc0c        ..      BGT      0xe918 ; am_util_stdio_vsprintf + 1140
        0x0000e8fe:    e7ff        ..      B        0xe900 ; am_util_stdio_vsprintf + 1116
        0x0000e900:    9816        ..      LDR      r0,[sp,#0x58]
        0x0000e902:    9a17        ..      LDR      r2,[sp,#0x5c]
        0x0000e904:    4241        AB      RSBS     r1,r0,#0
        0x0000e906:    f04f0000    O...    MOV      r0,#0
        0x0000e90a:    4190        .A      SBCS     r0,r0,r2
        0x0000e90c:    9118        ..      STR      r1,[sp,#0x60]
        0x0000e90e:    9019        ..      STR      r0,[sp,#0x64]
        0x0000e910:    2001        .       MOVS     r0,#1
        0x0000e912:    f88d003f    ..?.    STRB     r0,[sp,#0x3f]
        0x0000e916:    e007        ..      B        0xe928 ; am_util_stdio_vsprintf + 1156
        0x0000e918:    9816        ..      LDR      r0,[sp,#0x58]
        0x0000e91a:    9917        ..      LDR      r1,[sp,#0x5c]
        0x0000e91c:    9119        ..      STR      r1,[sp,#0x64]
        0x0000e91e:    9018        ..      STR      r0,[sp,#0x60]
        0x0000e920:    2000        .       MOVS     r0,#0
        0x0000e922:    f88d003f    ..?.    STRB     r0,[sp,#0x3f]
        0x0000e926:    e7ff        ..      B        0xe928 ; am_util_stdio_vsprintf + 1156
        0x0000e928:    9813        ..      LDR      r0,[sp,#0x4c]
        0x0000e92a:    2800        .(      CMP      r0,#0
        0x0000e92c:    d055        U.      BEQ      0xe9da ; am_util_stdio_vsprintf + 1334
        0x0000e92e:    e7ff        ..      B        0xe930 ; am_util_stdio_vsprintf + 1164
        0x0000e930:    9818        ..      LDR      r0,[sp,#0x60]
        0x0000e932:    9919        ..      LDR      r1,[sp,#0x64]
        0x0000e934:    f000fb88    ....    BL       ndigits_in_i64 ; 0xf048
        0x0000e938:    4601        .F      MOV      r1,r0
        0x0000e93a:    9813        ..      LDR      r0,[sp,#0x4c]
        0x0000e93c:    1a40        @.      SUBS     r0,r0,r1
        0x0000e93e:    9013        ..      STR      r0,[sp,#0x4c]
        0x0000e940:    f89d003f    ..?.    LDRB     r0,[sp,#0x3f]
        0x0000e944:    07c0        ..      LSLS     r0,r0,#31
        0x0000e946:    b1b0        ..      CBZ      r0,0xe976 ; am_util_stdio_vsprintf + 1234
        0x0000e948:    e7ff        ..      B        0xe94a ; am_util_stdio_vsprintf + 1190
        0x0000e94a:    9813        ..      LDR      r0,[sp,#0x4c]
        0x0000e94c:    3801        .8      SUBS     r0,#1
        0x0000e94e:    9013        ..      STR      r0,[sp,#0x4c]
        0x0000e950:    f89d0042    ..B.    LDRB     r0,[sp,#0x42]
        0x0000e954:    2830        0(      CMP      r0,#0x30
        0x0000e956:    d10d        ..      BNE      0xe974 ; am_util_stdio_vsprintf + 1232
        0x0000e958:    e7ff        ..      B        0xe95a ; am_util_stdio_vsprintf + 1206
        0x0000e95a:    981c        ..      LDR      r0,[sp,#0x70]
        0x0000e95c:    b130        0.      CBZ      r0,0xe96c ; am_util_stdio_vsprintf + 1224
        0x0000e95e:    e7ff        ..      B        0xe960 ; am_util_stdio_vsprintf + 1212
        0x0000e960:    991c        ..      LDR      r1,[sp,#0x70]
        0x0000e962:    1c48        H.      ADDS     r0,r1,#1
        0x0000e964:    901c        ..      STR      r0,[sp,#0x70]
        0x0000e966:    202d        -       MOVS     r0,#0x2d
        0x0000e968:    7008        .p      STRB     r0,[r1,#0]
        0x0000e96a:    e7ff        ..      B        0xe96c ; am_util_stdio_vsprintf + 1224
        0x0000e96c:    9814        ..      LDR      r0,[sp,#0x50]
        0x0000e96e:    3001        .0      ADDS     r0,#1
        0x0000e970:    9014        ..      STR      r0,[sp,#0x50]
        0x0000e972:    e7ff        ..      B        0xe974 ; am_util_stdio_vsprintf + 1232
        0x0000e974:    e7ff        ..      B        0xe976 ; am_util_stdio_vsprintf + 1234
        0x0000e976:    981c        ..      LDR      r0,[sp,#0x70]
        0x0000e978:    f89d1042    ..B.    LDRB     r1,[sp,#0x42]
        0x0000e97c:    9a13        ..      LDR      r2,[sp,#0x4c]
        0x0000e97e:    f000fb99    ....    BL       padbuffer ; 0xf0b4
        0x0000e982:    9013        ..      STR      r0,[sp,#0x4c]
        0x0000e984:    981c        ..      LDR      r0,[sp,#0x70]
        0x0000e986:    b118        ..      CBZ      r0,0xe990 ; am_util_stdio_vsprintf + 1260
        0x0000e988:    e7ff        ..      B        0xe98a ; am_util_stdio_vsprintf + 1254
        0x0000e98a:    9813        ..      LDR      r0,[sp,#0x4c]
        0x0000e98c:    9000        ..      STR      r0,[sp,#0]
        0x0000e98e:    e002        ..      B        0xe996 ; am_util_stdio_vsprintf + 1266
        0x0000e990:    2000        .       MOVS     r0,#0
        0x0000e992:    9000        ..      STR      r0,[sp,#0]
        0x0000e994:    e7ff        ..      B        0xe996 ; am_util_stdio_vsprintf + 1266
        0x0000e996:    9900        ..      LDR      r1,[sp,#0]
        0x0000e998:    981c        ..      LDR      r0,[sp,#0x70]
        0x0000e99a:    4408        .D      ADD      r0,r0,r1
        0x0000e99c:    901c        ..      STR      r0,[sp,#0x70]
        0x0000e99e:    9913        ..      LDR      r1,[sp,#0x4c]
        0x0000e9a0:    9814        ..      LDR      r0,[sp,#0x50]
        0x0000e9a2:    4408        .D      ADD      r0,r0,r1
        0x0000e9a4:    9014        ..      STR      r0,[sp,#0x50]
        0x0000e9a6:    2000        .       MOVS     r0,#0
        0x0000e9a8:    9013        ..      STR      r0,[sp,#0x4c]
        0x0000e9aa:    f89d003f    ..?.    LDRB     r0,[sp,#0x3f]
        0x0000e9ae:    07c0        ..      LSLS     r0,r0,#31
        0x0000e9b0:    b190        ..      CBZ      r0,0xe9d8 ; am_util_stdio_vsprintf + 1332
        0x0000e9b2:    e7ff        ..      B        0xe9b4 ; am_util_stdio_vsprintf + 1296
        0x0000e9b4:    f89d0042    ..B.    LDRB     r0,[sp,#0x42]
        0x0000e9b8:    2820         (      CMP      r0,#0x20
        0x0000e9ba:    d10d        ..      BNE      0xe9d8 ; am_util_stdio_vsprintf + 1332
        0x0000e9bc:    e7ff        ..      B        0xe9be ; am_util_stdio_vsprintf + 1306
        0x0000e9be:    981c        ..      LDR      r0,[sp,#0x70]
        0x0000e9c0:    b130        0.      CBZ      r0,0xe9d0 ; am_util_stdio_vsprintf + 1324
        0x0000e9c2:    e7ff        ..      B        0xe9c4 ; am_util_stdio_vsprintf + 1312
        0x0000e9c4:    991c        ..      LDR      r1,[sp,#0x70]
        0x0000e9c6:    1c48        H.      ADDS     r0,r1,#1
        0x0000e9c8:    901c        ..      STR      r0,[sp,#0x70]
        0x0000e9ca:    202d        -       MOVS     r0,#0x2d
        0x0000e9cc:    7008        .p      STRB     r0,[r1,#0]
        0x0000e9ce:    e7ff        ..      B        0xe9d0 ; am_util_stdio_vsprintf + 1324
        0x0000e9d0:    9814        ..      LDR      r0,[sp,#0x50]
        0x0000e9d2:    3001        .0      ADDS     r0,#1
        0x0000e9d4:    9014        ..      STR      r0,[sp,#0x50]
        0x0000e9d6:    e7ff        ..      B        0xe9d8 ; am_util_stdio_vsprintf + 1332
        0x0000e9d8:    e012        ..      B        0xea00 ; am_util_stdio_vsprintf + 1372
        0x0000e9da:    f89d003f    ..?.    LDRB     r0,[sp,#0x3f]
        0x0000e9de:    07c0        ..      LSLS     r0,r0,#31
        0x0000e9e0:    b168        h.      CBZ      r0,0xe9fe ; am_util_stdio_vsprintf + 1370
        0x0000e9e2:    e7ff        ..      B        0xe9e4 ; am_util_stdio_vsprintf + 1344
        0x0000e9e4:    981c        ..      LDR      r0,[sp,#0x70]
        0x0000e9e6:    b130        0.      CBZ      r0,0xe9f6 ; am_util_stdio_vsprintf + 1362
        0x0000e9e8:    e7ff        ..      B        0xe9ea ; am_util_stdio_vsprintf + 1350
        0x0000e9ea:    991c        ..      LDR      r1,[sp,#0x70]
        0x0000e9ec:    1c48        H.      ADDS     r0,r1,#1
        0x0000e9ee:    901c        ..      STR      r0,[sp,#0x70]
        0x0000e9f0:    202d        -       MOVS     r0,#0x2d
        0x0000e9f2:    7008        .p      STRB     r0,[r1,#0]
        0x0000e9f4:    e7ff        ..      B        0xe9f6 ; am_util_stdio_vsprintf + 1362
        0x0000e9f6:    9814        ..      LDR      r0,[sp,#0x50]
        0x0000e9f8:    3001        .0      ADDS     r0,#1
        0x0000e9fa:    9014        ..      STR      r0,[sp,#0x50]
        0x0000e9fc:    e7ff        ..      B        0xe9fe ; am_util_stdio_vsprintf + 1370
        0x0000e9fe:    e7ff        ..      B        0xea00 ; am_util_stdio_vsprintf + 1372
        0x0000ea00:    9818        ..      LDR      r0,[sp,#0x60]
        0x0000ea02:    9919        ..      LDR      r1,[sp,#0x64]
        0x0000ea04:    9a1c        ..      LDR      r2,[sp,#0x70]
        0x0000ea06:    f000fd8f    ....    BL       uint64_to_str ; 0xf528
        0x0000ea0a:    9012        ..      STR      r0,[sp,#0x48]
        0x0000ea0c:    981c        ..      LDR      r0,[sp,#0x70]
        0x0000ea0e:    b128        (.      CBZ      r0,0xea1c ; am_util_stdio_vsprintf + 1400
        0x0000ea10:    e7ff        ..      B        0xea12 ; am_util_stdio_vsprintf + 1390
        0x0000ea12:    9912        ..      LDR      r1,[sp,#0x48]
        0x0000ea14:    981c        ..      LDR      r0,[sp,#0x70]
        0x0000ea16:    4408        .D      ADD      r0,r0,r1
        0x0000ea18:    901c        ..      STR      r0,[sp,#0x70]
        0x0000ea1a:    e7ff        ..      B        0xea1c ; am_util_stdio_vsprintf + 1400
        0x0000ea1c:    9912        ..      LDR      r1,[sp,#0x48]
        0x0000ea1e:    9814        ..      LDR      r0,[sp,#0x50]
        0x0000ea20:    4408        .D      ADD      r0,r0,r1
        0x0000ea22:    9014        ..      STR      r0,[sp,#0x50]
        0x0000ea24:    e059        Y.      B        0xeada ; am_util_stdio_vsprintf + 1590
        0x0000ea26:    981c        ..      LDR      r0,[sp,#0x70]
        0x0000ea28:    2800        .(      CMP      r0,#0
        0x0000ea2a:    d047        G.      BEQ      0xeabc ; am_util_stdio_vsprintf + 1560
        0x0000ea2c:    e7ff        ..      B        0xea2e ; am_util_stdio_vsprintf + 1418
        0x0000ea2e:    981d        ..      LDR      r0,[sp,#0x74]
        0x0000ea30:    3007        .0      ADDS     r0,#7
        0x0000ea32:    f0200007     ...    BIC      r0,r0,#7
        0x0000ea36:    f1000108    ....    ADD      r1,r0,#8
        0x0000ea3a:    911d        ..      STR      r1,[sp,#0x74]
        0x0000ea3c:    ed900b00    ....    VLDR     d0,[r0,#0]
        0x0000ea40:    ec510b10    Q...    VMOV     r0,r1,d0
        0x0000ea44:    f000fe40    ..@.    BL       __aeabi_d2f ; 0xf6c8
        0x0000ea48:    900d        ..      STR      r0,[sp,#0x34]
        0x0000ea4a:    991c        ..      LDR      r1,[sp,#0x70]
        0x0000ea4c:    2014        .       MOVS     r0,#0x14
        0x0000ea4e:    6008        .`      STR      r0,[r1,#0]
        0x0000ea50:    ed9d0a0d    ....    VLDR     s0,[sp,#0x34]
        0x0000ea54:    981c        ..      LDR      r0,[sp,#0x70]
        0x0000ea56:    9911        ..      LDR      r1,[sp,#0x44]
        0x0000ea58:    f000f92e    ....    BL       ftoa ; 0xecb8
        0x0000ea5c:    9012        ..      STR      r0,[sp,#0x48]
        0x0000ea5e:    9812        ..      LDR      r0,[sp,#0x48]
        0x0000ea60:    f1b03fff    ...?    CMP      r0,#0xffffffff
        0x0000ea64:    dc21        !.      BGT      0xeaaa ; am_util_stdio_vsprintf + 1542
        0x0000ea66:    e7ff        ..      B        0xea68 ; am_util_stdio_vsprintf + 1476
        0x0000ea68:    9812        ..      LDR      r0,[sp,#0x48]
        0x0000ea6a:    3001        .0      ADDS     r0,#1
        0x0000ea6c:    b930        0.      CBNZ     r0,0xea7c ; am_util_stdio_vsprintf + 1496
        0x0000ea6e:    e7ff        ..      B        0xea70 ; am_util_stdio_vsprintf + 1484
        0x0000ea70:    f6426030    B.0`    MOV      r0,#0x2e30
        0x0000ea74:    f2c00030    ..0.    MOVT     r0,#0x30
        0x0000ea78:    900c        ..      STR      r0,[sp,#0x30]
        0x0000ea7a:    e010        ..      B        0xea9e ; am_util_stdio_vsprintf + 1530
        0x0000ea7c:    9812        ..      LDR      r0,[sp,#0x48]
        0x0000ea7e:    3002        .0      ADDS     r0,#2
        0x0000ea80:    b930        0.      CBNZ     r0,0xea90 ; am_util_stdio_vsprintf + 1516
        0x0000ea82:    e7ff        ..      B        0xea84 ; am_util_stdio_vsprintf + 1504
        0x0000ea84:    f6426023    B.#`    MOV      r0,#0x2e23
        0x0000ea88:    f2c00023    ..#.    MOVT     r0,#0x23
        0x0000ea8c:    900c        ..      STR      r0,[sp,#0x30]
        0x0000ea8e:    e005        ..      B        0xea9c ; am_util_stdio_vsprintf + 1528
        0x0000ea90:    f642603f    B.?`    MOV      r0,#0x2e3f
        0x0000ea94:    f2c0003f    ..?.    MOVT     r0,#0x3f
        0x0000ea98:    900c        ..      STR      r0,[sp,#0x30]
        0x0000ea9a:    e7ff        ..      B        0xea9c ; am_util_stdio_vsprintf + 1528
        0x0000ea9c:    e7ff        ..      B        0xea9e ; am_util_stdio_vsprintf + 1530
        0x0000ea9e:    980c        ..      LDR      r0,[sp,#0x30]
        0x0000eaa0:    991c        ..      LDR      r1,[sp,#0x70]
        0x0000eaa2:    6008        .`      STR      r0,[r1,#0]
        0x0000eaa4:    2003        .       MOVS     r0,#3
        0x0000eaa6:    9012        ..      STR      r0,[sp,#0x48]
        0x0000eaa8:    e7ff        ..      B        0xeaaa ; am_util_stdio_vsprintf + 1542
        0x0000eaaa:    9912        ..      LDR      r1,[sp,#0x48]
        0x0000eaac:    9814        ..      LDR      r0,[sp,#0x50]
        0x0000eaae:    4408        .D      ADD      r0,r0,r1
        0x0000eab0:    9014        ..      STR      r0,[sp,#0x50]
        0x0000eab2:    9912        ..      LDR      r1,[sp,#0x48]
        0x0000eab4:    981c        ..      LDR      r0,[sp,#0x70]
        0x0000eab6:    4408        .D      ADD      r0,r0,r1
        0x0000eab8:    901c        ..      STR      r0,[sp,#0x70]
        0x0000eaba:    e7ff        ..      B        0xeabc ; am_util_stdio_vsprintf + 1560
        0x0000eabc:    e00d        ..      B        0xeada ; am_util_stdio_vsprintf + 1590
        0x0000eabe:    981c        ..      LDR      r0,[sp,#0x70]
        0x0000eac0:    b138        8.      CBZ      r0,0xead2 ; am_util_stdio_vsprintf + 1582
        0x0000eac2:    e7ff        ..      B        0xeac4 ; am_util_stdio_vsprintf + 1568
        0x0000eac4:    981b        ..      LDR      r0,[sp,#0x6c]
        0x0000eac6:    7800        .x      LDRB     r0,[r0,#0]
        0x0000eac8:    991c        ..      LDR      r1,[sp,#0x70]
        0x0000eaca:    1c4a        J.      ADDS     r2,r1,#1
        0x0000eacc:    921c        ..      STR      r2,[sp,#0x70]
        0x0000eace:    7008        .p      STRB     r0,[r1,#0]
        0x0000ead0:    e7ff        ..      B        0xead2 ; am_util_stdio_vsprintf + 1582
        0x0000ead2:    9814        ..      LDR      r0,[sp,#0x50]
        0x0000ead4:    3001        .0      ADDS     r0,#1
        0x0000ead6:    9014        ..      STR      r0,[sp,#0x50]
        0x0000ead8:    e7ff        ..      B        0xeada ; am_util_stdio_vsprintf + 1590
        0x0000eada:    981b        ..      LDR      r0,[sp,#0x6c]
        0x0000eadc:    3001        .0      ADDS     r0,#1
        0x0000eade:    901b        ..      STR      r0,[sp,#0x6c]
        0x0000eae0:    f7ffbce9    ....    B.W      0xe4b6 ; am_util_stdio_vsprintf + 18
        0x0000eae4:    981c        ..      LDR      r0,[sp,#0x70]
        0x0000eae6:    b120         .      CBZ      r0,0xeaf2 ; am_util_stdio_vsprintf + 1614
        0x0000eae8:    e7ff        ..      B        0xeaea ; am_util_stdio_vsprintf + 1606
        0x0000eaea:    991c        ..      LDR      r1,[sp,#0x70]
        0x0000eaec:    2000        .       MOVS     r0,#0
        0x0000eaee:    7008        .p      STRB     r0,[r1,#0]
        0x0000eaf0:    e7ff        ..      B        0xeaf2 ; am_util_stdio_vsprintf + 1614
        0x0000eaf2:    9814        ..      LDR      r0,[sp,#0x50]
        0x0000eaf4:    b01e        ..      ADD      sp,sp,#0x78
        0x0000eaf6:    bd80        ..      POP      {r7,pc}
    decstr_to_int
        0x0000eaf8:    b087        ..      SUB      sp,sp,#0x1c
        0x0000eafa:    9006        ..      STR      r0,[sp,#0x18]
        0x0000eafc:    9105        ..      STR      r1,[sp,#0x14]
        0x0000eafe:    2000        .       MOVS     r0,#0
        0x0000eb00:    f88d0013    ....    STRB     r0,[sp,#0x13]
        0x0000eb04:    9003        ..      STR      r0,[sp,#0xc]
        0x0000eb06:    9002        ..      STR      r0,[sp,#8]
        0x0000eb08:    9806        ..      LDR      r0,[sp,#0x18]
        0x0000eb0a:    7800        .x      LDRB     r0,[r0,#0]
        0x0000eb0c:    282d        -(      CMP      r0,#0x2d
        0x0000eb0e:    d10a        ..      BNE      0xeb26 ; decstr_to_int + 46
        0x0000eb10:    e7ff        ..      B        0xeb12 ; decstr_to_int + 26
        0x0000eb12:    2001        .       MOVS     r0,#1
        0x0000eb14:    f88d0013    ....    STRB     r0,[sp,#0x13]
        0x0000eb18:    9806        ..      LDR      r0,[sp,#0x18]
        0x0000eb1a:    3001        .0      ADDS     r0,#1
        0x0000eb1c:    9006        ..      STR      r0,[sp,#0x18]
        0x0000eb1e:    9802        ..      LDR      r0,[sp,#8]
        0x0000eb20:    3001        .0      ADDS     r0,#1
        0x0000eb22:    9002        ..      STR      r0,[sp,#8]
        0x0000eb24:    e7ff        ..      B        0xeb26 ; decstr_to_int + 46
        0x0000eb26:    e7ff        ..      B        0xeb28 ; decstr_to_int + 48
        0x0000eb28:    9806        ..      LDR      r0,[sp,#0x18]
        0x0000eb2a:    7801        .x      LDRB     r1,[r0,#0]
        0x0000eb2c:    2000        .       MOVS     r0,#0
        0x0000eb2e:    2930        0)      CMP      r1,#0x30
        0x0000eb30:    9001        ..      STR      r0,[sp,#4]
        0x0000eb32:    db08        ..      BLT      0xeb46 ; decstr_to_int + 78
        0x0000eb34:    e7ff        ..      B        0xeb36 ; decstr_to_int + 62
        0x0000eb36:    9806        ..      LDR      r0,[sp,#0x18]
        0x0000eb38:    7801        .x      LDRB     r1,[r0,#0]
        0x0000eb3a:    2000        .       MOVS     r0,#0
        0x0000eb3c:    293a        :)      CMP      r1,#0x3a
        0x0000eb3e:    bfb8        ..      IT       LT
        0x0000eb40:    2001        .       MOVLT    r0,#1
        0x0000eb42:    9001        ..      STR      r0,[sp,#4]
        0x0000eb44:    e7ff        ..      B        0xeb46 ; decstr_to_int + 78
        0x0000eb46:    9801        ..      LDR      r0,[sp,#4]
        0x0000eb48:    07c0        ..      LSLS     r0,r0,#31
        0x0000eb4a:    b190        ..      CBZ      r0,0xeb72 ; decstr_to_int + 122
        0x0000eb4c:    e7ff        ..      B        0xeb4e ; decstr_to_int + 86
        0x0000eb4e:    9802        ..      LDR      r0,[sp,#8]
        0x0000eb50:    3001        .0      ADDS     r0,#1
        0x0000eb52:    9002        ..      STR      r0,[sp,#8]
        0x0000eb54:    9803        ..      LDR      r0,[sp,#0xc]
        0x0000eb56:    eb000080    ....    ADD      r0,r0,r0,LSL #2
        0x0000eb5a:    0040        @.      LSLS     r0,r0,#1
        0x0000eb5c:    9003        ..      STR      r0,[sp,#0xc]
        0x0000eb5e:    9806        ..      LDR      r0,[sp,#0x18]
        0x0000eb60:    7800        .x      LDRB     r0,[r0,#0]
        0x0000eb62:    9903        ..      LDR      r1,[sp,#0xc]
        0x0000eb64:    4408        .D      ADD      r0,r0,r1
        0x0000eb66:    3830        08      SUBS     r0,r0,#0x30
        0x0000eb68:    9003        ..      STR      r0,[sp,#0xc]
        0x0000eb6a:    9806        ..      LDR      r0,[sp,#0x18]
        0x0000eb6c:    3001        .0      ADDS     r0,#1
        0x0000eb6e:    9006        ..      STR      r0,[sp,#0x18]
        0x0000eb70:    e7da        ..      B        0xeb28 ; decstr_to_int + 48
        0x0000eb72:    9805        ..      LDR      r0,[sp,#0x14]
        0x0000eb74:    b120         .      CBZ      r0,0xeb80 ; decstr_to_int + 136
        0x0000eb76:    e7ff        ..      B        0xeb78 ; decstr_to_int + 128
        0x0000eb78:    9802        ..      LDR      r0,[sp,#8]
        0x0000eb7a:    9905        ..      LDR      r1,[sp,#0x14]
        0x0000eb7c:    6008        .`      STR      r0,[r1,#0]
        0x0000eb7e:    e7ff        ..      B        0xeb80 ; decstr_to_int + 136
        0x0000eb80:    f89d0013    ....    LDRB     r0,[sp,#0x13]
        0x0000eb84:    07c0        ..      LSLS     r0,r0,#31
        0x0000eb86:    b120         .      CBZ      r0,0xeb92 ; decstr_to_int + 154
        0x0000eb88:    e7ff        ..      B        0xeb8a ; decstr_to_int + 146
        0x0000eb8a:    9803        ..      LDR      r0,[sp,#0xc]
        0x0000eb8c:    4240        @B      RSBS     r0,r0,#0
        0x0000eb8e:    9000        ..      STR      r0,[sp,#0]
        0x0000eb90:    e002        ..      B        0xeb98 ; decstr_to_int + 160
        0x0000eb92:    9803        ..      LDR      r0,[sp,#0xc]
        0x0000eb94:    9000        ..      STR      r0,[sp,#0]
        0x0000eb96:    e7ff        ..      B        0xeb98 ; decstr_to_int + 160
        0x0000eb98:    9800        ..      LDR      r0,[sp,#0]
        0x0000eb9a:    b007        ..      ADD      sp,sp,#0x1c
        0x0000eb9c:    4770        pG      BX       lr
        0x0000eb9e:    0000        ..      MOVS     r0,r0
    divu64_10
        0x0000eba0:    b08c        ..      SUB      sp,sp,#0x30
        0x0000eba2:    9109        ..      STR      r1,[sp,#0x24]
        0x0000eba4:    9008        ..      STR      r0,[sp,#0x20]
        0x0000eba6:    9809        ..      LDR      r0,[sp,#0x24]
        0x0000eba8:    2800        .(      CMP      r0,#0
        0x0000ebaa:    d05b        [.      BEQ      0xec64 ; divu64_10 + 196
        0x0000ebac:    e7ff        ..      B        0xebae ; divu64_10 + 14
        0x0000ebae:    9b08        ..      LDR      r3,[sp,#0x20]
        0x0000ebb0:    9a09        ..      LDR      r2,[sp,#0x24]
        0x0000ebb2:    ea5f0052    _.R.    LSRS.W   r0,r2,#1
        0x0000ebb6:    ea4f0133    O.3.    RRX      r1,r3
        0x0000ebba:    089b        ..      LSRS     r3,r3,#2
        0x0000ebbc:    ea437382    C..s    ORR      r3,r3,r2,LSL #30
        0x0000ebc0:    18c9        ..      ADDS     r1,r1,r3
        0x0000ebc2:    eb400092    @...    ADC      r0,r0,r2,LSR #2
        0x0000ebc6:    9106        ..      STR      r1,[sp,#0x18]
        0x0000ebc8:    9007        ..      STR      r0,[sp,#0x1c]
        0x0000ebca:    9906        ..      LDR      r1,[sp,#0x18]
        0x0000ebcc:    9807        ..      LDR      r0,[sp,#0x1c]
        0x0000ebce:    090a        ..      LSRS     r2,r1,#4
        0x0000ebd0:    ea427200    B..r    ORR      r2,r2,r0,LSL #28
        0x0000ebd4:    1889        ..      ADDS     r1,r1,r2
        0x0000ebd6:    eb401010    @...    ADC      r0,r0,r0,LSR #4
        0x0000ebda:    9106        ..      STR      r1,[sp,#0x18]
        0x0000ebdc:    9007        ..      STR      r0,[sp,#0x1c]
        0x0000ebde:    9906        ..      LDR      r1,[sp,#0x18]
        0x0000ebe0:    9807        ..      LDR      r0,[sp,#0x1c]
        0x0000ebe2:    0a0a        ..      LSRS     r2,r1,#8
        0x0000ebe4:    ea426200    B..b    ORR      r2,r2,r0,LSL #24
        0x0000ebe8:    1889        ..      ADDS     r1,r1,r2
        0x0000ebea:    eb402010    @..     ADC      r0,r0,r0,LSR #8
        0x0000ebee:    9106        ..      STR      r1,[sp,#0x18]
        0x0000ebf0:    9007        ..      STR      r0,[sp,#0x1c]
        0x0000ebf2:    9906        ..      LDR      r1,[sp,#0x18]
        0x0000ebf4:    9807        ..      LDR      r0,[sp,#0x1c]
        0x0000ebf6:    0c0a        ..      LSRS     r2,r1,#16
        0x0000ebf8:    ea424200    B..B    ORR      r2,r2,r0,LSL #16
        0x0000ebfc:    1889        ..      ADDS     r1,r1,r2
        0x0000ebfe:    eb404010    @..@    ADC      r0,r0,r0,LSR #16
        0x0000ec02:    9106        ..      STR      r1,[sp,#0x18]
        0x0000ec04:    9007        ..      STR      r0,[sp,#0x1c]
        0x0000ec06:    9906        ..      LDR      r1,[sp,#0x18]
        0x0000ec08:    9807        ..      LDR      r0,[sp,#0x1c]
        0x0000ec0a:    1809        ..      ADDS     r1,r1,r0
        0x0000ec0c:    f1400000    @...    ADC      r0,r0,#0
        0x0000ec10:    9106        ..      STR      r1,[sp,#0x18]
        0x0000ec12:    9007        ..      STR      r0,[sp,#0x1c]
        0x0000ec14:    9806        ..      LDR      r0,[sp,#0x18]
        0x0000ec16:    9907        ..      LDR      r1,[sp,#0x1c]
        0x0000ec18:    08c0        ..      LSRS     r0,r0,#3
        0x0000ec1a:    ea407041    @.Ap    ORR      r0,r0,r1,LSL #29
        0x0000ec1e:    08c9        ..      LSRS     r1,r1,#3
        0x0000ec20:    9107        ..      STR      r1,[sp,#0x1c]
        0x0000ec22:    9006        ..      STR      r0,[sp,#0x18]
        0x0000ec24:    9908        ..      LDR      r1,[sp,#0x20]
        0x0000ec26:    9809        ..      LDR      r0,[sp,#0x24]
        0x0000ec28:    9a06        ..      LDR      r2,[sp,#0x18]
        0x0000ec2a:    f8ddc01c    ....    LDR      r12,[sp,#0x1c]
        0x0000ec2e:    230a        .#      MOVS     r3,#0xa
        0x0000ec30:    fba23203    ...2    UMULL    r3,r2,r2,r3
        0x0000ec34:    eb0c0c8c    ....    ADD      r12,r12,r12,LSL #2
        0x0000ec38:    eb02024c    ..L.    ADD      r2,r2,r12,LSL #1
        0x0000ec3c:    1ac9        ..      SUBS     r1,r1,r3
        0x0000ec3e:    4190        .A      SBCS     r0,r0,r2
        0x0000ec40:    9104        ..      STR      r1,[sp,#0x10]
        0x0000ec42:    9005        ..      STR      r0,[sp,#0x14]
        0x0000ec44:    9906        ..      LDR      r1,[sp,#0x18]
        0x0000ec46:    9807        ..      LDR      r0,[sp,#0x1c]
        0x0000ec48:    9b04        ..      LDR      r3,[sp,#0x10]
        0x0000ec4a:    9a05        ..      LDR      r2,[sp,#0x14]
        0x0000ec4c:    3306        .3      ADDS     r3,#6
        0x0000ec4e:    f1420200    B...    ADC      r2,r2,#0
        0x0000ec52:    091b        ..      LSRS     r3,r3,#4
        0x0000ec54:    ea437302    C..s    ORR      r3,r3,r2,LSL #28
        0x0000ec58:    18c9        ..      ADDS     r1,r1,r3
        0x0000ec5a:    eb401012    @...    ADC      r0,r0,r2,LSR #4
        0x0000ec5e:    910a        ..      STR      r1,[sp,#0x28]
        0x0000ec60:    900b        ..      STR      r0,[sp,#0x2c]
        0x0000ec62:    e025        %.      B        0xecb0 ; divu64_10 + 272
        0x0000ec64:    9808        ..      LDR      r0,[sp,#0x20]
        0x0000ec66:    9001        ..      STR      r0,[sp,#4]
        0x0000ec68:    9901        ..      LDR      r1,[sp,#4]
        0x0000ec6a:    0848        H.      LSRS     r0,r1,#1
        0x0000ec6c:    eb000091    ....    ADD      r0,r0,r1,LSR #2
        0x0000ec70:    9003        ..      STR      r0,[sp,#0xc]
        0x0000ec72:    9803        ..      LDR      r0,[sp,#0xc]
        0x0000ec74:    eb001010    ....    ADD      r0,r0,r0,LSR #4
        0x0000ec78:    9003        ..      STR      r0,[sp,#0xc]
        0x0000ec7a:    9803        ..      LDR      r0,[sp,#0xc]
        0x0000ec7c:    eb002010    ...     ADD      r0,r0,r0,LSR #8
        0x0000ec80:    9003        ..      STR      r0,[sp,#0xc]
        0x0000ec82:    9803        ..      LDR      r0,[sp,#0xc]
        0x0000ec84:    eb004010    ...@    ADD      r0,r0,r0,LSR #16
        0x0000ec88:    9003        ..      STR      r0,[sp,#0xc]
        0x0000ec8a:    9803        ..      LDR      r0,[sp,#0xc]
        0x0000ec8c:    08c0        ..      LSRS     r0,r0,#3
        0x0000ec8e:    9003        ..      STR      r0,[sp,#0xc]
        0x0000ec90:    9801        ..      LDR      r0,[sp,#4]
        0x0000ec92:    9903        ..      LDR      r1,[sp,#0xc]
        0x0000ec94:    eb010181    ....    ADD      r1,r1,r1,LSL #2
        0x0000ec98:    eba00041    ..A.    SUB      r0,r0,r1,LSL #1
        0x0000ec9c:    9002        ..      STR      r0,[sp,#8]
        0x0000ec9e:    9803        ..      LDR      r0,[sp,#0xc]
        0x0000eca0:    9902        ..      LDR      r1,[sp,#8]
        0x0000eca2:    3106        .1      ADDS     r1,#6
        0x0000eca4:    eb001011    ....    ADD      r0,r0,r1,LSR #4
        0x0000eca8:    2100        .!      MOVS     r1,#0
        0x0000ecaa:    910b        ..      STR      r1,[sp,#0x2c]
        0x0000ecac:    900a        ..      STR      r0,[sp,#0x28]
        0x0000ecae:    e7ff        ..      B        0xecb0 ; divu64_10 + 272
        0x0000ecb0:    980a        ..      LDR      r0,[sp,#0x28]
        0x0000ecb2:    990b        ..      LDR      r1,[sp,#0x2c]
        0x0000ecb4:    b00c        ..      ADD      sp,sp,#0x30
        0x0000ecb6:    4770        pG      BX       lr
    ftoa
        0x0000ecb8:    b580        ..      PUSH     {r7,lr}
        0x0000ecba:    b090        ..      SUB      sp,sp,#0x40
        0x0000ecbc:    ed8d0a0e    ....    VSTR     s0,[sp,#0x38]
        0x0000ecc0:    900d        ..      STR      r0,[sp,#0x34]
        0x0000ecc2:    910c        ..      STR      r1,[sp,#0x30]
        0x0000ecc4:    980d        ..      LDR      r0,[sp,#0x34]
        0x0000ecc6:    6800        .h      LDR      r0,[r0,#0]
        0x0000ecc8:    9009        ..      STR      r0,[sp,#0x24]
        0x0000ecca:    9809        ..      LDR      r0,[sp,#0x24]
        0x0000eccc:    2803        .(      CMP      r0,#3
        0x0000ecce:    dc04        ..      BGT      0xecda ; ftoa + 34
        0x0000ecd0:    e7ff        ..      B        0xecd2 ; ftoa + 26
        0x0000ecd2:    f06f0002    o...    MVN      r0,#2
        0x0000ecd6:    900f        ..      STR      r0,[sp,#0x3c]
        0x0000ecd8:    e103        ..      B        0xeee2 ; ftoa + 554
        0x0000ecda:    ed9d0a0e    ....    VLDR     s0,[sp,#0x38]
        0x0000ecde:    eeb50a40    ..@.    VCMP.F32 s0,#0.0
        0x0000ece2:    eef1fa10    ....    VMRS     APSR_nzcv,FPSCR
        0x0000ece6:    d109        ..      BNE      0xecfc ; ftoa + 68
        0x0000ece8:    e7ff        ..      B        0xecea ; ftoa + 50
        0x0000ecea:    990d        ..      LDR      r1,[sp,#0x34]
        0x0000ecec:    f6426030    B.0`    MOV      r0,#0x2e30
        0x0000ecf0:    f2c00030    ..0.    MOVT     r0,#0x30
        0x0000ecf4:    6008        .`      STR      r0,[r1,#0]
        0x0000ecf6:    2003        .       MOVS     r0,#3
        0x0000ecf8:    900f        ..      STR      r0,[sp,#0x3c]
        0x0000ecfa:    e0f2        ..      B        0xeee2 ; ftoa + 554
        0x0000ecfc:    980d        ..      LDR      r0,[sp,#0x34]
        0x0000ecfe:    9005        ..      STR      r0,[sp,#0x14]
        0x0000ed00:    980e        ..      LDR      r0,[sp,#0x38]
        0x0000ed02:    900b        ..      STR      r0,[sp,#0x2c]
        0x0000ed04:    980b        ..      LDR      r0,[sp,#0x2c]
        0x0000ed06:    0dc1        ..      LSRS     r1,r0,#23
        0x0000ed08:    f06f007e    o.~.    MVN      r0,#0x7e
        0x0000ed0c:    fa50f081    P...    UXTAB    r0,r0,r1
        0x0000ed10:    900a        ..      STR      r0,[sp,#0x28]
        0x0000ed12:    980b        ..      LDR      r0,[sp,#0x2c]
        0x0000ed14:    f4400000    @...    ORR      r0,r0,#0x800000
        0x0000ed18:    f020407f     ..@    BIC      r0,r0,#0xff000000
        0x0000ed1c:    9008        ..      STR      r0,[sp,#0x20]
        0x0000ed1e:    2000        .       MOVS     r0,#0
        0x0000ed20:    9006        ..      STR      r0,[sp,#0x18]
        0x0000ed22:    9007        ..      STR      r0,[sp,#0x1c]
        0x0000ed24:    980a        ..      LDR      r0,[sp,#0x28]
        0x0000ed26:    281f        .(      CMP      r0,#0x1f
        0x0000ed28:    db04        ..      BLT      0xed34 ; ftoa + 124
        0x0000ed2a:    e7ff        ..      B        0xed2c ; ftoa + 116
        0x0000ed2c:    f06f0001    o...    MVN      r0,#1
        0x0000ed30:    900f        ..      STR      r0,[sp,#0x3c]
        0x0000ed32:    e0d6        ..      B        0xeee2 ; ftoa + 554
        0x0000ed34:    980a        ..      LDR      r0,[sp,#0x28]
        0x0000ed36:    f1100f18    ....    CMN      r0,#0x18
        0x0000ed3a:    dc04        ..      BGT      0xed46 ; ftoa + 142
        0x0000ed3c:    e7ff        ..      B        0xed3e ; ftoa + 134
        0x0000ed3e:    f04f30ff    O..0    MOV      r0,#0xffffffff
        0x0000ed42:    900f        ..      STR      r0,[sp,#0x3c]
        0x0000ed44:    e0cd        ..      B        0xeee2 ; ftoa + 554
        0x0000ed46:    980a        ..      LDR      r0,[sp,#0x28]
        0x0000ed48:    2817        .(      CMP      r0,#0x17
        0x0000ed4a:    db06        ..      BLT      0xed5a ; ftoa + 162
        0x0000ed4c:    e7ff        ..      B        0xed4e ; ftoa + 150
        0x0000ed4e:    9808        ..      LDR      r0,[sp,#0x20]
        0x0000ed50:    990a        ..      LDR      r1,[sp,#0x28]
        0x0000ed52:    3917        .9      SUBS     r1,r1,#0x17
        0x0000ed54:    4088        .@      LSLS     r0,r0,r1
        0x0000ed56:    9007        ..      STR      r0,[sp,#0x1c]
        0x0000ed58:    e01a        ..      B        0xed90 ; ftoa + 216
        0x0000ed5a:    980a        ..      LDR      r0,[sp,#0x28]
        0x0000ed5c:    2800        .(      CMP      r0,#0
        0x0000ed5e:    d40e        ..      BMI      0xed7e ; ftoa + 198
        0x0000ed60:    e7ff        ..      B        0xed62 ; ftoa + 170
        0x0000ed62:    9808        ..      LDR      r0,[sp,#0x20]
        0x0000ed64:    990a        ..      LDR      r1,[sp,#0x28]
        0x0000ed66:    f1c10117    ....    RSB      r1,r1,#0x17
        0x0000ed6a:    4108        .A      ASRS     r0,r0,r1
        0x0000ed6c:    9007        ..      STR      r0,[sp,#0x1c]
        0x0000ed6e:    9808        ..      LDR      r0,[sp,#0x20]
        0x0000ed70:    990a        ..      LDR      r1,[sp,#0x28]
        0x0000ed72:    3101        .1      ADDS     r1,#1
        0x0000ed74:    4088        .@      LSLS     r0,r0,r1
        0x0000ed76:    f020407f     ..@    BIC      r0,r0,#0xff000000
        0x0000ed7a:    9006        ..      STR      r0,[sp,#0x18]
        0x0000ed7c:    e007        ..      B        0xed8e ; ftoa + 214
        0x0000ed7e:    9808        ..      LDR      r0,[sp,#0x20]
        0x0000ed80:    f020407f     ..@    BIC      r0,r0,#0xff000000
        0x0000ed84:    990a        ..      LDR      r1,[sp,#0x28]
        0x0000ed86:    43c9        .C      MVNS     r1,r1
        0x0000ed88:    40c8        .@      LSRS     r0,r0,r1
        0x0000ed8a:    9006        ..      STR      r0,[sp,#0x18]
        0x0000ed8c:    e7ff        ..      B        0xed8e ; ftoa + 214
        0x0000ed8e:    e7ff        ..      B        0xed90 ; ftoa + 216
        0x0000ed90:    e7ff        ..      B        0xed92 ; ftoa + 218
        0x0000ed92:    e7ff        ..      B        0xed94 ; ftoa + 220
        0x0000ed94:    980b        ..      LDR      r0,[sp,#0x2c]
        0x0000ed96:    f1b03fff    ...?    CMP      r0,#0xffffffff
        0x0000ed9a:    dc06        ..      BGT      0xedaa ; ftoa + 242
        0x0000ed9c:    e7ff        ..      B        0xed9e ; ftoa + 230
        0x0000ed9e:    990d        ..      LDR      r1,[sp,#0x34]
        0x0000eda0:    1c48        H.      ADDS     r0,r1,#1
        0x0000eda2:    900d        ..      STR      r0,[sp,#0x34]
        0x0000eda4:    202d        -       MOVS     r0,#0x2d
        0x0000eda6:    7008        .p      STRB     r0,[r1,#0]
        0x0000eda8:    e7ff        ..      B        0xedaa ; ftoa + 242
        0x0000edaa:    9807        ..      LDR      r0,[sp,#0x1c]
        0x0000edac:    b930        0.      CBNZ     r0,0xedbc ; ftoa + 260
        0x0000edae:    e7ff        ..      B        0xedb0 ; ftoa + 248
        0x0000edb0:    990d        ..      LDR      r1,[sp,#0x34]
        0x0000edb2:    1c48        H.      ADDS     r0,r1,#1
        0x0000edb4:    900d        ..      STR      r0,[sp,#0x34]
        0x0000edb6:    2030        0       MOVS     r0,#0x30
        0x0000edb8:    7008        .p      STRB     r0,[r1,#0]
        0x0000edba:    e01f        ..      B        0xedfc ; ftoa + 324
        0x0000edbc:    9807        ..      LDR      r0,[sp,#0x1c]
        0x0000edbe:    2801        .(      CMP      r0,#1
        0x0000edc0:    db06        ..      BLT      0xedd0 ; ftoa + 280
        0x0000edc2:    e7ff        ..      B        0xedc4 ; ftoa + 268
        0x0000edc4:    9807        ..      LDR      r0,[sp,#0x1c]
        0x0000edc6:    17c1        ..      ASRS     r1,r0,#31
        0x0000edc8:    9a0d        ..      LDR      r2,[sp,#0x34]
        0x0000edca:    f000fbad    ....    BL       uint64_to_str ; 0xf528
        0x0000edce:    e00b        ..      B        0xede8 ; ftoa + 304
        0x0000edd0:    990d        ..      LDR      r1,[sp,#0x34]
        0x0000edd2:    1c48        H.      ADDS     r0,r1,#1
        0x0000edd4:    900d        ..      STR      r0,[sp,#0x34]
        0x0000edd6:    202d        -       MOVS     r0,#0x2d
        0x0000edd8:    7008        .p      STRB     r0,[r1,#0]
        0x0000edda:    9807        ..      LDR      r0,[sp,#0x1c]
        0x0000eddc:    4240        @B      RSBS     r0,r0,#0
        0x0000edde:    17c1        ..      ASRS     r1,r0,#31
        0x0000ede0:    9a0d        ..      LDR      r2,[sp,#0x34]
        0x0000ede2:    f000fba1    ....    BL       uint64_to_str ; 0xf528
        0x0000ede6:    e7ff        ..      B        0xede8 ; ftoa + 304
        0x0000ede8:    e7ff        ..      B        0xedea ; ftoa + 306
        0x0000edea:    980d        ..      LDR      r0,[sp,#0x34]
        0x0000edec:    7800        .x      LDRB     r0,[r0,#0]
        0x0000edee:    b120         .      CBZ      r0,0xedfa ; ftoa + 322
        0x0000edf0:    e7ff        ..      B        0xedf2 ; ftoa + 314
        0x0000edf2:    980d        ..      LDR      r0,[sp,#0x34]
        0x0000edf4:    3001        .0      ADDS     r0,#1
        0x0000edf6:    900d        ..      STR      r0,[sp,#0x34]
        0x0000edf8:    e7f7        ..      B        0xedea ; ftoa + 306
        0x0000edfa:    e7ff        ..      B        0xedfc ; ftoa + 324
        0x0000edfc:    990d        ..      LDR      r1,[sp,#0x34]
        0x0000edfe:    1c48        H.      ADDS     r0,r1,#1
        0x0000ee00:    900d        ..      STR      r0,[sp,#0x34]
        0x0000ee02:    202e        .       MOVS     r0,#0x2e
        0x0000ee04:    7008        .p      STRB     r0,[r1,#0]
        0x0000ee06:    9806        ..      LDR      r0,[sp,#0x18]
        0x0000ee08:    b930        0.      CBNZ     r0,0xee18 ; ftoa + 352
        0x0000ee0a:    e7ff        ..      B        0xee0c ; ftoa + 340
        0x0000ee0c:    990d        ..      LDR      r1,[sp,#0x34]
        0x0000ee0e:    1c48        H.      ADDS     r0,r1,#1
        0x0000ee10:    900d        ..      STR      r0,[sp,#0x34]
        0x0000ee12:    2030        0       MOVS     r0,#0x30
        0x0000ee14:    7008        .p      STRB     r0,[r1,#0]
        0x0000ee16:    e05c        \.      B        0xeed2 ; ftoa + 538
        0x0000ee18:    9909        ..      LDR      r1,[sp,#0x24]
        0x0000ee1a:    980d        ..      LDR      r0,[sp,#0x34]
        0x0000ee1c:    9a05        ..      LDR      r2,[sp,#0x14]
        0x0000ee1e:    1a80        ..      SUBS     r0,r0,r2
        0x0000ee20:    43c0        .C      MVNS     r0,r0
        0x0000ee22:    4408        .D      ADD      r0,r0,r1
        0x0000ee24:    9002        ..      STR      r0,[sp,#8]
        0x0000ee26:    9802        ..      LDR      r0,[sp,#8]
        0x0000ee28:    990c        ..      LDR      r1,[sp,#0x30]
        0x0000ee2a:    4288        .B      CMP      r0,r1
        0x0000ee2c:    dd03        ..      BLE      0xee36 ; ftoa + 382
        0x0000ee2e:    e7ff        ..      B        0xee30 ; ftoa + 376
        0x0000ee30:    980c        ..      LDR      r0,[sp,#0x30]
        0x0000ee32:    9001        ..      STR      r0,[sp,#4]
        0x0000ee34:    e002        ..      B        0xee3c ; ftoa + 388
        0x0000ee36:    9802        ..      LDR      r0,[sp,#8]
        0x0000ee38:    9001        ..      STR      r0,[sp,#4]
        0x0000ee3a:    e7ff        ..      B        0xee3c ; ftoa + 388
        0x0000ee3c:    9801        ..      LDR      r0,[sp,#4]
        0x0000ee3e:    9002        ..      STR      r0,[sp,#8]
        0x0000ee40:    2000        .       MOVS     r0,#0
        0x0000ee42:    9003        ..      STR      r0,[sp,#0xc]
        0x0000ee44:    e7ff        ..      B        0xee46 ; ftoa + 398
        0x0000ee46:    9803        ..      LDR      r0,[sp,#0xc]
        0x0000ee48:    9902        ..      LDR      r1,[sp,#8]
        0x0000ee4a:    4288        .B      CMP      r0,r1
        0x0000ee4c:    da15        ..      BGE      0xee7a ; ftoa + 450
        0x0000ee4e:    e7ff        ..      B        0xee50 ; ftoa + 408
        0x0000ee50:    9806        ..      LDR      r0,[sp,#0x18]
        0x0000ee52:    eb000080    ....    ADD      r0,r0,r0,LSL #2
        0x0000ee56:    0040        @.      LSLS     r0,r0,#1
        0x0000ee58:    9006        ..      STR      r0,[sp,#0x18]
        0x0000ee5a:    f89d001b    ....    LDRB     r0,[sp,#0x1b]
        0x0000ee5e:    3030        00      ADDS     r0,r0,#0x30
        0x0000ee60:    990d        ..      LDR      r1,[sp,#0x34]
        0x0000ee62:    1c4a        J.      ADDS     r2,r1,#1
        0x0000ee64:    920d        ..      STR      r2,[sp,#0x34]
        0x0000ee66:    7008        .p      STRB     r0,[r1,#0]
        0x0000ee68:    9806        ..      LDR      r0,[sp,#0x18]
        0x0000ee6a:    f020407f     ..@    BIC      r0,r0,#0xff000000
        0x0000ee6e:    9006        ..      STR      r0,[sp,#0x18]
        0x0000ee70:    e7ff        ..      B        0xee72 ; ftoa + 442
        0x0000ee72:    9803        ..      LDR      r0,[sp,#0xc]
        0x0000ee74:    3001        .0      ADDS     r0,#1
        0x0000ee76:    9003        ..      STR      r0,[sp,#0xc]
        0x0000ee78:    e7e5        ..      B        0xee46 ; ftoa + 398
        0x0000ee7a:    9806        ..      LDR      r0,[sp,#0x18]
        0x0000ee7c:    eb000080    ....    ADD      r0,r0,r0,LSL #2
        0x0000ee80:    f34050c7    @..P    SBFX     r0,r0,#23,#8
        0x0000ee84:    2805        .(      CMP      r0,#5
        0x0000ee86:    db23        #.      BLT      0xeed0 ; ftoa + 536
        0x0000ee88:    e7ff        ..      B        0xee8a ; ftoa + 466
        0x0000ee8a:    980d        ..      LDR      r0,[sp,#0x34]
        0x0000ee8c:    3801        .8      SUBS     r0,#1
        0x0000ee8e:    9004        ..      STR      r0,[sp,#0x10]
        0x0000ee90:    e7ff        ..      B        0xee92 ; ftoa + 474
        0x0000ee92:    9804        ..      LDR      r0,[sp,#0x10]
        0x0000ee94:    9905        ..      LDR      r1,[sp,#0x14]
        0x0000ee96:    4288        .B      CMP      r0,r1
        0x0000ee98:    d319        ..      BCC      0xeece ; ftoa + 534
        0x0000ee9a:    e7ff        ..      B        0xee9c ; ftoa + 484
        0x0000ee9c:    9804        ..      LDR      r0,[sp,#0x10]
        0x0000ee9e:    7800        .x      LDRB     r0,[r0,#0]
        0x0000eea0:    282e        .(      CMP      r0,#0x2e
        0x0000eea2:    d101        ..      BNE      0xeea8 ; ftoa + 496
        0x0000eea4:    e7ff        ..      B        0xeea6 ; ftoa + 494
        0x0000eea6:    e00e        ..      B        0xeec6 ; ftoa + 526
        0x0000eea8:    9804        ..      LDR      r0,[sp,#0x10]
        0x0000eeaa:    7800        .x      LDRB     r0,[r0,#0]
        0x0000eeac:    2839        9(      CMP      r0,#0x39
        0x0000eeae:    d104        ..      BNE      0xeeba ; ftoa + 514
        0x0000eeb0:    e7ff        ..      B        0xeeb2 ; ftoa + 506
        0x0000eeb2:    9904        ..      LDR      r1,[sp,#0x10]
        0x0000eeb4:    2030        0       MOVS     r0,#0x30
        0x0000eeb6:    7008        .p      STRB     r0,[r1,#0]
        0x0000eeb8:    e004        ..      B        0xeec4 ; ftoa + 524
        0x0000eeba:    9904        ..      LDR      r1,[sp,#0x10]
        0x0000eebc:    7808        .x      LDRB     r0,[r1,#0]
        0x0000eebe:    3001        .0      ADDS     r0,#1
        0x0000eec0:    7008        .p      STRB     r0,[r1,#0]
        0x0000eec2:    e004        ..      B        0xeece ; ftoa + 534
        0x0000eec4:    e7ff        ..      B        0xeec6 ; ftoa + 526
        0x0000eec6:    9804        ..      LDR      r0,[sp,#0x10]
        0x0000eec8:    3801        .8      SUBS     r0,#1
        0x0000eeca:    9004        ..      STR      r0,[sp,#0x10]
        0x0000eecc:    e7e1        ..      B        0xee92 ; ftoa + 474
        0x0000eece:    e7ff        ..      B        0xeed0 ; ftoa + 536
        0x0000eed0:    e7ff        ..      B        0xeed2 ; ftoa + 538
        0x0000eed2:    990d        ..      LDR      r1,[sp,#0x34]
        0x0000eed4:    2000        .       MOVS     r0,#0
        0x0000eed6:    7008        .p      STRB     r0,[r1,#0]
        0x0000eed8:    980d        ..      LDR      r0,[sp,#0x34]
        0x0000eeda:    9905        ..      LDR      r1,[sp,#0x14]
        0x0000eedc:    1a40        @.      SUBS     r0,r0,r1
        0x0000eede:    900f        ..      STR      r0,[sp,#0x3c]
        0x0000eee0:    e7ff        ..      B        0xeee2 ; ftoa + 554
        0x0000eee2:    980f        ..      LDR      r0,[sp,#0x3c]
        0x0000eee4:    b010        ..      ADD      sp,sp,#0x40
        0x0000eee6:    bd80        ..      POP      {r7,pc}
    main
        0x0000eee8:    b580        ..      PUSH     {r7,lr}
        0x0000eeea:    b08a        ..      SUB      sp,sp,#0x28
        0x0000eeec:    2100        .!      MOVS     r1,#0
        0x0000eeee:    9103        ..      STR      r1,[sp,#0xc]
        0x0000eef0:    9109        ..      STR      r1,[sp,#0x24]
        0x0000eef2:    4608        .F      MOV      r0,r1
        0x0000eef4:    f7fdfedc    ....    BL       am_hal_clkgen_control ; 0xccb0
        0x0000eef8:    f24f70ea    O..p    MOV      r0,#0xf7ea
        0x0000eefc:    f2c00000    ....    MOVT     r0,#0
        0x0000ef00:    f7fdfdc6    ....    BL       am_hal_cachectrl_config ; 0xca90
        0x0000ef04:    f7fdfeca    ....    BL       am_hal_cachectrl_enable ; 0xcc9c
        0x0000ef08:    f7fdf9d6    ....    BL       am_bsp_low_power_init ; 0xc2b8
        0x0000ef0c:    9903        ..      LDR      r1,[sp,#0xc]
        0x0000ef0e:    2001        .       MOVS     r0,#1
        0x0000ef10:    f7fdfece    ....    BL       am_hal_clkgen_control ; 0xccb0
        0x0000ef14:    9803        ..      LDR      r0,[sp,#0xc]
        0x0000ef16:    f7feff1d    ....    BL       am_hal_rtc_osc_select ; 0xdd54
        0x0000ef1a:    f7feff11    ....    BL       am_hal_rtc_osc_enable ; 0xdd40
        0x0000ef1e:    f7fdfa3f    ..?.    BL       am_bsp_uart_printf_enable ; 0xc3a0
        0x0000ef22:    f7fffab7    ....    BL       am_util_stdio_terminal_clear ; 0xe494
        0x0000ef26:    f64f40b2    O..@    MOV      r0,#0xfcb2
        0x0000ef2a:    f2c00000    ....    MOVT     r0,#0
        0x0000ef2e:    f7fffa79    ..y.    BL       am_util_stdio_printf ; 0xe424
        0x0000ef32:    f7fdfa13    ....    BL       am_bsp_uart_printf_disable ; 0xc35c
        0x0000ef36:    200e        .       MOVS     r0,#0xe
        0x0000ef38:    f7fefb5e    ..^.    BL       am_hal_pwrctrl_memory_enable ; 0xd5f8
        0x0000ef3c:    b110        ..      CBZ      r0,0xef44 ; main + 92
        0x0000ef3e:    e7ff        ..      B        0xef40 ; main + 88
        0x0000ef40:    e7ff        ..      B        0xef42 ; main + 90
        0x0000ef42:    e7fe        ..      B        0xef42 ; main + 90
        0x0000ef44:    2010        .       MOVS     r0,#0x10
        0x0000ef46:    9001        ..      STR      r0,[sp,#4]
        0x0000ef48:    f7fefb28    ..(.    BL       am_hal_pwrctrl_memory_deepsleep_powerdown ; 0xd59c
        0x0000ef4c:    200d        .       MOVS     r0,#0xd
        0x0000ef4e:    f7fefb25    ..%.    BL       am_hal_pwrctrl_memory_deepsleep_powerdown ; 0xd59c
        0x0000ef52:    2001        .       MOVS     r0,#1
        0x0000ef54:    f7fefb38    ..8.    BL       am_hal_pwrctrl_memory_deepsleep_retain ; 0xd5c8
        0x0000ef58:    9801        ..      LDR      r0,[sp,#4]
        0x0000ef5a:    f64f2180    O..!    MOV      r1,#0xfa80
        0x0000ef5e:    f2c00100    ....    MOVT     r1,#0
        0x0000ef62:    6809        .h      LDR      r1,[r1,#0]
        0x0000ef64:    f7fef84c    ..L.    BL       am_hal_gpio_pinconfig ; 0xd000
        0x0000ef68:    9901        ..      LDR      r1,[sp,#4]
        0x0000ef6a:    a806        ..      ADD      r0,sp,#0x18
        0x0000ef6c:    9005        ..      STR      r0,[sp,#0x14]
        0x0000ef6e:    2000        .       MOVS     r0,#0
        0x0000ef70:    9002        ..      STR      r0,[sp,#8]
        0x0000ef72:    9008        ..      STR      r0,[sp,#0x20]
        0x0000ef74:    9007        ..      STR      r0,[sp,#0x1c]
        0x0000ef76:    9006        ..      STR      r0,[sp,#0x18]
        0x0000ef78:    9805        ..      LDR      r0,[sp,#0x14]
        0x0000ef7a:    f7fdf975    ..u.    BL       AM_HAL_GPIO_MASKBIT ; 0xc268
        0x0000ef7e:    f7fdffef    ....    BL       am_hal_gpio_interrupt_clear ; 0xcf60
        0x0000ef82:    9901        ..      LDR      r1,[sp,#4]
        0x0000ef84:    9805        ..      LDR      r0,[sp,#0x14]
        0x0000ef86:    f7fdf96f    ..o.    BL       AM_HAL_GPIO_MASKBIT ; 0xc268
        0x0000ef8a:    f7fef813    ....    BL       am_hal_gpio_interrupt_enable ; 0xcfb4
        0x0000ef8e:    f2410000    A...    MOVW     r0,#0x1000
        0x0000ef92:    f2c10000    ....    MOVT     r0,#0x1000
        0x0000ef96:    2105        .!      MOVS     r1,#5
        0x0000ef98:    f7fdfa62    ..b.    BL       am_devices_led_array_init ; 0xc460
        0x0000ef9c:    9802        ..      LDR      r0,[sp,#8]
        0x0000ef9e:    9004        ..      STR      r0,[sp,#0x10]
        0x0000efa0:    e7ff        ..      B        0xefa2 ; main + 186
        0x0000efa2:    9804        ..      LDR      r0,[sp,#0x10]
        0x0000efa4:    2804        .(      CMP      r0,#4
        0x0000efa6:    dc0c        ..      BGT      0xefc2 ; main + 218
        0x0000efa8:    e7ff        ..      B        0xefaa ; main + 194
        0x0000efaa:    9904        ..      LDR      r1,[sp,#0x10]
        0x0000efac:    f2410000    A...    MOVW     r0,#0x1000
        0x0000efb0:    f2c10000    ....    MOVT     r0,#0x1000
        0x0000efb4:    f7fdfab6    ....    BL       am_devices_led_off ; 0xc524
        0x0000efb8:    e7ff        ..      B        0xefba ; main + 210
        0x0000efba:    9804        ..      LDR      r0,[sp,#0x10]
        0x0000efbc:    3001        .0      ADDS     r0,#1
        0x0000efbe:    9004        ..      STR      r0,[sp,#0x10]
        0x0000efc0:    e7ef        ..      B        0xefa2 ; main + 186
        0x0000efc2:    f2410000    A...    MOVW     r0,#0x1000
        0x0000efc6:    f2c10000    ....    MOVT     r0,#0x1000
        0x0000efca:    2101        .!      MOVS     r1,#1
        0x0000efcc:    9100        ..      STR      r1,[sp,#0]
        0x0000efce:    f7fdfadb    ....    BL       am_devices_led_on ; 0xc588
        0x0000efd2:    2007        .       MOVS     r0,#7
        0x0000efd4:    f7fefe78    ..x.    BL       am_hal_rtc_alarm_interval_set ; 0xdcc8
        0x0000efd8:    9800        ..      LDR      r0,[sp,#0]
        0x0000efda:    f7fefe99    ....    BL       am_hal_rtc_int_clear ; 0xdd10
        0x0000efde:    9800        ..      LDR      r0,[sp,#0]
        0x0000efe0:    f7fefe9c    ....    BL       am_hal_rtc_int_enable ; 0xdd1c
        0x0000efe4:    200d        .       MOVS     r0,#0xd
        0x0000efe6:    f7fdf94f    ..O.    BL       __NVIC_EnableIRQ ; 0xc288
        0x0000efea:    2002        .       MOVS     r0,#2
        0x0000efec:    f7fdf94c    ..L.    BL       __NVIC_EnableIRQ ; 0xc288
        0x0000eff0:    f7fef9cc    ....    BL       am_hal_interrupt_master_enable ; 0xd38c
        0x0000eff4:    9800        ..      LDR      r0,[sp,#0]
        0x0000eff6:    2100        .!      MOVS     r1,#0
        0x0000eff8:    f7fefeb8    ....    BL       am_hal_sysctrl_control ; 0xdd6c
        0x0000effc:    e7ff        ..      B        0xeffe ; main + 278
        0x0000effe:    2001        .       MOVS     r0,#1
        0x0000f000:    f7fefeba    ....    BL       am_hal_sysctrl_sleep ; 0xdd78
        0x0000f004:    e7fb        ..      B        0xeffe ; main + 278
        0x0000f006:    0000        ..      MOVS     r0,r0
    ndigits_in_hex
        0x0000f008:    b084        ..      SUB      sp,sp,#0x10
        0x0000f00a:    9103        ..      STR      r1,[sp,#0xc]
        0x0000f00c:    9002        ..      STR      r0,[sp,#8]
        0x0000f00e:    9802        ..      LDR      r0,[sp,#8]
        0x0000f010:    9903        ..      LDR      r1,[sp,#0xc]
        0x0000f012:    4308        .C      ORRS     r0,r0,r1
        0x0000f014:    fab0f080    ....    CLZ      r0,r0
        0x0000f018:    0940        @.      LSRS     r0,r0,#5
        0x0000f01a:    9001        ..      STR      r0,[sp,#4]
        0x0000f01c:    e7ff        ..      B        0xf01e ; ndigits_in_hex + 22
        0x0000f01e:    9802        ..      LDR      r0,[sp,#8]
        0x0000f020:    9903        ..      LDR      r1,[sp,#0xc]
        0x0000f022:    4308        .C      ORRS     r0,r0,r1
        0x0000f024:    b160        `.      CBZ      r0,0xf040 ; ndigits_in_hex + 56
        0x0000f026:    e7ff        ..      B        0xf028 ; ndigits_in_hex + 32
        0x0000f028:    9802        ..      LDR      r0,[sp,#8]
        0x0000f02a:    9903        ..      LDR      r1,[sp,#0xc]
        0x0000f02c:    0900        ..      LSRS     r0,r0,#4
        0x0000f02e:    ea407001    @..p    ORR      r0,r0,r1,LSL #28
        0x0000f032:    0909        ..      LSRS     r1,r1,#4
        0x0000f034:    9103        ..      STR      r1,[sp,#0xc]
        0x0000f036:    9002        ..      STR      r0,[sp,#8]
        0x0000f038:    9801        ..      LDR      r0,[sp,#4]
        0x0000f03a:    3001        .0      ADDS     r0,#1
        0x0000f03c:    9001        ..      STR      r0,[sp,#4]
        0x0000f03e:    e7ee        ..      B        0xf01e ; ndigits_in_hex + 22
        0x0000f040:    9801        ..      LDR      r0,[sp,#4]
        0x0000f042:    b004        ..      ADD      sp,sp,#0x10
        0x0000f044:    4770        pG      BX       lr
        0x0000f046:    0000        ..      MOVS     r0,r0
    ndigits_in_i64
        0x0000f048:    b580        ..      PUSH     {r7,lr}
        0x0000f04a:    b082        ..      SUB      sp,sp,#8
        0x0000f04c:    9101        ..      STR      r1,[sp,#4]
        0x0000f04e:    9000        ..      STR      r0,[sp,#0]
        0x0000f050:    9801        ..      LDR      r0,[sp,#4]
        0x0000f052:    f1b03fff    ...?    CMP      r0,#0xffffffff
        0x0000f056:    dc09        ..      BGT      0xf06c ; ndigits_in_i64 + 36
        0x0000f058:    e7ff        ..      B        0xf05a ; ndigits_in_i64 + 18
        0x0000f05a:    9800        ..      LDR      r0,[sp,#0]
        0x0000f05c:    9a01        ..      LDR      r2,[sp,#4]
        0x0000f05e:    4241        AB      RSBS     r1,r0,#0
        0x0000f060:    f04f0000    O...    MOV      r0,#0
        0x0000f064:    4190        .A      SBCS     r0,r0,r2
        0x0000f066:    9100        ..      STR      r1,[sp,#0]
        0x0000f068:    9001        ..      STR      r0,[sp,#4]
        0x0000f06a:    e7ff        ..      B        0xf06c ; ndigits_in_i64 + 36
        0x0000f06c:    9800        ..      LDR      r0,[sp,#0]
        0x0000f06e:    9901        ..      LDR      r1,[sp,#4]
        0x0000f070:    f000f802    ....    BL       ndigits_in_u64 ; 0xf078
        0x0000f074:    b002        ..      ADD      sp,sp,#8
        0x0000f076:    bd80        ..      POP      {r7,pc}
    ndigits_in_u64
        0x0000f078:    b580        ..      PUSH     {r7,lr}
        0x0000f07a:    b084        ..      SUB      sp,sp,#0x10
        0x0000f07c:    9103        ..      STR      r1,[sp,#0xc]
        0x0000f07e:    9002        ..      STR      r0,[sp,#8]
        0x0000f080:    9802        ..      LDR      r0,[sp,#8]
        0x0000f082:    9903        ..      LDR      r1,[sp,#0xc]
        0x0000f084:    4308        .C      ORRS     r0,r0,r1
        0x0000f086:    fab0f080    ....    CLZ      r0,r0
        0x0000f08a:    0940        @.      LSRS     r0,r0,#5
        0x0000f08c:    9001        ..      STR      r0,[sp,#4]
        0x0000f08e:    e7ff        ..      B        0xf090 ; ndigits_in_u64 + 24
        0x0000f090:    9802        ..      LDR      r0,[sp,#8]
        0x0000f092:    9903        ..      LDR      r1,[sp,#0xc]
        0x0000f094:    4308        .C      ORRS     r0,r0,r1
        0x0000f096:    b150        P.      CBZ      r0,0xf0ae ; ndigits_in_u64 + 54
        0x0000f098:    e7ff        ..      B        0xf09a ; ndigits_in_u64 + 34
        0x0000f09a:    9802        ..      LDR      r0,[sp,#8]
        0x0000f09c:    9903        ..      LDR      r1,[sp,#0xc]
        0x0000f09e:    f7fffd7f    ....    BL       divu64_10 ; 0xeba0
        0x0000f0a2:    9103        ..      STR      r1,[sp,#0xc]
        0x0000f0a4:    9002        ..      STR      r0,[sp,#8]
        0x0000f0a6:    9801        ..      LDR      r0,[sp,#4]
        0x0000f0a8:    3001        .0      ADDS     r0,#1
        0x0000f0aa:    9001        ..      STR      r0,[sp,#4]
        0x0000f0ac:    e7f0        ..      B        0xf090 ; ndigits_in_u64 + 24
        0x0000f0ae:    9801        ..      LDR      r0,[sp,#4]
        0x0000f0b0:    b004        ..      ADD      sp,sp,#0x10
        0x0000f0b2:    bd80        ..      POP      {r7,pc}
    padbuffer
        0x0000f0b4:    b085        ..      SUB      sp,sp,#0x14
        0x0000f0b6:    9003        ..      STR      r0,[sp,#0xc]
        0x0000f0b8:    f88d100b    ....    STRB     r1,[sp,#0xb]
        0x0000f0bc:    9201        ..      STR      r2,[sp,#4]
        0x0000f0be:    2000        .       MOVS     r0,#0
        0x0000f0c0:    9000        ..      STR      r0,[sp,#0]
        0x0000f0c2:    9801        ..      LDR      r0,[sp,#4]
        0x0000f0c4:    2800        .(      CMP      r0,#0
        0x0000f0c6:    dc03        ..      BGT      0xf0d0 ; padbuffer + 28
        0x0000f0c8:    e7ff        ..      B        0xf0ca ; padbuffer + 22
        0x0000f0ca:    9800        ..      LDR      r0,[sp,#0]
        0x0000f0cc:    9004        ..      STR      r0,[sp,#0x10]
        0x0000f0ce:    e016        ..      B        0xf0fe ; padbuffer + 74
        0x0000f0d0:    e7ff        ..      B        0xf0d2 ; padbuffer + 30
        0x0000f0d2:    9801        ..      LDR      r0,[sp,#4]
        0x0000f0d4:    1e41        A.      SUBS     r1,r0,#1
        0x0000f0d6:    9101        ..      STR      r1,[sp,#4]
        0x0000f0d8:    b170        p.      CBZ      r0,0xf0f8 ; padbuffer + 68
        0x0000f0da:    e7ff        ..      B        0xf0dc ; padbuffer + 40
        0x0000f0dc:    9803        ..      LDR      r0,[sp,#0xc]
        0x0000f0de:    b138        8.      CBZ      r0,0xf0f0 ; padbuffer + 60
        0x0000f0e0:    e7ff        ..      B        0xf0e2 ; padbuffer + 46
        0x0000f0e2:    f89d000b    ....    LDRB     r0,[sp,#0xb]
        0x0000f0e6:    9903        ..      LDR      r1,[sp,#0xc]
        0x0000f0e8:    1c4a        J.      ADDS     r2,r1,#1
        0x0000f0ea:    9203        ..      STR      r2,[sp,#0xc]
        0x0000f0ec:    7008        .p      STRB     r0,[r1,#0]
        0x0000f0ee:    e7ff        ..      B        0xf0f0 ; padbuffer + 60
        0x0000f0f0:    9800        ..      LDR      r0,[sp,#0]
        0x0000f0f2:    3001        .0      ADDS     r0,#1
        0x0000f0f4:    9000        ..      STR      r0,[sp,#0]
        0x0000f0f6:    e7ec        ..      B        0xf0d2 ; padbuffer + 30
        0x0000f0f8:    9800        ..      LDR      r0,[sp,#0]
        0x0000f0fa:    9004        ..      STR      r0,[sp,#0x10]
        0x0000f0fc:    e7ff        ..      B        0xf0fe ; padbuffer + 74
        0x0000f0fe:    9804        ..      LDR      r0,[sp,#0x10]
        0x0000f100:    b005        ..      ADD      sp,sp,#0x14
        0x0000f102:    4770        pG      BX       lr
    read_nonblocking
        0x0000f104:    e92d41f0    -..A    PUSH     {r4-r8,lr}
        0x0000f108:    b08a        ..      SUB      sp,sp,#0x28
        0x0000f10a:    2800        .(      CMP      r0,#0
        0x0000f10c:    d040        @.      BEQ      0xf190 ; read_nonblocking + 140
        0x0000f10e:    4607        .F      MOV      r7,r0
        0x0000f110:    6800        .h      LDR      r0,[r0,#0]
        0x0000f112:    460e        .F      MOV      r6,r1
        0x0000f114:    f6496106    I..a    MOV      r1,#0x9e06
        0x0000f118:    f020407e     .~@    BIC      r0,r0,#0xfe000000
        0x0000f11c:    f2c011ea    ....    MOVT     r1,#0x1ea
        0x0000f120:    4288        .B      CMP      r0,r1
        0x0000f122:    d135        5.      BNE      0xf190 ; read_nonblocking + 140
        0x0000f124:    4615        .F      MOV      r5,r2
        0x0000f126:    2b00        .+      CMP      r3,#0
        0x0000f128:    461c        .F      MOV      r4,r3
        0x0000f12a:    bf1c        ..      ITT      NE
        0x0000f12c:    2000        .       MOVNE    r0,#0
        0x0000f12e:    6020         `      STRNE    r0,[r4,#0]
        0x0000f130:    b3a5        ..      CBZ      r5,0xf19c ; read_nonblocking + 152
        0x0000f132:    f897005e    ..^.    LDRB     r0,[r7,#0x5e]
        0x0000f136:    b3b8        ..      CBZ      r0,0xf1a8 ; read_nonblocking + 164
        0x0000f138:    f7fef924    ..$.    BL       am_hal_interrupt_master_disable ; 0xd384
        0x0000f13c:    9001        ..      STR      r0,[sp,#4]
        0x0000f13e:    6a78        xj      LDR      r0,[r7,#0x24]
        0x0000f140:    f24c0100    L...    MOVW     r1,#0xc000
        0x0000f144:    f2c40101    ....    MOVT     r1,#0x4001
        0x0000f148:    eb013000    ...0    ADD      r0,r1,r0,LSL #12
        0x0000f14c:    2200        ."      MOVS     r2,#0
        0x0000f14e:    a902        ..      ADD      r1,sp,#8
        0x0000f150:    6983        .i      LDR      r3,[r0,#0x18]
        0x0000f152:    06db        ..      LSLS     r3,r3,#27
        0x0000f154:    d408        ..      BMI      0xf168 ; read_nonblocking + 100
        0x0000f156:    6803        .h      LDR      r3,[r0,#0]
        0x0000f158:    f4136f70    ..po    TST      r3,#0xf00
        0x0000f15c:    d13a        :.      BNE      0xf1d4 ; read_nonblocking + 208
        0x0000f15e:    548b        .T      STRB     r3,[r1,r2]
        0x0000f160:    3201        .2      ADDS     r2,#1
        0x0000f162:    2a20         *      CMP      r2,#0x20
        0x0000f164:    d1f4        ..      BNE      0xf150 ; read_nonblocking + 76
        0x0000f166:    2220         "      MOVS     r2,#0x20
        0x0000f168:    f1070840    ..@.    ADD      r8,r7,#0x40
        0x0000f16c:    a902        ..      ADD      r1,sp,#8
        0x0000f16e:    4640        @F      MOV      r0,r8
        0x0000f170:    f7fefbd6    ....    BL       am_hal_queue_item_add ; 0xd920
        0x0000f174:    b390        ..      CBZ      r0,0xf1dc ; read_nonblocking + 216
        0x0000f176:    9801        ..      LDR      r0,[sp,#4]
        0x0000f178:    f7fef90c    ....    BL       am_hal_interrupt_master_set ; 0xd394
        0x0000f17c:    6cb8        .l      LDR      r0,[r7,#0x48]
        0x0000f17e:    4631        1F      MOV      r1,r6
        0x0000f180:    42a8        .B      CMP      r0,r5
        0x0000f182:    bf38        8.      IT       CC
        0x0000f184:    4605        .F      MOVCC    r5,r0
        0x0000f186:    4640        @F      MOV      r0,r8
        0x0000f188:    462a        *F      MOV      r2,r5
        0x0000f18a:    f7fefcaf    ....    BL       am_hal_queue_item_get ; 0xdaec
        0x0000f18e:    e01e        ..      B        0xf1ce ; read_nonblocking + 202
        0x0000f190:    2602        .&      MOVS     r6,#2
        0x0000f192:    4630        0F      MOV      r0,r6
        0x0000f194:    b00a        ..      ADD      sp,sp,#0x28
        0x0000f196:    e8bd81f0    ....    POP      {r4-r8,pc}
        0x0000f19a:    bf00        ..      NOP      
        0x0000f19c:    2600        .&      MOVS     r6,#0
        0x0000f19e:    4630        0F      MOV      r0,r6
        0x0000f1a0:    b00a        ..      ADD      sp,sp,#0x28
        0x0000f1a2:    e8bd81f0    ....    POP      {r4-r8,pc}
        0x0000f1a6:    bf00        ..      NOP      
        0x0000f1a8:    6a78        xj      LDR      r0,[r7,#0x24]
        0x0000f1aa:    f24c0100    L...    MOVW     r1,#0xc000
        0x0000f1ae:    f2c40101    ....    MOVT     r1,#0x4001
        0x0000f1b2:    eb013100    ...1    ADD      r1,r1,r0,LSL #12
        0x0000f1b6:    2000        .       MOVS     r0,#0
        0x0000f1b8:    698a        .i      LDR      r2,[r1,#0x18]
        0x0000f1ba:    06d2        ..      LSLS     r2,r2,#27
        0x0000f1bc:    d418        ..      BMI      0xf1f0 ; read_nonblocking + 236
        0x0000f1be:    680a        .h      LDR      r2,[r1,#0]
        0x0000f1c0:    f4126f70    ..po    TST      r2,#0xf00
        0x0000f1c4:    d116        ..      BNE      0xf1f4 ; read_nonblocking + 240
        0x0000f1c6:    5432        2T      STRB     r2,[r6,r0]
        0x0000f1c8:    3001        .0      ADDS     r0,#1
        0x0000f1ca:    4285        .B      CMP      r5,r0
        0x0000f1cc:    d1f4        ..      BNE      0xf1b8 ; read_nonblocking + 180
        0x0000f1ce:    2600        .&      MOVS     r6,#0
        0x0000f1d0:    4628        (F      MOV      r0,r5
        0x0000f1d2:    e011        ..      B        0xf1f8 ; read_nonblocking + 244
        0x0000f1d4:    f04f6600    O..f    MOV      r6,#0x8000000
        0x0000f1d8:    e003        ..      B        0xf1e2 ; read_nonblocking + 222
        0x0000f1da:    bf00        ..      NOP      
        0x0000f1dc:    2601        .&      MOVS     r6,#1
        0x0000f1de:    f6c00600    ....    MOVT     r6,#0x800
        0x0000f1e2:    9801        ..      LDR      r0,[sp,#4]
        0x0000f1e4:    f7fef8d6    ....    BL       am_hal_interrupt_master_set ; 0xd394
        0x0000f1e8:    4630        0F      MOV      r0,r6
        0x0000f1ea:    b00a        ..      ADD      sp,sp,#0x28
        0x0000f1ec:    e8bd81f0    ....    POP      {r4-r8,pc}
        0x0000f1f0:    2600        .&      MOVS     r6,#0
        0x0000f1f2:    e001        ..      B        0xf1f8 ; read_nonblocking + 244
        0x0000f1f4:    f04f6600    O..f    MOV      r6,#0x8000000
        0x0000f1f8:    2c00        .,      CMP      r4,#0
        0x0000f1fa:    bf18        ..      IT       NE
        0x0000f1fc:    6020         `      STRNE    r0,[r4,#0]
        0x0000f1fe:    4630        0F      MOV      r0,r6
        0x0000f200:    b00a        ..      ADD      sp,sp,#0x28
        0x0000f202:    e8bd81f0    ....    POP      {r4-r8,pc}
        0x0000f206:    0000        ..      MOVS     r0,r0
    set_LPMMODE
        0x0000f208:    b5f0        ..      PUSH     {r4-r7,lr}
        0x0000f20a:    b081        ..      SUB      sp,sp,#4
        0x0000f20c:    4604        .F      MOV      r4,r0
        0x0000f20e:    2803        .(      CMP      r0,#3
        0x0000f210:    d851        Q.      BHI      0xf2b6 ; set_LPMMODE + 174
        0x0000f212:    f0040703    ....    AND      r7,r4,#3
        0x0000f216:    f7fef8b5    ....    BL       am_hal_interrupt_master_disable ; 0xd384
        0x0000f21a:    f2481500    H...    MOVW     r5,#0x8100
        0x0000f21e:    f2c40501    ....    MOVT     r5,#0x4001
        0x0000f222:    9000        ..      STR      r0,[sp,#0]
        0x0000f224:    4628        (F      MOV      r0,r5
        0x0000f226:    f7fdfe81    ....    BL       am_hal_flash_load_ui32 ; 0xcf2c
        0x0000f22a:    f420507c     .|P    BIC      r0,r0,#0x3f00
        0x0000f22e:    ea403007    @..0    ORR      r0,r0,r7,LSL #12
        0x0000f232:    f50061e0    ...a    ADD      r1,r0,#0x700
        0x0000f236:    4628        (F      MOV      r0,r5
        0x0000f238:    f7fdfe7c    ..|.    BL       am_hal_flash_store_ui32 ; 0xcf34
        0x0000f23c:    9800        ..      LDR      r0,[sp,#0]
        0x0000f23e:    f7fef8a9    ....    BL       am_hal_interrupt_master_set ; 0xd394
        0x0000f242:    f7fef89f    ....    BL       am_hal_interrupt_master_disable ; 0xd384
        0x0000f246:    1d2e        ..      ADDS     r6,r5,#4
        0x0000f248:    9000        ..      STR      r0,[sp,#0]
        0x0000f24a:    4630        0F      MOV      r0,r6
        0x0000f24c:    f7fdfe6e    ..n.    BL       am_hal_flash_load_ui32 ; 0xcf2c
        0x0000f250:    f420507c     .|P    BIC      r0,r0,#0x3f00
        0x0000f254:    ea403007    @..0    ORR      r0,r0,r7,LSL #12
        0x0000f258:    f50061e0    ...a    ADD      r1,r0,#0x700
        0x0000f25c:    4630        0F      MOV      r0,r6
        0x0000f25e:    f7fdfe69    ..i.    BL       am_hal_flash_store_ui32 ; 0xcf34
        0x0000f262:    9800        ..      LDR      r0,[sp,#0]
        0x0000f264:    f7fef896    ....    BL       am_hal_interrupt_master_set ; 0xd394
        0x0000f268:    f7fef88c    ....    BL       am_hal_interrupt_master_disable ; 0xd384
        0x0000f26c:    f1050608    ....    ADD      r6,r5,#8
        0x0000f270:    9000        ..      STR      r0,[sp,#0]
        0x0000f272:    4630        0F      MOV      r0,r6
        0x0000f274:    f7fdfe5a    ..Z.    BL       am_hal_flash_load_ui32 ; 0xcf2c
        0x0000f278:    f420507c     .|P    BIC      r0,r0,#0x3f00
        0x0000f27c:    ea403007    @..0    ORR      r0,r0,r7,LSL #12
        0x0000f280:    f50061e0    ...a    ADD      r1,r0,#0x700
        0x0000f284:    4630        0F      MOV      r0,r6
        0x0000f286:    f7fdfe55    ..U.    BL       am_hal_flash_store_ui32 ; 0xcf34
        0x0000f28a:    9800        ..      LDR      r0,[sp,#0]
        0x0000f28c:    f7fef882    ....    BL       am_hal_interrupt_master_set ; 0xd394
        0x0000f290:    f7fef878    ..x.    BL       am_hal_interrupt_master_disable ; 0xd384
        0x0000f294:    350c        .5      ADDS     r5,r5,#0xc
        0x0000f296:    9000        ..      STR      r0,[sp,#0]
        0x0000f298:    4628        (F      MOV      r0,r5
        0x0000f29a:    f7fdfe47    ..G.    BL       am_hal_flash_load_ui32 ; 0xcf2c
        0x0000f29e:    f420507c     .|P    BIC      r0,r0,#0x3f00
        0x0000f2a2:    ea403007    @..0    ORR      r0,r0,r7,LSL #12
        0x0000f2a6:    f50061e0    ...a    ADD      r1,r0,#0x700
        0x0000f2aa:    4628        (F      MOV      r0,r5
        0x0000f2ac:    f7fdfe42    ..B.    BL       am_hal_flash_store_ui32 ; 0xcf34
        0x0000f2b0:    9800        ..      LDR      r0,[sp,#0]
        0x0000f2b2:    f7fef86f    ..o.    BL       am_hal_interrupt_master_set ; 0xd394
        0x0000f2b6:    2000        .       MOVS     r0,#0
        0x0000f2b8:    2c04        .,      CMP      r4,#4
        0x0000f2ba:    bf38        8.      IT       CC
        0x0000f2bc:    2001        .       MOVCC    r0,#1
        0x0000f2be:    b001        ..      ADD      sp,sp,#4
        0x0000f2c0:    bdf0        ..      POP      {r4-r7,pc}
        0x0000f2c2:    0000        ..      MOVS     r0,r0
    set_RDWAIT
        0x0000f2c4:    b5f0        ..      PUSH     {r4-r7,lr}
        0x0000f2c6:    b081        ..      SUB      sp,sp,#4
        0x0000f2c8:    4604        .F      MOV      r4,r0
        0x0000f2ca:    280f        .(      CMP      r0,#0xf
        0x0000f2cc:    d84b        K.      BHI      0xf366 ; set_RDWAIT + 162
        0x0000f2ce:    f7fef859    ..Y.    BL       am_hal_interrupt_master_disable ; 0xd384
        0x0000f2d2:    f2481500    H...    MOVW     r5,#0x8100
        0x0000f2d6:    f2c40501    ....    MOVT     r5,#0x4001
        0x0000f2da:    9000        ..      STR      r0,[sp,#0]
        0x0000f2dc:    4628        (F      MOV      r0,r5
        0x0000f2de:    f7fdfe25    ..%.    BL       am_hal_flash_load_ui32 ; 0xcf2c
        0x0000f2e2:    f24f07f0    O...    MOV      r7,#0xf0f0
        0x0000f2e6:    f6cf77ff    ...w    MOVT     r7,#0xffff
        0x0000f2ea:    4038        8@      ANDS     r0,r0,r7
        0x0000f2ec:    4320         C      ORRS     r0,r0,r4
        0x0000f2ee:    f44061e0    @..a    ORR      r1,r0,#0x700
        0x0000f2f2:    4628        (F      MOV      r0,r5
        0x0000f2f4:    f7fdfe1e    ....    BL       am_hal_flash_store_ui32 ; 0xcf34
        0x0000f2f8:    9800        ..      LDR      r0,[sp,#0]
        0x0000f2fa:    f7fef84b    ..K.    BL       am_hal_interrupt_master_set ; 0xd394
        0x0000f2fe:    f7fef841    ..A.    BL       am_hal_interrupt_master_disable ; 0xd384
        0x0000f302:    1d2e        ..      ADDS     r6,r5,#4
        0x0000f304:    9000        ..      STR      r0,[sp,#0]
        0x0000f306:    4630        0F      MOV      r0,r6
        0x0000f308:    f7fdfe10    ....    BL       am_hal_flash_load_ui32 ; 0xcf2c
        0x0000f30c:    4038        8@      ANDS     r0,r0,r7
        0x0000f30e:    4320         C      ORRS     r0,r0,r4
        0x0000f310:    f44061e0    @..a    ORR      r1,r0,#0x700
        0x0000f314:    4630        0F      MOV      r0,r6
        0x0000f316:    f7fdfe0d    ....    BL       am_hal_flash_store_ui32 ; 0xcf34
        0x0000f31a:    9800        ..      LDR      r0,[sp,#0]
        0x0000f31c:    f7fef83a    ..:.    BL       am_hal_interrupt_master_set ; 0xd394
        0x0000f320:    f7fef830    ..0.    BL       am_hal_interrupt_master_disable ; 0xd384
        0x0000f324:    f1050608    ....    ADD      r6,r5,#8
        0x0000f328:    9000        ..      STR      r0,[sp,#0]
        0x0000f32a:    4630        0F      MOV      r0,r6
        0x0000f32c:    f7fdfdfe    ....    BL       am_hal_flash_load_ui32 ; 0xcf2c
        0x0000f330:    4038        8@      ANDS     r0,r0,r7
        0x0000f332:    4320         C      ORRS     r0,r0,r4
        0x0000f334:    f44061e0    @..a    ORR      r1,r0,#0x700
        0x0000f338:    4630        0F      MOV      r0,r6
        0x0000f33a:    f7fdfdfb    ....    BL       am_hal_flash_store_ui32 ; 0xcf34
        0x0000f33e:    9800        ..      LDR      r0,[sp,#0]
        0x0000f340:    f7fef828    ..(.    BL       am_hal_interrupt_master_set ; 0xd394
        0x0000f344:    f7fef81e    ....    BL       am_hal_interrupt_master_disable ; 0xd384
        0x0000f348:    350c        .5      ADDS     r5,r5,#0xc
        0x0000f34a:    9000        ..      STR      r0,[sp,#0]
        0x0000f34c:    4628        (F      MOV      r0,r5
        0x0000f34e:    f7fdfded    ....    BL       am_hal_flash_load_ui32 ; 0xcf2c
        0x0000f352:    4038        8@      ANDS     r0,r0,r7
        0x0000f354:    4320         C      ORRS     r0,r0,r4
        0x0000f356:    f44061e0    @..a    ORR      r1,r0,#0x700
        0x0000f35a:    4628        (F      MOV      r0,r5
        0x0000f35c:    f7fdfdea    ....    BL       am_hal_flash_store_ui32 ; 0xcf34
        0x0000f360:    9800        ..      LDR      r0,[sp,#0]
        0x0000f362:    f7fef817    ....    BL       am_hal_interrupt_master_set ; 0xd394
        0x0000f366:    2000        .       MOVS     r0,#0
        0x0000f368:    2c10        .,      CMP      r4,#0x10
        0x0000f36a:    bf38        8.      IT       CC
        0x0000f36c:    2001        .       MOVCC    r0,#1
        0x0000f36e:    b001        ..      ADD      sp,sp,#4
        0x0000f370:    bdf0        ..      POP      {r4-r7,pc}
        0x0000f372:    0000        ..      MOVS     r0,r0
    set_SEDELAY
        0x0000f374:    b5f0        ..      PUSH     {r4-r7,lr}
        0x0000f376:    b081        ..      SUB      sp,sp,#4
        0x0000f378:    4604        .F      MOV      r4,r0
        0x0000f37a:    2807        .(      CMP      r0,#7
        0x0000f37c:    d851        Q.      BHI      0xf422 ; set_SEDELAY + 174
        0x0000f37e:    f0040707    ....    AND      r7,r4,#7
        0x0000f382:    f7fdffff    ....    BL       am_hal_interrupt_master_disable ; 0xd384
        0x0000f386:    f2481500    H...    MOVW     r5,#0x8100
        0x0000f38a:    f2c40501    ....    MOVT     r5,#0x4001
        0x0000f38e:    9000        ..      STR      r0,[sp,#0]
        0x0000f390:    4628        (F      MOV      r0,r5
        0x0000f392:    f7fdfdcb    ....    BL       am_hal_flash_load_ui32 ; 0xcf2c
        0x0000f396:    f4206077     .w`    BIC      r0,r0,#0xf70
        0x0000f39a:    ea401007    @...    ORR      r0,r0,r7,LSL #4
        0x0000f39e:    f50061e0    ...a    ADD      r1,r0,#0x700
        0x0000f3a2:    4628        (F      MOV      r0,r5
        0x0000f3a4:    f7fdfdc6    ....    BL       am_hal_flash_store_ui32 ; 0xcf34
        0x0000f3a8:    9800        ..      LDR      r0,[sp,#0]
        0x0000f3aa:    f7fdfff3    ....    BL       am_hal_interrupt_master_set ; 0xd394
        0x0000f3ae:    f7fdffe9    ....    BL       am_hal_interrupt_master_disable ; 0xd384
        0x0000f3b2:    1d2e        ..      ADDS     r6,r5,#4
        0x0000f3b4:    9000        ..      STR      r0,[sp,#0]
        0x0000f3b6:    4630        0F      MOV      r0,r6
        0x0000f3b8:    f7fdfdb8    ....    BL       am_hal_flash_load_ui32 ; 0xcf2c
        0x0000f3bc:    f4206077     .w`    BIC      r0,r0,#0xf70
        0x0000f3c0:    ea401007    @...    ORR      r0,r0,r7,LSL #4
        0x0000f3c4:    f50061e0    ...a    ADD      r1,r0,#0x700
        0x0000f3c8:    4630        0F      MOV      r0,r6
        0x0000f3ca:    f7fdfdb3    ....    BL       am_hal_flash_store_ui32 ; 0xcf34
        0x0000f3ce:    9800        ..      LDR      r0,[sp,#0]
        0x0000f3d0:    f7fdffe0    ....    BL       am_hal_interrupt_master_set ; 0xd394
        0x0000f3d4:    f7fdffd6    ....    BL       am_hal_interrupt_master_disable ; 0xd384
        0x0000f3d8:    f1050608    ....    ADD      r6,r5,#8
        0x0000f3dc:    9000        ..      STR      r0,[sp,#0]
        0x0000f3de:    4630        0F      MOV      r0,r6
        0x0000f3e0:    f7fdfda4    ....    BL       am_hal_flash_load_ui32 ; 0xcf2c
        0x0000f3e4:    f4206077     .w`    BIC      r0,r0,#0xf70
        0x0000f3e8:    ea401007    @...    ORR      r0,r0,r7,LSL #4
        0x0000f3ec:    f50061e0    ...a    ADD      r1,r0,#0x700
        0x0000f3f0:    4630        0F      MOV      r0,r6
        0x0000f3f2:    f7fdfd9f    ....    BL       am_hal_flash_store_ui32 ; 0xcf34
        0x0000f3f6:    9800        ..      LDR      r0,[sp,#0]
        0x0000f3f8:    f7fdffcc    ....    BL       am_hal_interrupt_master_set ; 0xd394
        0x0000f3fc:    f7fdffc2    ....    BL       am_hal_interrupt_master_disable ; 0xd384
        0x0000f400:    350c        .5      ADDS     r5,r5,#0xc
        0x0000f402:    9000        ..      STR      r0,[sp,#0]
        0x0000f404:    4628        (F      MOV      r0,r5
        0x0000f406:    f7fdfd91    ....    BL       am_hal_flash_load_ui32 ; 0xcf2c
        0x0000f40a:    f4206077     .w`    BIC      r0,r0,#0xf70
        0x0000f40e:    ea401007    @...    ORR      r0,r0,r7,LSL #4
        0x0000f412:    f50061e0    ...a    ADD      r1,r0,#0x700
        0x0000f416:    4628        (F      MOV      r0,r5
        0x0000f418:    f7fdfd8c    ....    BL       am_hal_flash_store_ui32 ; 0xcf34
        0x0000f41c:    9800        ..      LDR      r0,[sp,#0]
        0x0000f41e:    f7fdffb9    ....    BL       am_hal_interrupt_master_set ; 0xd394
        0x0000f422:    2000        .       MOVS     r0,#0
        0x0000f424:    2c08        .,      CMP      r4,#8
        0x0000f426:    bf38        8.      IT       CC
        0x0000f428:    2001        .       MOVCC    r0,#1
        0x0000f42a:    b001        ..      ADD      sp,sp,#4
        0x0000f42c:    bdf0        ..      POP      {r4-r7,pc}
        0x0000f42e:    0000        ..      MOVS     r0,r0
    simple_strlen
        0x0000f430:    b083        ..      SUB      sp,sp,#0xc
        0x0000f432:    9001        ..      STR      r0,[sp,#4]
        0x0000f434:    2000        .       MOVS     r0,#0
        0x0000f436:    9000        ..      STR      r0,[sp,#0]
        0x0000f438:    9801        ..      LDR      r0,[sp,#4]
        0x0000f43a:    b918        ..      CBNZ     r0,0xf444 ; simple_strlen + 20
        0x0000f43c:    e7ff        ..      B        0xf43e ; simple_strlen + 14
        0x0000f43e:    9800        ..      LDR      r0,[sp,#0]
        0x0000f440:    9002        ..      STR      r0,[sp,#8]
        0x0000f442:    e00d        ..      B        0xf460 ; simple_strlen + 48
        0x0000f444:    e7ff        ..      B        0xf446 ; simple_strlen + 22
        0x0000f446:    9801        ..      LDR      r0,[sp,#4]
        0x0000f448:    1c41        A.      ADDS     r1,r0,#1
        0x0000f44a:    9101        ..      STR      r1,[sp,#4]
        0x0000f44c:    7800        .x      LDRB     r0,[r0,#0]
        0x0000f44e:    b120         .      CBZ      r0,0xf45a ; simple_strlen + 42
        0x0000f450:    e7ff        ..      B        0xf452 ; simple_strlen + 34
        0x0000f452:    9800        ..      LDR      r0,[sp,#0]
        0x0000f454:    3001        .0      ADDS     r0,#1
        0x0000f456:    9000        ..      STR      r0,[sp,#0]
        0x0000f458:    e7f5        ..      B        0xf446 ; simple_strlen + 22
        0x0000f45a:    9800        ..      LDR      r0,[sp,#0]
        0x0000f45c:    9002        ..      STR      r0,[sp,#8]
        0x0000f45e:    e7ff        ..      B        0xf460 ; simple_strlen + 48
        0x0000f460:    9802        ..      LDR      r0,[sp,#8]
        0x0000f462:    b003        ..      ADD      sp,sp,#0xc
        0x0000f464:    4770        pG      BX       lr
        0x0000f466:    0000        ..      MOVS     r0,r0
    uint64_to_hexstr
        0x0000f468:    b08c        ..      SUB      sp,sp,#0x30
        0x0000f46a:    910b        ..      STR      r1,[sp,#0x2c]
        0x0000f46c:    900a        ..      STR      r0,[sp,#0x28]
        0x0000f46e:    9209        ..      STR      r2,[sp,#0x24]
        0x0000f470:    f88d3023    ..#0    STRB     r3,[sp,#0x23]
        0x0000f474:    2000        .       MOVS     r0,#0
        0x0000f476:    9006        ..      STR      r0,[sp,#0x18]
        0x0000f478:    980a        ..      LDR      r0,[sp,#0x28]
        0x0000f47a:    990b        ..      LDR      r1,[sp,#0x2c]
        0x0000f47c:    4308        .C      ORRS     r0,r0,r1
        0x0000f47e:    b940        @.      CBNZ     r0,0xf492 ; uint64_to_hexstr + 42
        0x0000f480:    e7ff        ..      B        0xf482 ; uint64_to_hexstr + 26
        0x0000f482:    9a06        ..      LDR      r2,[sp,#0x18]
        0x0000f484:    1c50        P.      ADDS     r0,r2,#1
        0x0000f486:    9006        ..      STR      r0,[sp,#0x18]
        0x0000f488:    f10d0103    ....    ADD      r1,sp,#3
        0x0000f48c:    2030        0       MOVS     r0,#0x30
        0x0000f48e:    5488        .T      STRB     r0,[r1,r2]
        0x0000f490:    e7ff        ..      B        0xf492 ; uint64_to_hexstr + 42
        0x0000f492:    e7ff        ..      B        0xf494 ; uint64_to_hexstr + 44
        0x0000f494:    980a        ..      LDR      r0,[sp,#0x28]
        0x0000f496:    990b        ..      LDR      r1,[sp,#0x2c]
        0x0000f498:    4308        .C      ORRS     r0,r0,r1
        0x0000f49a:    b350        P.      CBZ      r0,0xf4f2 ; uint64_to_hexstr + 138
        0x0000f49c:    e7ff        ..      B        0xf49e ; uint64_to_hexstr + 54
        0x0000f49e:    f89d0028    ..(.    LDRB     r0,[sp,#0x28]
        0x0000f4a2:    f000000f    ....    AND      r0,r0,#0xf
        0x0000f4a6:    f88d0017    ....    STRB     r0,[sp,#0x17]
        0x0000f4aa:    f89d0017    ....    LDRB     r0,[sp,#0x17]
        0x0000f4ae:    280a        .(      CMP      r0,#0xa
        0x0000f4b0:    db0d        ..      BLT      0xf4ce ; uint64_to_hexstr + 102
        0x0000f4b2:    e7ff        ..      B        0xf4b4 ; uint64_to_hexstr + 76
        0x0000f4b4:    f89d0023    ..#.    LDRB     r0,[sp,#0x23]
        0x0000f4b8:    07c0        ..      LSLS     r0,r0,#31
        0x0000f4ba:    2107        .!      MOVS     r1,#7
        0x0000f4bc:    2800        .(      CMP      r0,#0
        0x0000f4be:    bf18        ..      IT       NE
        0x0000f4c0:    2127        '!      MOVNE    r1,#0x27
        0x0000f4c2:    f89d0017    ....    LDRB     r0,[sp,#0x17]
        0x0000f4c6:    4408        .D      ADD      r0,r0,r1
        0x0000f4c8:    f88d0017    ....    STRB     r0,[sp,#0x17]
        0x0000f4cc:    e7ff        ..      B        0xf4ce ; uint64_to_hexstr + 102
        0x0000f4ce:    f89d0017    ....    LDRB     r0,[sp,#0x17]
        0x0000f4d2:    3030        00      ADDS     r0,r0,#0x30
        0x0000f4d4:    9a06        ..      LDR      r2,[sp,#0x18]
        0x0000f4d6:    1c51        Q.      ADDS     r1,r2,#1
        0x0000f4d8:    9106        ..      STR      r1,[sp,#0x18]
        0x0000f4da:    f10d0103    ....    ADD      r1,sp,#3
        0x0000f4de:    5488        .T      STRB     r0,[r1,r2]
        0x0000f4e0:    980a        ..      LDR      r0,[sp,#0x28]
        0x0000f4e2:    990b        ..      LDR      r1,[sp,#0x2c]
        0x0000f4e4:    0900        ..      LSRS     r0,r0,#4
        0x0000f4e6:    ea407001    @..p    ORR      r0,r0,r1,LSL #28
        0x0000f4ea:    0909        ..      LSRS     r1,r1,#4
        0x0000f4ec:    910b        ..      STR      r1,[sp,#0x2c]
        0x0000f4ee:    900a        ..      STR      r0,[sp,#0x28]
        0x0000f4f0:    e7d0        ..      B        0xf494 ; uint64_to_hexstr + 44
        0x0000f4f2:    9806        ..      LDR      r0,[sp,#0x18]
        0x0000f4f4:    9007        ..      STR      r0,[sp,#0x1c]
        0x0000f4f6:    9809        ..      LDR      r0,[sp,#0x24]
        0x0000f4f8:    b198        ..      CBZ      r0,0xf522 ; uint64_to_hexstr + 186
        0x0000f4fa:    e7ff        ..      B        0xf4fc ; uint64_to_hexstr + 148
        0x0000f4fc:    e7ff        ..      B        0xf4fe ; uint64_to_hexstr + 150
        0x0000f4fe:    9806        ..      LDR      r0,[sp,#0x18]
        0x0000f500:    1e41        A.      SUBS     r1,r0,#1
        0x0000f502:    9106        ..      STR      r1,[sp,#0x18]
        0x0000f504:    b148        H.      CBZ      r0,0xf51a ; uint64_to_hexstr + 178
        0x0000f506:    e7ff        ..      B        0xf508 ; uint64_to_hexstr + 160
        0x0000f508:    9906        ..      LDR      r1,[sp,#0x18]
        0x0000f50a:    f10d0003    ....    ADD      r0,sp,#3
        0x0000f50e:    5c40        @\      LDRB     r0,[r0,r1]
        0x0000f510:    9909        ..      LDR      r1,[sp,#0x24]
        0x0000f512:    1c4a        J.      ADDS     r2,r1,#1
        0x0000f514:    9209        ..      STR      r2,[sp,#0x24]
        0x0000f516:    7008        .p      STRB     r0,[r1,#0]
        0x0000f518:    e7f1        ..      B        0xf4fe ; uint64_to_hexstr + 150
        0x0000f51a:    9909        ..      LDR      r1,[sp,#0x24]
        0x0000f51c:    2000        .       MOVS     r0,#0
        0x0000f51e:    7008        .p      STRB     r0,[r1,#0]
        0x0000f520:    e7ff        ..      B        0xf522 ; uint64_to_hexstr + 186
        0x0000f522:    9807        ..      LDR      r0,[sp,#0x1c]
        0x0000f524:    b00c        ..      ADD      sp,sp,#0x30
        0x0000f526:    4770        pG      BX       lr
    uint64_to_str
        0x0000f528:    b580        ..      PUSH     {r7,lr}
        0x0000f52a:    b090        ..      SUB      sp,sp,#0x40
        0x0000f52c:    910f        ..      STR      r1,[sp,#0x3c]
        0x0000f52e:    900e        ..      STR      r0,[sp,#0x38]
        0x0000f530:    920d        ..      STR      r2,[sp,#0x34]
        0x0000f532:    2000        .       MOVS     r0,#0
        0x0000f534:    9005        ..      STR      r0,[sp,#0x14]
        0x0000f536:    9004        ..      STR      r0,[sp,#0x10]
        0x0000f538:    e7ff        ..      B        0xf53a ; uint64_to_str + 18
        0x0000f53a:    980e        ..      LDR      r0,[sp,#0x38]
        0x0000f53c:    990f        ..      LDR      r1,[sp,#0x3c]
        0x0000f53e:    f7fffb2f    ../.    BL       divu64_10 ; 0xeba0
        0x0000f542:    9101        ..      STR      r1,[sp,#4]
        0x0000f544:    9000        ..      STR      r0,[sp,#0]
        0x0000f546:    980e        ..      LDR      r0,[sp,#0x38]
        0x0000f548:    9900        ..      LDR      r1,[sp,#0]
        0x0000f54a:    eb010181    ....    ADD      r1,r1,r1,LSL #2
        0x0000f54e:    eba00041    ..A.    SUB      r0,r0,r1,LSL #1
        0x0000f552:    9003        ..      STR      r0,[sp,#0xc]
        0x0000f554:    9803        ..      LDR      r0,[sp,#0xc]
        0x0000f556:    3030        00      ADDS     r0,r0,#0x30
        0x0000f558:    9a05        ..      LDR      r2,[sp,#0x14]
        0x0000f55a:    1c51        Q.      ADDS     r1,r2,#1
        0x0000f55c:    9105        ..      STR      r1,[sp,#0x14]
        0x0000f55e:    f10d011b    ....    ADD      r1,sp,#0x1b
        0x0000f562:    5488        .T      STRB     r0,[r1,r2]
        0x0000f564:    9800        ..      LDR      r0,[sp,#0]
        0x0000f566:    9901        ..      LDR      r1,[sp,#4]
        0x0000f568:    910f        ..      STR      r1,[sp,#0x3c]
        0x0000f56a:    900e        ..      STR      r0,[sp,#0x38]
        0x0000f56c:    e7ff        ..      B        0xf56e ; uint64_to_str + 70
        0x0000f56e:    980e        ..      LDR      r0,[sp,#0x38]
        0x0000f570:    990f        ..      LDR      r1,[sp,#0x3c]
        0x0000f572:    4308        .C      ORRS     r0,r0,r1
        0x0000f574:    2800        .(      CMP      r0,#0
        0x0000f576:    d1e0        ..      BNE      0xf53a ; uint64_to_str + 18
        0x0000f578:    e7ff        ..      B        0xf57a ; uint64_to_str + 82
        0x0000f57a:    9805        ..      LDR      r0,[sp,#0x14]
        0x0000f57c:    9004        ..      STR      r0,[sp,#0x10]
        0x0000f57e:    980d        ..      LDR      r0,[sp,#0x34]
        0x0000f580:    b198        ..      CBZ      r0,0xf5aa ; uint64_to_str + 130
        0x0000f582:    e7ff        ..      B        0xf584 ; uint64_to_str + 92
        0x0000f584:    e7ff        ..      B        0xf586 ; uint64_to_str + 94
        0x0000f586:    9805        ..      LDR      r0,[sp,#0x14]
        0x0000f588:    1e41        A.      SUBS     r1,r0,#1
        0x0000f58a:    9105        ..      STR      r1,[sp,#0x14]
        0x0000f58c:    b148        H.      CBZ      r0,0xf5a2 ; uint64_to_str + 122
        0x0000f58e:    e7ff        ..      B        0xf590 ; uint64_to_str + 104
        0x0000f590:    9905        ..      LDR      r1,[sp,#0x14]
        0x0000f592:    f10d001b    ....    ADD      r0,sp,#0x1b
        0x0000f596:    5c40        @\      LDRB     r0,[r0,r1]
        0x0000f598:    990d        ..      LDR      r1,[sp,#0x34]
        0x0000f59a:    1c4a        J.      ADDS     r2,r1,#1
        0x0000f59c:    920d        ..      STR      r2,[sp,#0x34]
        0x0000f59e:    7008        .p      STRB     r0,[r1,#0]
        0x0000f5a0:    e7f1        ..      B        0xf586 ; uint64_to_str + 94
        0x0000f5a2:    990d        ..      LDR      r1,[sp,#0x34]
        0x0000f5a4:    2000        .       MOVS     r0,#0
        0x0000f5a6:    7008        .p      STRB     r0,[r1,#0]
        0x0000f5a8:    e7ff        ..      B        0xf5aa ; uint64_to_str + 130
        0x0000f5aa:    9804        ..      LDR      r0,[sp,#0x10]
        0x0000f5ac:    b010        ..      ADD      sp,sp,#0x40
        0x0000f5ae:    bd80        ..      POP      {r7,pc}
    write_nonblocking
        0x0000f5b0:    e92d47f0    -..G    PUSH     {r4-r10,lr}
        0x0000f5b4:    b082        ..      SUB      sp,sp,#8
        0x0000f5b6:    2800        .(      CMP      r0,#0
        0x0000f5b8:    d050        P.      BEQ      0xf65c ; write_nonblocking + 172
        0x0000f5ba:    4606        .F      MOV      r6,r0
        0x0000f5bc:    6800        .h      LDR      r0,[r0,#0]
        0x0000f5be:    4615        .F      MOV      r5,r2
        0x0000f5c0:    f6496206    I..b    MOV      r2,#0x9e06
        0x0000f5c4:    f020407e     .~@    BIC      r0,r0,#0xfe000000
        0x0000f5c8:    f2c012ea    ....    MOVT     r2,#0x1ea
        0x0000f5cc:    4290        .B      CMP      r0,r2
        0x0000f5ce:    d145        E.      BNE      0xf65c ; write_nonblocking + 172
        0x0000f5d0:    2b00        .+      CMP      r3,#0
        0x0000f5d2:    4698        .F      MOV      r8,r3
        0x0000f5d4:    bf1c        ..      ITT      NE
        0x0000f5d6:    2000        .       MOVNE    r0,#0
        0x0000f5d8:    f8c80000    ....    STRNE    r0,[r8,#0]
        0x0000f5dc:    b3cd        ..      CBZ      r5,0xf652 ; write_nonblocking + 162
        0x0000f5de:    f896005d    ..].    LDRB     r0,[r6,#0x5d]
        0x0000f5e2:    2800        .(      CMP      r0,#0
        0x0000f5e4:    d03e        >.      BEQ      0xf664 ; write_nonblocking + 180
        0x0000f5e6:    6b30        0k      LDR      r0,[r6,#0x30]
        0x0000f5e8:    6b72        rk      LDR      r2,[r6,#0x34]
        0x0000f5ea:    f1060728    ..(.    ADD      r7,r6,#0x28
        0x0000f5ee:    1a10        ..      SUBS     r0,r2,r0
        0x0000f5f0:    f24c0900    L...    MOVW     r9,#0xc000
        0x0000f5f4:    42a8        .B      CMP      r0,r5
        0x0000f5f6:    bf38        8.      IT       CC
        0x0000f5f8:    4605        .F      MOVCC    r5,r0
        0x0000f5fa:    4638        8F      MOV      r0,r7
        0x0000f5fc:    462a        *F      MOV      r2,r5
        0x0000f5fe:    f2c40901    ....    MOVT     r9,#0x4001
        0x0000f602:    f7fef98d    ....    BL       am_hal_queue_item_add ; 0xd920
        0x0000f606:    6a74        tj      LDR      r4,[r6,#0x24]
        0x0000f608:    f7fdfebc    ....    BL       am_hal_interrupt_master_disable ; 0xd384
        0x0000f60c:    9000        ..      STR      r0,[sp,#0]
        0x0000f60e:    eb093404    ...4    ADD      r4,r9,r4,LSL #12
        0x0000f612:    69a0        .i      LDR      r0,[r4,#0x18]
        0x0000f614:    0680        ..      LSLS     r0,r0,#26
        0x0000f616:    d413        ..      BMI      0xf640 ; write_nonblocking + 144
        0x0000f618:    f10d0a07    ....    ADD      r10,sp,#7
        0x0000f61c:    4638        8F      MOV      r0,r7
        0x0000f61e:    4651        QF      MOV      r1,r10
        0x0000f620:    2201        ."      MOVS     r2,#1
        0x0000f622:    f7fefa63    ..c.    BL       am_hal_queue_item_get ; 0xdaec
        0x0000f626:    b158        X.      CBZ      r0,0xf640 ; write_nonblocking + 144
        0x0000f628:    6a70        pj      LDR      r0,[r6,#0x24]
        0x0000f62a:    f89d1007    ....    LDRB     r1,[sp,#7]
        0x0000f62e:    eb093000    ...0    ADD      r0,r9,r0,LSL #12
        0x0000f632:    6982        .i      LDR      r2,[r0,#0x18]
        0x0000f634:    0692        ..      LSLS     r2,r2,#26
        0x0000f636:    bf58        X.      IT       PL
        0x0000f638:    6001        .`      STRPL    r1,[r0,#0]
        0x0000f63a:    69a0        .i      LDR      r0,[r4,#0x18]
        0x0000f63c:    0680        ..      LSLS     r0,r0,#26
        0x0000f63e:    d5ed        ..      BPL      0xf61c ; write_nonblocking + 108
        0x0000f640:    9800        ..      LDR      r0,[sp,#0]
        0x0000f642:    f7fdfea7    ....    BL       am_hal_interrupt_master_set ; 0xd394
        0x0000f646:    4628        (F      MOV      r0,r5
        0x0000f648:    f1b80f00    ....    CMP      r8,#0
        0x0000f64c:    bf18        ..      IT       NE
        0x0000f64e:    f8c80000    ....    STRNE    r0,[r8,#0]
        0x0000f652:    2000        .       MOVS     r0,#0
        0x0000f654:    b002        ..      ADD      sp,sp,#8
        0x0000f656:    e8bd87f0    ....    POP      {r4-r10,pc}
        0x0000f65a:    bf00        ..      NOP      
        0x0000f65c:    2002        .       MOVS     r0,#2
        0x0000f65e:    b002        ..      ADD      sp,sp,#8
        0x0000f660:    e8bd87f0    ....    POP      {r4-r10,pc}
        0x0000f664:    6a70        pj      LDR      r0,[r6,#0x24]
        0x0000f666:    f24c0200    L...    MOVW     r2,#0xc000
        0x0000f66a:    f2c40201    ....    MOVT     r2,#0x4001
        0x0000f66e:    eb023200    ...2    ADD      r2,r2,r0,LSL #12
        0x0000f672:    f1c50c00    ....    RSB      r12,r5,#0
        0x0000f676:    2000        .       MOVS     r0,#0
        0x0000f678:    6997        .i      LDR      r7,[r2,#0x18]
        0x0000f67a:    06bf        ..      LSLS     r7,r7,#26
        0x0000f67c:    d4e4        ..      BMI      0xf648 ; write_nonblocking + 152
        0x0000f67e:    eb0c0700    ....    ADD      r7,r12,r0
        0x0000f682:    5c0e        .\      LDRB     r6,[r1,r0]
        0x0000f684:    1c7c        |.      ADDS     r4,r7,#1
        0x0000f686:    6016        .`      STR      r6,[r2,#0]
        0x0000f688:    d0dd        ..      BEQ      0xf646 ; write_nonblocking + 150
        0x0000f68a:    6996        .i      LDR      r6,[r2,#0x18]
        0x0000f68c:    06b6        ..      LSLS     r6,r6,#26
        0x0000f68e:    d415        ..      BMI      0xf6bc ; write_nonblocking + 268
        0x0000f690:    180e        ..      ADDS     r6,r1,r0
        0x0000f692:    7874        tx      LDRB     r4,[r6,#1]
        0x0000f694:    1cbb        ..      ADDS     r3,r7,#2
        0x0000f696:    6014        .`      STR      r4,[r2,#0]
        0x0000f698:    d0d5        ..      BEQ      0xf646 ; write_nonblocking + 150
        0x0000f69a:    6993        .i      LDR      r3,[r2,#0x18]
        0x0000f69c:    069b        ..      LSLS     r3,r3,#26
        0x0000f69e:    d40f        ..      BMI      0xf6c0 ; write_nonblocking + 272
        0x0000f6a0:    78b3        .x      LDRB     r3,[r6,#2]
        0x0000f6a2:    3703        .7      ADDS     r7,#3
        0x0000f6a4:    6013        .`      STR      r3,[r2,#0]
        0x0000f6a6:    d0ce        ..      BEQ      0xf646 ; write_nonblocking + 150
        0x0000f6a8:    6993        .i      LDR      r3,[r2,#0x18]
        0x0000f6aa:    069b        ..      LSLS     r3,r3,#26
        0x0000f6ac:    d40a        ..      BMI      0xf6c4 ; write_nonblocking + 276
        0x0000f6ae:    3004        .0      ADDS     r0,#4
        0x0000f6b0:    78f3        .x      LDRB     r3,[r6,#3]
        0x0000f6b2:    eb1c0700    ....    ADDS     r7,r12,r0
        0x0000f6b6:    6013        .`      STR      r3,[r2,#0]
        0x0000f6b8:    d1de        ..      BNE      0xf678 ; write_nonblocking + 200
        0x0000f6ba:    e7c4        ..      B        0xf646 ; write_nonblocking + 150
        0x0000f6bc:    3001        .0      ADDS     r0,#1
        0x0000f6be:    e7c3        ..      B        0xf648 ; write_nonblocking + 152
        0x0000f6c0:    3002        .0      ADDS     r0,#2
        0x0000f6c2:    e7c1        ..      B        0xf648 ; write_nonblocking + 152
        0x0000f6c4:    3003        .0      ADDS     r0,#3
        0x0000f6c6:    e7bf        ..      B        0xf648 ; write_nonblocking + 152
    $t
    x$fpl$d2f
    $v0
    __aeabi_d2f
    _d2f
        0x0000f6c8:    f0214200    !..B    BIC      r2,r1,#0x80000000
        0x0000f6cc:    f0014300    ...C    AND      r3,r1,#0x80000000
        0x0000f6d0:    f1a25260    ..`R    SUB      r2,r2,#0x38000000
        0x0000f6d4:    f5b21f80    ....    CMP      r2,#0x100000
        0x0000f6d8:    bf28        (.      IT       CS
        0x0000f6da:    f1d26c7f    ...l    RSBSCS   r12,r2,#0xff00000
        0x0000f6de:    d90b        ..      BLS      0xf6f8 ; __aeabi_d2f + 48
        0x0000f6e0:    ea5f1c00    _...    LSLS     r12,r0,#4
        0x0000f6e4:    ea4302c2    C...    ORR      r2,r3,r2,LSL #3
        0x0000f6e8:    eb427050    B.Pp    ADC      r0,r2,r0,LSR #29
        0x0000f6ec:    bf18        ..      IT       NE
        0x0000f6ee:    4770        pG      BXNE     lr
        0x0000f6f0:    bf28        (.      IT       CS
        0x0000f6f2:    f0200001     ...    BICCS    r0,r0,#1
        0x0000f6f6:    4770        pG      BX       lr
        0x0000f6f8:    f5b21f80    ....    CMP      r2,#0x100000
        0x0000f6fc:    bfbc        ..      ITT      LT
        0x0000f6fe:    4618        .F      MOVLT    r0,r3
        0x0000f700:    4770        pG      BXLT     lr
        0x0000f702:    ea4f0c41    O.A.    LSL      r12,r1,#1
        0x0000f706:    f51c1f00    ....    CMN      r12,#0x200000
        0x0000f70a:    d202        ..      BCS      0xf712 ; __aeabi_d2f + 74
        0x0000f70c:    4608        .F      MOV      r0,r1
        0x0000f70e:    f000b867    ..g.    B.W      __fpl_fretinf ; 0xf7e0
        0x0000f712:    b570        p.      PUSH     {r4-r6,lr}
        0x0000f714:    f000f809    ....    BL       __fpl_dnaninf ; 0xf72a
    $d
        0x0000f718:    89000000    ....    DCD    2298478592
    $t
        0x0000f71c:    f7ffbff6    ....    B.W      0xf70c ; __aeabi_d2f + 68
        0x0000f720:    f04f4000    O..@    MOV      r0,#0x80000000
        0x0000f724:    f5a00080    ....    SUB      r0,r0,#0x400000
        0x0000f728:    4770        pG      BX       lr
    x$fpl$dnaninf
    $v0
    __fpl_dnaninf
        0x0000f72a:    f10e0e02    ....    ADD      lr,lr,#2
        0x0000f72e:    f02e0e03    ....    BIC      lr,lr,#3
        0x0000f732:    f85e6b04    ^..k    LDR      r6,[lr],#4
        0x0000f736:    4236        6B      TST      r6,r6
        0x0000f738:    d405        ..      BMI      0xf746 ; __fpl_dnaninf + 28
        0x0000f73a:    2a01        .*      CMP      r2,#1
        0x0000f73c:    eb430503    C...    ADC      r5,r3,r3
        0x0000f740:    f5151f00    ....    CMN      r5,#0x200000
        0x0000f744:    d812        ..      BHI      0xf76c ; __fpl_dnaninf + 66
        0x0000f746:    2801        .(      CMP      r0,#1
        0x0000f748:    eb410c01    A...    ADC      r12,r1,r1
        0x0000f74c:    f51c1f00    ....    CMN      r12,#0x200000
        0x0000f750:    d80c        ..      BHI      0xf76c ; __fpl_dnaninf + 66
        0x0000f752:    d10e        ..      BNE      0xf772 ; __fpl_dnaninf + 72
        0x0000f754:    ea4f7cd1    O..|    LSR      r12,r1,#31
        0x0000f758:    eb0c0c4c    ..L.    ADD      r12,r12,r12,LSL #1
        0x0000f75c:    f10c0c02    ....    ADD      r12,r12,#2
        0x0000f760:    f5151f00    ....    CMN      r5,#0x200000
        0x0000f764:    bf08        ..      IT       EQ
        0x0000f766:    eb4c7cd3    L..|    ADCEQ    r12,r12,r3,LSR #31
        0x0000f76a:    e004        ..      B        0xf776 ; __fpl_dnaninf + 76
        0x0000f76c:    f04f0c08    O...    MOV      r12,#8
        0x0000f770:    e001        ..      B        0xf776 ; __fpl_dnaninf + 76
        0x0000f772:    ea4f7cd3    O..|    LSR      r12,r3,#31
        0x0000f776:    eb0c054c    ..L.    ADD      r5,r12,r12,LSL #1
        0x0000f77a:    fa26f605    &...    LSR      r6,r6,r5
        0x0000f77e:    f0060607    ....    AND      r6,r6,#7
        0x0000f782:    f1b60c04    ....    SUBS     r12,r6,#4
        0x0000f786:    d206        ..      BCS      0xf796 ; __fpl_dnaninf + 108
        0x0000f788:    eb0e0c86    ....    ADD      r12,lr,r6,LSL #2
        0x0000f78c:    e8bd4070    ..p@    POP      {r4-r6,lr}
        0x0000f790:    f04c0c01    L...    ORR      r12,r12,#1
        0x0000f794:    4760        `G      BX       r12
        0x0000f796:    e8dff00c    ....    TBB      [pc,r12]
    $d
        0x0000f79a:    0b09        ..      DCW    2825
        0x0000f79c:    0202        ..      DCW    514
    $t
        0x0000f79e:    f04f4100    O..A    MOV      r1,#0x80000000
        0x0000f7a2:    f5a12100    ...!    SUB      r1,r1,#0x80000
        0x0000f7a6:    f04f0000    O...    MOV      r0,#0
        0x0000f7aa:    bd70        p.      POP      {r4-r6,pc}
        0x0000f7ac:    4619        .F      MOV      r1,r3
        0x0000f7ae:    4610        .F      MOV      r0,r2
        0x0000f7b0:    2801        .(      CMP      r0,#1
        0x0000f7b2:    eb510401    Q...    ADCS     r4,r1,r1
        0x0000f7b6:    bf18        ..      IT       NE
        0x0000f7b8:    f5d41400    ....    RSBSNE   r4,r4,#0x200000
        0x0000f7bc:    bf84        ..      ITT      HI
        0x0000f7be:    2000        .       MOVHI    r0,#0
        0x0000f7c0:    f0014100    ...A    ANDHI    r1,r1,#0x80000000
        0x0000f7c4:    bd70        p.      POP      {r4-r6,pc}
    x$fpl$fpinit
    $v0
    _fp_init
        0x0000f7c6:    eef10a10    ....    VMRS     r0,FPSCR
        0x0000f7ca:    f64f71ff    O..q    MOV      r1,#0xffff
        0x0000f7ce:    f2c031c0    ...1    MOVT     r1,#0x3c0
        0x0000f7d2:    ea200001     ...    BIC      r0,r0,r1
        0x0000f7d6:    f0407040    @.@p    ORR      r0,r0,#0x3000000
        0x0000f7da:    eee10a10    ....    VMSR     FPSCR,r0
    __fplib_config_fpu_vfp
    __fplib_config_pureend_doubles
        0x0000f7de:    4770        pG      BX       lr
    x$fpl$fretinf
    $v0
    __fpl_fretinf
        0x0000f7e0:    21ff        .!      MOVS     r1,#0xff
        0x0000f7e2:    ea4150d0    A..P    ORR      r0,r1,r0,LSR #23
        0x0000f7e6:    05c0        ..      LSLS     r0,r0,#23
        0x0000f7e8:    4770        pG      BX       lr
    $d.realdata
    x$fpl$usenofp
    __I$use$fp
    am_hal_cachectrl_defaults
        0x0000f7ea:    0308        ..      DCW    776
        0x0000f7ec:    00000000    ....    DCD    0
    am_hal_pwrctrl_memory_control
        0x0000f7f0:    00000000    ....    DCD    0
        0x0000f7f4:    00000000    ....    DCD    0
        0x0000f7f8:    00000000    ....    DCD    0
        0x0000f7fc:    00000000    ....    DCD    0
        0x0000f800:    00000000    ....    DCD    0
        0x0000f804:    00000000    ....    DCD    0
        0x0000f808:    00000001    ....    DCD    1
        0x0000f80c:    00000001    ....    DCD    1
        0x0000f810:    00000001    ....    DCD    1
        0x0000f814:    00001fff    ....    DCD    8191
        0x0000f818:    00001fff    ....    DCD    8191
        0x0000f81c:    00000001    ....    DCD    1
        0x0000f820:    00000003    ....    DCD    3
        0x0000f824:    00000003    ....    DCD    3
        0x0000f828:    00000003    ....    DCD    3
        0x0000f82c:    00001fff    ....    DCD    8191
        0x0000f830:    00001fff    ....    DCD    8191
        0x0000f834:    00000003    ....    DCD    3
        0x0000f838:    00000007    ....    DCD    7
        0x0000f83c:    00000007    ....    DCD    7
        0x0000f840:    00000007    ....    DCD    7
        0x0000f844:    00001fff    ....    DCD    8191
        0x0000f848:    00001fff    ....    DCD    8191
        0x0000f84c:    00000007    ....    DCD    7
        0x0000f850:    0000000f    ....    DCD    15
        0x0000f854:    0000000f    ....    DCD    15
        0x0000f858:    0000000f    ....    DCD    15
        0x0000f85c:    00001fff    ....    DCD    8191
        0x0000f860:    00001fff    ....    DCD    8191
        0x0000f864:    0000000f    ....    DCD    15
        0x0000f868:    0000001f    ....    DCD    31
        0x0000f86c:    0000001f    ....    DCD    31
        0x0000f870:    0000001f    ....    DCD    31
        0x0000f874:    00001fff    ....    DCD    8191
        0x0000f878:    00001fff    ....    DCD    8191
        0x0000f87c:    0000001f    ....    DCD    31
        0x0000f880:    0000003f    ?...    DCD    63
        0x0000f884:    0000003f    ?...    DCD    63
        0x0000f888:    0000003f    ?...    DCD    63
        0x0000f88c:    00001fff    ....    DCD    8191
        0x0000f890:    00001fff    ....    DCD    8191
        0x0000f894:    0000003f    ?...    DCD    63
        0x0000f898:    0000007f    ....    DCD    127
        0x0000f89c:    0000007f    ....    DCD    127
        0x0000f8a0:    0000007f    ....    DCD    127
        0x0000f8a4:    00001fff    ....    DCD    8191
        0x0000f8a8:    00001fff    ....    DCD    8191
        0x0000f8ac:    0000007f    ....    DCD    127
        0x0000f8b0:    000000ff    ....    DCD    255
        0x0000f8b4:    000000ff    ....    DCD    255
        0x0000f8b8:    000000ff    ....    DCD    255
        0x0000f8bc:    00001fff    ....    DCD    8191
        0x0000f8c0:    00001fff    ....    DCD    8191
        0x0000f8c4:    000000ff    ....    DCD    255
        0x0000f8c8:    000001ff    ....    DCD    511
        0x0000f8cc:    000001ff    ....    DCD    511
        0x0000f8d0:    000001ff    ....    DCD    511
        0x0000f8d4:    00001fff    ....    DCD    8191
        0x0000f8d8:    00001fff    ....    DCD    8191
        0x0000f8dc:    000001ff    ....    DCD    511
        0x0000f8e0:    000003ff    ....    DCD    1023
        0x0000f8e4:    000003ff    ....    DCD    1023
        0x0000f8e8:    000003ff    ....    DCD    1023
        0x0000f8ec:    00001fff    ....    DCD    8191
        0x0000f8f0:    00001fff    ....    DCD    8191
        0x0000f8f4:    000003ff    ....    DCD    1023
        0x0000f8f8:    000007ff    ....    DCD    2047
        0x0000f8fc:    000007ff    ....    DCD    2047
        0x0000f900:    000007ff    ....    DCD    2047
        0x0000f904:    00001fff    ....    DCD    8191
        0x0000f908:    00001fff    ....    DCD    8191
        0x0000f90c:    000007ff    ....    DCD    2047
        0x0000f910:    00000fff    ....    DCD    4095
        0x0000f914:    00000fff    ....    DCD    4095
        0x0000f918:    00000fff    ....    DCD    4095
        0x0000f91c:    00001fff    ....    DCD    8191
        0x0000f920:    00001fff    ....    DCD    8191
        0x0000f924:    00000fff    ....    DCD    4095
        0x0000f928:    00001fff    ....    DCD    8191
        0x0000f92c:    00001fff    ....    DCD    8191
        0x0000f930:    00001fff    ....    DCD    8191
        0x0000f934:    00001fff    ....    DCD    8191
        0x0000f938:    00001fff    ....    DCD    8191
        0x0000f93c:    00001fff    ....    DCD    8191
        0x0000f940:    00002000    . ..    DCD    8192
        0x0000f944:    00002000    . ..    DCD    8192
        0x0000f948:    00002000    . ..    DCD    8192
        0x0000f94c:    00006000    .`..    DCD    24576
        0x0000f950:    00006000    .`..    DCD    24576
        0x0000f954:    00002000    . ..    DCD    8192
        0x0000f958:    00006000    .`..    DCD    24576
        0x0000f95c:    00006000    .`..    DCD    24576
        0x0000f960:    00006000    .`..    DCD    24576
        0x0000f964:    00006000    .`..    DCD    24576
        0x0000f968:    00006000    .`..    DCD    24576
        0x0000f96c:    00006000    .`..    DCD    24576
        0x0000f970:    c0000000    ....    DCD    3221225472
        0x0000f974:    00000000    ....    DCD    0
        0x0000f978:    c0000000    ....    DCD    3221225472
        0x0000f97c:    c0000000    ....    DCD    3221225472
        0x0000f980:    00000000    ....    DCD    0
        0x0000f984:    80000000    ....    DCD    2147483648
        0x0000f988:    c0007fff    ....    DCD    3221258239
        0x0000f98c:    00007fff    ....    DCD    32767
        0x0000f990:    c0007fff    ....    DCD    3221258239
        0x0000f994:    c0007fff    ....    DCD    3221258239
        0x0000f998:    00007fff    ....    DCD    32767
        0x0000f99c:    80007fff    ....    DCD    2147516415
    am_hal_pwrctrl_peripheral_control
        0x0000f9a0:    00000000    ....    DCD    0
        0x0000f9a4:    00000000    ....    DCD    0
        0x0000f9a8:    00000000    ....    DCD    0
        0x0000f9ac:    00000001    ....    DCD    1
        0x0000f9b0:    00000004    ....    DCD    4
        0x0000f9b4:    00000004    ....    DCD    4
        0x0000f9b8:    00000002    ....    DCD    2
        0x0000f9bc:    00000008    ....    DCD    8
        0x0000f9c0:    00000008    ....    DCD    8
        0x0000f9c4:    00000004    ....    DCD    4
        0x0000f9c8:    00000008    ....    DCD    8
        0x0000f9cc:    00000008    ....    DCD    8
        0x0000f9d0:    00000008    ....    DCD    8
        0x0000f9d4:    00000008    ....    DCD    8
        0x0000f9d8:    00000008    ....    DCD    8
        0x0000f9dc:    00000010    ....    DCD    16
        0x0000f9e0:    00000010    ....    DCD    16
        0x0000f9e4:    00000010    ....    DCD    16
        0x0000f9e8:    00000020     ...    DCD    32
        0x0000f9ec:    00000010    ....    DCD    16
        0x0000f9f0:    00000010    ....    DCD    16
        0x0000f9f4:    00000040    @...    DCD    64
        0x0000f9f8:    00000010    ....    DCD    16
        0x0000f9fc:    00000010    ....    DCD    16
        0x0000fa00:    00000080    ....    DCD    128
        0x0000fa04:    00000004    ....    DCD    4
        0x0000fa08:    00000004    ....    DCD    4
        0x0000fa0c:    00000100    ....    DCD    256
        0x0000fa10:    00000004    ....    DCD    4
        0x0000fa14:    00000004    ....    DCD    4
        0x0000fa18:    00000200    ....    DCD    512
        0x0000fa1c:    00000020     ...    DCD    32
        0x0000fa20:    00000020     ...    DCD    32
        0x0000fa24:    00000400    ....    DCD    1024
        0x0000fa28:    00000004    ....    DCD    4
        0x0000fa2c:    00000004    ....    DCD    4
        0x0000fa30:    00000800    ....    DCD    2048
        0x0000fa34:    00000040    @...    DCD    64
        0x0000fa38:    00000040    @...    DCD    64
        0x0000fa3c:    00001000    ....    DCD    4096
        0x0000fa40:    00000040    @...    DCD    64
        0x0000fa44:    00000040    @...    DCD    64
        0x0000fa48:    00002000    . ..    DCD    8192
        0x0000fa4c:    00000040    @...    DCD    64
        0x0000fa50:    00000040    @...    DCD    64
        0x0000fa54:    00004000    .@..    DCD    16384
        0x0000fa58:    00000080    ....    DCD    128
        0x0000fa5c:    00000080    ....    DCD    128
        0x0000fa60:    00008000    ....    DCD    32768
        0x0000fa64:    00000100    ....    DCD    256
        0x0000fa68:    00000100    ....    DCD    256
    g_AM_BSP_GPIO_COM_UART_RX
        0x0000fa6c:    00000000    ....    DCD    0
    g_AM_BSP_GPIO_COM_UART_TX
        0x0000fa70:    00000000    ....    DCD    0
    g_AM_HAL_GPIO_DISABLE
        0x0000fa74:    00000003    ....    DCD    3
    g_AM_HAL_GPIO_OUTPUT
        0x0000fa78:    00000403    ....    DCD    1027
    g_AM_HAL_GPIO_TRISTATE
        0x0000fa7c:    00000c03    ....    DCD    3075
    g_deepsleep_button0
        0x0000fa80:    00001003    ....    DCD    4099
    g_sBspUartConfig
        0x0000fa84:    0001c200    ....    DCD    115200
        0x0000fa88:    00000060    `...    DCD    96
        0x0000fa8c:    00000000    ....    DCD    0
        0x0000fa90:    00000000    ....    DCD    0
        0x0000fa94:    00000000    ....    DCD    0
        0x0000fa98:    00000012    ....    DCD    18
        0x0000fa9c:    00000000    ....    DCD    0
        0x0000faa0:    00000000    ....    DCD    0
        0x0000faa4:    00000000    ....    DCD    0
        0x0000faa8:    00000000    ....    DCD    0
    g_ui8Bit76Capabilities
        0x0000faac:    02800101    ....    DCD    41943297
        0x0000fab0:    80010180    ....    DCD    2147549568
        0x0000fab4:    80800101    ....    DCD    2155872513
        0x0000fab8:    80808080    ....    DCD    2155905152
        0x0000fabc:    80808080    ....    DCD    2155905152
        0x0000fac0:    80808008    ....    DCD    2155905032
        0x0000fac4:    01800180    ....    DCD    25166208
        0x0000fac8:    80808080    ....    DCD    2155905152
        0x0000facc:    80808080    ....    DCD    2155905152
        0x0000fad0:    01800402    ....    DCD    25166850
        0x0000fad4:    01010401    ....    DCD    16843777
        0x0000fad8:    80808080    ....    DCD    2155905152
        0x0000fadc:    80800101    ....    DCD    2155872513
        0x0000fae0:    80808080    ....    DCD    2155905152
        0x0000fae4:    80808080    ....    DCD    2155905152
        0x0000fae8:    80808080    ....    DCD    2155905152
        0x0000faec:    80808080    ....    DCD    2155905152
        0x0000faf0:    80808080    ....    DCD    2155905152
        0x0000faf4:    8080        ..      DCW    32896
    g_ui8Inpen
        0x0000faf6:    2323        ##      DCW    8995
        0x0000faf8:    03a16227    'b..    DCD    60908071
        0x0000fafc:    53031087    ...S    DCD    1392709767
        0x0000fb00:    8151e100    ..Q.    DCD    2169626880
        0x0000fb04:    c4055541    AU..    DCD    3288683841
        0x0000fb08:    b1014080    .@..    DCD    2969649280
        0x0000fb0c:    31144140    @A.1    DCD    823411008
        0x0000fb10:    f10031a0    .1..    DCD    4043321760
        0x0000fb14:    21911180    ...!    DCD    563155328
        0x0000fb18:    11e511c1    ....    DCD    300224961
        0x0000fb1c:    00373045    E07.    DCD    3616837
        0x0000fb20:    71003130    01.q    DCD    1895838000
        0x0000fb24:    31304000    .@01    DCD    825245696
        0x0000fb28:    01010100    ....    DCD    16843008
        0x0000fb2c:    01010101    ....    DCD    16843009
        0x0000fb30:    a0010101    ....    DCD    2684420353
        0x0000fb34:    0101a050    P...    DCD    16883792
        0x0000fb38:    a0010101    ....    DCD    2684420353
        0x0000fb3c:    50a0a0a0    ...P    DCD    1352704160
    g_ui8NCEtable
        0x0000fb40:    0112a4a3    ....    DCD    17999011
        0x0000fb44:    a4a2a1a0    ....    DCD    2762121632
        0x0000fb48:    92b502b3    ....    DCD    2461336243
        0x0000fb4c:    82858483    ....    DCD    2189788291
        0x0000fb50:    91019493    ....    DCD    2432799891
        0x0000fb54:    ffffffff    ....    DCD    4294967295
        0x0000fb58:    ffffffff    ....    DCD    4294967295
        0x0000fb5c:    00951201    ....    DCD    9769473
        0x0000fb60:    80028483    ....    DCD    2147648643
        0x0000fb64:    b2b5b401    ....    DCD    2998252545
        0x0000fb68:    0011a4a3    ....    DCD    1156259
        0x0000fb6c:    83828180    ....    DCD    2206368128
        0x0000fb70:    10850283    ....    DCD    277152387
        0x0000fb74:    90959493    ....    DCD    2425722003
        0x0000fb78:    a4a212a0    ....    DCD    2762085024
        0x0000fb7c:    00b2b101    ....    DCD    11710721
        0x0000fb80:    85b20280    ....    DCD    2243035776
        0x0000fb84:    94029190    ....    DCD    2483196304
        0x0000fb88:    a3a2a102    ....    DCD    2745344258
        0x0000fb8c:    00b311b0    ....    DCD    11735472
        0x0000fb90:    92950012    ....    DCD    2459238418
        0x0000fb94:    0102a4a3    ....    DCD    16950435
        0x0000fb98:    02b5b4b3    ....    DCD    45462707
        0x0000fb9c:    84828180    ....    DCD    2223145344
        0x0000fba0:    95920190    ....    DCD    2509373840
        0x0000fba4:    a0a501a3    ....    DCD    2695168419
        0x0000fba8:    b1b5b4b3    ....    DCD    2981475507
        0x0000fbac:    81008402    ....    DCD    2164294658
        0x0000fbb0:    00959493    ....    DCD    9802899
        0x0000fbb4:    a1a512a3    ....    DCD    2711949987
        0x0000fbb8:    b002b400    ....    DCD    2952967168
        0x0000fbbc:    84820201    ....    DCD    2223112705
        0x0000fbc0:    1001b190    ....    DCD    268546448
        0x0000fbc4:    a59211a0    ....    DCD    2777813408
        0x0000fbc8:    11b202b0    ....    DCD    296878768
        0x0000fbcc:    02828101    ....    DCD    42107137
        0x0000fbd0:    10959493    ....    DCD    278238355
        0x0000fbd4:    00a5a493    ....    DCD    10855571
        0x0000fbd8:    b512b1b0    ....    DCD    3037901232
        0x0000fbdc:    ffffffff    ....    DCD    4294967295
        0x0000fbe0:    ffffffff    ....    DCD    4294967295
        0x0000fbe4:    10119102    ....    DCD    269586690
        0x0000fbe8:    85820180    ....    DCD    2239889792
        0x0000fbec:    10029190    ....    DCD    268603792
        0x0000fbf0:    a5a200a0    ....    DCD    2778857632
        0x0000fbf4:    b185b4b3    ....    DCD    2978329779
        0x0000fbf8:    10020183    ....    DCD    268566915
        0x0000fbfc:    93928111    ....    DCD    2475852049
        0x0000fc00:    12a2a101    ....    DCD    312647937
        0x0000fc04:    81b211b0    ....    DCD    2175930800
        0x0000fc08:    80b20201    ....    DCD    2159149569
        0x0000fc0c:    809291a4    ....    DCD    2157089188
        0x0000fc10:    9200a190    ....    DCD    2449514896
        0x0000fc14:    8202b1a0    ....    DCD    2181214624
        0x0000fc18:    83858402    ....    DCD    2206565378
        0x0000fc1c:    84950083    ....    DCD    2224357507
        0x0000fc20:    10a5b4a3    ....    DCD    279295139
        0x0000fc24:    90b5b400    ....    DCD    2427827200
        0x0000fc28:    b50081b3    ....    DCD    3036709299
        0x0000fc2c:    00929111    ....    DCD    9605393
        0x0000fc30:    b0a2a110    ....    DCD    2963448080
        0x0000fc34:    0102b100    ....    DCD    16953600
        0x0000fc38:    11858410    ....    DCD    293962768
        0x0000fc3c:    00029401    ....    DCD    168961
        0x0000fc40:    10a5a480    ....    DCD    279291008
        0x0000fc44:    93a50090    ....    DCD    2477064336
        0x0000fc48:    94828101    ....    DCD    2491580673
        0x0000fc4c:    95b291b0    ....    DCD    2511507888
        0x0000fc50:    a0a20083    ....    DCD    2694971523
        0x0000fc54:    0100b193    ....    DCD    16822675
        0x0000fc58:    118502a3    ....    DCD    293929635
        0x0000fc5c:    a1b094b3    ....    DCD    2712704179
        0x0000fc60:    a2010200    ....    DCD    2717975040
        0x0000fc64:    02b5b401    ....    DCD    45462529
    g_ui8nCEpins
        0x0000fc68:    02070707    ....    DCD    34014983
        0x0000fc6c:    00080802    ....    DCD    526338
        0x0000fc70:    01020202    ....    DCD    16908802
        0x0000fc74:    01010101    ....    DCD    16843009
        0x0000fc78:    01010101    ....    DCD    16843009
        0x0000fc7c:    01010101    ....    DCD    16843009
        0x0000fc80:    01010101    ....    DCD    16843009
        0x0000fc84:    01010101    ....    DCD    16843009
        0x0000fc88:    01010101    ....    DCD    16843009
        0x0000fc8c:    08010101    ....    DCD    134283521
        0x0000fc90:    01010008    ....    DCD    16842760
        0x0000fc94:    01010101    ....    DCD    16843009
        0x0000fc98:    01010101    ....    DCD    16843009
        0x0000fc9c:    01010101    ....    DCD    16843009
        0x0000fca0:    01010101    ....    DCD    16843009
        0x0000fca4:    01010101    ....    DCD    16843009
        0x0000fca8:    01010101    ....    DCD    16843009
        0x0000fcac:    01010101    ....    DCD    16843009
        0x0000fcb0:    0101        ..      DCW    257
    .L.str
        0x0000fcb2:    6544        De      DCW    25924
        0x0000fcb4:    6c737065    epsl    DCD    1819504741
        0x0000fcb8:    20706565    eep     DCD    544236901
        0x0000fcbc:    656b6157    Wake    DCD    1701536087
        0x0000fcc0:    61784520     Exa    DCD    1635271968
        0x0000fcc4:    656c706d    mple    DCD    1701605485
        0x0000fcc8:    000a        ..      DCW    10
    .L.str
        0x0000fcca:    0a0a        ..      DCW    2570
        0x0000fccc:    0a0a0a0a    ....    DCD    168430090
        0x0000fcd0:    0a0a0a0a    ....    DCD    168430090
        0x0000fcd4:    0a0a0a0a    ....    DCD    168430090
        0x0000fcd8:    0a0a0a0a    ....    DCD    168430090
        0x0000fcdc:    00000000    ....    DCD    0
    Region$$Table$$Base
        0x0000fce0:    0000fd10    ....    DCD    64784
        0x0000fce4:    10001000    ....    DCD    268439552
        0x0000fce8:    00000028    (...    DCD    40
        0x0000fcec:    0000c170    p...    DCD    49520
        0x0000fcf0:    0000fd38    8...    DCD    64824
        0x0000fcf4:    10001028    (...    DCD    268439592
        0x0000fcf8:    00000240    @...    DCD    576
        0x0000fcfc:    0000c18c    ....    DCD    49548
        0x0000fd00:    0000fd38    8...    DCD    64824
        0x0000fd04:    10000000    ....    DCD    268435456
        0x0000fd08:    00001000    ....    DCD    4096
        0x0000fd0c:    0000c18c    ....    DCD    49548
    Region$$Table$$Limit

** Section #2 'RWMEM' (SHT_PROGBITS) [SHF_ALLOC + SHF_WRITE]
    Size   : 40 bytes (alignment 8)
    Address: 0x10001000

    0x10001000:   0a 00 00 00 03 00 00 00 1e 00 00 00 03 00 00 00    ................
    0x10001010:   0f 00 00 00 03 00 00 00 0e 00 00 00 03 00 00 00    ................
    0x10001020:   11 00 00 00 03 00 00 00                            ........


** Section #3 'RWMEM' (SHT_NOBITS) [SHF_ALLOC + SHF_WRITE]
    Size   : 576 bytes (alignment 8)
    Address: 0x10001028


** Section #4 'STACKMEM' (SHT_NOBITS) [SHF_ALLOC + SHF_WRITE]
    Size   : 4096 bytes (alignment 8)
    Address: 0x10000000


** Section #5 '.debug_abbrev' (SHT_PROGBITS)
    Size   : 1324 bytes


** Section #6 '.debug_frame' (SHT_PROGBITS)
    Size   : 5540 bytes


** Section #7 '.debug_info' (SHT_PROGBITS)
    Size   : 6995 bytes


** Section #8 '.debug_line' (SHT_PROGBITS)
    Size   : 6158 bytes


** Section #9 '.debug_ranges' (SHT_PROGBITS)
    Size   : 320 bytes


** Section #10 '.debug_str' (SHT_PROGBITS)
    Size   : 5611 bytes


** Section #11 '.symtab' (SHT_SYMTAB)
    Size   : 6688 bytes (alignment 4)
    String table #12 '.strtab'
    Last local symbol no. 216

    Symbol table .symtab (417 symbols, 216 local)

      #  Symbol Name                Value      Bind  Sec  Type  Vis  Size
    ========================================================================

      1  $d                         0x0000c000   Lc    1   --   De 
      2  $t                         0x0000c100   Lc    1   --   De 
      3  $d                         0x0000c130   Lc    1   --   De 
      4  $t                         0x0000c134   Lc    1   --   De 
      5  $d                         0x0000c168   Lc    1   --   De 
      6  $t                         0x0000c170   Lc    1   --   De 
      7  $d                         0x0000c1de   Lc    1   --   De 
      8  $t                         0x0000c1ec   Lc    1   --   De 
      9  $d                         0x0000c254   Lc    1   --   De 
     10  $t                         0x0000c258   Lc    1   --   De 
     11  $d                         0x0000c260   Lc    1   --   De 
     12  $t                         0x0000c264   Lc    1   --   De 
     13  $t.1                       0x0000c268   Lc    1   --   De 
     14  $d.4                       0x0000cae8   Lc    1   --   De 
     15  $t.5                       0x0000cafc   Lc    1   --   De 
     16  $d.1                       0x0000ccd4   Lc    1   --   De 
     17  $t.2                       0x0000cce0   Lc    1   --   De 
     18  $d.2                       0x0000d15a   Lc    1   --   De 
     19  $t.3                       0x0000d160   Lc    1   --   De 
     20  $d.7                       0x0000d310   Lc    1   --   De 
     21  $t.8                       0x0000d318   Lc    1   --   De 
     22  $d.5                       0x0000e058   Lc    1   --   De 
     23  $t.1                       0x0000e068   Lc    1   --   De 
     24  $d.4                       0x0000e5de   Lc    1   --   De 
     25  $t.5                       0x0000e644   Lc    1   --   De 
     26  $t                         0x0000f6c8   Lc    1   --   De 
     27  $d                         0x0000f718   Lc    1   --   De 
     28  $t                         0x0000f71c   Lc    1   --   De 
     29  $d                         0x0000f79a   Lc    1   --   De 
     30  $t                         0x0000f79e   Lc    1   --   De 
     31  $d.realdata                0x0000f7ea   Lc    1   --   De 
     32  $d.realdata                0x10001000   Lc    2   --   De 
     33  $d.realdata                0x10000000   Lc    4   --   De 
     34  deepsleep_wake.c           0x00000000   Lc  Abs  File  De 
     35  AM_HAL_GPIO_MASKBIT        0x0000c269   Lc    1  Code  De   0x1e
     36  __NVIC_EnableIRQ           0x0000c289   Lc    1  Code  De   0x30
     37  g_RTCseconds               0x10001098   Lc    3  Data  De   0x4
     38  .L.str                     0x0000fcb2   Lc    1  Data  De   0x18
     39  am_util_delay.c            0x00000000   Lc  Abs  File  De 
     40  am_util_stdio.c            0x00000000   Lc  Abs  File  De 
     41  decstr_to_int              0x0000eaf9   Lc    1  Code  De   0xa6
     42  simple_strlen              0x0000f431   Lc    1  Code  De   0x36
     43  padbuffer                  0x0000f0b5   Lc    1  Code  De   0x50
     44  ndigits_in_hex             0x0000f009   Lc    1  Code  De   0x3e
     45  uint64_to_hexstr           0x0000f469   Lc    1  Code  De   0xc0
     46  ndigits_in_u64             0x0000f079   Lc    1  Code  De   0x3c
     47  uint64_to_str              0x0000f529   Lc    1  Code  De   0x88
     48  ndigits_in_i64             0x0000f049   Lc    1  Code  De   0x30
     49  ftoa                       0x0000ecb9   Lc    1  Code  De   0x230
     50  divu64_10                  0x0000eba1   Lc    1  Code  De   0x118
     51  g_bTxtXlate                0x10001161   Lc    3  Data  De   0x1
     52  g_prfbuf                   0x10001168   Lc    3  Data  De   0x100
     53  .L.str                     0x0000fcca   Lc    1  Data  De   0x13
     54  am_devices_led.c           0x00000000   Lc  Abs  File  De 
     55  ../keil6/startup_keil6.s   0x00000000   Lc  Abs  File  De 
     56  STACK                      0x10000000   Lc    4  Sect  De   0x1000
     57  StackMem                   0x10000000   Lc    4  Data  De 
     58  HEAP                       0x10001268   Lc    3  Sect  De 
     59  HeapMem                    0x10001268   Lc    3  Data  De 
     60  RESET                      0x0000c000   Lc    1  Sect  De   0x134
     61  $v0                        0x0000c100   Lc    1   --   De 
     62  .text                      0x0000c1d4   Lc    1  Sect  De   0x18
     63  $v0                        0x0000c1d4   Lc    1   --   De 
     64  am_bsp.c                   0x00000000   Lc  Abs  File  De 
     65  g_sBspUartConfig           0x0000fa84   Lc    1  Data  De   0x28
     66  .L_MergedGlobals           0x10001088   Lc    3  Data  De   0x8
     67  g_ui32PrintInterface       0x10001088   Lc    3  Data  De   0x4
     68  g_sCOMUART                 0x1000108c   Lc    3  Data  De   0x4
     69  am_hal_cachectrl.c         0x00000000   Lc  Abs  File  De 
     70  set_LPMMODE                0x0000f209   Lc    1  Code  De   0xba
     71  set_SEDELAY                0x0000f375   Lc    1  Code  De   0xba
     72  set_RDWAIT                 0x0000f2c5   Lc    1  Code  De   0xae
     73  am_hal_clkgen.c            0x00000000   Lc  Abs  File  De 
     74  am_hal_flash.c             0x00000000   Lc  Abs  File  De 
     75  am_hal_gpio.c              0x00000000   Lc  Abs  File  De 
     76  g_ui8Bit76Capabilities     0x0000faac   Lc    1  Data  De   0x4a
     77  g_ui8Inpen                 0x0000faf6   Lc    1  Data  De   0x4a
     78  g_ui8nCEpins               0x0000fc68   Lc    1  Data  De   0x4a
     79  g_ui8NCEtable              0x0000fb40   Lc    1  Data  De   0x128
     80  am_hal_interrupt.c         0x00000000   Lc  Abs  File  De 
     81  am_hal_pwrctrl.c           0x00000000   Lc  Abs  File  De 
     82  .L_MergedGlobals           0x10001090   Lc    3  Data  De   0x2
     83  am_hal_rtc.c               0x00000000   Lc  Abs  File  De 
     84  am_hal_sysctrl.c           0x00000000   Lc  Abs  File  De 
     85  am_bsp_pins.c              0x00000000   Lc  Abs  File  De 
     86  am_hal_burst.c             0x00000000   Lc  Abs  File  De 
     87  g_bDisFromManual           0x10001160   Lc    3  Data  De   0x1
     88  .L_MergedGlobals           0x10001092   Lc    3  Data  De   0x2
     89  g_bEnFromManual            0x10001093   Lc    3  Data  De   0x1
     90  am_hal_itm.c               0x00000000   Lc  Abs  File  De 
     91  am_hal_reset.c             0x00000000   Lc  Abs  File  De 
     92  am_hal_tpiu.c              0x00000000   Lc  Abs  File  De 
     93  am_hal_uart.c              0x00000000   Lc  Abs  File  De 
     94  write_nonblocking          0x0000f5b1   Lc    1  Code  De   0x118
     95  read_nonblocking           0x0000f105   Lc    1  Code  De   0x102
     96  g_am_hal_uart_states       0x100010a0   Lc    3  Data  De   0xc0
     97  am_hal_queue.c             0x00000000   Lc  Abs  File  De 
     98  dc.s                       0x00000000   Lc  Abs  File  De 
     99  ../clib/heapaux.c          0x00000000   Lc  Abs  File  De 
    100  .text                      0x0000c1ec   Lc    1  Sect  De 
    101  ../clib/angel/startup.s    0x00000000   Lc  Abs  File  De 
    102  !!!main                    0x0000c134   Lc    1  Sect  De   0x8
    103  ../clib/angel/handlers.s   0x00000000   Lc  Abs  File  De 
    104  !!handler_copy             0x0000c170   Lc    1  Sect  De   0x1a
    105  ../fplib/d2f.s             0x00000000   Lc  Abs  File  De 
    106  x$fpl$d2f                  0x0000f6c8   Lc    1  Sect  De   0x62
    107  $v0                        0x0000f6c8   Lc    1   --   De 
    108  ../clib/angel/kernel.s     0x00000000   Lc  Abs  File  De 
    109  .ARM.Collect$$rtentry$$00000000
                                    0x0000c1b4   Lc    1  Sect  De 
    110  ../fplib/dnaninf.s         0x00000000   Lc  Abs  File  De 
    111  x$fpl$dnaninf              0x0000f72a   Lc    1  Sect  De   0x9c
    112  $v0                        0x0000f72a   Lc    1   --   De 
    113  ../fplib/fretinf.s         0x00000000   Lc  Abs  File  De 
    114  x$fpl$fretinf              0x0000f7e0   Lc    1  Sect  De   0xa
    115  $v0                        0x0000f7e0   Lc    1   --   De 
    116  ../fplib/usenofp.s         0x00000000   Lc  Abs  File  De 
    117  x$fpl$usenofp              0x0000f7ea   Lc    1  Sect  De 
    118  ../clib/angel/kernel.s     0x00000000   Lc  Abs  File  De 
    119  .ARM.Collect$$rtentry$$00000002
                                    0x0000c1b4   Lc    1  Sect  De 
    120  .ARM.Collect$$rtentry$$00000009
                                    0x0000c1ba   Lc    1  Sect  De 
    121  .ARM.Collect$$rtentry$$0000000A
                                    0x0000c1ba   Lc    1  Sect  De   0x4
    122  .ARM.Collect$$rtentry$$0000000C
                                    0x0000c1be   Lc    1  Sect  De 
    123  .ARM.Collect$$rtentry$$0000000D
                                    0x0000c1be   Lc    1  Sect  De   0x8
    124  ../clib/angel/kernel.s     0x00000000   Lc  Abs  File  De 
    125  .ARM.Collect$$rtentry$$00000004
                                    0x0000c1b4   Lc    1  Sect  De   0x6
    126  ../clib/angel/sys.s        0x00000000   Lc  Abs  File  De 
    127  .text                      0x0000c1f2   Lc    1  Sect  De   0x4a
    128  ../clib/stdlib.c           0x00000000   Lc  Abs  File  De 
    129  .text                      0x0000c23c   Lc    1  Sect  De 
    130  ../clib/angel/boardlib.s   0x00000000   Lc  Abs  File  De 
    131  ../clib/angel/boardlib.s   0x00000000   Lc  Abs  File  De 
    132  ../clib/angel/boardlib.s   0x00000000   Lc  Abs  File  De 
    133  ../clib/libinit.s          0x00000000   Lc  Abs  File  De 
    134  .ARM.Collect$$libinit$$00000000
                                    0x0000c1a8   Lc    1  Sect  De   0x2
    135  ../clib/angel/sys.s        0x00000000   Lc  Abs  File  De 
    136  .text                      0x0000c250   Lc    1  Sect  De   0x8
    137  .bss                       0x10001028   Lc    3  Sect  De   0x60
    138  ../clib/angel/kernel.s     0x00000000   Lc  Abs  File  De 
    139  .ARM.Collect$$rtexit$$00000000
                                    0x0000c1c6   Lc    1  Sect  De   0x2
    140  ../clib/libinit.s          0x00000000   Lc  Abs  File  De 
    141  .ARM.Collect$$libinit$$00000001
                                    0x0000c1aa   Lc    1  Sect  De   0x4
    142  .ARM.Collect$$libinit$$00000004
                                    0x0000c1ae   Lc    1  Sect  De 
    143  .ARM.Collect$$libinit$$00000006
                                    0x0000c1ae   Lc    1  Sect  De 
    144  .ARM.Collect$$libinit$$0000000C
                                    0x0000c1ae   Lc    1  Sect  De 
    145  .ARM.Collect$$libinit$$0000000E
                                    0x0000c1ae   Lc    1  Sect  De 
    146  .ARM.Collect$$libinit$$00000010
                                    0x0000c1ae   Lc    1  Sect  De 
    147  .ARM.Collect$$libinit$$00000013
                                    0x0000c1ae   Lc    1  Sect  De 
    148  .ARM.Collect$$libinit$$00000015
                                    0x0000c1ae   Lc    1  Sect  De 
    149  .ARM.Collect$$libinit$$00000017
                                    0x0000c1ae   Lc    1  Sect  De 
    150  .ARM.Collect$$libinit$$00000019
                                    0x0000c1ae   Lc    1  Sect  De 
    151  .ARM.Collect$$libinit$$0000001B
                                    0x0000c1ae   Lc    1  Sect  De 
    152  .ARM.Collect$$libinit$$0000001D
                                    0x0000c1ae   Lc    1  Sect  De 
    153  .ARM.Collect$$libinit$$0000001F
                                    0x0000c1ae   Lc    1  Sect  De 
    154  .ARM.Collect$$libinit$$00000021
                                    0x0000c1ae   Lc    1  Sect  De 
    155  .ARM.Collect$$libinit$$00000023
                                    0x0000c1ae   Lc    1  Sect  De 
    156  .ARM.Collect$$libinit$$00000025
                                    0x0000c1ae   Lc    1  Sect  De 
    157  .ARM.Collect$$libinit$$00000027
                                    0x0000c1ae   Lc    1  Sect  De 
    158  .ARM.Collect$$libinit$$0000002E
                                    0x0000c1ae   Lc    1  Sect  De 
    159  .ARM.Collect$$libinit$$00000030
                                    0x0000c1ae   Lc    1  Sect  De 
    160  .ARM.Collect$$libinit$$00000032
                                    0x0000c1ae   Lc    1  Sect  De 
    161  .ARM.Collect$$libinit$$00000034
                                    0x0000c1ae   Lc    1  Sect  De 
    162  .ARM.Collect$$libinit$$00000035
                                    0x0000c1ae   Lc    1  Sect  De   0x2
    163  ../clib/angel/kernel.s     0x00000000   Lc  Abs  File  De 
    164  .ARM.Collect$$rtexit$$00000002
                                    0x0000c1c8   Lc    1  Sect  De 
    165  .ARM.Collect$$rtexit$$00000003
                                    0x0000c1c8   Lc    1  Sect  De   0x4
    166  .ARM.Collect$$rtexit$$00000004
                                    0x0000c1cc   Lc    1  Sect  De   0x6
    167  ../clib/armsys.c           0x00000000   Lc  Abs  File  De 
    168  ../clib/armsys.c           0x00000000   Lc  Abs  File  De 
    169  ../fplib/fpinit.s          0x00000000   Lc  Abs  File  De 
    170  x$fpl$fpinit               0x0000f7c6   Lc    1  Sect  De   0x1a
    171  $v0                        0x0000f7c6   Lc    1   --   De 
    172  ../clib/angel/sysapp.c     0x00000000   Lc  Abs  File  De 
    173  .text                      0x0000c258   Lc    1  Sect  De 
    174  ../clib/angel/sysapp.c     0x00000000   Lc  Abs  File  De 
    175  ../clib/angel/boardlib.s   0x00000000   Lc  Abs  File  De 
    176  ../clib/armsys.c           0x00000000   Lc  Abs  File  De 
    177  ../clib/armsys.c           0x00000000   Lc  Abs  File  De 
    178  ../clib/libinit.s          0x00000000   Lc  Abs  File  De 
    179  .ARM.Collect$$libshutdown$$00000000
                                    0x0000c1b0   Lc    1  Sect  De   0x2
    180  ../clib/angel/sysapp.c     0x00000000   Lc  Abs  File  De 
    181  ../clib/angel/sysapp.c     0x00000000   Lc  Abs  File  De 
    182  ../clib/angel/sys.s        0x00000000   Lc  Abs  File  De 
    183  .text                      0x0000c264   Lc    1  Sect  De   0x2
    184  ../clib/angel/sys.s        0x00000000   Lc  Abs  File  De 
    185  .text                      0x0000c266   Lc    1  Sect  De 
    186  ../clib/heapalloc.c        0x00000000   Lc  Abs  File  De 
    187  ../clib/signal.c           0x00000000   Lc  Abs  File  De 
    188  ../clib/signal.c           0x00000000   Lc  Abs  File  De 
    189  ../clib/libinit.s          0x00000000   Lc  Abs  File  De 
    190  .ARM.Collect$$libshutdown$$00000002
                                    0x0000c1b2   Lc    1  Sect  De 
    191  .ARM.Collect$$libshutdown$$00000004
                                    0x0000c1b2   Lc    1  Sect  De 
    192  .ARM.Collect$$libshutdown$$00000007
                                    0x0000c1b2   Lc    1  Sect  De 
    193  .ARM.Collect$$libshutdown$$0000000A
                                    0x0000c1b2   Lc    1  Sect  De 
    194  .ARM.Collect$$libshutdown$$0000000C
                                    0x0000c1b2   Lc    1  Sect  De 
    195  .ARM.Collect$$libshutdown$$0000000F
                                    0x0000c1b2   Lc    1  Sect  De 
    196  .ARM.Collect$$libshutdown$$00000010
                                    0x0000c1b2   Lc    1  Sect  De   0x2
    197  ../clib/angel/rt.s         0x00000000   Lc  Abs  File  De 
    198  ../clib/signal.c           0x00000000   Lc  Abs  File  De 
    199  ../clib/signal.c           0x00000000   Lc  Abs  File  De 
    200  ../clib/signal.c           0x00000000   Lc  Abs  File  De 
    201  ../clib/signal.c           0x00000000   Lc  Abs  File  De 
    202  ../clib/angel/sysapp.c     0x00000000   Lc  Abs  File  De 
    203  ../clib/angel/sysapp.c     0x00000000   Lc  Abs  File  De 
    204  ../clib/signal.s           0x00000000   Lc  Abs  File  De 
    205  ../clib/signal.c           0x00000000   Lc  Abs  File  De 
    206  ../clib/signal.c           0x00000000   Lc  Abs  File  De 
    207  ../clib/signal.c           0x00000000   Lc  Abs  File  De 
    208  ../clib/signal.c           0x00000000   Lc  Abs  File  De 
    209  ../clib/signal.c           0x00000000   Lc  Abs  File  De 
    210  ../clib/signal.c           0x00000000   Lc  Abs  File  De 
    211  ../clib/signal.c           0x00000000   Lc  Abs  File  De 
    212  ../clib/signal.c           0x00000000   Lc  Abs  File  De 
    213  ../clib/angel/scatter.s    0x00000000   Lc  Abs  File  De 
    214  !!!scatter                 0x0000c13c   Lc    1  Sect  De   0x34
    215  ../clib/angel/handlers.s   0x00000000   Lc  Abs  File  De 
    216  !!handler_zi               0x0000c18c   Lc    1  Sect  De   0x1c
    217  BuildAttributes$$THM_ISAv4$E$P$D$K$B$S$7EM$VFPi3$EXTD16$VFPS$VFMA$PE$A:L22UL41UL21$X:L11$S22US41US21$IEEE1$IW$~IW$USESV6$~STKCKD$USESV7$~SHL$OTIME$ROPI$EBA8$UX$STANDARDLIB$REQ8$PRES8$EABIv2
                                    0x00000000   Gb  Abs   --   Hi 
    218  __Vectors                  0x0000c000   Gb    1  Data  Hi 
    219  __Patchable                0x0000c0c8   Gb    1  Data  Hi 
    220  Reset_Handler              0x0000c101   Wk    1  Code  Hi   0x1c
    221  HardFault_Handler          0x0000c11d   Wk    1  Code  Hi   0x2
    222  NMI_Handler                0x0000c11f   Wk    1  Code  Hi   0x2
    223  MemManage_Handler          0x0000c121   Wk    1  Code  Hi   0x2
    224  BusFault_Handler           0x0000c123   Wk    1  Code  Hi   0x2
    225  UsageFault_Handler         0x0000c125   Wk    1  Code  Hi   0x2
    226  SVC_Handler                0x0000c127   Wk    1  Code  Hi   0x2
    227  DebugMon_Handler           0x0000c129   Wk    1  Code  Hi   0x2
    228  PendSV_Handler             0x0000c12b   Wk    1  Code  Hi   0x2
    229  SysTick_Handler            0x0000c12d   Wk    1  Code  Hi   0x2
    230  am_adc_isr                 0x0000c12f   Wk    1  Code  Hi 
    231  am_ble_isr                 0x0000c12f   Wk    1  Code  Hi 
    232  am_brownout_isr            0x0000c12f   Wk    1  Code  Hi 
    233  am_clkgen_isr              0x0000c12f   Wk    1  Code  Hi 
    234  am_ctimer_isr              0x0000c12f   Wk    1  Code  Hi 
    235  am_iomaster0_isr           0x0000c12f   Wk    1  Code  Hi 
    236  am_iomaster1_isr           0x0000c12f   Wk    1  Code  Hi 
    237  am_iomaster2_isr           0x0000c12f   Wk    1  Code  Hi 
    238  am_iomaster3_isr           0x0000c12f   Wk    1  Code  Hi 
    239  am_iomaster4_isr           0x0000c12f   Wk    1  Code  Hi 
    240  am_iomaster5_isr           0x0000c12f   Wk    1  Code  Hi 
    241  am_ioslave_acc_isr         0x0000c12f   Wk    1  Code  Hi 
    242  am_ioslave_ios_isr         0x0000c12f   Wk    1  Code  Hi 
    243  am_mspi0_isr               0x0000c12f   Wk    1  Code  Hi 
    244  am_mspi1_isr               0x0000c12f   Wk    1  Code  Hi 
    245  am_mspi2_isr               0x0000c12f   Wk    1  Code  Hi 
    246  am_pdm0_isr                0x0000c12f   Wk    1  Code  Hi 
    247  am_scard_isr               0x0000c12f   Wk    1  Code  Hi 
    248  am_software0_isr           0x0000c12f   Wk    1  Code  Hi 
    249  am_stimer_cmpr0_isr        0x0000c12f   Wk    1  Code  Hi 
    250  am_stimer_cmpr1_isr        0x0000c12f   Wk    1  Code  Hi 
    251  am_stimer_cmpr2_isr        0x0000c12f   Wk    1  Code  Hi 
    252  am_stimer_cmpr3_isr        0x0000c12f   Wk    1  Code  Hi 
    253  am_stimer_cmpr4_isr        0x0000c12f   Wk    1  Code  Hi 
    254  am_stimer_cmpr5_isr        0x0000c12f   Wk    1  Code  Hi 
    255  am_stimer_cmpr6_isr        0x0000c12f   Wk    1  Code  Hi 
    256  am_stimer_cmpr7_isr        0x0000c12f   Wk    1  Code  Hi 
    257  am_stimer_isr              0x0000c12f   Wk    1  Code  Hi 
    258  am_uart0_isr               0x0000c12f   Wk    1  Code  Hi 
    259  am_uart1_isr               0x0000c12f   Wk    1  Code  Hi 
    260  am_uart_isr                0x0000c12f   Wk    1  Code  Hi 
    261  am_vcomp_isr               0x0000c12f   Wk    1  Code  Hi 
    262  am_watchdog_isr            0x0000c12f   Wk    1  Code  Hi 
    263  __main                     0x0000c135   Gb    1  Code  Hi   0x8
    264  __scatterload              0x0000c13d   Gb    1  Code  Hi 
    265  __scatterload_rt2          0x0000c13d   Gb    1  Code  Hi   0x2c
    266  __scatterload_rt2_thumb_only
                                    0x0000c13d   Gb    1  Code  Hi 
    267  __scatterload_null         0x0000c14b   Gb    1  Code  Hi 
    268  __scatterload_copy         0x0000c171   Gb    1  Code  Hi   0x1a
    269  __scatterload_zeroinit     0x0000c18d   Gb    1  Code  Hi   0x1c
    270  __rt_lib_init              0x0000c1a9   Gb    1  Code  De 
    271  __rt_lib_init_fp_1         0x0000c1ab   Gb    1  Code  Hi 
    272  __rt_lib_init_alloca_1     0x0000c1af   Gb    1  Code  Hi 
    273  __rt_lib_init_argv_1       0x0000c1af   Gb    1  Code  Hi 
    274  __rt_lib_init_atexit_1     0x0000c1af   Gb    1  Code  Hi 
    275  __rt_lib_init_clock_1      0x0000c1af   Gb    1  Code  Hi 
    276  __rt_lib_init_cpp_1        0x0000c1af   Gb    1  Code  Hi 
    277  __rt_lib_init_exceptions_1 0x0000c1af   Gb    1  Code  Hi 
    278  __rt_lib_init_fp_trap_1    0x0000c1af   Gb    1  Code  Hi 
    279  __rt_lib_init_getenv_1     0x0000c1af   Gb    1  Code  Hi 
    280  __rt_lib_init_heap_1       0x0000c1af   Gb    1  Code  Hi 
    281  __rt_lib_init_lc_collate_1 0x0000c1af   Gb    1  Code  Hi 
    282  __rt_lib_init_lc_ctype_1   0x0000c1af   Gb    1  Code  Hi 
    283  __rt_lib_init_lc_monetary_1
                                    0x0000c1af   Gb    1  Code  Hi 
    284  __rt_lib_init_lc_numeric_1 0x0000c1af   Gb    1  Code  Hi 
    285  __rt_lib_init_lc_time_1    0x0000c1af   Gb    1  Code  Hi 
    286  __rt_lib_init_preinit_1    0x0000c1af   Gb    1  Code  Hi 
    287  __rt_lib_init_rand_1       0x0000c1af   Gb    1  Code  Hi 
    288  __rt_lib_init_relocate_pie_1
                                    0x0000c1af   Gb    1  Code  Hi 
    289  __rt_lib_init_return       0x0000c1af   Gb    1  Code  Hi 
    290  __rt_lib_init_signal_1     0x0000c1af   Gb    1  Code  Hi 
    291  __rt_lib_init_stdio_1      0x0000c1af   Gb    1  Code  Hi 
    292  __rt_lib_init_user_alloc_1 0x0000c1af   Gb    1  Code  Hi 
    293  __rt_lib_shutdown          0x0000c1b1   Gb    1  Code  De 
    294  __rt_lib_shutdown_cpp_1    0x0000c1b3   Gb    1  Code  Hi 
    295  __rt_lib_shutdown_fp_trap_1
                                    0x0000c1b3   Gb    1  Code  Hi 
    296  __rt_lib_shutdown_heap_1   0x0000c1b3   Gb    1  Code  Hi 
    297  __rt_lib_shutdown_return   0x0000c1b3   Gb    1  Code  Hi 
    298  __rt_lib_shutdown_signal_1 0x0000c1b3   Gb    1  Code  Hi 
    299  __rt_lib_shutdown_stdio_1  0x0000c1b3   Gb    1  Code  Hi 
    300  __rt_lib_shutdown_user_alloc_1
                                    0x0000c1b3   Gb    1  Code  Hi 
    301  __rt_entry                 0x0000c1b5   Gb    1  Code  Hi 
    302  __rt_entry_presh_1         0x0000c1b5   Gb    1  Code  Hi 
    303  __rt_entry_sh              0x0000c1b5   Gb    1  Code  Hi 
    304  __rt_entry_li              0x0000c1bb   Gb    1  Code  Hi 
    305  __rt_entry_postsh_1        0x0000c1bb   Gb    1  Code  Hi 
    306  __rt_entry_main            0x0000c1bf   Gb    1  Code  Hi 
    307  __rt_entry_postli_1        0x0000c1bf   Gb    1  Code  Hi 
    308  __rt_exit                  0x0000c1c7   Gb    1  Code  De 
    309  __rt_exit_ls               0x0000c1c9   Gb    1  Code  Hi 
    310  __rt_exit_prels_1          0x0000c1c9   Gb    1  Code  Hi 
    311  __rt_exit_exit             0x0000c1cd   Gb    1  Code  Hi 
    312  __user_initial_stackheap   0x0000c1d5   Gb    1  Code  Hi   0xa
    313  __use_two_region_memory    0x0000c1ed   Gb    1  Code  Hi   0x2
    314  __rt_heap_escrow$2region   0x0000c1ef   Gb    1  Code  De   0x2
    315  __rt_heap_expand$2region   0x0000c1f1   Gb    1  Code  De   0x2
    316  __user_setup_stackheap     0x0000c1f3   Gb    1  Code  De   0x4a
    317  exit                       0x0000c23d   Gb    1  Code  De   0x12
    318  __user_libspace            0x0000c251   Wk    1  Code  De   0x8
    319  __user_perproc_libspace    0x0000c251   Wk    1  Code  De 
    320  __user_perthread_libspace  0x0000c251   Wk    1  Code  De 
    321  _sys_exit                  0x0000c259   Gb    1  Code  De   0x8
    322  __I$use$semihosting        0x0000c265   Gb    1  Code  Hi 
    323  __use_no_semihosting_swi   0x0000c265   Gb    1  Code  Hi   0x2
    324  __semihosting_library_function
                                    0x0000c267   Gb    1  Code  Hi 
    325  am_bsp_low_power_init      0x0000c2b9   Gb    1  Code  Hi   0xa2
    326  am_bsp_uart_printf_disable 0x0000c35d   Gb    1  Code  Hi   0x44
    327  am_bsp_uart_printf_enable  0x0000c3a1   Gb    1  Code  Hi   0x5e
    328  am_bsp_uart_string_print   0x0000c401   Gb    1  Code  Hi   0x5e
    329  am_devices_led_array_init  0x0000c461   Gb    1  Code  Hi   0x42
    330  am_devices_led_init        0x0000c4a5   Gb    1  Code  Hi   0x80
    331  am_devices_led_off         0x0000c525   Gb    1  Code  Hi   0x64
    332  am_devices_led_on          0x0000c589   Gb    1  Code  Hi   0x64
    333  am_devices_led_toggle      0x0000c5ed   Gb    1  Code  Hi   0x8e
    334  am_gpio_isr                0x0000c67d   Gb    1  Code  Hi   0x36
    335  am_hal_burst_ldo_charge    0x0000c6b5   Gb    1  Code  Hi   0xc4
    336  am_hal_burst_ldo_patch_check
                                    0x0000c779   Gb    1  Code  Hi   0x16
    337  am_hal_burst_mode_disable  0x0000c791   Gb    1  Code  Hi   0xb2
    338  am_hal_burst_mode_enable   0x0000c845   Gb    1  Code  Hi   0x78
    339  am_hal_burst_mode_enable_w_manual_sequence
                                    0x0000c8bd   Gb    1  Code  Hi   0x1d2
    340  am_hal_cachectrl_config    0x0000ca91   Gb    1  Code  Hi   0x48
    341  am_hal_cachectrl_control   0x0000cad9   Gb    1  Code  Hi   0x1c4
    342  am_hal_cachectrl_enable    0x0000cc9d   Gb    1  Code  Hi   0x14
    343  am_hal_clkgen_control      0x0000ccb1   Gb    1  Code  Hi   0x15a
    344  am_hal_clkgen_status_get   0x0000ce0d   Gb    1  Code  Hi   0x3a
    345  am_hal_flash_delay         0x0000ce49   Gb    1  Code  Hi   0x2a
    346  am_hal_flash_delay_status_check
                                    0x0000ce75   Gb    1  Code  Hi   0xb6
    347  am_hal_flash_load_ui32     0x0000cf2d   Gb    1  Code  Hi   0x8
    348  am_hal_flash_store_ui32    0x0000cf35   Gb    1  Code  Hi   0x2c
    349  am_hal_gpio_interrupt_clear
                                    0x0000cf61   Gb    1  Code  Hi   0x52
    350  am_hal_gpio_interrupt_enable
                                    0x0000cfb5   Gb    1  Code  Hi   0x4a
    351  am_hal_gpio_pinconfig      0x0000d001   Gb    1  Code  Hi   0x26a
    352  am_hal_gpio_state_read     0x0000d26d   Gb    1  Code  Hi   0x62
    353  am_hal_gpio_state_write    0x0000d2d1   Gb    1  Code  Hi   0xb4
    354  am_hal_interrupt_master_disable
                                    0x0000d385   Gb    1  Code  Hi   0x8
    355  am_hal_interrupt_master_enable
                                    0x0000d38d   Gb    1  Code  Hi   0x8
    356  am_hal_interrupt_master_set
                                    0x0000d395   Gb    1  Code  Hi   0x6
    357  am_hal_pwrctrl_low_power_init
                                    0x0000d39d   Gb    1  Code  Hi   0x1fe
    358  am_hal_pwrctrl_memory_deepsleep_powerdown
                                    0x0000d59d   Gb    1  Code  Hi   0x2c
    359  am_hal_pwrctrl_memory_deepsleep_retain
                                    0x0000d5c9   Gb    1  Code  Hi   0x2e
    360  am_hal_pwrctrl_memory_enable
                                    0x0000d5f9   Gb    1  Code  Hi   0x70
    361  am_hal_pwrctrl_periph_disable
                                    0x0000d669   Gb    1  Code  Hi   0xa8
    362  am_hal_pwrctrl_periph_enable
                                    0x0000d711   Gb    1  Code  Hi   0x76
    363  am_hal_pwrctrl_wa_vddf_boost
                                    0x0000d789   Gb    1  Code  Hi   0xc8
    364  am_hal_pwrctrl_wa_vddf_restore
                                    0x0000d851   Gb    1  Code  Hi   0xb8
    365  am_hal_queue_init          0x0000d909   Gb    1  Code  Hi   0x18
    366  am_hal_queue_item_add      0x0000d921   Gb    1  Code  Hi   0x1ca
    367  am_hal_queue_item_get      0x0000daed   Gb    1  Code  Hi   0x1dc
    368  am_hal_rtc_alarm_interval_set
                                    0x0000dcc9   Gb    1  Code  Hi   0x46
    369  am_hal_rtc_int_clear       0x0000dd11   Gb    1  Code  Hi   0xc
    370  am_hal_rtc_int_enable      0x0000dd1d   Gb    1  Code  Hi   0x10
    371  am_hal_rtc_osc_disable     0x0000dd2d   Gb    1  Code  Hi   0x12
    372  am_hal_rtc_osc_enable      0x0000dd41   Gb    1  Code  Hi   0x12
    373  am_hal_rtc_osc_select      0x0000dd55   Gb    1  Code  Hi   0x18
    374  am_hal_sysctrl_control     0x0000dd6d   Gb    1  Code  Hi   0xc
    375  am_hal_sysctrl_sleep       0x0000dd79   Gb    1  Code  Hi   0xaa
    376  am_hal_uart_buffer_configure
                                    0x0000de25   Gb    1  Code  Hi   0xce
    377  am_hal_uart_configure      0x0000def5   Gb    1  Code  Hi   0x164
    378  am_hal_uart_deinitialize   0x0000e069   Gb    1  Code  Hi   0x28
    379  am_hal_uart_initialize     0x0000e091   Gb    1  Code  Hi   0x54
    380  am_hal_uart_power_control  0x0000e0e5   Gb    1  Code  Hi   0x10e
    381  am_hal_uart_transfer       0x0000e1f5   Gb    1  Code  Hi   0x166
    382  am_hal_uart_tx_flush       0x0000e35d   Gb    1  Code  Hi   0x5a
    383  am_rtc_isr                 0x0000e3b9   Gb    1  Code  Hi   0x3a
    384  am_util_delay_ms           0x0000e3f5   Gb    1  Code  Hi   0x30
    385  am_util_stdio_printf       0x0000e425   Gb    1  Code  Hi   0x5c
    386  am_util_stdio_printf_init  0x0000e481   Gb    1  Code  Hi   0x14
    387  am_util_stdio_terminal_clear
                                    0x0000e495   Gb    1  Code  Hi   0x10
    388  am_util_stdio_vsprintf     0x0000e4a5   Gb    1  Code  Hi   0x654
    389  main                       0x0000eee9   Gb    1  Code  Hi   0x11e
    390  __aeabi_d2f                0x0000f6c9   Gb    1  Code  De 
    391  _d2f                       0x0000f6c9   Gb    1  Code  De   0x62
    392  __fpl_dnaninf              0x0000f72b   Gb    1  Code  De   0x9c
    393  _fp_init                   0x0000f7c7   Gb    1  Code  De   0x1a
    394  __fplib_config_fpu_vfp     0x0000f7df   Gb    1  Code  De 
    395  __fplib_config_pureend_doubles
                                    0x0000f7df   Gb    1  Code  De 
    396  __fpl_fretinf              0x0000f7e1   Gb    1  Code  De   0xa
    397  __I$use$fp                 0x0000f7ea   Gb    1   --   De 
    398  am_hal_cachectrl_defaults  0x0000f7ea   Gb    1  Data  Hi   0x3
    399  am_hal_pwrctrl_memory_control
                                    0x0000f7f0   Gb    1  Data  Hi   0x1b0
    400  am_hal_pwrctrl_peripheral_control
                                    0x0000f9a0   Gb    1  Data  Hi   0xcc
    401  g_AM_BSP_GPIO_COM_UART_RX  0x0000fa6c   Gb    1  Data  Hi   0x4
    402  g_AM_BSP_GPIO_COM_UART_TX  0x0000fa70   Gb    1  Data  Hi   0x4
    403  g_AM_HAL_GPIO_DISABLE      0x0000fa74   Gb    1  Data  Hi   0x4
    404  g_AM_HAL_GPIO_OUTPUT       0x0000fa78   Gb    1  Data  Hi   0x4
    405  g_AM_HAL_GPIO_TRISTATE     0x0000fa7c   Gb    1  Data  Hi   0x4
    406  g_deepsleep_button0        0x0000fa80   Gb    1  Data  Hi   0x4
    407  Region$$Table$$Base        0x0000fce0   Gb    1   --   Hi 
    408  Region$$Table$$Limit       0x0000fd10   Gb    1   --   Hi 
    409  am_bsp_psLEDs              0x10001000   Gb    2  Data  Hi   0x28
    410  __libspace_start           0x10001028   Gb    3  Data  De   0x60
    411  __temporary_stack_top$libspace
                                    0x10001088   Gb    3  Data  De 
    412  g_bSimobuckTrimsDone       0x10001090   Gb    3  Data  Hi   0x1
    413  g_bVddfTrimsDone           0x10001091   Gb    3  Data  Hi   0x1
    414  g_am_hal_burst_mode_available
                                    0x10001092   Gb    3  Data  Hi   0x1
    415  gAmHalResetStatus          0x10001094   Gb    3  Data  Hi   0x4
    416  g_am_hal_sysctrl_sleep_count
                                    0x1000109c   Gb    3  Data  Hi   0x4
    417  g_pfnCharPrint             0x10001164   Gb    3  Data  Hi   0x4


** Section #12 '.strtab' (SHT_STRTAB)
    Size   : 7192 bytes

            #  Offset String
        ====================================

            1      1: $d
            2      4: $t
            3      7: $t.1
            4     12: $d.4
            5     17: $t.5
            6     22: $d.1
            7     27: $t.2
            8     32: $d.2
            9     37: $t.3
           10     42: $d.7
           11     47: $t.8
           12     52: $d.5
           13     57: $d.realdata
           14     69: deepsleep_wake.c
           15     86: AM_HAL_GPIO_MASKBIT
           16    106: __NVIC_EnableIRQ
           17    123: g_RTCseconds
           18    136: .L.str
           19    143: am_util_delay.c
           20    159: am_util_stdio.c
           21    175: decstr_to_int
           22    189: simple_strlen
           23    203: padbuffer
           24    213: ndigits_in_hex
           25    228: uint64_to_hexstr
           26    245: ndigits_in_u64
           27    260: uint64_to_str
           28    274: ndigits_in_i64
           29    289: ftoa
           30    294: divu64_10
           31    304: g_bTxtXlate
           32    316: g_prfbuf
           33    325: am_devices_led.c
           34    342: ../keil6/startup_keil6.s
           35    367: STACK
           36    373: StackMem
           37    382: HEAP
           38    387: HeapMem
           39    395: RESET
           40    401: $v0
           41    405: .text
           42    411: am_bsp.c
           43    420: g_sBspUartConfig
           44    437: .L_MergedGlobals
           45    454: g_ui32PrintInterface
           46    475: g_sCOMUART
           47    486: am_hal_cachectrl.c
           48    505: set_LPMMODE
           49    517: set_SEDELAY
           50    529: set_RDWAIT
           51    540: am_hal_clkgen.c
           52    556: am_hal_flash.c
           53    571: am_hal_gpio.c
           54    585: g_ui8Bit76Capabilities
           55    608: g_ui8Inpen
           56    619: g_ui8nCEpins
           57    632: g_ui8NCEtable
           58    646: am_hal_interrupt.c
           59    665: am_hal_pwrctrl.c
           60    682: am_hal_rtc.c
           61    695: am_hal_sysctrl.c
           62    712: am_bsp_pins.c
           63    726: am_hal_burst.c
           64    741: g_bDisFromManual
           65    758: g_bEnFromManual
           66    774: am_hal_itm.c
           67    787: am_hal_reset.c
           68    802: am_hal_tpiu.c
           69    816: am_hal_uart.c
           70    830: write_nonblocking
           71    848: read_nonblocking
           72    865: g_am_hal_uart_states
           73    886: am_hal_queue.c
           74    901: dc.s
           75    906: ../clib/heapaux.c
           76    924: ../clib/angel/startup.s
           77    948: !!!main
           78    956: ../clib/angel/handlers.s
           79    981: !!handler_copy
           80    996: ../fplib/d2f.s
           81   1011: x$fpl$d2f
           82   1021: ../clib/angel/kernel.s
           83   1044: .ARM.Collect$$rtentry$$00000000
           84   1076: ../fplib/dnaninf.s
           85   1095: x$fpl$dnaninf
           86   1109: ../fplib/fretinf.s
           87   1128: x$fpl$fretinf
           88   1142: ../fplib/usenofp.s
           89   1161: x$fpl$usenofp
           90   1175: .ARM.Collect$$rtentry$$00000002
           91   1207: .ARM.Collect$$rtentry$$00000009
           92   1239: .ARM.Collect$$rtentry$$0000000A
           93   1271: .ARM.Collect$$rtentry$$0000000C
           94   1303: .ARM.Collect$$rtentry$$0000000D
           95   1335: .ARM.Collect$$rtentry$$00000004
           96   1367: ../clib/angel/sys.s
           97   1387: ../clib/stdlib.c
           98   1404: ../clib/angel/boardlib.s
           99   1429: ../clib/libinit.s
          100   1447: .ARM.Collect$$libinit$$00000000
          101   1479: .bss
          102   1484: .ARM.Collect$$rtexit$$00000000
          103   1515: .ARM.Collect$$libinit$$00000001
          104   1547: .ARM.Collect$$libinit$$00000004
          105   1579: .ARM.Collect$$libinit$$00000006
          106   1611: .ARM.Collect$$libinit$$0000000C
          107   1643: .ARM.Collect$$libinit$$0000000E
          108   1675: .ARM.Collect$$libinit$$00000010
          109   1707: .ARM.Collect$$libinit$$00000013
          110   1739: .ARM.Collect$$libinit$$00000015
          111   1771: .ARM.Collect$$libinit$$00000017
          112   1803: .ARM.Collect$$libinit$$00000019
          113   1835: .ARM.Collect$$libinit$$0000001B
          114   1867: .ARM.Collect$$libinit$$0000001D
          115   1899: .ARM.Collect$$libinit$$0000001F
          116   1931: .ARM.Collect$$libinit$$00000021
          117   1963: .ARM.Collect$$libinit$$00000023
          118   1995: .ARM.Collect$$libinit$$00000025
          119   2027: .ARM.Collect$$libinit$$00000027
          120   2059: .ARM.Collect$$libinit$$0000002E
          121   2091: .ARM.Collect$$libinit$$00000030
          122   2123: .ARM.Collect$$libinit$$00000032
          123   2155: .ARM.Collect$$libinit$$00000034
          124   2187: .ARM.Collect$$libinit$$00000035
          125   2219: .ARM.Collect$$rtexit$$00000002
          126   2250: .ARM.Collect$$rtexit$$00000003
          127   2281: .ARM.Collect$$rtexit$$00000004
          128   2312: ../clib/armsys.c
          129   2329: ../fplib/fpinit.s
          130   2347: x$fpl$fpinit
          131   2360: ../clib/angel/sysapp.c
          132   2383: .ARM.Collect$$libshutdown$$00000000
          133   2419: ../clib/heapalloc.c
          134   2439: ../clib/signal.c
          135   2456: .ARM.Collect$$libshutdown$$00000002
          136   2492: .ARM.Collect$$libshutdown$$00000004
          137   2528: .ARM.Collect$$libshutdown$$00000007
          138   2564: .ARM.Collect$$libshutdown$$0000000A
          139   2600: .ARM.Collect$$libshutdown$$0000000C
          140   2636: .ARM.Collect$$libshutdown$$0000000F
          141   2672: .ARM.Collect$$libshutdown$$00000010
          142   2708: ../clib/angel/rt.s
          143   2727: ../clib/signal.s
          144   2744: ../clib/angel/scatter.s
          145   2768: !!!scatter
          146   2779: !!handler_zi
          147   2792: BuildAttributes$$THM_ISAv4$E$P$D$K$B$S$7EM$VFPi3$EXTD16$VFPS$VFMA$PE$A:L22UL41UL21$X:L11$S22US41US21$IEEE1$IW$~IW$USESV6$~STKCKD$USESV7$~SHL$OTIME$ROPI$EBA8$UX$STANDARDLIB$REQ8$PRES8$EABIv2
          148   2982: __Vectors
          149   2992: __Patchable
          150   3004: Reset_Handler
          151   3018: HardFault_Handler
          152   3036: NMI_Handler
          153   3048: MemManage_Handler
          154   3066: BusFault_Handler
          155   3083: UsageFault_Handler
          156   3102: SVC_Handler
          157   3114: DebugMon_Handler
          158   3131: PendSV_Handler
          159   3146: SysTick_Handler
          160   3162: am_adc_isr
          161   3173: am_ble_isr
          162   3184: am_brownout_isr
          163   3200: am_clkgen_isr
          164   3214: am_ctimer_isr
          165   3228: am_iomaster0_isr
          166   3245: am_iomaster1_isr
          167   3262: am_iomaster2_isr
          168   3279: am_iomaster3_isr
          169   3296: am_iomaster4_isr
          170   3313: am_iomaster5_isr
          171   3330: am_ioslave_acc_isr
          172   3349: am_ioslave_ios_isr
          173   3368: am_mspi0_isr
          174   3381: am_mspi1_isr
          175   3394: am_mspi2_isr
          176   3407: am_pdm0_isr
          177   3419: am_scard_isr
          178   3432: am_software0_isr
          179   3449: am_stimer_cmpr0_isr
          180   3469: am_stimer_cmpr1_isr
          181   3489: am_stimer_cmpr2_isr
          182   3509: am_stimer_cmpr3_isr
          183   3529: am_stimer_cmpr4_isr
          184   3549: am_stimer_cmpr5_isr
          185   3569: am_stimer_cmpr6_isr
          186   3589: am_stimer_cmpr7_isr
          187   3609: am_stimer_isr
          188   3623: am_uart0_isr
          189   3636: am_uart1_isr
          190   3649: am_uart_isr
          191   3661: am_vcomp_isr
          192   3674: am_watchdog_isr
          193   3690: __main
          194   3697: __scatterload
          195   3711: __scatterload_rt2
          196   3729: __scatterload_rt2_thumb_only
          197   3758: __scatterload_null
          198   3777: __scatterload_copy
          199   3796: __scatterload_zeroinit
          200   3819: __rt_lib_init
          201   3833: __rt_lib_init_fp_1
          202   3852: __rt_lib_init_alloca_1
          203   3875: __rt_lib_init_argv_1
          204   3896: __rt_lib_init_atexit_1
          205   3919: __rt_lib_init_clock_1
          206   3941: __rt_lib_init_cpp_1
          207   3961: __rt_lib_init_exceptions_1
          208   3988: __rt_lib_init_fp_trap_1
          209   4012: __rt_lib_init_getenv_1
          210   4035: __rt_lib_init_heap_1
          211   4056: __rt_lib_init_lc_collate_1
          212   4083: __rt_lib_init_lc_ctype_1
          213   4108: __rt_lib_init_lc_monetary_1
          214   4136: __rt_lib_init_lc_numeric_1
          215   4163: __rt_lib_init_lc_time_1
          216   4187: __rt_lib_init_preinit_1
          217   4211: __rt_lib_init_rand_1
          218   4232: __rt_lib_init_relocate_pie_1
          219   4261: __rt_lib_init_return
          220   4282: __rt_lib_init_signal_1
          221   4305: __rt_lib_init_stdio_1
          222   4327: __rt_lib_init_user_alloc_1
          223   4354: __rt_lib_shutdown
          224   4372: __rt_lib_shutdown_cpp_1
          225   4396: __rt_lib_shutdown_fp_trap_1
          226   4424: __rt_lib_shutdown_heap_1
          227   4449: __rt_lib_shutdown_return
          228   4474: __rt_lib_shutdown_signal_1
          229   4501: __rt_lib_shutdown_stdio_1
          230   4527: __rt_lib_shutdown_user_alloc_1
          231   4558: __rt_entry
          232   4569: __rt_entry_presh_1
          233   4588: __rt_entry_sh
          234   4602: __rt_entry_li
          235   4616: __rt_entry_postsh_1
          236   4636: __rt_entry_main
          237   4652: __rt_entry_postli_1
          238   4672: __rt_exit
          239   4682: __rt_exit_ls
          240   4695: __rt_exit_prels_1
          241   4713: __rt_exit_exit
          242   4728: __user_initial_stackheap
          243   4753: __use_two_region_memory
          244   4777: __rt_heap_escrow$2region
          245   4802: __rt_heap_expand$2region
          246   4827: __user_setup_stackheap
          247   4850: exit
          248   4855: __user_libspace
          249   4871: __user_perproc_libspace
          250   4895: __user_perthread_libspace
          251   4921: _sys_exit
          252   4931: __I$use$semihosting
          253   4951: __use_no_semihosting_swi
          254   4976: __semihosting_library_function
          255   5007: am_bsp_low_power_init
          256   5029: am_bsp_uart_printf_disable
          257   5056: am_bsp_uart_printf_enable
          258   5082: am_bsp_uart_string_print
          259   5107: am_devices_led_array_init
          260   5133: am_devices_led_init
          261   5153: am_devices_led_off
          262   5172: am_devices_led_on
          263   5190: am_devices_led_toggle
          264   5212: am_gpio_isr
          265   5224: am_hal_burst_ldo_charge
          266   5248: am_hal_burst_ldo_patch_check
          267   5277: am_hal_burst_mode_disable
          268   5303: am_hal_burst_mode_enable
          269   5328: am_hal_burst_mode_enable_w_manual_sequence
          270   5371: am_hal_cachectrl_config
          271   5395: am_hal_cachectrl_control
          272   5420: am_hal_cachectrl_enable
          273   5444: am_hal_clkgen_control
          274   5466: am_hal_clkgen_status_get
          275   5491: am_hal_flash_delay
          276   5510: am_hal_flash_delay_status_check
          277   5542: am_hal_flash_load_ui32
          278   5565: am_hal_flash_store_ui32
          279   5589: am_hal_gpio_interrupt_clear
          280   5617: am_hal_gpio_interrupt_enable
          281   5646: am_hal_gpio_pinconfig
          282   5668: am_hal_gpio_state_read
          283   5691: am_hal_gpio_state_write
          284   5715: am_hal_interrupt_master_disable
          285   5747: am_hal_interrupt_master_enable
          286   5778: am_hal_interrupt_master_set
          287   5806: am_hal_pwrctrl_low_power_init
          288   5836: am_hal_pwrctrl_memory_deepsleep_powerdown
          289   5878: am_hal_pwrctrl_memory_deepsleep_retain
          290   5917: am_hal_pwrctrl_memory_enable
          291   5946: am_hal_pwrctrl_periph_disable
          292   5976: am_hal_pwrctrl_periph_enable
          293   6005: am_hal_pwrctrl_wa_vddf_boost
          294   6034: am_hal_pwrctrl_wa_vddf_restore
          295   6065: am_hal_queue_init
          296   6083: am_hal_queue_item_add
          297   6105: am_hal_queue_item_get
          298   6127: am_hal_rtc_alarm_interval_set
          299   6157: am_hal_rtc_int_clear
          300   6178: am_hal_rtc_int_enable
          301   6200: am_hal_rtc_osc_disable
          302   6223: am_hal_rtc_osc_enable
          303   6245: am_hal_rtc_osc_select
          304   6267: am_hal_sysctrl_control
          305   6290: am_hal_sysctrl_sleep
          306   6311: am_hal_uart_buffer_configure
          307   6340: am_hal_uart_configure
          308   6362: am_hal_uart_deinitialize
          309   6387: am_hal_uart_initialize
          310   6410: am_hal_uart_power_control
          311   6436: am_hal_uart_transfer
          312   6457: am_hal_uart_tx_flush
          313   6478: am_rtc_isr
          314   6489: am_util_delay_ms
          315   6506: am_util_stdio_printf
          316   6527: am_util_stdio_printf_init
          317   6553: am_util_stdio_terminal_clear
          318   6582: am_util_stdio_vsprintf
          319   6605: main
          320   6610: __aeabi_d2f
          321   6622: _d2f
          322   6627: __fpl_dnaninf
          323   6641: _fp_init
          324   6650: __fplib_config_fpu_vfp
          325   6673: __fplib_config_pureend_doubles
          326   6704: __fpl_fretinf
          327   6718: __I$use$fp
          328   6729: am_hal_cachectrl_defaults
          329   6755: am_hal_pwrctrl_memory_control
          330   6785: am_hal_pwrctrl_peripheral_control
          331   6819: g_AM_BSP_GPIO_COM_UART_RX
          332   6845: g_AM_BSP_GPIO_COM_UART_TX
          333   6871: g_AM_HAL_GPIO_DISABLE
          334   6893: g_AM_HAL_GPIO_OUTPUT
          335   6914: g_AM_HAL_GPIO_TRISTATE
          336   6937: g_deepsleep_button0
          337   6957: Region$$Table$$Base
          338   6977: Region$$Table$$Limit
          339   6998: am_bsp_psLEDs
          340   7012: __libspace_start
          341   7029: __temporary_stack_top$libspace
          342   7060: g_bSimobuckTrimsDone
          343   7081: g_bVddfTrimsDone
          344   7098: g_am_hal_burst_mode_available
          345   7128: gAmHalResetStatus
          346   7146: g_am_hal_sysctrl_sleep_count
          347   7175: g_pfnCharPrint
          348   7190: 
          349   7191: 


** Section #13 '.note' (SHT_NOTE)
    Size   : 32 bytes (alignment 4)


** Section #14 '.comment' (SHT_PROGBITS)
    Size   : 1508 bytes


** Section #15 '.shstrtab' (SHT_STRTAB)
    Size   : 144 bytes

            #  Offset String
        ====================================

            1      1: ROMEM
            2      7: RWMEM
            3     13: TCM
            4     17: STACKMEM
            5     26: .debug_abbrev
            6     40: .debug_frame
            7     53: .debug_info
            8     65: .debug_line
            9     77: .debug_ranges
           10     91: .debug_str
           11    102: .symtab
           12    110: .strtab
           13    118: .note
           14    124: .comment
           15    133: .shstrtab
           16    143: 


