
========================================================================

** ELF Header Information

    File Name: bin\iom_power_example.axf

    Machine class: ELFCLASS32 (32-bit)
    Data encoding: ELFDATA2LSB (Little endian)
    Header version: EV_CURRENT (Current version)
    Operating System ABI: none
    ABI Version: 0
    File Type: ET_EXEC (Executable) (2)
    Machine: EM_ARM (ARM)

    Image Entry point: 0x0000c135
    Flags: EF_ARM_HASENTRY + EF_ARM_ABI_FLOAT_HARD (0x05000402)

    ARM ELF revision: 5 (ABI version 2)

    Conforms to Hard float procedure-call standard

    Built with
    Component: Arm Compiler for Embedded 6.19 Tool: armasm [5e73cb00]
    Component: Arm Compiler for Embedded 6.19 Tool: armlink [5e73cb00]

    Header size: 52 bytes (0x34)
    Program header entry size: 32 bytes (0x20)
    Section header entry size: 40 bytes (0x28)

    Program header entries: 1
    Section header entries: 16

    Program header offset: 73284 (0x00011e44)
    Section header offset: 73316 (0x00011e64)

    Section header string table index: 15

========================================================================

** Program header #0 (PT_LOAD) [PF_X + PF_W + PF_R + PF_ARM_ENTRY]
    Size : 44848 bytes (24456 bytes in file)
    Virtual address: 0x0000c000 (Alignment 8)


========================================================================

** Section #1 'ROMEM' (SHT_PROGBITS) [SHF_ALLOC + SHF_EXECINSTR]
    Size   : 24228 bytes (alignment 4)
    Address: 0x0000c000

    $d
    RESET
    __Vectors
        0x0000c000:    10011000    ....    DCD    268505088
        0x0000c004:    0000c101    ....    DCD    49409
        0x0000c008:    0000c11f    ....    DCD    49439
        0x0000c00c:    0000c11d    ....    DCD    49437
        0x0000c010:    0000c121    !...    DCD    49441
        0x0000c014:    0000c123    #...    DCD    49443
        0x0000c018:    0000c125    %...    DCD    49445
        0x0000c01c:    00000000    ....    DCD    0
        0x0000c020:    00000000    ....    DCD    0
        0x0000c024:    00000000    ....    DCD    0
        0x0000c028:    00000000    ....    DCD    0
        0x0000c02c:    0000c127    '...    DCD    49447
        0x0000c030:    0000c129    )...    DCD    49449
        0x0000c034:    00000000    ....    DCD    0
        0x0000c038:    0000c12b    +...    DCD    49451
        0x0000c03c:    0000c12d    -...    DCD    49453
        0x0000c040:    0000c12f    /...    DCD    49455
        0x0000c044:    0000c12f    /...    DCD    49455
        0x0000c048:    0000c12f    /...    DCD    49455
        0x0000c04c:    0000c12f    /...    DCD    49455
        0x0000c050:    0000c12f    /...    DCD    49455
        0x0000c054:    0000c12f    /...    DCD    49455
        0x0000c058:    0000c12f    /...    DCD    49455
        0x0000c05c:    0000c12f    /...    DCD    49455
        0x0000c060:    0000c12f    /...    DCD    49455
        0x0000c064:    0000fe09    ....    DCD    65033
        0x0000c068:    0000c12f    /...    DCD    49455
        0x0000c06c:    0000c12f    /...    DCD    49455
        0x0000c070:    0000c12f    /...    DCD    49455
        0x0000c074:    0000c12f    /...    DCD    49455
        0x0000c078:    0000c865    e...    DCD    51301
        0x0000c07c:    0000c12f    /...    DCD    49455
        0x0000c080:    0000c12f    /...    DCD    49455
        0x0000c084:    0000c12f    /...    DCD    49455
        0x0000c088:    0000c12f    /...    DCD    49455
        0x0000c08c:    0000c12f    /...    DCD    49455
        0x0000c090:    0000c12f    /...    DCD    49455
        0x0000c094:    0000c12f    /...    DCD    49455
        0x0000c098:    0000c12f    /...    DCD    49455
        0x0000c09c:    0000c12f    /...    DCD    49455
        0x0000c0a0:    0000c12f    /...    DCD    49455
        0x0000c0a4:    0000c12f    /...    DCD    49455
        0x0000c0a8:    0000c12f    /...    DCD    49455
        0x0000c0ac:    0000c12f    /...    DCD    49455
        0x0000c0b0:    0000c12f    /...    DCD    49455
        0x0000c0b4:    0000c12f    /...    DCD    49455
        0x0000c0b8:    0000c12f    /...    DCD    49455
        0x0000c0bc:    0000c12f    /...    DCD    49455
        0x0000c0c0:    0000c12f    /...    DCD    49455
        0x0000c0c4:    0000c12f    /...    DCD    49455
    __Patchable
        0x0000c0c8:    00000000    ....    DCD    0
        0x0000c0cc:    00000000    ....    DCD    0
        0x0000c0d0:    00000000    ....    DCD    0
        0x0000c0d4:    00000000    ....    DCD    0
        0x0000c0d8:    00000000    ....    DCD    0
        0x0000c0dc:    00000000    ....    DCD    0
        0x0000c0e0:    00000000    ....    DCD    0
        0x0000c0e4:    00000000    ....    DCD    0
        0x0000c0e8:    00000000    ....    DCD    0
        0x0000c0ec:    00000000    ....    DCD    0
        0x0000c0f0:    00000000    ....    DCD    0
        0x0000c0f4:    00000000    ....    DCD    0
        0x0000c0f8:    00000000    ....    DCD    0
        0x0000c0fc:    00000000    ....    DCD    0
    $t
    $v0
    Reset_Handler
        0x0000c100:    f64e5088    N..P    MOV      r0,#0xed88
        0x0000c104:    f2ce0000    ....    MOVT     r0,#0xe000
        0x0000c108:    6801        .h      LDR      r1,[r0,#0]
        0x0000c10a:    f4410170    A.p.    ORR      r1,r1,#0xf00000
        0x0000c10e:    6001        .`      STR      r1,[r0,#0]
        0x0000c110:    f3bf8f4f    ..O.    DSB      
        0x0000c114:    f3bf8f6f    ..o.    ISB      
        0x0000c118:    4805        .H      LDR      r0,[pc,#20] ; [0xc130] = 0xc135
        0x0000c11a:    4700        .G      BX       r0
    HardFault_Handler
        0x0000c11c:    e7fe        ..      B        HardFault_Handler ; 0xc11c
    NMI_Handler
        0x0000c11e:    e7fe        ..      B        NMI_Handler ; 0xc11e
    MemManage_Handler
        0x0000c120:    e7fe        ..      B        MemManage_Handler ; 0xc120
    BusFault_Handler
        0x0000c122:    e7fe        ..      B        BusFault_Handler ; 0xc122
    UsageFault_Handler
        0x0000c124:    e7fe        ..      B        UsageFault_Handler ; 0xc124
    SVC_Handler
        0x0000c126:    e7fe        ..      B        SVC_Handler ; 0xc126
    DebugMon_Handler
        0x0000c128:    e7fe        ..      B        DebugMon_Handler ; 0xc128
    PendSV_Handler
        0x0000c12a:    e7fe        ..      B        PendSV_Handler ; 0xc12a
    SysTick_Handler
        0x0000c12c:    e7fe        ..      B        SysTick_Handler ; 0xc12c
    am_adc_isr
    am_ble_isr
    am_brownout_isr
    am_clkgen_isr
    am_gpio_isr
    am_iomaster0_isr
    am_iomaster1_isr
    am_iomaster2_isr
    am_iomaster4_isr
    am_iomaster5_isr
    am_ioslave_acc_isr
    am_ioslave_ios_isr
    am_mspi0_isr
    am_mspi1_isr
    am_mspi2_isr
    am_pdm0_isr
    am_rtc_isr
    am_scard_isr
    am_software0_isr
    am_stimer_cmpr0_isr
    am_stimer_cmpr1_isr
    am_stimer_cmpr2_isr
    am_stimer_cmpr3_isr
    am_stimer_cmpr4_isr
    am_stimer_cmpr5_isr
    am_stimer_cmpr6_isr
    am_stimer_cmpr7_isr
    am_stimer_isr
    am_uart0_isr
    am_uart1_isr
    am_uart_isr
    am_vcomp_isr
    am_watchdog_isr
        0x0000c12e:    e7fe        ..      B        am_adc_isr ; 0xc12e
    $d
        0x0000c130:    0000c135    5...    DCD    49461
    $t
    !!!main
    __main
        0x0000c134:    f000f802    ....    BL       __scatterload ; 0xc13c
        0x0000c138:    f000f83c    ..<.    BL       __rt_entry ; 0xc1b4
    !!!scatter
    __scatterload
    __scatterload_rt2
    __scatterload_rt2_thumb_only
        0x0000c13c:    a00a        ..      ADR      r0,{pc}+0x2c ; 0xc168
        0x0000c13e:    e8900c00    ....    LDM      r0,{r10,r11}
        0x0000c142:    4482        .D      ADD      r10,r10,r0
        0x0000c144:    4483        .D      ADD      r11,r11,r0
        0x0000c146:    f1aa0701    ....    SUB      r7,r10,#1
    __scatterload_null
        0x0000c14a:    45da        .E      CMP      r10,r11
        0x0000c14c:    d101        ..      BNE      0xc152 ; __scatterload_null + 8
        0x0000c14e:    f000f831    ..1.    BL       __rt_entry ; 0xc1b4
        0x0000c152:    f2af0e09    ....    ADR      lr,{pc}-7 ; 0xc14b
        0x0000c156:    e8ba000f    ....    LDM      r10!,{r0-r3}
        0x0000c15a:    f0130f01    ....    TST      r3,#1
        0x0000c15e:    bf18        ..      IT       NE
        0x0000c160:    1afb        ..      SUBNE    r3,r7,r3
        0x0000c162:    f0430301    C...    ORR      r3,r3,#1
        0x0000c166:    4718        .G      BX       r3
    $d
        0x0000c168:    00005d0c    .]..    DCD    23820
        0x0000c16c:    00005d3c    <]..    DCD    23868
    $t
    !!handler_copy
    __scatterload_copy
        0x0000c170:    3a10        .:      SUBS     r2,r2,#0x10
        0x0000c172:    bf24        $.      ITT      CS
        0x0000c174:    c878        x.      LDMCS    r0!,{r3-r6}
        0x0000c176:    c178        x.      STMCS    r1!,{r3-r6}
        0x0000c178:    d8fa        ..      BHI      __scatterload_copy ; 0xc170
        0x0000c17a:    0752        R.      LSLS     r2,r2,#29
        0x0000c17c:    bf24        $.      ITT      CS
        0x0000c17e:    c830        0.      LDMCS    r0!,{r4,r5}
        0x0000c180:    c130        0.      STMCS    r1!,{r4,r5}
        0x0000c182:    bf44        D.      ITT      MI
        0x0000c184:    6804        .h      LDRMI    r4,[r0,#0]
        0x0000c186:    600c        .`      STRMI    r4,[r1,#0]
        0x0000c188:    4770        pG      BX       lr
        0x0000c18a:    0000        ..      MOVS     r0,r0
    !!handler_zi
    __scatterload_zeroinit
        0x0000c18c:    2300        .#      MOVS     r3,#0
        0x0000c18e:    2400        .$      MOVS     r4,#0
        0x0000c190:    2500        .%      MOVS     r5,#0
        0x0000c192:    2600        .&      MOVS     r6,#0
        0x0000c194:    3a10        .:      SUBS     r2,r2,#0x10
        0x0000c196:    bf28        (.      IT       CS
        0x0000c198:    c178        x.      STMCS    r1!,{r3-r6}
        0x0000c19a:    d8fb        ..      BHI      0xc194 ; __scatterload_zeroinit + 8
        0x0000c19c:    0752        R.      LSLS     r2,r2,#29
        0x0000c19e:    bf28        (.      IT       CS
        0x0000c1a0:    c130        0.      STMCS    r1!,{r4,r5}
        0x0000c1a2:    bf48        H.      IT       MI
        0x0000c1a4:    600b        .`      STRMI    r3,[r1,#0]
        0x0000c1a6:    4770        pG      BX       lr
    .ARM.Collect$$libinit$$00000000
    __rt_lib_init
        0x0000c1a8:    b51f        ..      PUSH     {r0-r4,lr}
    .ARM.Collect$$libinit$$00000001
    __rt_lib_init_fp_1
        0x0000c1aa:    f005faf6    ....    BL       _fp_init ; 0x1179a
    .ARM.Collect$$libinit$$00000004
    .ARM.Collect$$libinit$$00000006
    .ARM.Collect$$libinit$$0000000C
    .ARM.Collect$$libinit$$0000000E
    .ARM.Collect$$libinit$$00000010
    .ARM.Collect$$libinit$$00000013
    .ARM.Collect$$libinit$$00000015
    .ARM.Collect$$libinit$$00000017
    .ARM.Collect$$libinit$$00000019
    .ARM.Collect$$libinit$$0000001B
    .ARM.Collect$$libinit$$0000001D
    .ARM.Collect$$libinit$$0000001F
    .ARM.Collect$$libinit$$00000021
    .ARM.Collect$$libinit$$00000023
    .ARM.Collect$$libinit$$00000025
    .ARM.Collect$$libinit$$00000027
    .ARM.Collect$$libinit$$0000002E
    .ARM.Collect$$libinit$$00000030
    .ARM.Collect$$libinit$$00000032
    .ARM.Collect$$libinit$$00000034
    .ARM.Collect$$libinit$$00000035
    __rt_lib_init_alloca_1
    __rt_lib_init_argv_1
    __rt_lib_init_atexit_1
    __rt_lib_init_clock_1
    __rt_lib_init_cpp_1
    __rt_lib_init_exceptions_1
    __rt_lib_init_fp_trap_1
    __rt_lib_init_getenv_1
    __rt_lib_init_heap_1
    __rt_lib_init_lc_collate_1
    __rt_lib_init_lc_ctype_1
    __rt_lib_init_lc_monetary_1
    __rt_lib_init_lc_numeric_1
    __rt_lib_init_lc_time_1
    __rt_lib_init_preinit_1
    __rt_lib_init_rand_1
    __rt_lib_init_relocate_pie_1
    __rt_lib_init_return
    __rt_lib_init_signal_1
    __rt_lib_init_stdio_1
    __rt_lib_init_user_alloc_1
        0x0000c1ae:    bd1f        ..      POP      {r0-r4,pc}
    .ARM.Collect$$libshutdown$$00000000
    __rt_lib_shutdown
        0x0000c1b0:    b510        ..      PUSH     {r4,lr}
    .ARM.Collect$$libshutdown$$00000002
    .ARM.Collect$$libshutdown$$00000004
    .ARM.Collect$$libshutdown$$00000007
    .ARM.Collect$$libshutdown$$0000000A
    .ARM.Collect$$libshutdown$$0000000C
    .ARM.Collect$$libshutdown$$0000000F
    .ARM.Collect$$libshutdown$$00000010
    __rt_lib_shutdown_cpp_1
    __rt_lib_shutdown_fp_trap_1
    __rt_lib_shutdown_heap_1
    __rt_lib_shutdown_return
    __rt_lib_shutdown_signal_1
    __rt_lib_shutdown_stdio_1
    __rt_lib_shutdown_user_alloc_1
        0x0000c1b2:    bd10        ..      POP      {r4,pc}
    .ARM.Collect$$rtentry$$00000000
    .ARM.Collect$$rtentry$$00000002
    .ARM.Collect$$rtentry$$00000004
    __rt_entry
    __rt_entry_presh_1
    __rt_entry_sh
        0x0000c1b4:    f000f81d    ....    BL       __user_setup_stackheap ; 0xc1f2
        0x0000c1b8:    4611        .F      MOV      r1,r2
    .ARM.Collect$$rtentry$$00000009
    .ARM.Collect$$rtentry$$0000000A
    __rt_entry_li
    __rt_entry_postsh_1
        0x0000c1ba:    f7fffff5    ....    BL       __rt_lib_init ; 0xc1a8
    .ARM.Collect$$rtentry$$0000000C
    .ARM.Collect$$rtentry$$0000000D
    __rt_entry_main
    __rt_entry_postli_1
        0x0000c1be:    f004fe13    ....    BL       main ; 0x10de8
        0x0000c1c2:    f000f83b    ..;.    BL       exit ; 0xc23c
    .ARM.Collect$$rtexit$$00000000
    __rt_exit
        0x0000c1c6:    b403        ..      PUSH     {r0,r1}
    .ARM.Collect$$rtexit$$00000002
    .ARM.Collect$$rtexit$$00000003
    __rt_exit_ls
    __rt_exit_prels_1
        0x0000c1c8:    f7fffff2    ....    BL       __rt_lib_shutdown ; 0xc1b0
    .ARM.Collect$$rtexit$$00000004
    __rt_exit_exit
        0x0000c1cc:    bc03        ..      POP      {r0,r1}
        0x0000c1ce:    f000f843    ..C.    BL       _sys_exit ; 0xc258
        0x0000c1d2:    0000        ..      MOVS     r0,r0
    .text
    $v0
    __user_initial_stackheap
        0x0000c1d4:    4802        .H      LDR      r0,[pc,#8] ; [0xc1e0] = 0x10015088
        0x0000c1d6:    4903        .I      LDR      r1,[pc,#12] ; [0xc1e4] = 0x10011000
        0x0000c1d8:    4a01        .J      LDR      r2,[pc,#4] ; [0xc1e0] = 0x10015088
        0x0000c1da:    4b03        .K      LDR      r3,[pc,#12] ; [0xc1e8] = 0x10010000
        0x0000c1dc:    4770        pG      BX       lr
    $d
        0x0000c1de:    0000        ..      DCW    0
        0x0000c1e0:    10015088    .P..    DCD    268521608
        0x0000c1e4:    10011000    ....    DCD    268505088
        0x0000c1e8:    10010000    ....    DCD    268500992
    $t
    .text
    __use_two_region_memory
        0x0000c1ec:    4770        pG      BX       lr
    __rt_heap_escrow$2region
        0x0000c1ee:    4770        pG      BX       lr
    __rt_heap_expand$2region
        0x0000c1f0:    4770        pG      BX       lr
    .text
    __user_setup_stackheap
        0x0000c1f2:    4675        uF      MOV      r5,lr
        0x0000c1f4:    f000f82c    ..,.    BL       __user_libspace ; 0xc250
        0x0000c1f8:    46ae        .F      MOV      lr,r5
        0x0000c1fa:    0005        ..      MOVS     r5,r0
        0x0000c1fc:    4669        iF      MOV      r1,sp
        0x0000c1fe:    4653        SF      MOV      r3,r10
        0x0000c200:    f0200007     ...    BIC      r0,r0,#7
        0x0000c204:    4685        .F      MOV      sp,r0
        0x0000c206:    b018        ..      ADD      sp,sp,#0x60
        0x0000c208:    b520         .      PUSH     {r5,lr}
        0x0000c20a:    f7ffffe3    ....    BL       __user_initial_stackheap ; 0xc1d4
        0x0000c20e:    e8bd4020    .. @    POP      {r5,lr}
        0x0000c212:    f04f0600    O...    MOV      r6,#0
        0x0000c216:    f04f0700    O...    MOV      r7,#0
        0x0000c21a:    f04f0800    O...    MOV      r8,#0
        0x0000c21e:    f04f0b00    O...    MOV      r11,#0
        0x0000c222:    46ac        .F      MOV      r12,r5
        0x0000c224:    e8ac09c0    ....    STM      r12!,{r6-r8,r11}
        0x0000c228:    e8ac09c0    ....    STM      r12!,{r6-r8,r11}
        0x0000c22c:    e8ac09c0    ....    STM      r12!,{r6-r8,r11}
        0x0000c230:    e8ac09c0    ....    STM      r12!,{r6-r8,r11}
        0x0000c234:    f0210107    !...    BIC      r1,r1,#7
        0x0000c238:    468d        .F      MOV      sp,r1
        0x0000c23a:    4770        pG      BX       lr
    .text
    exit
        0x0000c23c:    b510        ..      PUSH     {r4,lr}
        0x0000c23e:    4604        .F      MOV      r4,r0
        0x0000c240:    f3af8000    ....    NOP.W    
        0x0000c244:    4620         F      MOV      r0,r4
        0x0000c246:    e8bd4010    ...@    POP      {r4,lr}
        0x0000c24a:    f7ffbfbc    ....    B.W      __rt_exit ; 0xc1c6
        0x0000c24e:    0000        ..      MOVS     r0,r0
    .text
    __user_libspace
    __user_perproc_libspace
    __user_perthread_libspace
        0x0000c250:    4800        .H      LDR      r0,[pc,#0] ; [0xc254] = 0x100110e0
        0x0000c252:    4770        pG      BX       lr
    $d
        0x0000c254:    100110e0    ....    DCD    268505312
    $t
    .text
    _sys_exit
        0x0000c258:    4901        .I      LDR      r1,[pc,#4] ; [0xc260] = 0x20026
        0x0000c25a:    2018        .       MOVS     r0,#0x18
        0x0000c25c:    beab        ..      BKPT     #0xab
        0x0000c25e:    e7fe        ..      B        0xc25e ; _sys_exit + 6
    $d
        0x0000c260:    00020026    &...    DCD    131110
    $t
    .text
    __I$use$semihosting
    __use_no_semihosting_swi
        0x0000c264:    4770        pG      BX       lr
    .text
    __semihosting_library_function
        0x0000c266:    0000        ..      MOVS     r0,r0
    $t.14
    __NVIC_DisableIRQ
        0x0000c268:    b081        ..      SUB      sp,sp,#4
        0x0000c26a:    f88d0003    ....    STRB     r0,[sp,#3]
        0x0000c26e:    f99d0003    ....    LDRSB    r0,[sp,#3]
        0x0000c272:    2800        .(      CMP      r0,#0
        0x0000c274:    d412        ..      BMI      0xc29c ; __NVIC_DisableIRQ + 52
        0x0000c276:    e7ff        ..      B        0xc278 ; __NVIC_DisableIRQ + 16
        0x0000c278:    f99d1003    ....    LDRSB    r1,[sp,#3]
        0x0000c27c:    f001021f    ....    AND      r2,r1,#0x1f
        0x0000c280:    2001        .       MOVS     r0,#1
        0x0000c282:    4090        .@      LSLS     r0,r0,r2
        0x0000c284:    094a        J.      LSRS     r2,r1,#5
        0x0000c286:    f24e1180    N...    MOV      r1,#0xe180
        0x0000c28a:    f2ce0100    ....    MOVT     r1,#0xe000
        0x0000c28e:    f8410022    A.".    STR      r0,[r1,r2,LSL #2]
        0x0000c292:    f3bf8f4f    ..O.    DSB      
        0x0000c296:    f3bf8f6f    ..o.    ISB      
        0x0000c29a:    e7ff        ..      B        0xc29c ; __NVIC_DisableIRQ + 52
        0x0000c29c:    b001        ..      ADD      sp,sp,#4
        0x0000c29e:    4770        pG      BX       lr
    __NVIC_EnableIRQ
        0x0000c2a0:    b081        ..      SUB      sp,sp,#4
        0x0000c2a2:    f88d0003    ....    STRB     r0,[sp,#3]
        0x0000c2a6:    f99d0003    ....    LDRSB    r0,[sp,#3]
        0x0000c2aa:    2800        .(      CMP      r0,#0
        0x0000c2ac:    d40e        ..      BMI      0xc2cc ; __NVIC_EnableIRQ + 44
        0x0000c2ae:    e7ff        ..      B        0xc2b0 ; __NVIC_EnableIRQ + 16
        0x0000c2b0:    f99d1003    ....    LDRSB    r1,[sp,#3]
        0x0000c2b4:    f001021f    ....    AND      r2,r1,#0x1f
        0x0000c2b8:    2001        .       MOVS     r0,#1
        0x0000c2ba:    4090        .@      LSLS     r0,r0,r2
        0x0000c2bc:    094a        J.      LSRS     r2,r1,#5
        0x0000c2be:    f24e1100    N...    MOVW     r1,#0xe100
        0x0000c2c2:    f2ce0100    ....    MOVT     r1,#0xe000
        0x0000c2c6:    f8410022    A.".    STR      r0,[r1,r2,LSL #2]
        0x0000c2ca:    e7ff        ..      B        0xc2cc ; __NVIC_EnableIRQ + 44
        0x0000c2cc:    b001        ..      ADD      sp,sp,#4
        0x0000c2ce:    4770        pG      BX       lr
    am_bsp_iom_pins_disable
        0x0000c2d0:    b510        ..      PUSH     {r4,lr}
        0x0000c2d2:    2805        .(      CMP      r0,#5
        0x0000c2d4:    d900        ..      BLS      0xc2d8 ; am_bsp_iom_pins_disable + 8
        0x0000c2d6:    bd10        ..      POP      {r4,pc}
        0x0000c2d8:    ea410080    A...    ORR      r0,r1,r0,LSL #2
        0x0000c2dc:    2815        .(      CMP      r0,#0x15
        0x0000c2de:    bf88        ..      IT       HI
        0x0000c2e0:    bd10        ..      POPHI    {r4,pc}
        0x0000c2e2:    e8dff010    ....    TBH      [pc,r0,LSL #1]
    $d.12
        0x0000c2e6:    0019        ..      DCW    25
        0x0000c2e8:    00170041    A...    DCD    1507393
        0x0000c2ec:    00510017    ..Q.    DCD    5308439
        0x0000c2f0:    00170069    i...    DCD    1507433
        0x0000c2f4:    00790017    ..y.    DCD    7929879
        0x0000c2f8:    00170091    ....    DCD    1507473
        0x0000c2fc:    00a10017    ....    DCD    10551319
        0x0000c300:    001700b1    ....    DCD    1507505
        0x0000c304:    00c10017    ....    DCD    12648471
        0x0000c308:    001700d9    ....    DCD    1507545
        0x0000c30c:    00e90017    ....    DCD    15269911
        0x0000c310:    bf000101    ....    DCD    3204448513
    $t.13
        0x0000c314:    e7df        ..      B        0xc2d6 ; am_bsp_iom_pins_disable + 6
        0x0000c316:    bf00        ..      NOP      
        0x0000c318:    f64120c4    A..     MOV      r0,#0x1ac4
        0x0000c31c:    f2c00001    ....    MOVT     r0,#1
        0x0000c320:    6804        .h      LDR      r4,[r0,#0]
        0x0000c322:    2005        .       MOVS     r0,#5
        0x0000c324:    4621        !F      MOV      r1,r4
        0x0000c326:    f001fe51    ..Q.    BL       am_hal_gpio_pinconfig ; 0xdfcc
        0x0000c32a:    2006        .       MOVS     r0,#6
        0x0000c32c:    4621        !F      MOV      r1,r4
        0x0000c32e:    f001fe4d    ..M.    BL       am_hal_gpio_pinconfig ; 0xdfcc
        0x0000c332:    2007        .       MOVS     r0,#7
        0x0000c334:    4621        !F      MOV      r1,r4
        0x0000c336:    f001fe49    ..I.    BL       am_hal_gpio_pinconfig ; 0xdfcc
        0x0000c33a:    200d        .       MOVS     r0,#0xd
        0x0000c33c:    4621        !F      MOV      r1,r4
        0x0000c33e:    f001fe45    ..E.    BL       am_hal_gpio_pinconfig ; 0xdfcc
        0x0000c342:    2005        .       MOVS     r0,#5
        0x0000c344:    4621        !F      MOV      r1,r4
        0x0000c346:    f001fe41    ..A.    BL       am_hal_gpio_pinconfig ; 0xdfcc
        0x0000c34a:    2006        .       MOVS     r0,#6
        0x0000c34c:    4621        !F      MOV      r1,r4
        0x0000c34e:    f001fe3d    ..=.    BL       am_hal_gpio_pinconfig ; 0xdfcc
        0x0000c352:    2007        .       MOVS     r0,#7
        0x0000c354:    4621        !F      MOV      r1,r4
        0x0000c356:    f001fe39    ..9.    BL       am_hal_gpio_pinconfig ; 0xdfcc
        0x0000c35a:    2021        !       MOVS     r0,#0x21
        0x0000c35c:    4621        !F      MOV      r1,r4
        0x0000c35e:    e8bd4010    ...@    POP      {r4,lr}
        0x0000c362:    f001be33    ..3.    B.W      am_hal_gpio_pinconfig ; 0xdfcc
        0x0000c366:    bf00        ..      NOP      
        0x0000c368:    f64120c4    A..     MOV      r0,#0x1ac4
        0x0000c36c:    f2c00001    ....    MOVT     r0,#1
        0x0000c370:    6804        .h      LDR      r4,[r0,#0]
        0x0000c372:    2005        .       MOVS     r0,#5
        0x0000c374:    4621        !F      MOV      r1,r4
        0x0000c376:    f001fe29    ..).    BL       am_hal_gpio_pinconfig ; 0xdfcc
        0x0000c37a:    2006        .       MOVS     r0,#6
        0x0000c37c:    4621        !F      MOV      r1,r4
        0x0000c37e:    e8bd4010    ...@    POP      {r4,lr}
        0x0000c382:    f001be23    ..#.    B.W      am_hal_gpio_pinconfig ; 0xdfcc
        0x0000c386:    bf00        ..      NOP      
        0x0000c388:    f64120c4    A..     MOV      r0,#0x1ac4
        0x0000c38c:    f2c00001    ....    MOVT     r0,#1
        0x0000c390:    6804        .h      LDR      r4,[r0,#0]
        0x0000c392:    2008        .       MOVS     r0,#8
        0x0000c394:    4621        !F      MOV      r1,r4
        0x0000c396:    f001fe19    ....    BL       am_hal_gpio_pinconfig ; 0xdfcc
        0x0000c39a:    2009        .       MOVS     r0,#9
        0x0000c39c:    4621        !F      MOV      r1,r4
        0x0000c39e:    f001fe15    ....    BL       am_hal_gpio_pinconfig ; 0xdfcc
        0x0000c3a2:    200a        .       MOVS     r0,#0xa
        0x0000c3a4:    4621        !F      MOV      r1,r4
        0x0000c3a6:    f001fe11    ....    BL       am_hal_gpio_pinconfig ; 0xdfcc
        0x0000c3aa:    2022        "       MOVS     r0,#0x22
        0x0000c3ac:    4621        !F      MOV      r1,r4
        0x0000c3ae:    e8bd4010    ...@    POP      {r4,lr}
        0x0000c3b2:    f001be0b    ....    B.W      am_hal_gpio_pinconfig ; 0xdfcc
        0x0000c3b6:    bf00        ..      NOP      
        0x0000c3b8:    f64120c4    A..     MOV      r0,#0x1ac4
        0x0000c3bc:    f2c00001    ....    MOVT     r0,#1
        0x0000c3c0:    6804        .h      LDR      r4,[r0,#0]
        0x0000c3c2:    2008        .       MOVS     r0,#8
        0x0000c3c4:    4621        !F      MOV      r1,r4
        0x0000c3c6:    f001fe01    ....    BL       am_hal_gpio_pinconfig ; 0xdfcc
        0x0000c3ca:    2009        .       MOVS     r0,#9
        0x0000c3cc:    4621        !F      MOV      r1,r4
        0x0000c3ce:    e8bd4010    ...@    POP      {r4,lr}
        0x0000c3d2:    f001bdfb    ....    B.W      am_hal_gpio_pinconfig ; 0xdfcc
        0x0000c3d6:    bf00        ..      NOP      
        0x0000c3d8:    f64120c4    A..     MOV      r0,#0x1ac4
        0x0000c3dc:    f2c00001    ....    MOVT     r0,#1
        0x0000c3e0:    6804        .h      LDR      r4,[r0,#0]
        0x0000c3e2:    201b        .       MOVS     r0,#0x1b
        0x0000c3e4:    4621        !F      MOV      r1,r4
        0x0000c3e6:    f001fdf1    ....    BL       am_hal_gpio_pinconfig ; 0xdfcc
        0x0000c3ea:    2019        .       MOVS     r0,#0x19
        0x0000c3ec:    4621        !F      MOV      r1,r4
        0x0000c3ee:    f001fded    ....    BL       am_hal_gpio_pinconfig ; 0xdfcc
        0x0000c3f2:    201c        .       MOVS     r0,#0x1c
        0x0000c3f4:    4621        !F      MOV      r1,r4
        0x0000c3f6:    f001fde9    ....    BL       am_hal_gpio_pinconfig ; 0xdfcc
        0x0000c3fa:    200f        .       MOVS     r0,#0xf
        0x0000c3fc:    4621        !F      MOV      r1,r4
        0x0000c3fe:    e8bd4010    ...@    POP      {r4,lr}
        0x0000c402:    f001bde3    ....    B.W      am_hal_gpio_pinconfig ; 0xdfcc
        0x0000c406:    bf00        ..      NOP      
        0x0000c408:    f64120c4    A..     MOV      r0,#0x1ac4
        0x0000c40c:    f2c00001    ....    MOVT     r0,#1
        0x0000c410:    6804        .h      LDR      r4,[r0,#0]
        0x0000c412:    201b        .       MOVS     r0,#0x1b
        0x0000c414:    4621        !F      MOV      r1,r4
        0x0000c416:    f001fdd9    ....    BL       am_hal_gpio_pinconfig ; 0xdfcc
        0x0000c41a:    2019        .       MOVS     r0,#0x19
        0x0000c41c:    4621        !F      MOV      r1,r4
        0x0000c41e:    e8bd4010    ...@    POP      {r4,lr}
        0x0000c422:    f001bdd3    ....    B.W      am_hal_gpio_pinconfig ; 0xdfcc
        0x0000c426:    bf00        ..      NOP      
        0x0000c428:    f64120c4    A..     MOV      r0,#0x1ac4
        0x0000c42c:    f2c00001    ....    MOVT     r0,#1
        0x0000c430:    6804        .h      LDR      r4,[r0,#0]
        0x0000c432:    202a        *       MOVS     r0,#0x2a
        0x0000c434:    4621        !F      MOV      r1,r4
        0x0000c436:    f001fdc9    ....    BL       am_hal_gpio_pinconfig ; 0xdfcc
        0x0000c43a:    202b        +       MOVS     r0,#0x2b
        0x0000c43c:    4621        !F      MOV      r1,r4
        0x0000c43e:    f001fdc5    ....    BL       am_hal_gpio_pinconfig ; 0xdfcc
        0x0000c442:    2026        &       MOVS     r0,#0x26
        0x0000c444:    e046        F.      B        0xc4d4 ; am_bsp_iom_pins_disable + 516
        0x0000c446:    bf00        ..      NOP      
        0x0000c448:    f64120c4    A..     MOV      r0,#0x1ac4
        0x0000c44c:    f2c00001    ....    MOVT     r0,#1
        0x0000c450:    6804        .h      LDR      r4,[r0,#0]
        0x0000c452:    202a        *       MOVS     r0,#0x2a
        0x0000c454:    4621        !F      MOV      r1,r4
        0x0000c456:    f001fdb9    ....    BL       am_hal_gpio_pinconfig ; 0xdfcc
        0x0000c45a:    202b        +       MOVS     r0,#0x2b
        0x0000c45c:    4621        !F      MOV      r1,r4
        0x0000c45e:    e8bd4010    ...@    POP      {r4,lr}
        0x0000c462:    f001bdb3    ....    B.W      am_hal_gpio_pinconfig ; 0xdfcc
        0x0000c466:    bf00        ..      NOP      
        0x0000c468:    f64120c4    A..     MOV      r0,#0x1ac4
        0x0000c46c:    f2c00001    ....    MOVT     r0,#1
        0x0000c470:    6804        .h      LDR      r4,[r0,#0]
        0x0000c472:    2027        '       MOVS     r0,#0x27
        0x0000c474:    4621        !F      MOV      r1,r4
        0x0000c476:    f001fda9    ....    BL       am_hal_gpio_pinconfig ; 0xdfcc
        0x0000c47a:    2028        (       MOVS     r0,#0x28
        0x0000c47c:    4621        !F      MOV      r1,r4
        0x0000c47e:    f001fda5    ....    BL       am_hal_gpio_pinconfig ; 0xdfcc
        0x0000c482:    202c        ,       MOVS     r0,#0x2c
        0x0000c484:    4621        !F      MOV      r1,r4
        0x0000c486:    f001fda1    ....    BL       am_hal_gpio_pinconfig ; 0xdfcc
        0x0000c48a:    200d        .       MOVS     r0,#0xd
        0x0000c48c:    4621        !F      MOV      r1,r4
        0x0000c48e:    e8bd4010    ...@    POP      {r4,lr}
        0x0000c492:    f001bd9b    ....    B.W      am_hal_gpio_pinconfig ; 0xdfcc
        0x0000c496:    bf00        ..      NOP      
        0x0000c498:    f64120c4    A..     MOV      r0,#0x1ac4
        0x0000c49c:    f2c00001    ....    MOVT     r0,#1
        0x0000c4a0:    6804        .h      LDR      r4,[r0,#0]
        0x0000c4a2:    2027        '       MOVS     r0,#0x27
        0x0000c4a4:    4621        !F      MOV      r1,r4
        0x0000c4a6:    f001fd91    ....    BL       am_hal_gpio_pinconfig ; 0xdfcc
        0x0000c4aa:    2028        (       MOVS     r0,#0x28
        0x0000c4ac:    4621        !F      MOV      r1,r4
        0x0000c4ae:    e8bd4010    ...@    POP      {r4,lr}
        0x0000c4b2:    f001bd8b    ....    B.W      am_hal_gpio_pinconfig ; 0xdfcc
        0x0000c4b6:    bf00        ..      NOP      
        0x0000c4b8:    f64120c4    A..     MOV      r0,#0x1ac4
        0x0000c4bc:    f2c00001    ....    MOVT     r0,#1
        0x0000c4c0:    6804        .h      LDR      r4,[r0,#0]
        0x0000c4c2:    2030        0       MOVS     r0,#0x30
        0x0000c4c4:    4621        !F      MOV      r1,r4
        0x0000c4c6:    f001fd81    ....    BL       am_hal_gpio_pinconfig ; 0xdfcc
        0x0000c4ca:    202f        /       MOVS     r0,#0x2f
        0x0000c4cc:    4621        !F      MOV      r1,r4
        0x0000c4ce:    f001fd7d    ..}.    BL       am_hal_gpio_pinconfig ; 0xdfcc
        0x0000c4d2:    200c        .       MOVS     r0,#0xc
        0x0000c4d4:    4621        !F      MOV      r1,r4
        0x0000c4d6:    f001fd79    ..y.    BL       am_hal_gpio_pinconfig ; 0xdfcc
        0x0000c4da:    201d        .       MOVS     r0,#0x1d
        0x0000c4dc:    4621        !F      MOV      r1,r4
        0x0000c4de:    e8bd4010    ...@    POP      {r4,lr}
        0x0000c4e2:    f001bd73    ..s.    B.W      am_hal_gpio_pinconfig ; 0xdfcc
        0x0000c4e6:    bf00        ..      NOP      
        0x0000c4e8:    f64120c4    A..     MOV      r0,#0x1ac4
        0x0000c4ec:    f2c00001    ....    MOVT     r0,#1
        0x0000c4f0:    6804        .h      LDR      r4,[r0,#0]
        0x0000c4f2:    2030        0       MOVS     r0,#0x30
        0x0000c4f4:    4621        !F      MOV      r1,r4
        0x0000c4f6:    f001fd69    ..i.    BL       am_hal_gpio_pinconfig ; 0xdfcc
        0x0000c4fa:    2031        1       MOVS     r0,#0x31
        0x0000c4fc:    4621        !F      MOV      r1,r4
        0x0000c4fe:    e8bd4010    ...@    POP      {r4,lr}
        0x0000c502:    f001bd63    ..c.    B.W      am_hal_gpio_pinconfig ; 0xdfcc
        0x0000c506:    0000        ..      MOVS     r0,r0
    am_bsp_iom_pins_enable
        0x0000c508:    b570        p.      PUSH     {r4-r6,lr}
        0x0000c50a:    2805        .(      CMP      r0,#5
        0x0000c50c:    d900        ..      BLS      0xc510 ; am_bsp_iom_pins_enable + 8
        0x0000c50e:    bd70        p.      POP      {r4-r6,pc}
        0x0000c510:    ea410180    A...    ORR      r1,r1,r0,LSL #2
        0x0000c514:    2915        .)      CMP      r1,#0x15
        0x0000c516:    bf88        ..      IT       HI
        0x0000c518:    bd70        p.      POPHI    {r4-r6,pc}
        0x0000c51a:    f6412654    A.T&    MOV      r6,#0x1a54
        0x0000c51e:    f6412050    A.P     MOV      r0,#0x1a50
        0x0000c522:    2406        .$      MOVS     r4,#6
        0x0000c524:    f2c00601    ....    MOVT     r6,#1
        0x0000c528:    2505        .%      MOVS     r5,#5
        0x0000c52a:    f2c00001    ....    MOVT     r0,#1
        0x0000c52e:    e8dff011    ....    TBH      [pc,r1,LSL #1]
    $d.9
        0x0000c532:    0019        ..      DCW    25
        0x0000c534:    0017011b    ....    DCD    1507611
        0x0000c538:    00550017    ..U.    DCD    5570583
        0x0000c53c:    00170071    q...    DCD    1507441
        0x0000c540:    007d0017    ..}.    DCD    8192023
        0x0000c544:    00170099    ....    DCD    1507481
        0x0000c548:    00a50017    ....    DCD    10813463
        0x0000c54c:    001700c1    ....    DCD    1507521
        0x0000c550:    00cd0017    ....    DCD    13434903
        0x0000c554:    001700e9    ....    DCD    1507561
        0x0000c558:    00f50017    ....    DCD    16056343
        0x0000c55c:    bf000111    ....    DCD    3204448529
    $t.10
        0x0000c560:    e7d5        ..      B        0xc50e ; am_bsp_iom_pins_enable + 6
        0x0000c562:    bf00        ..      NOP      
        0x0000c564:    f6412024    A.$     MOV      r0,#0x1a24
        0x0000c568:    f2c00001    ....    MOVT     r0,#1
        0x0000c56c:    6801        .h      LDR      r1,[r0,#0]
        0x0000c56e:    2005        .       MOVS     r0,#5
        0x0000c570:    f001fd2c    ..,.    BL       am_hal_gpio_pinconfig ; 0xdfcc
        0x0000c574:    f641202c    A.,     MOV      r0,#0x1a2c
        0x0000c578:    f2c00001    ....    MOVT     r0,#1
        0x0000c57c:    6801        .h      LDR      r1,[r0,#0]
        0x0000c57e:    2006        .       MOVS     r0,#6
        0x0000c580:    f001fd24    ..$.    BL       am_hal_gpio_pinconfig ; 0xdfcc
        0x0000c584:    f6412028    A.(     MOV      r0,#0x1a28
        0x0000c588:    f2c00001    ....    MOVT     r0,#1
        0x0000c58c:    6801        .h      LDR      r1,[r0,#0]
        0x0000c58e:    2007        .       MOVS     r0,#7
        0x0000c590:    2507        .%      MOVS     r5,#7
        0x0000c592:    f001fd1b    ....    BL       am_hal_gpio_pinconfig ; 0xdfcc
        0x0000c596:    f6412020    A.      MOVW     r0,#0x1a20
        0x0000c59a:    f2c00001    ....    MOVT     r0,#1
        0x0000c59e:    6801        .h      LDR      r1,[r0,#0]
        0x0000c5a0:    200d        .       MOVS     r0,#0xd
        0x0000c5a2:    f001fd13    ....    BL       am_hal_gpio_pinconfig ; 0xdfcc
        0x0000c5a6:    f641203c    A.<     MOV      r0,#0x1a3c
        0x0000c5aa:    f2c00001    ....    MOVT     r0,#1
        0x0000c5ae:    6801        .h      LDR      r1,[r0,#0]
        0x0000c5b0:    2005        .       MOVS     r0,#5
        0x0000c5b2:    f001fd0b    ....    BL       am_hal_gpio_pinconfig ; 0xdfcc
        0x0000c5b6:    f6412034    A.4     MOV      r0,#0x1a34
        0x0000c5ba:    f2c00001    ....    MOVT     r0,#1
        0x0000c5be:    6801        .h      LDR      r1,[r0,#0]
        0x0000c5c0:    2006        .       MOVS     r0,#6
        0x0000c5c2:    f001fd03    ....    BL       am_hal_gpio_pinconfig ; 0xdfcc
        0x0000c5c6:    f6412630    A.0&    MOV      r6,#0x1a30
        0x0000c5ca:    f6412038    A.8     MOV      r0,#0x1a38
        0x0000c5ce:    2421        !$      MOVS     r4,#0x21
        0x0000c5d0:    f2c00601    ....    MOVT     r6,#1
        0x0000c5d4:    f2c00001    ....    MOVT     r0,#1
        0x0000c5d8:    e0c6        ..      B        0xc768 ; am_bsp_iom_pins_enable + 608
        0x0000c5da:    bf00        ..      NOP      
        0x0000c5dc:    f6412064    A.d     MOV      r0,#0x1a64
        0x0000c5e0:    f2c00001    ....    MOVT     r0,#1
        0x0000c5e4:    6801        .h      LDR      r1,[r0,#0]
        0x0000c5e6:    2008        .       MOVS     r0,#8
        0x0000c5e8:    f001fcf0    ....    BL       am_hal_gpio_pinconfig ; 0xdfcc
        0x0000c5ec:    f641205c    A.\     MOV      r0,#0x1a5c
        0x0000c5f0:    f2c00001    ....    MOVT     r0,#1
        0x0000c5f4:    6801        .h      LDR      r1,[r0,#0]
        0x0000c5f6:    2009        .       MOVS     r0,#9
        0x0000c5f8:    f001fce8    ....    BL       am_hal_gpio_pinconfig ; 0xdfcc
        0x0000c5fc:    f6412658    A.X&    MOV      r6,#0x1a58
        0x0000c600:    f6412060    A.`     MOVW     r0,#0x1a60
        0x0000c604:    2422        "$      MOVS     r4,#0x22
        0x0000c606:    f2c00601    ....    MOVT     r6,#1
        0x0000c60a:    250a        .%      MOVS     r5,#0xa
        0x0000c60c:    f2c00001    ....    MOVT     r0,#1
        0x0000c610:    e0aa        ..      B        0xc768 ; am_bsp_iom_pins_enable + 608
        0x0000c612:    bf00        ..      NOP      
        0x0000c614:    f641266c    A.l&    MOV      r6,#0x1a6c
        0x0000c618:    f6412068    A.h     MOV      r0,#0x1a68
        0x0000c61c:    2409        .$      MOVS     r4,#9
        0x0000c61e:    f2c00601    ....    MOVT     r6,#1
        0x0000c622:    2508        .%      MOVS     r5,#8
        0x0000c624:    f2c00001    ....    MOVT     r0,#1
        0x0000c628:    e09e        ..      B        0xc768 ; am_bsp_iom_pins_enable + 608
        0x0000c62a:    bf00        ..      NOP      
        0x0000c62c:    f6412048    A.H     MOV      r0,#0x1a48
        0x0000c630:    f2c00001    ....    MOVT     r0,#1
        0x0000c634:    6801        .h      LDR      r1,[r0,#0]
        0x0000c636:    201b        .       MOVS     r0,#0x1b
        0x0000c638:    f001fcc8    ....    BL       am_hal_gpio_pinconfig ; 0xdfcc
        0x0000c63c:    f6412040    A.@     MOVW     r0,#0x1a40
        0x0000c640:    f2c00001    ....    MOVT     r0,#1
        0x0000c644:    6801        .h      LDR      r1,[r0,#0]
        0x0000c646:    2019        .       MOVS     r0,#0x19
        0x0000c648:    f001fcc0    ....    BL       am_hal_gpio_pinconfig ; 0xdfcc
        0x0000c64c:    f641264c    A.L&    MOV      r6,#0x1a4c
        0x0000c650:    f6412044    A.D     MOV      r0,#0x1a44
        0x0000c654:    240f        .$      MOVS     r4,#0xf
        0x0000c656:    f2c00601    ....    MOVT     r6,#1
        0x0000c65a:    251c        .%      MOVS     r5,#0x1c
        0x0000c65c:    f2c00001    ....    MOVT     r0,#1
        0x0000c660:    e082        ..      B        0xc768 ; am_bsp_iom_pins_enable + 608
        0x0000c662:    bf00        ..      NOP      
        0x0000c664:    f6412674    A.t&    MOV      r6,#0x1a74
        0x0000c668:    f6412070    A.p     MOV      r0,#0x1a70
        0x0000c66c:    2419        .$      MOVS     r4,#0x19
        0x0000c66e:    f2c00601    ....    MOVT     r6,#1
        0x0000c672:    251b        .%      MOVS     r5,#0x1b
        0x0000c674:    f2c00001    ....    MOVT     r0,#1
        0x0000c678:    e076        v.      B        0xc768 ; am_bsp_iom_pins_enable + 608
        0x0000c67a:    bf00        ..      NOP      
        0x0000c67c:    f6412084    A..     MOV      r0,#0x1a84
        0x0000c680:    f2c00001    ....    MOVT     r0,#1
        0x0000c684:    6801        .h      LDR      r1,[r0,#0]
        0x0000c686:    202a        *       MOVS     r0,#0x2a
        0x0000c688:    f001fca0    ....    BL       am_hal_gpio_pinconfig ; 0xdfcc
        0x0000c68c:    f641207c    A.|     MOV      r0,#0x1a7c
        0x0000c690:    f2c00001    ....    MOVT     r0,#1
        0x0000c694:    6801        .h      LDR      r1,[r0,#0]
        0x0000c696:    202b        +       MOVS     r0,#0x2b
        0x0000c698:    f001fc98    ....    BL       am_hal_gpio_pinconfig ; 0xdfcc
        0x0000c69c:    f6412678    A.x&    MOV      r6,#0x1a78
        0x0000c6a0:    f6412080    A..     MOVW     r0,#0x1a80
        0x0000c6a4:    241d        .$      MOVS     r4,#0x1d
        0x0000c6a6:    f2c00601    ....    MOVT     r6,#1
        0x0000c6aa:    2526        &%      MOVS     r5,#0x26
        0x0000c6ac:    f2c00001    ....    MOVT     r0,#1
        0x0000c6b0:    e05a        Z.      B        0xc768 ; am_bsp_iom_pins_enable + 608
        0x0000c6b2:    bf00        ..      NOP      
        0x0000c6b4:    f64126c0    A..&    MOVW     r6,#0x1ac0
        0x0000c6b8:    f64120bc    A..     MOV      r0,#0x1abc
        0x0000c6bc:    242b        +$      MOVS     r4,#0x2b
        0x0000c6be:    f2c00601    ....    MOVT     r6,#1
        0x0000c6c2:    252a        *%      MOVS     r5,#0x2a
        0x0000c6c4:    f2c00001    ....    MOVT     r0,#1
        0x0000c6c8:    e04e        N.      B        0xc768 ; am_bsp_iom_pins_enable + 608
        0x0000c6ca:    bf00        ..      NOP      
        0x0000c6cc:    f6412094    A..     MOV      r0,#0x1a94
        0x0000c6d0:    f2c00001    ....    MOVT     r0,#1
        0x0000c6d4:    6801        .h      LDR      r1,[r0,#0]
        0x0000c6d6:    2027        '       MOVS     r0,#0x27
        0x0000c6d8:    f001fc78    ..x.    BL       am_hal_gpio_pinconfig ; 0xdfcc
        0x0000c6dc:    f641208c    A..     MOV      r0,#0x1a8c
        0x0000c6e0:    f2c00001    ....    MOVT     r0,#1
        0x0000c6e4:    6801        .h      LDR      r1,[r0,#0]
        0x0000c6e6:    2028        (       MOVS     r0,#0x28
        0x0000c6e8:    f001fc70    ..p.    BL       am_hal_gpio_pinconfig ; 0xdfcc
        0x0000c6ec:    f6412688    A..&    MOV      r6,#0x1a88
        0x0000c6f0:    f6412090    A..     MOV      r0,#0x1a90
        0x0000c6f4:    240d        .$      MOVS     r4,#0xd
        0x0000c6f6:    f2c00601    ....    MOVT     r6,#1
        0x0000c6fa:    252c        ,%      MOVS     r5,#0x2c
        0x0000c6fc:    f2c00001    ....    MOVT     r0,#1
        0x0000c700:    e032        2.      B        0xc768 ; am_bsp_iom_pins_enable + 608
        0x0000c702:    bf00        ..      NOP      
        0x0000c704:    f641269c    A..&    MOV      r6,#0x1a9c
        0x0000c708:    f6412098    A..     MOV      r0,#0x1a98
        0x0000c70c:    2428        ($      MOVS     r4,#0x28
        0x0000c70e:    f2c00601    ....    MOVT     r6,#1
        0x0000c712:    2527        '%      MOVS     r5,#0x27
        0x0000c714:    f2c00001    ....    MOVT     r0,#1
        0x0000c718:    e026        &.      B        0xc768 ; am_bsp_iom_pins_enable + 608
        0x0000c71a:    bf00        ..      NOP      
        0x0000c71c:    f64120b4    A..     MOV      r0,#0x1ab4
        0x0000c720:    f2c00001    ....    MOVT     r0,#1
        0x0000c724:    6801        .h      LDR      r1,[r0,#0]
        0x0000c726:    2030        0       MOVS     r0,#0x30
        0x0000c728:    f001fc50    ..P.    BL       am_hal_gpio_pinconfig ; 0xdfcc
        0x0000c72c:    f64120b8    A..     MOV      r0,#0x1ab8
        0x0000c730:    f2c00001    ....    MOVT     r0,#1
        0x0000c734:    6801        .h      LDR      r1,[r0,#0]
        0x0000c736:    202f        /       MOVS     r0,#0x2f
        0x0000c738:    f001fc48    ..H.    BL       am_hal_gpio_pinconfig ; 0xdfcc
        0x0000c73c:    f64126b0    A..&    MOV      r6,#0x1ab0
        0x0000c740:    f64120ac    A..     MOV      r0,#0x1aac
        0x0000c744:    241d        .$      MOVS     r4,#0x1d
        0x0000c746:    f2c00601    ....    MOVT     r6,#1
        0x0000c74a:    250c        .%      MOVS     r5,#0xc
        0x0000c74c:    f2c00001    ....    MOVT     r0,#1
        0x0000c750:    e00a        ..      B        0xc768 ; am_bsp_iom_pins_enable + 608
        0x0000c752:    bf00        ..      NOP      
        0x0000c754:    f64126a4    A..&    MOV      r6,#0x1aa4
        0x0000c758:    f64120a0    A..     MOVW     r0,#0x1aa0
        0x0000c75c:    2431        1$      MOVS     r4,#0x31
        0x0000c75e:    f2c00601    ....    MOVT     r6,#1
        0x0000c762:    2530        0%      MOVS     r5,#0x30
        0x0000c764:    f2c00001    ....    MOVT     r0,#1
        0x0000c768:    6801        .h      LDR      r1,[r0,#0]
        0x0000c76a:    4628        (F      MOV      r0,r5
        0x0000c76c:    f001fc2e    ....    BL       am_hal_gpio_pinconfig ; 0xdfcc
        0x0000c770:    6831        1h      LDR      r1,[r6,#0]
        0x0000c772:    4620         F      MOV      r0,r4
        0x0000c774:    e8bd4070    ..p@    POP      {r4-r6,lr}
        0x0000c778:    f001bc28    ..(.    B.W      am_hal_gpio_pinconfig ; 0xdfcc
    am_bsp_itm_printf_enable
        0x0000c77c:    b580        ..      PUSH     {r7,lr}
        0x0000c77e:    b086        ..      SUB      sp,sp,#0x18
        0x0000c780:    f2411040    A.@.    MOVW     r0,#0x1140
        0x0000c784:    f2c10001    ....    MOVT     r0,#0x1001
        0x0000c788:    2101        .!      MOVS     r1,#1
        0x0000c78a:    6001        .`      STR      r1,[r0,#0]
        0x0000c78c:    f002feb6    ....    BL       am_hal_itm_enable ; 0xf4fc
        0x0000c790:    f2442040    D.@     MOV      r0,#0x4240
        0x0000c794:    f2c0000f    ....    MOVT     r0,#0xf
        0x0000c798:    9001        ..      STR      r0,[sp,#4]
        0x0000c79a:    a801        ..      ADD      r0,sp,#4
        0x0000c79c:    f003fae8    ....    BL       am_hal_tpiu_enable ; 0xfd70
        0x0000c7a0:    f64120a8    A..     MOV      r0,#0x1aa8
        0x0000c7a4:    f2c00001    ....    MOVT     r0,#1
        0x0000c7a8:    6801        .h      LDR      r1,[r0,#0]
        0x0000c7aa:    2029        )       MOVS     r0,#0x29
        0x0000c7ac:    f001fc0e    ....    BL       am_hal_gpio_pinconfig ; 0xdfcc
        0x0000c7b0:    f24f5055    O.UP    MOV      r0,#0xf555
        0x0000c7b4:    f2c00000    ....    MOVT     r0,#0
        0x0000c7b8:    f003fb76    ..v.    BL       am_util_stdio_printf_init ; 0xfea8
        0x0000c7bc:    b006        ..      ADD      sp,sp,#0x18
        0x0000c7be:    bd80        ..      POP      {r7,pc}
    am_bsp_low_power_init
        0x0000c7c0:    b570        p.      PUSH     {r4-r6,lr}
        0x0000c7c2:    f003f825    ..%.    BL       am_hal_pwrctrl_low_power_init ; 0xf810
        0x0000c7c6:    f003fa73    ..s.    BL       am_hal_rtc_osc_disable ; 0xfcb0
        0x0000c7ca:    f64120c8    A..     MOV      r0,#0x1ac8
        0x0000c7ce:    f2410600    A...    MOVW     r6,#0x1000
        0x0000c7d2:    f2c00001    ....    MOVT     r0,#1
        0x0000c7d6:    f2c10601    ....    MOVT     r6,#0x1001
        0x0000c7da:    6804        .h      LDR      r4,[r0,#0]
        0x0000c7dc:    6835        5h      LDR      r5,[r6,#0]
        0x0000c7de:    4621        !F      MOV      r1,r4
        0x0000c7e0:    4628        (F      MOV      r0,r5
        0x0000c7e2:    f001fbf3    ....    BL       am_hal_gpio_pinconfig ; 0xdfcc
        0x0000c7e6:    4628        (F      MOV      r0,r5
        0x0000c7e8:    2103        .!      MOVS     r1,#3
        0x0000c7ea:    f001fd25    ..%.    BL       am_hal_gpio_state_write ; 0xe238
        0x0000c7ee:    4628        (F      MOV      r0,r5
        0x0000c7f0:    2100        .!      MOVS     r1,#0
        0x0000c7f2:    f001fd21    ..!.    BL       am_hal_gpio_state_write ; 0xe238
        0x0000c7f6:    68b5        .h      LDR      r5,[r6,#8]
        0x0000c7f8:    4621        !F      MOV      r1,r4
        0x0000c7fa:    4628        (F      MOV      r0,r5
        0x0000c7fc:    f001fbe6    ....    BL       am_hal_gpio_pinconfig ; 0xdfcc
        0x0000c800:    4628        (F      MOV      r0,r5
        0x0000c802:    2103        .!      MOVS     r1,#3
        0x0000c804:    f001fd18    ....    BL       am_hal_gpio_state_write ; 0xe238
        0x0000c808:    4628        (F      MOV      r0,r5
        0x0000c80a:    2100        .!      MOVS     r1,#0
        0x0000c80c:    f001fd14    ....    BL       am_hal_gpio_state_write ; 0xe238
        0x0000c810:    6935        5i      LDR      r5,[r6,#0x10]
        0x0000c812:    4621        !F      MOV      r1,r4
        0x0000c814:    4628        (F      MOV      r0,r5
        0x0000c816:    f001fbd9    ....    BL       am_hal_gpio_pinconfig ; 0xdfcc
        0x0000c81a:    4628        (F      MOV      r0,r5
        0x0000c81c:    2103        .!      MOVS     r1,#3
        0x0000c81e:    f001fd0b    ....    BL       am_hal_gpio_state_write ; 0xe238
        0x0000c822:    4628        (F      MOV      r0,r5
        0x0000c824:    2100        .!      MOVS     r1,#0
        0x0000c826:    f001fd07    ....    BL       am_hal_gpio_state_write ; 0xe238
        0x0000c82a:    69b5        .i      LDR      r5,[r6,#0x18]
        0x0000c82c:    4621        !F      MOV      r1,r4
        0x0000c82e:    4628        (F      MOV      r0,r5
        0x0000c830:    f001fbcc    ....    BL       am_hal_gpio_pinconfig ; 0xdfcc
        0x0000c834:    4628        (F      MOV      r0,r5
        0x0000c836:    2103        .!      MOVS     r1,#3
        0x0000c838:    f001fcfe    ....    BL       am_hal_gpio_state_write ; 0xe238
        0x0000c83c:    4628        (F      MOV      r0,r5
        0x0000c83e:    2100        .!      MOVS     r1,#0
        0x0000c840:    f001fcfa    ....    BL       am_hal_gpio_state_write ; 0xe238
        0x0000c844:    6a35        5j      LDR      r5,[r6,#0x20]
        0x0000c846:    4621        !F      MOV      r1,r4
        0x0000c848:    4628        (F      MOV      r0,r5
        0x0000c84a:    f001fbbf    ....    BL       am_hal_gpio_pinconfig ; 0xdfcc
        0x0000c84e:    4628        (F      MOV      r0,r5
        0x0000c850:    2103        .!      MOVS     r1,#3
        0x0000c852:    f001fcf1    ....    BL       am_hal_gpio_state_write ; 0xe238
        0x0000c856:    4628        (F      MOV      r0,r5
        0x0000c858:    2100        .!      MOVS     r1,#0
        0x0000c85a:    e8bd4070    ..p@    POP      {r4-r6,lr}
        0x0000c85e:    f001bceb    ....    B.W      am_hal_gpio_state_write ; 0xe238
        0x0000c862:    0000        ..      MOVS     r0,r0
    am_ctimer_isr
        0x0000c864:    b580        ..      PUSH     {r7,lr}
        0x0000c866:    b082        ..      SUB      sp,sp,#8
        0x0000c868:    2001        .       MOVS     r0,#1
        0x0000c86a:    f001fa9b    ....    BL       am_hal_ctimer_int_status_get ; 0xdda4
        0x0000c86e:    9001        ..      STR      r0,[sp,#4]
        0x0000c870:    9801        ..      LDR      r0,[sp,#4]
        0x0000c872:    b138        8.      CBZ      r0,0xc884 ; am_ctimer_isr + 32
        0x0000c874:    e7ff        ..      B        0xc876 ; am_ctimer_isr + 18
        0x0000c876:    9801        ..      LDR      r0,[sp,#4]
        0x0000c878:    f001f854    ..T.    BL       am_hal_ctimer_int_clear ; 0xd924
        0x0000c87c:    9801        ..      LDR      r0,[sp,#4]
        0x0000c87e:    f001fa77    ..w.    BL       am_hal_ctimer_int_service ; 0xdd70
        0x0000c882:    e7ff        ..      B        0xc884 ; am_ctimer_isr + 32
        0x0000c884:    b002        ..      ADD      sp,sp,#8
        0x0000c886:    bd80        ..      POP      {r7,pc}
    am_device_command_read
        0x0000c888:    b510        ..      PUSH     {r4,lr}
        0x0000c88a:    b092        ..      SUB      sp,sp,#0x48
        0x0000c88c:    4613        .F      MOV      r3,r2
        0x0000c88e:    468c        .F      MOV      r12,r1
        0x0000c890:    4686        .F      MOV      lr,r0
        0x0000c892:    9a15        ..      LDR      r2,[sp,#0x54]
        0x0000c894:    9914        ..      LDR      r1,[sp,#0x50]
        0x0000c896:    9818        ..      LDR      r0,[sp,#0x60]
        0x0000c898:    9817        ..      LDR      r0,[sp,#0x5c]
        0x0000c89a:    9816        ..      LDR      r0,[sp,#0x58]
        0x0000c89c:    f8cde040    ..@.    STR      lr,[sp,#0x40]
        0x0000c8a0:    f88dc03f    ..?.    STRB     r12,[sp,#0x3f]
        0x0000c8a4:    930e        ..      STR      r3,[sp,#0x38]
        0x0000c8a6:    920d        ..      STR      r2,[sp,#0x34]
        0x0000c8a8:    910c        ..      STR      r1,[sp,#0x30]
        0x0000c8aa:    f88d002f    ../.    STRB     r0,[sp,#0x2f]
        0x0000c8ae:    980e        ..      LDR      r0,[sp,#0x38]
        0x0000c8b0:    9002        ..      STR      r0,[sp,#8]
        0x0000c8b2:    980c        ..      LDR      r0,[sp,#0x30]
        0x0000c8b4:    9003        ..      STR      r0,[sp,#0xc]
        0x0000c8b6:    2001        .       MOVS     r0,#1
        0x0000c8b8:    f88d0014    ....    STRB     r0,[sp,#0x14]
        0x0000c8bc:    9818        ..      LDR      r0,[sp,#0x60]
        0x0000c8be:    9004        ..      STR      r0,[sp,#0x10]
        0x0000c8c0:    9817        ..      LDR      r0,[sp,#0x5c]
        0x0000c8c2:    9007        ..      STR      r0,[sp,#0x1c]
        0x0000c8c4:    f89d003f    ..?.    LDRB     r0,[sp,#0x3f]
        0x0000c8c8:    9001        ..      STR      r0,[sp,#4]
        0x0000c8ca:    f89d002f    ../.    LDRB     r0,[sp,#0x2f]
        0x0000c8ce:    f0000001    ....    AND      r0,r0,#1
        0x0000c8d2:    f88d0020    .. .    STRB     r0,[sp,#0x20]
        0x0000c8d6:    2000        .       MOVS     r0,#0
        0x0000c8d8:    f88d0021    ..!.    STRB     r0,[sp,#0x21]
        0x0000c8dc:    9009        ..      STR      r0,[sp,#0x24]
        0x0000c8de:    900a        ..      STR      r0,[sp,#0x28]
        0x0000c8e0:    9810        ..      LDR      r0,[sp,#0x40]
        0x0000c8e2:    a901        ..      ADD      r1,sp,#4
        0x0000c8e4:    f001fdd0    ....    BL       am_hal_iom_blocking_transfer ; 0xe488
        0x0000c8e8:    b118        ..      CBZ      r0,0xc8f2 ; am_device_command_read + 106
        0x0000c8ea:    e7ff        ..      B        0xc8ec ; am_device_command_read + 100
        0x0000c8ec:    2001        .       MOVS     r0,#1
        0x0000c8ee:    9011        ..      STR      r0,[sp,#0x44]
        0x0000c8f0:    e002        ..      B        0xc8f8 ; am_device_command_read + 112
        0x0000c8f2:    2000        .       MOVS     r0,#0
        0x0000c8f4:    9011        ..      STR      r0,[sp,#0x44]
        0x0000c8f6:    e7ff        ..      B        0xc8f8 ; am_device_command_read + 112
        0x0000c8f8:    9811        ..      LDR      r0,[sp,#0x44]
        0x0000c8fa:    b012        ..      ADD      sp,sp,#0x48
        0x0000c8fc:    bd10        ..      POP      {r4,pc}
        0x0000c8fe:    0000        ..      MOVS     r0,r0
    am_device_command_write
        0x0000c900:    b510        ..      PUSH     {r4,lr}
        0x0000c902:    b092        ..      SUB      sp,sp,#0x48
        0x0000c904:    4613        .F      MOV      r3,r2
        0x0000c906:    468c        .F      MOV      r12,r1
        0x0000c908:    4686        .F      MOV      lr,r0
        0x0000c90a:    9a15        ..      LDR      r2,[sp,#0x54]
        0x0000c90c:    9914        ..      LDR      r1,[sp,#0x50]
        0x0000c90e:    9818        ..      LDR      r0,[sp,#0x60]
        0x0000c910:    9817        ..      LDR      r0,[sp,#0x5c]
        0x0000c912:    9816        ..      LDR      r0,[sp,#0x58]
        0x0000c914:    f8cde040    ..@.    STR      lr,[sp,#0x40]
        0x0000c918:    f88dc03f    ..?.    STRB     r12,[sp,#0x3f]
        0x0000c91c:    930e        ..      STR      r3,[sp,#0x38]
        0x0000c91e:    920d        ..      STR      r2,[sp,#0x34]
        0x0000c920:    910c        ..      STR      r1,[sp,#0x30]
        0x0000c922:    f88d002f    ../.    STRB     r0,[sp,#0x2f]
        0x0000c926:    980e        ..      LDR      r0,[sp,#0x38]
        0x0000c928:    9002        ..      STR      r0,[sp,#8]
        0x0000c92a:    980c        ..      LDR      r0,[sp,#0x30]
        0x0000c92c:    9003        ..      STR      r0,[sp,#0xc]
        0x0000c92e:    2000        .       MOVS     r0,#0
        0x0000c930:    f88d0014    ....    STRB     r0,[sp,#0x14]
        0x0000c934:    9918        ..      LDR      r1,[sp,#0x60]
        0x0000c936:    9104        ..      STR      r1,[sp,#0x10]
        0x0000c938:    9917        ..      LDR      r1,[sp,#0x5c]
        0x0000c93a:    9106        ..      STR      r1,[sp,#0x18]
        0x0000c93c:    f89d103f    ..?.    LDRB     r1,[sp,#0x3f]
        0x0000c940:    9101        ..      STR      r1,[sp,#4]
        0x0000c942:    f89d102f    ../.    LDRB     r1,[sp,#0x2f]
        0x0000c946:    f0010101    ....    AND      r1,r1,#1
        0x0000c94a:    f88d1020    .. .    STRB     r1,[sp,#0x20]
        0x0000c94e:    f88d0021    ..!.    STRB     r0,[sp,#0x21]
        0x0000c952:    9009        ..      STR      r0,[sp,#0x24]
        0x0000c954:    900a        ..      STR      r0,[sp,#0x28]
        0x0000c956:    9810        ..      LDR      r0,[sp,#0x40]
        0x0000c958:    a901        ..      ADD      r1,sp,#4
        0x0000c95a:    f001fd95    ....    BL       am_hal_iom_blocking_transfer ; 0xe488
        0x0000c95e:    b118        ..      CBZ      r0,0xc968 ; am_device_command_write + 104
        0x0000c960:    e7ff        ..      B        0xc962 ; am_device_command_write + 98
        0x0000c962:    2001        .       MOVS     r0,#1
        0x0000c964:    9011        ..      STR      r0,[sp,#0x44]
        0x0000c966:    e002        ..      B        0xc96e ; am_device_command_write + 110
        0x0000c968:    2000        .       MOVS     r0,#0
        0x0000c96a:    9011        ..      STR      r0,[sp,#0x44]
        0x0000c96c:    e7ff        ..      B        0xc96e ; am_device_command_write + 110
        0x0000c96e:    9811        ..      LDR      r0,[sp,#0x44]
        0x0000c970:    b012        ..      ADD      sp,sp,#0x48
        0x0000c972:    bd10        ..      POP      {r4,pc}
    am_devices_mb85rc256v_blocking_read
        0x0000c974:    b580        ..      PUSH     {r7,lr}
        0x0000c976:    b08c        ..      SUB      sp,sp,#0x30
        0x0000c978:    900a        ..      STR      r0,[sp,#0x28]
        0x0000c97a:    9109        ..      STR      r1,[sp,#0x24]
        0x0000c97c:    9208        ..      STR      r2,[sp,#0x20]
        0x0000c97e:    9307        ..      STR      r3,[sp,#0x1c]
        0x0000c980:    980a        ..      LDR      r0,[sp,#0x28]
        0x0000c982:    9006        ..      STR      r0,[sp,#0x18]
        0x0000c984:    9806        ..      LDR      r0,[sp,#0x18]
        0x0000c986:    6840        @h      LDR      r0,[r0,#4]
        0x0000c988:    f8bd1020    .. .    LDRH     r1,[sp,#0x20]
        0x0000c98c:    9b09        ..      LDR      r3,[sp,#0x24]
        0x0000c98e:    f8ddc01c    ....    LDR      r12,[sp,#0x1c]
        0x0000c992:    466a        jF      MOV      r2,sp
        0x0000c994:    f8c2c010    ....    STR      r12,[r2,#0x10]
        0x0000c998:    60d3        .`      STR      r3,[r2,#0xc]
        0x0000c99a:    2300        .#      MOVS     r3,#0
        0x0000c99c:    6093        .`      STR      r3,[r2,#8]
        0x0000c99e:    6053        S`      STR      r3,[r2,#4]
        0x0000c9a0:    6011        .`      STR      r1,[r2,#0]
        0x0000c9a2:    2150        P!      MOVS     r1,#0x50
        0x0000c9a4:    2202        ."      MOVS     r2,#2
        0x0000c9a6:    f7ffff6f    ..o.    BL       am_device_command_read ; 0xc888
        0x0000c9aa:    b118        ..      CBZ      r0,0xc9b4 ; am_devices_mb85rc256v_blocking_read + 64
        0x0000c9ac:    e7ff        ..      B        0xc9ae ; am_devices_mb85rc256v_blocking_read + 58
        0x0000c9ae:    2001        .       MOVS     r0,#1
        0x0000c9b0:    900b        ..      STR      r0,[sp,#0x2c]
        0x0000c9b2:    e002        ..      B        0xc9ba ; am_devices_mb85rc256v_blocking_read + 70
        0x0000c9b4:    2000        .       MOVS     r0,#0
        0x0000c9b6:    900b        ..      STR      r0,[sp,#0x2c]
        0x0000c9b8:    e7ff        ..      B        0xc9ba ; am_devices_mb85rc256v_blocking_read + 70
        0x0000c9ba:    980b        ..      LDR      r0,[sp,#0x2c]
        0x0000c9bc:    b00c        ..      ADD      sp,sp,#0x30
        0x0000c9be:    bd80        ..      POP      {r7,pc}
    am_devices_mb85rc256v_blocking_write
        0x0000c9c0:    b580        ..      PUSH     {r7,lr}
        0x0000c9c2:    b08c        ..      SUB      sp,sp,#0x30
        0x0000c9c4:    900a        ..      STR      r0,[sp,#0x28]
        0x0000c9c6:    9109        ..      STR      r1,[sp,#0x24]
        0x0000c9c8:    9208        ..      STR      r2,[sp,#0x20]
        0x0000c9ca:    9307        ..      STR      r3,[sp,#0x1c]
        0x0000c9cc:    980a        ..      LDR      r0,[sp,#0x28]
        0x0000c9ce:    9006        ..      STR      r0,[sp,#0x18]
        0x0000c9d0:    9806        ..      LDR      r0,[sp,#0x18]
        0x0000c9d2:    6840        @h      LDR      r0,[r0,#4]
        0x0000c9d4:    f8bd1020    .. .    LDRH     r1,[sp,#0x20]
        0x0000c9d8:    9b09        ..      LDR      r3,[sp,#0x24]
        0x0000c9da:    f8ddc01c    ....    LDR      r12,[sp,#0x1c]
        0x0000c9de:    466a        jF      MOV      r2,sp
        0x0000c9e0:    f8c2c010    ....    STR      r12,[r2,#0x10]
        0x0000c9e4:    60d3        .`      STR      r3,[r2,#0xc]
        0x0000c9e6:    2300        .#      MOVS     r3,#0
        0x0000c9e8:    6093        .`      STR      r3,[r2,#8]
        0x0000c9ea:    6053        S`      STR      r3,[r2,#4]
        0x0000c9ec:    6011        .`      STR      r1,[r2,#0]
        0x0000c9ee:    2150        P!      MOVS     r1,#0x50
        0x0000c9f0:    2202        ."      MOVS     r2,#2
        0x0000c9f2:    f7ffff85    ....    BL       am_device_command_write ; 0xc900
        0x0000c9f6:    b118        ..      CBZ      r0,0xca00 ; am_devices_mb85rc256v_blocking_write + 64
        0x0000c9f8:    e7ff        ..      B        0xc9fa ; am_devices_mb85rc256v_blocking_write + 58
        0x0000c9fa:    2001        .       MOVS     r0,#1
        0x0000c9fc:    900b        ..      STR      r0,[sp,#0x2c]
        0x0000c9fe:    e002        ..      B        0xca06 ; am_devices_mb85rc256v_blocking_write + 70
        0x0000ca00:    2000        .       MOVS     r0,#0
        0x0000ca02:    900b        ..      STR      r0,[sp,#0x2c]
        0x0000ca04:    e7ff        ..      B        0xca06 ; am_devices_mb85rc256v_blocking_write + 70
        0x0000ca06:    980b        ..      LDR      r0,[sp,#0x2c]
        0x0000ca08:    b00c        ..      ADD      sp,sp,#0x30
        0x0000ca0a:    bd80        ..      POP      {r7,pc}
    am_devices_mb85rc256v_init
        0x0000ca0c:    b580        ..      PUSH     {r7,lr}
        0x0000ca0e:    b08e        ..      SUB      sp,sp,#0x38
        0x0000ca10:    900c        ..      STR      r0,[sp,#0x30]
        0x0000ca12:    910b        ..      STR      r1,[sp,#0x2c]
        0x0000ca14:    920a        ..      STR      r2,[sp,#0x28]
        0x0000ca16:    9309        ..      STR      r3,[sp,#0x24]
        0x0000ca18:    2000        .       MOVS     r0,#0
        0x0000ca1a:    9002        ..      STR      r0,[sp,#8]
        0x0000ca1c:    9002        ..      STR      r0,[sp,#8]
        0x0000ca1e:    e7ff        ..      B        0xca20 ; am_devices_mb85rc256v_init + 20
        0x0000ca20:    9802        ..      LDR      r0,[sp,#8]
        0x0000ca22:    b998        ..      CBNZ     r0,0xca4c ; am_devices_mb85rc256v_init + 64
        0x0000ca24:    e7ff        ..      B        0xca26 ; am_devices_mb85rc256v_init + 26
        0x0000ca26:    9802        ..      LDR      r0,[sp,#8]
        0x0000ca28:    eb000140    ..@.    ADD      r1,r0,r0,LSL #1
        0x0000ca2c:    f2417008    A..p    MOV      r0,#0x1708
        0x0000ca30:    f2c10001    ....    MOVT     r0,#0x1001
        0x0000ca34:    eb000081    ....    ADD      r0,r0,r1,LSL #2
        0x0000ca38:    7a00        .z      LDRB     r0,[r0,#8]
        0x0000ca3a:    07c0        ..      LSLS     r0,r0,#31
        0x0000ca3c:    b908        ..      CBNZ     r0,0xca42 ; am_devices_mb85rc256v_init + 54
        0x0000ca3e:    e7ff        ..      B        0xca40 ; am_devices_mb85rc256v_init + 52
        0x0000ca40:    e004        ..      B        0xca4c ; am_devices_mb85rc256v_init + 64
        0x0000ca42:    e7ff        ..      B        0xca44 ; am_devices_mb85rc256v_init + 56
        0x0000ca44:    9802        ..      LDR      r0,[sp,#8]
        0x0000ca46:    3001        .0      ADDS     r0,#1
        0x0000ca48:    9002        ..      STR      r0,[sp,#8]
        0x0000ca4a:    e7e9        ..      B        0xca20 ; am_devices_mb85rc256v_init + 20
        0x0000ca4c:    9802        ..      LDR      r0,[sp,#8]
        0x0000ca4e:    2801        .(      CMP      r0,#1
        0x0000ca50:    d103        ..      BNE      0xca5a ; am_devices_mb85rc256v_init + 78
        0x0000ca52:    e7ff        ..      B        0xca54 ; am_devices_mb85rc256v_init + 72
        0x0000ca54:    2001        .       MOVS     r0,#1
        0x0000ca56:    900d        ..      STR      r0,[sp,#0x34]
        0x0000ca58:    e06e        n.      B        0xcb38 ; am_devices_mb85rc256v_init + 300
        0x0000ca5a:    980c        ..      LDR      r0,[sp,#0x30]
        0x0000ca5c:    2806        .(      CMP      r0,#6
        0x0000ca5e:    d803        ..      BHI      0xca68 ; am_devices_mb85rc256v_init + 92
        0x0000ca60:    e7ff        ..      B        0xca62 ; am_devices_mb85rc256v_init + 86
        0x0000ca62:    980b        ..      LDR      r0,[sp,#0x2c]
        0x0000ca64:    b918        ..      CBNZ     r0,0xca6e ; am_devices_mb85rc256v_init + 98
        0x0000ca66:    e7ff        ..      B        0xca68 ; am_devices_mb85rc256v_init + 92
        0x0000ca68:    2001        .       MOVS     r0,#1
        0x0000ca6a:    900d        ..      STR      r0,[sp,#0x34]
        0x0000ca6c:    e064        d.      B        0xcb38 ; am_devices_mb85rc256v_init + 300
        0x0000ca6e:    2100        .!      MOVS     r1,#0
        0x0000ca70:    4608        .F      MOV      r0,r1
        0x0000ca72:    f002fe0b    ....    BL       am_hal_mcuctrl_control ; 0xf68c
        0x0000ca76:    f2410c5c    A.\.    MOV      r12,#0x105c
        0x0000ca7a:    f2c10c01    ....    MOVT     r12,#0x1001
        0x0000ca7e:    f8dc0000    ....    LDR      r0,[r12,#0]
        0x0000ca82:    f8dc1004    ....    LDR      r1,[r12,#4]
        0x0000ca86:    f8dc2008    ...     LDR      r2,[r12,#8]
        0x0000ca8a:    f8dc300c    ...0    LDR      r3,[r12,#0xc]
        0x0000ca8e:    f8dcc010    ....    LDR      r12,[r12,#0x10]
        0x0000ca92:    f8cdc01c    ....    STR      r12,[sp,#0x1c]
        0x0000ca96:    9306        ..      STR      r3,[sp,#0x18]
        0x0000ca98:    9205        ..      STR      r2,[sp,#0x14]
        0x0000ca9a:    9104        ..      STR      r1,[sp,#0x10]
        0x0000ca9c:    9003        ..      STR      r0,[sp,#0xc]
        0x0000ca9e:    980b        ..      LDR      r0,[sp,#0x2c]
        0x0000caa0:    6880        .h      LDR      r0,[r0,#8]
        0x0000caa2:    9007        ..      STR      r0,[sp,#0x1c]
        0x0000caa4:    980b        ..      LDR      r0,[sp,#0x2c]
        0x0000caa6:    6840        @h      LDR      r0,[r0,#4]
        0x0000caa8:    9006        ..      STR      r0,[sp,#0x18]
        0x0000caaa:    980b        ..      LDR      r0,[sp,#0x2c]
        0x0000caac:    6800        .h      LDR      r0,[r0,#0]
        0x0000caae:    9004        ..      STR      r0,[sp,#0x10]
        0x0000cab0:    980c        ..      LDR      r0,[sp,#0x30]
        0x0000cab2:    a908        ..      ADD      r1,sp,#0x20
        0x0000cab4:    f002f93c    ..<.    BL       am_hal_iom_initialize ; 0xed30
        0x0000cab8:    b990        ..      CBNZ     r0,0xcae0 ; am_devices_mb85rc256v_init + 212
        0x0000caba:    e7ff        ..      B        0xcabc ; am_devices_mb85rc256v_init + 176
        0x0000cabc:    9808        ..      LDR      r0,[sp,#0x20]
        0x0000cabe:    2200        ."      MOVS     r2,#0
        0x0000cac0:    4611        .F      MOV      r1,r2
        0x0000cac2:    f002fbd5    ....    BL       am_hal_iom_power_ctrl ; 0xf270
        0x0000cac6:    b958        X.      CBNZ     r0,0xcae0 ; am_devices_mb85rc256v_init + 212
        0x0000cac8:    e7ff        ..      B        0xcaca ; am_devices_mb85rc256v_init + 190
        0x0000caca:    9808        ..      LDR      r0,[sp,#0x20]
        0x0000cacc:    a903        ..      ADD      r1,sp,#0xc
        0x0000cace:    f001ffcf    ....    BL       am_hal_iom_configure ; 0xea70
        0x0000cad2:    b928        (.      CBNZ     r0,0xcae0 ; am_devices_mb85rc256v_init + 212
        0x0000cad4:    e7ff        ..      B        0xcad6 ; am_devices_mb85rc256v_init + 202
        0x0000cad6:    9808        ..      LDR      r0,[sp,#0x20]
        0x0000cad8:    f002f8b8    ....    BL       am_hal_iom_enable ; 0xec4c
        0x0000cadc:    b118        ..      CBZ      r0,0xcae6 ; am_devices_mb85rc256v_init + 218
        0x0000cade:    e7ff        ..      B        0xcae0 ; am_devices_mb85rc256v_init + 212
        0x0000cae0:    2001        .       MOVS     r0,#1
        0x0000cae2:    900d        ..      STR      r0,[sp,#0x34]
        0x0000cae4:    e028        (.      B        0xcb38 ; am_devices_mb85rc256v_init + 300
        0x0000cae6:    980c        ..      LDR      r0,[sp,#0x30]
        0x0000cae8:    2101        .!      MOVS     r1,#1
        0x0000caea:    9101        ..      STR      r1,[sp,#4]
        0x0000caec:    f7fffd0c    ....    BL       am_bsp_iom_pins_enable ; 0xc508
        0x0000caf0:    9901        ..      LDR      r1,[sp,#4]
        0x0000caf2:    9802        ..      LDR      r0,[sp,#8]
        0x0000caf4:    eb000240    ..@.    ADD      r2,r0,r0,LSL #1
        0x0000caf8:    f2417008    A..p    MOV      r0,#0x1708
        0x0000cafc:    f2c10001    ....    MOVT     r0,#0x1001
        0x0000cb00:    eb000282    ....    ADD      r2,r0,r2,LSL #2
        0x0000cb04:    7211        .r      STRB     r1,[r2,#8]
        0x0000cb06:    990c        ..      LDR      r1,[sp,#0x30]
        0x0000cb08:    9a02        ..      LDR      r2,[sp,#8]
        0x0000cb0a:    eb020242    ..B.    ADD      r2,r2,r2,LSL #1
        0x0000cb0e:    f8401022    @.".    STR      r1,[r0,r2,LSL #2]
        0x0000cb12:    9908        ..      LDR      r1,[sp,#0x20]
        0x0000cb14:    9a02        ..      LDR      r2,[sp,#8]
        0x0000cb16:    eb020242    ..B.    ADD      r2,r2,r2,LSL #1
        0x0000cb1a:    eb000282    ....    ADD      r2,r0,r2,LSL #2
        0x0000cb1e:    6051        Q`      STR      r1,[r2,#4]
        0x0000cb20:    9a09        ..      LDR      r2,[sp,#0x24]
        0x0000cb22:    6011        .`      STR      r1,[r2,#0]
        0x0000cb24:    9902        ..      LDR      r1,[sp,#8]
        0x0000cb26:    eb010141    ..A.    ADD      r1,r1,r1,LSL #1
        0x0000cb2a:    eb000081    ....    ADD      r0,r0,r1,LSL #2
        0x0000cb2e:    990a        ..      LDR      r1,[sp,#0x28]
        0x0000cb30:    6008        .`      STR      r0,[r1,#0]
        0x0000cb32:    2000        .       MOVS     r0,#0
        0x0000cb34:    900d        ..      STR      r0,[sp,#0x34]
        0x0000cb36:    e7ff        ..      B        0xcb38 ; am_devices_mb85rc256v_init + 300
        0x0000cb38:    980d        ..      LDR      r0,[sp,#0x34]
        0x0000cb3a:    b00e        ..      ADD      sp,sp,#0x38
        0x0000cb3c:    bd80        ..      POP      {r7,pc}
        0x0000cb3e:    0000        ..      MOVS     r0,r0
    am_devices_mb85rc256v_nonblocking_read
        0x0000cb40:    b580        ..      PUSH     {r7,lr}
        0x0000cb42:    b090        ..      SUB      sp,sp,#0x40
        0x0000cb44:    f8ddc04c    ..L.    LDR      r12,[sp,#0x4c]
        0x0000cb48:    f8ddc048    ..H.    LDR      r12,[sp,#0x48]
        0x0000cb4c:    900e        ..      STR      r0,[sp,#0x38]
        0x0000cb4e:    910d        ..      STR      r1,[sp,#0x34]
        0x0000cb50:    920c        ..      STR      r2,[sp,#0x30]
        0x0000cb52:    930b        ..      STR      r3,[sp,#0x2c]
        0x0000cb54:    980e        ..      LDR      r0,[sp,#0x38]
        0x0000cb56:    9000        ..      STR      r0,[sp,#0]
        0x0000cb58:    2001        .       MOVS     r0,#1
        0x0000cb5a:    f88d0022    ..".    STRB     r0,[sp,#0x22]
        0x0000cb5e:    f88d0014    ....    STRB     r0,[sp,#0x14]
        0x0000cb62:    2002        .       MOVS     r0,#2
        0x0000cb64:    9002        ..      STR      r0,[sp,#8]
        0x0000cb66:    f8bd0030    ..0.    LDRH     r0,[sp,#0x30]
        0x0000cb6a:    9003        ..      STR      r0,[sp,#0xc]
        0x0000cb6c:    980b        ..      LDR      r0,[sp,#0x2c]
        0x0000cb6e:    9004        ..      STR      r0,[sp,#0x10]
        0x0000cb70:    980d        ..      LDR      r0,[sp,#0x34]
        0x0000cb72:    9007        ..      STR      r0,[sp,#0x1c]
        0x0000cb74:    2050        P       MOVS     r0,#0x50
        0x0000cb76:    9001        ..      STR      r0,[sp,#4]
        0x0000cb78:    2000        .       MOVS     r0,#0
        0x0000cb7a:    f88d0021    ..!.    STRB     r0,[sp,#0x21]
        0x0000cb7e:    9009        ..      STR      r0,[sp,#0x24]
        0x0000cb80:    900a        ..      STR      r0,[sp,#0x28]
        0x0000cb82:    f88d0020    .. .    STRB     r0,[sp,#0x20]
        0x0000cb86:    9800        ..      LDR      r0,[sp,#0]
        0x0000cb88:    6840        @h      LDR      r0,[r0,#4]
        0x0000cb8a:    9a12        ..      LDR      r2,[sp,#0x48]
        0x0000cb8c:    9b13        ..      LDR      r3,[sp,#0x4c]
        0x0000cb8e:    a901        ..      ADD      r1,sp,#4
        0x0000cb90:    f002fa84    ....    BL       am_hal_iom_nonblocking_transfer ; 0xf09c
        0x0000cb94:    b118        ..      CBZ      r0,0xcb9e ; am_devices_mb85rc256v_nonblocking_read + 94
        0x0000cb96:    e7ff        ..      B        0xcb98 ; am_devices_mb85rc256v_nonblocking_read + 88
        0x0000cb98:    2001        .       MOVS     r0,#1
        0x0000cb9a:    900f        ..      STR      r0,[sp,#0x3c]
        0x0000cb9c:    e002        ..      B        0xcba4 ; am_devices_mb85rc256v_nonblocking_read + 100
        0x0000cb9e:    2000        .       MOVS     r0,#0
        0x0000cba0:    900f        ..      STR      r0,[sp,#0x3c]
        0x0000cba2:    e7ff        ..      B        0xcba4 ; am_devices_mb85rc256v_nonblocking_read + 100
        0x0000cba4:    980f        ..      LDR      r0,[sp,#0x3c]
        0x0000cba6:    b010        ..      ADD      sp,sp,#0x40
        0x0000cba8:    bd80        ..      POP      {r7,pc}
        0x0000cbaa:    0000        ..      MOVS     r0,r0
    am_devices_mb85rc256v_nonblocking_write
        0x0000cbac:    b580        ..      PUSH     {r7,lr}
        0x0000cbae:    b090        ..      SUB      sp,sp,#0x40
        0x0000cbb0:    f8ddc04c    ..L.    LDR      r12,[sp,#0x4c]
        0x0000cbb4:    f8ddc048    ..H.    LDR      r12,[sp,#0x48]
        0x0000cbb8:    900e        ..      STR      r0,[sp,#0x38]
        0x0000cbba:    910d        ..      STR      r1,[sp,#0x34]
        0x0000cbbc:    920c        ..      STR      r2,[sp,#0x30]
        0x0000cbbe:    930b        ..      STR      r3,[sp,#0x2c]
        0x0000cbc0:    980e        ..      LDR      r0,[sp,#0x38]
        0x0000cbc2:    9000        ..      STR      r0,[sp,#0]
        0x0000cbc4:    2000        .       MOVS     r0,#0
        0x0000cbc6:    f88d0021    ..!.    STRB     r0,[sp,#0x21]
        0x0000cbca:    9009        ..      STR      r0,[sp,#0x24]
        0x0000cbcc:    900a        ..      STR      r0,[sp,#0x28]
        0x0000cbce:    2101        .!      MOVS     r1,#1
        0x0000cbd0:    f88d1022    ..".    STRB     r1,[sp,#0x22]
        0x0000cbd4:    2150        P!      MOVS     r1,#0x50
        0x0000cbd6:    9101        ..      STR      r1,[sp,#4]
        0x0000cbd8:    f88d0020    .. .    STRB     r0,[sp,#0x20]
        0x0000cbdc:    f88d0014    ....    STRB     r0,[sp,#0x14]
        0x0000cbe0:    2002        .       MOVS     r0,#2
        0x0000cbe2:    9002        ..      STR      r0,[sp,#8]
        0x0000cbe4:    f8bd0030    ..0.    LDRH     r0,[sp,#0x30]
        0x0000cbe8:    9003        ..      STR      r0,[sp,#0xc]
        0x0000cbea:    980b        ..      LDR      r0,[sp,#0x2c]
        0x0000cbec:    9004        ..      STR      r0,[sp,#0x10]
        0x0000cbee:    980d        ..      LDR      r0,[sp,#0x34]
        0x0000cbf0:    9006        ..      STR      r0,[sp,#0x18]
        0x0000cbf2:    9800        ..      LDR      r0,[sp,#0]
        0x0000cbf4:    6840        @h      LDR      r0,[r0,#4]
        0x0000cbf6:    9a12        ..      LDR      r2,[sp,#0x48]
        0x0000cbf8:    9b13        ..      LDR      r3,[sp,#0x4c]
        0x0000cbfa:    a901        ..      ADD      r1,sp,#4
        0x0000cbfc:    f002fa4e    ..N.    BL       am_hal_iom_nonblocking_transfer ; 0xf09c
        0x0000cc00:    b118        ..      CBZ      r0,0xcc0a ; am_devices_mb85rc256v_nonblocking_write + 94
        0x0000cc02:    e7ff        ..      B        0xcc04 ; am_devices_mb85rc256v_nonblocking_write + 88
        0x0000cc04:    2001        .       MOVS     r0,#1
        0x0000cc06:    900f        ..      STR      r0,[sp,#0x3c]
        0x0000cc08:    e002        ..      B        0xcc10 ; am_devices_mb85rc256v_nonblocking_write + 100
        0x0000cc0a:    2000        .       MOVS     r0,#0
        0x0000cc0c:    900f        ..      STR      r0,[sp,#0x3c]
        0x0000cc0e:    e7ff        ..      B        0xcc10 ; am_devices_mb85rc256v_nonblocking_write + 100
        0x0000cc10:    980f        ..      LDR      r0,[sp,#0x3c]
        0x0000cc12:    b010        ..      ADD      sp,sp,#0x40
        0x0000cc14:    bd80        ..      POP      {r7,pc}
        0x0000cc16:    0000        ..      MOVS     r0,r0
    am_devices_mb85rc256v_read_id
        0x0000cc18:    b580        ..      PUSH     {r7,lr}
        0x0000cc1a:    b08a        ..      SUB      sp,sp,#0x28
        0x0000cc1c:    9008        ..      STR      r0,[sp,#0x20]
        0x0000cc1e:    9107        ..      STR      r1,[sp,#0x1c]
        0x0000cc20:    9808        ..      LDR      r0,[sp,#0x20]
        0x0000cc22:    9006        ..      STR      r0,[sp,#0x18]
        0x0000cc24:    9806        ..      LDR      r0,[sp,#0x18]
        0x0000cc26:    6840        @h      LDR      r0,[r0,#4]
        0x0000cc28:    9907        ..      LDR      r1,[sp,#0x1c]
        0x0000cc2a:    466a        jF      MOV      r2,sp
        0x0000cc2c:    2303        .#      MOVS     r3,#3
        0x0000cc2e:    6113        .a      STR      r3,[r2,#0x10]
        0x0000cc30:    60d1        .`      STR      r1,[r2,#0xc]
        0x0000cc32:    2100        .!      MOVS     r1,#0
        0x0000cc34:    6091        .`      STR      r1,[r2,#8]
        0x0000cc36:    6051        Q`      STR      r1,[r2,#4]
        0x0000cc38:    21a0        .!      MOVS     r1,#0xa0
        0x0000cc3a:    6011        .`      STR      r1,[r2,#0]
        0x0000cc3c:    217c        |!      MOVS     r1,#0x7c
        0x0000cc3e:    2201        ."      MOVS     r2,#1
        0x0000cc40:    f7fffe22    ..".    BL       am_device_command_read ; 0xc888
        0x0000cc44:    b118        ..      CBZ      r0,0xcc4e ; am_devices_mb85rc256v_read_id + 54
        0x0000cc46:    e7ff        ..      B        0xcc48 ; am_devices_mb85rc256v_read_id + 48
        0x0000cc48:    2001        .       MOVS     r0,#1
        0x0000cc4a:    9009        ..      STR      r0,[sp,#0x24]
        0x0000cc4c:    e002        ..      B        0xcc54 ; am_devices_mb85rc256v_read_id + 60
        0x0000cc4e:    2000        .       MOVS     r0,#0
        0x0000cc50:    9009        ..      STR      r0,[sp,#0x24]
        0x0000cc52:    e7ff        ..      B        0xcc54 ; am_devices_mb85rc256v_read_id + 60
        0x0000cc54:    9809        ..      LDR      r0,[sp,#0x24]
        0x0000cc56:    b00a        ..      ADD      sp,sp,#0x28
        0x0000cc58:    bd80        ..      POP      {r7,pc}
        0x0000cc5a:    0000        ..      MOVS     r0,r0
    am_devices_mb85rc256v_term
        0x0000cc5c:    b580        ..      PUSH     {r7,lr}
        0x0000cc5e:    b084        ..      SUB      sp,sp,#0x10
        0x0000cc60:    9002        ..      STR      r0,[sp,#8]
        0x0000cc62:    9802        ..      LDR      r0,[sp,#8]
        0x0000cc64:    9001        ..      STR      r0,[sp,#4]
        0x0000cc66:    9801        ..      LDR      r0,[sp,#4]
        0x0000cc68:    6800        .h      LDR      r0,[r0,#0]
        0x0000cc6a:    2807        .(      CMP      r0,#7
        0x0000cc6c:    d303        ..      BCC      0xcc76 ; am_devices_mb85rc256v_term + 26
        0x0000cc6e:    e7ff        ..      B        0xcc70 ; am_devices_mb85rc256v_term + 20
        0x0000cc70:    2001        .       MOVS     r0,#1
        0x0000cc72:    9003        ..      STR      r0,[sp,#0xc]
        0x0000cc74:    e019        ..      B        0xccaa ; am_devices_mb85rc256v_term + 78
        0x0000cc76:    9801        ..      LDR      r0,[sp,#4]
        0x0000cc78:    6840        @h      LDR      r0,[r0,#4]
        0x0000cc7a:    f001ffab    ....    BL       am_hal_iom_disable ; 0xebd4
        0x0000cc7e:    9801        ..      LDR      r0,[sp,#4]
        0x0000cc80:    6840        @h      LDR      r0,[r0,#4]
        0x0000cc82:    2102        .!      MOVS     r1,#2
        0x0000cc84:    2200        ."      MOVS     r2,#0
        0x0000cc86:    9200        ..      STR      r2,[sp,#0]
        0x0000cc88:    f002faf2    ....    BL       am_hal_iom_power_ctrl ; 0xf270
        0x0000cc8c:    9801        ..      LDR      r0,[sp,#4]
        0x0000cc8e:    6840        @h      LDR      r0,[r0,#4]
        0x0000cc90:    f002fbf0    ....    BL       am_hal_iom_uninitialize ; 0xf474
        0x0000cc94:    9800        ..      LDR      r0,[sp,#0]
        0x0000cc96:    9901        ..      LDR      r1,[sp,#4]
        0x0000cc98:    7208        .r      STRB     r0,[r1,#8]
        0x0000cc9a:    9801        ..      LDR      r0,[sp,#4]
        0x0000cc9c:    6800        .h      LDR      r0,[r0,#0]
        0x0000cc9e:    2101        .!      MOVS     r1,#1
        0x0000cca0:    f7fffb16    ....    BL       am_bsp_iom_pins_disable ; 0xc2d0
        0x0000cca4:    9800        ..      LDR      r0,[sp,#0]
        0x0000cca6:    9003        ..      STR      r0,[sp,#0xc]
        0x0000cca8:    e7ff        ..      B        0xccaa ; am_devices_mb85rc256v_term + 78
        0x0000ccaa:    9803        ..      LDR      r0,[sp,#0xc]
        0x0000ccac:    b004        ..      ADD      sp,sp,#0x10
        0x0000ccae:    bd80        ..      POP      {r7,pc}
    am_hal_burst_ldo_charge
        0x0000ccb0:    b510        ..      PUSH     {r4,lr}
        0x0000ccb2:    f6430038    C.8.    MOV      r0,#0x3838
        0x0000ccb6:    f2c50002    ....    MOVT     r0,#0x5002
        0x0000ccba:    6800        .h      LDR      r0,[r0,#0]
        0x0000ccbc:    0700        ..      LSLS     r0,r0,#28
        0x0000ccbe:    bf48        H.      IT       MI
        0x0000ccc0:    bd10        ..      POPMI    {r4,pc}
        0x0000ccc2:    2464        d$      MOVS     r4,#0x64
        0x0000ccc4:    f2c40402    ....    MOVT     r4,#0x4002
        0x0000ccc8:    f8540c04    T...    LDR      r0,[r4,#-4]
        0x0000cccc:    f0200080     ...    BIC      r0,r0,#0x80
        0x0000ccd0:    f8440c04    D...    STR      r0,[r4,#-4]
        0x0000ccd4:    f8540c04    T...    LDR      r0,[r4,#-4]
        0x0000ccd8:    f0200020     . .    BIC      r0,r0,#0x20
        0x0000ccdc:    f8440c04    D...    STR      r0,[r4,#-4]
        0x0000cce0:    f8540c04    T...    LDR      r0,[r4,#-4]
        0x0000cce4:    f0400040    @.@.    ORR      r0,r0,#0x40
        0x0000cce8:    f8440c04    D...    STR      r0,[r4,#-4]
        0x0000ccec:    f8540c04    T...    LDR      r0,[r4,#-4]
        0x0000ccf0:    f4407080    @..p    ORR      r0,r0,#0x100
        0x0000ccf4:    f8440c04    D...    STR      r0,[r4,#-4]
        0x0000ccf8:    f2471000    G...    MOVW     r0,#0x7100
        0x0000ccfc:    f2c00002    ....    MOVT     r0,#2
        0x0000cd00:    f001f8d8    ....    BL       am_hal_flash_delay ; 0xdeb4
        0x0000cd04:    6820         h      LDR      r0,[r4,#0]
        0x0000cd06:    f0400008    @...    ORR      r0,r0,#8
        0x0000cd0a:    6020         `      STR      r0,[r4,#0]
        0x0000cd0c:    6820         h      LDR      r0,[r4,#0]
        0x0000cd0e:    f0400001    @...    ORR      r0,r0,#1
        0x0000cd12:    6020         `      STR      r0,[r4,#0]
        0x0000cd14:    6820         h      LDR      r0,[r4,#0]
        0x0000cd16:    f0400004    @...    ORR      r0,r0,#4
        0x0000cd1a:    6020         `      STR      r0,[r4,#0]
        0x0000cd1c:    6820         h      LDR      r0,[r4,#0]
        0x0000cd1e:    f0200002     ...    BIC      r0,r0,#2
        0x0000cd22:    6020         `      STR      r0,[r4,#0]
        0x0000cd24:    6820         h      LDR      r0,[r4,#0]
        0x0000cd26:    f0400010    @...    ORR      r0,r0,#0x10
        0x0000cd2a:    6020         `      STR      r0,[r4,#0]
        0x0000cd2c:    2020                MOVS     r0,#0x20
        0x0000cd2e:    f001f8c1    ....    BL       am_hal_flash_delay ; 0xdeb4
        0x0000cd32:    6820         h      LDR      r0,[r4,#0]
        0x0000cd34:    f0400002    @...    ORR      r0,r0,#2
        0x0000cd38:    6020         `      STR      r0,[r4,#0]
        0x0000cd3a:    f44f40fa    O..@    MOV      r0,#0x7d00
        0x0000cd3e:    f001f8b9    ....    BL       am_hal_flash_delay ; 0xdeb4
        0x0000cd42:    6820         h      LDR      r0,[r4,#0]
        0x0000cd44:    f0200001     ...    BIC      r0,r0,#1
        0x0000cd48:    6020         `      STR      r0,[r4,#0]
        0x0000cd4a:    6820         h      LDR      r0,[r4,#0]
        0x0000cd4c:    f0200004     ...    BIC      r0,r0,#4
        0x0000cd50:    6020         `      STR      r0,[r4,#0]
        0x0000cd52:    6820         h      LDR      r0,[r4,#0]
        0x0000cd54:    f0200002     ...    BIC      r0,r0,#2
        0x0000cd58:    6020         `      STR      r0,[r4,#0]
        0x0000cd5a:    f8540c04    T...    LDR      r0,[r4,#-4]
        0x0000cd5e:    f0200040     .@.    BIC      r0,r0,#0x40
        0x0000cd62:    f8440c04    D...    STR      r0,[r4,#-4]
        0x0000cd66:    f8540c04    T...    LDR      r0,[r4,#-4]
        0x0000cd6a:    f4207080     ..p    BIC      r0,r0,#0x100
        0x0000cd6e:    f8440c04    D...    STR      r0,[r4,#-4]
        0x0000cd72:    bd10        ..      POP      {r4,pc}
    am_hal_burst_ldo_patch_check
        0x0000cd74:    f6430038    C.8.    MOV      r0,#0x3838
        0x0000cd78:    f2c50002    ....    MOVT     r0,#0x5002
        0x0000cd7c:    6800        .h      LDR      r0,[r0,#0]
        0x0000cd7e:    2101        .!      MOVS     r1,#1
        0x0000cd80:    f0000008    ....    AND      r0,r0,#8
        0x0000cd84:    ea8100d0    ....    EOR      r0,r1,r0,LSR #3
        0x0000cd88:    4770        pG      BX       lr
        0x0000cd8a:    0000        ..      MOVS     r0,r0
    am_hal_burst_mode_disable
        0x0000cd8c:    b570        p.      PUSH     {r4-r6,lr}
        0x0000cd8e:    b082        ..      SUB      sp,sp,#8
        0x0000cd90:    f6444574    D.tE    MOV      r5,#0x4c74
        0x0000cd94:    f2c10501    ....    MOVT     r5,#0x1001
        0x0000cd98:    7829        )x      LDRB     r1,[r5,#0]
        0x0000cd9a:    4604        .F      MOV      r4,r0
        0x0000cd9c:    b311        ..      CBZ      r1,0xcde4 ; am_hal_burst_mode_disable + 88
        0x0000cd9e:    f2440534    D.4.    MOV      r5,#0x4034
        0x0000cda2:    f2c40500    ....    MOVT     r5,#0x4000
        0x0000cda6:    f001faa1    ....    BL       am_hal_interrupt_master_disable ; 0xe2ec
        0x0000cdaa:    9001        ..      STR      r0,[sp,#4]
        0x0000cdac:    4628        (F      MOV      r0,r5
        0x0000cdae:    2100        .!      MOVS     r1,#0
        0x0000cdb0:    f001f8f6    ....    BL       am_hal_flash_store_ui32 ; 0xdfa0
        0x0000cdb4:    9801        ..      LDR      r0,[sp,#4]
        0x0000cdb6:    f001faa1    ....    BL       am_hal_interrupt_master_set ; 0xe2fc
        0x0000cdba:    f2410028    A.(.    MOV      r0,#0x1028
        0x0000cdbe:    f2c40002    ....    MOVT     r0,#0x4002
        0x0000cdc2:    6801        .h      LDR      r1,[r0,#0]
        0x0000cdc4:    2601        .&      MOVS     r6,#1
        0x0000cdc6:    f0214100    !..A    BIC      r1,r1,#0x80000000
        0x0000cdca:    6001        .`      STR      r1,[r0,#0]
        0x0000cdcc:    f2427010    B..p    MOV      r0,#0x2710
        0x0000cdd0:    4629        )F      MOV      r1,r5
        0x0000cdd2:    2204        ."      MOVS     r2,#4
        0x0000cdd4:    2300        .#      MOVS     r3,#0
        0x0000cdd6:    9600        ..      STR      r6,[sp,#0]
        0x0000cdd8:    f001f882    ....    BL       am_hal_flash_delay_status_check ; 0xdee0
        0x0000cddc:    b160        `.      CBZ      r0,0xcdf8 ; am_hal_burst_mode_disable + 108
        0x0000cdde:    7026        &p      STRB     r6,[r4,#0]
        0x0000cde0:    b002        ..      ADD      sp,sp,#8
        0x0000cde2:    bd70        p.      POP      {r4-r6,pc}
        0x0000cde4:    b184        ..      CBZ      r4,0xce08 ; am_hal_burst_mode_disable + 124
        0x0000cde6:    2001        .       MOVS     r0,#1
        0x0000cde8:    7028        (p      STRB     r0,[r5,#0]
        0x0000cdea:    4620         F      MOV      r0,r4
        0x0000cdec:    f7ffffce    ....    BL       am_hal_burst_mode_disable ; 0xcd8c
        0x0000cdf0:    2100        .!      MOVS     r1,#0
        0x0000cdf2:    7029        )p      STRB     r1,[r5,#0]
        0x0000cdf4:    e009        ..      B        0xce0a ; am_hal_burst_mode_disable + 126
        0x0000cdf6:    bf00        ..      NOP      
        0x0000cdf8:    6828        (h      LDR      r0,[r5,#0]
        0x0000cdfa:    ea260090    &...    BIC      r0,r6,r0,LSR #2
        0x0000cdfe:    7020         p      STRB     r0,[r4,#0]
        0x0000ce00:    2000        .       MOVS     r0,#0
        0x0000ce02:    b002        ..      ADD      sp,sp,#8
        0x0000ce04:    bd70        p.      POP      {r4-r6,pc}
        0x0000ce06:    bf00        ..      NOP      
        0x0000ce08:    2002        .       MOVS     r0,#2
        0x0000ce0a:    f6430138    C.8.    MOV      r1,#0x3838
        0x0000ce0e:    f2c50102    ....    MOVT     r1,#0x5002
        0x0000ce12:    6809        .h      LDR      r1,[r1,#0]
        0x0000ce14:    0709        ..      LSLS     r1,r1,#28
        0x0000ce16:    d4f4        ..      BMI      0xce02 ; am_hal_burst_mode_disable + 118
        0x0000ce18:    2164        d!      MOVS     r1,#0x64
        0x0000ce1a:    f2c40102    ....    MOVT     r1,#0x4002
        0x0000ce1e:    680a        .h      LDR      r2,[r1,#0]
        0x0000ce20:    f0220204    "...    BIC      r2,r2,#4
        0x0000ce24:    600a        .`      STR      r2,[r1,#0]
        0x0000ce26:    680a        .h      LDR      r2,[r1,#0]
        0x0000ce28:    f0220202    "...    BIC      r2,r2,#2
        0x0000ce2c:    600a        .`      STR      r2,[r1,#0]
        0x0000ce2e:    f8d12fc0    .../    LDR      r2,[r1,#0xfc0]
        0x0000ce32:    f0220280    "...    BIC      r2,r2,#0x80
        0x0000ce36:    f8c12fc0    .../    STR      r2,[r1,#0xfc0]
        0x0000ce3a:    b002        ..      ADD      sp,sp,#8
        0x0000ce3c:    bd70        p.      POP      {r4-r6,pc}
        0x0000ce3e:    0000        ..      MOVS     r0,r0
    am_hal_burst_mode_enable
        0x0000ce40:    b570        p.      PUSH     {r4-r6,lr}
        0x0000ce42:    b082        ..      SUB      sp,sp,#8
        0x0000ce44:    f2411148    A.H.    MOV      r1,#0x1148
        0x0000ce48:    f2c10101    ....    MOVT     r1,#0x1001
        0x0000ce4c:    784a        Jx      LDRB     r2,[r1,#1]
        0x0000ce4e:    4604        .F      MOV      r4,r0
        0x0000ce50:    b1b2        ..      CBZ      r2,0xce80 ; am_hal_burst_mode_enable + 64
        0x0000ce52:    7808        .x      LDRB     r0,[r1,#0]
        0x0000ce54:    b1d0        ..      CBZ      r0,0xce8c ; am_hal_burst_mode_enable + 76
        0x0000ce56:    f2440534    D.4.    MOV      r5,#0x4034
        0x0000ce5a:    f2c40500    ....    MOVT     r5,#0x4000
        0x0000ce5e:    6828        (h      LDR      r0,[r5,#0]
        0x0000ce60:    2601        .&      MOVS     r6,#1
        0x0000ce62:    f0400001    @...    ORR      r0,r0,#1
        0x0000ce66:    6028        (`      STR      r0,[r5,#0]
        0x0000ce68:    f2427010    B..p    MOV      r0,#0x2710
        0x0000ce6c:    4629        )F      MOV      r1,r5
        0x0000ce6e:    2204        ."      MOVS     r2,#4
        0x0000ce70:    2304        .#      MOVS     r3,#4
        0x0000ce72:    9600        ..      STR      r6,[sp,#0]
        0x0000ce74:    f001f834    ..4.    BL       am_hal_flash_delay_status_check ; 0xdee0
        0x0000ce78:    b170        p.      CBZ      r0,0xce98 ; am_hal_burst_mode_enable + 88
        0x0000ce7a:    7026        &p      STRB     r6,[r4,#0]
        0x0000ce7c:    b002        ..      ADD      sp,sp,#8
        0x0000ce7e:    bd70        p.      POP      {r4-r6,pc}
        0x0000ce80:    4620         F      MOV      r0,r4
        0x0000ce82:    b002        ..      ADD      sp,sp,#8
        0x0000ce84:    e8bd4070    ..p@    POP      {r4-r6,lr}
        0x0000ce88:    f000b816    ....    B.W      am_hal_burst_mode_enable_w_manual_sequence ; 0xceb8
        0x0000ce8c:    2001        .       MOVS     r0,#1
        0x0000ce8e:    7020         p      STRB     r0,[r4,#0]
        0x0000ce90:    2007        .       MOVS     r0,#7
        0x0000ce92:    b002        ..      ADD      sp,sp,#8
        0x0000ce94:    bd70        p.      POP      {r4-r6,pc}
        0x0000ce96:    bf00        ..      NOP      
        0x0000ce98:    6828        (h      LDR      r0,[r5,#0]
        0x0000ce9a:    0780        ..      LSLS     r0,r0,#30
        0x0000ce9c:    d404        ..      BMI      0xcea8 ; am_hal_burst_mode_enable + 104
        0x0000ce9e:    2001        .       MOVS     r0,#1
        0x0000cea0:    7020         p      STRB     r0,[r4,#0]
        0x0000cea2:    b002        ..      ADD      sp,sp,#8
        0x0000cea4:    bd70        p.      POP      {r4-r6,pc}
        0x0000cea6:    bf00        ..      NOP      
        0x0000cea8:    6828        (h      LDR      r0,[r5,#0]
        0x0000ceaa:    2101        .!      MOVS     r1,#1
        0x0000ceac:    ea210090    !...    BIC      r0,r1,r0,LSR #2
        0x0000ceb0:    7020         p      STRB     r0,[r4,#0]
        0x0000ceb2:    2000        .       MOVS     r0,#0
        0x0000ceb4:    b002        ..      ADD      sp,sp,#8
        0x0000ceb6:    bd70        p.      POP      {r4-r6,pc}
    am_hal_burst_mode_enable_w_manual_sequence
        0x0000ceb8:    e92d43f0    -..C    PUSH     {r4-r9,lr}
        0x0000cebc:    b083        ..      SUB      sp,sp,#0xc
        0x0000cebe:    f2411848    A.H.    MOV      r8,#0x1148
        0x0000cec2:    f2c10801    ....    MOVT     r8,#0x1001
        0x0000cec6:    f8981000    ....    LDRB     r1,[r8,#0]
        0x0000ceca:    4604        .F      MOV      r4,r0
        0x0000cecc:    2900        .)      CMP      r1,#0
        0x0000cece:    d04d        M.      BEQ      0xcf6c ; am_hal_burst_mode_enable_w_manual_sequence + 180
        0x0000ced0:    f6430038    C.8.    MOV      r0,#0x3838
        0x0000ced4:    f2c50002    ....    MOVT     r0,#0x5002
        0x0000ced8:    6800        .h      LDR      r0,[r0,#0]
        0x0000ceda:    0700        ..      LSLS     r0,r0,#28
        0x0000cedc:    d44e        N.      BMI      0xcf7c ; am_hal_burst_mode_enable_w_manual_sequence + 196
        0x0000cede:    2760        `'      MOVS     r7,#0x60
        0x0000cee0:    f2c40702    ....    MOVT     r7,#0x4002
        0x0000cee4:    f001fa02    ....    BL       am_hal_interrupt_master_disable ; 0xe2ec
        0x0000cee8:    9002        ..      STR      r0,[sp,#8]
        0x0000ceea:    f002fe85    ....    BL       am_hal_pwrctrl_wa_vddf_restore ; 0xfbf8
        0x0000ceee:    6838        8h      LDR      r0,[r7,#0]
        0x0000cef0:    f2410524    A.$.    MOV      r5,#0x1024
        0x0000cef4:    f0400080    @...    ORR      r0,r0,#0x80
        0x0000cef8:    6038        8`      STR      r0,[r7,#0]
        0x0000cefa:    6838        8h      LDR      r0,[r7,#0]
        0x0000cefc:    f2c40502    ....    MOVT     r5,#0x4002
        0x0000cf00:    f0400040    @.@.    ORR      r0,r0,#0x40
        0x0000cf04:    6038        8`      STR      r0,[r7,#0]
        0x0000cf06:    f8550c20    U. .    LDR      r0,[r5,#-0x20]
        0x0000cf0a:    6839        9h      LDR      r1,[r7,#0]
        0x0000cf0c:    0840        @.      LSRS     r0,r0,#1
        0x0000cf0e:    f3601145    `.E.    BFI      r1,r0,#5,#1
        0x0000cf12:    6039        9`      STR      r1,[r7,#0]
        0x0000cf14:    6838        8h      LDR      r0,[r7,#0]
        0x0000cf16:    f4407080    @..p    ORR      r0,r0,#0x100
        0x0000cf1a:    6038        8`      STR      r0,[r7,#0]
        0x0000cf1c:    20a0        .       MOVS     r0,#0xa0
        0x0000cf1e:    f000ffc9    ....    BL       am_hal_flash_delay ; 0xdeb4
        0x0000cf22:    6838        8h      LDR      r0,[r7,#0]
        0x0000cf24:    f0400020    @. .    ORR      r0,r0,#0x20
        0x0000cf28:    6038        8`      STR      r0,[r7,#0]
        0x0000cf2a:    6828        (h      LDR      r0,[r5,#0]
        0x0000cf2c:    f0400080    @...    ORR      r0,r0,#0x80
        0x0000cf30:    6028        (`      STR      r0,[r5,#0]
        0x0000cf32:    f8d70fa0    ....    LDR      r0,[r7,#0xfa0]
        0x0000cf36:    f0400001    @...    ORR      r0,r0,#1
        0x0000cf3a:    f8c70fa0    ....    STR      r0,[r7,#0xfa0]
        0x0000cf3e:    6879        yh      LDR      r1,[r7,#4]
        0x0000cf40:    6878        xh      LDR      r0,[r7,#4]
        0x0000cf42:    06c9        ..      LSLS     r1,r1,#27
        0x0000cf44:    d430        0.      BMI      0xcfa8 ; am_hal_burst_mode_enable_w_manual_sequence + 240
        0x0000cf46:    f0400008    @...    ORR      r0,r0,#8
        0x0000cf4a:    6078        x`      STR      r0,[r7,#4]
        0x0000cf4c:    6878        xh      LDR      r0,[r7,#4]
        0x0000cf4e:    f0400001    @...    ORR      r0,r0,#1
        0x0000cf52:    6078        x`      STR      r0,[r7,#4]
        0x0000cf54:    6878        xh      LDR      r0,[r7,#4]
        0x0000cf56:    f0400004    @...    ORR      r0,r0,#4
        0x0000cf5a:    6078        x`      STR      r0,[r7,#4]
        0x0000cf5c:    6878        xh      LDR      r0,[r7,#4]
        0x0000cf5e:    f0200002     ...    BIC      r0,r0,#2
        0x0000cf62:    6078        x`      STR      r0,[r7,#4]
        0x0000cf64:    6878        xh      LDR      r0,[r7,#4]
        0x0000cf66:    f0400010    @...    ORR      r0,r0,#0x10
        0x0000cf6a:    e01f        ..      B        0xcfac ; am_hal_burst_mode_enable_w_manual_sequence + 244
        0x0000cf6c:    2001        .       MOVS     r0,#1
        0x0000cf6e:    7020         p      STRB     r0,[r4,#0]
        0x0000cf70:    2507        .%      MOVS     r5,#7
        0x0000cf72:    4628        (F      MOV      r0,r5
        0x0000cf74:    b003        ..      ADD      sp,sp,#0xc
        0x0000cf76:    e8bd83f0    ....    POP      {r4-r9,pc}
        0x0000cf7a:    bf00        ..      NOP      
        0x0000cf7c:    f2440634    D.4.    MOV      r6,#0x4034
        0x0000cf80:    2701        .'      MOVS     r7,#1
        0x0000cf82:    f2c40600    ....    MOVT     r6,#0x4000
        0x0000cf86:    f8887001    ...p    STRB     r7,[r8,#1]
        0x0000cf8a:    6830        0h      LDR      r0,[r6,#0]
        0x0000cf8c:    4631        1F      MOV      r1,r6
        0x0000cf8e:    f0400001    @...    ORR      r0,r0,#1
        0x0000cf92:    6030        0`      STR      r0,[r6,#0]
        0x0000cf94:    f2427010    B..p    MOV      r0,#0x2710
        0x0000cf98:    2204        ."      MOVS     r2,#4
        0x0000cf9a:    2304        .#      MOVS     r3,#4
        0x0000cf9c:    9700        ..      STR      r7,[sp,#0]
        0x0000cf9e:    f000ff9f    ....    BL       am_hal_flash_delay_status_check ; 0xdee0
        0x0000cfa2:    b348        H.      CBZ      r0,0xcff8 ; am_hal_burst_mode_enable_w_manual_sequence + 320
        0x0000cfa4:    4605        .F      MOV      r5,r0
        0x0000cfa6:    e03b        ;.      B        0xd020 ; am_hal_burst_mode_enable_w_manual_sequence + 360
        0x0000cfa8:    f0400004    @...    ORR      r0,r0,#4
        0x0000cfac:    6078        x`      STR      r0,[r7,#4]
        0x0000cfae:    2020                MOVS     r0,#0x20
        0x0000cfb0:    f000ff80    ....    BL       am_hal_flash_delay ; 0xdeb4
        0x0000cfb4:    6878        xh      LDR      r0,[r7,#4]
        0x0000cfb6:    f0400002    @...    ORR      r0,r0,#2
        0x0000cfba:    6078        x`      STR      r0,[r7,#4]
        0x0000cfbc:    2010        .       MOVS     r0,#0x10
        0x0000cfbe:    f000ff79    ..y.    BL       am_hal_flash_delay ; 0xdeb4
        0x0000cfc2:    f8980000    ....    LDRB     r0,[r8,#0]
        0x0000cfc6:    2601        .&      MOVS     r6,#1
        0x0000cfc8:    f8886001    ...`    STRB     r6,[r8,#1]
        0x0000cfcc:    b1d0        ..      CBZ      r0,0xd004 ; am_hal_burst_mode_enable_w_manual_sequence + 332
        0x0000cfce:    f2440934    D.4.    MOV      r9,#0x4034
        0x0000cfd2:    f2c40900    ....    MOVT     r9,#0x4000
        0x0000cfd6:    f8d90000    ....    LDR      r0,[r9,#0]
        0x0000cfda:    4649        IF      MOV      r1,r9
        0x0000cfdc:    f0400001    @...    ORR      r0,r0,#1
        0x0000cfe0:    f8c90000    ....    STR      r0,[r9,#0]
        0x0000cfe4:    f2427010    B..p    MOV      r0,#0x2710
        0x0000cfe8:    2204        ."      MOVS     r2,#4
        0x0000cfea:    2304        .#      MOVS     r3,#4
        0x0000cfec:    9600        ..      STR      r6,[sp,#0]
        0x0000cfee:    f000ff77    ..w.    BL       am_hal_flash_delay_status_check ; 0xdee0
        0x0000cff2:    b148        H.      CBZ      r0,0xd008 ; am_hal_burst_mode_enable_w_manual_sequence + 336
        0x0000cff4:    4605        .F      MOV      r5,r0
        0x0000cff6:    e020         .      B        0xd03a ; am_hal_burst_mode_enable_w_manual_sequence + 386
        0x0000cff8:    6830        0h      LDR      r0,[r6,#0]
        0x0000cffa:    2701        .'      MOVS     r7,#1
        0x0000cffc:    0780        ..      LSLS     r0,r0,#30
        0x0000cffe:    d40b        ..      BMI      0xd018 ; am_hal_burst_mode_enable_w_manual_sequence + 352
        0x0000d000:    2501        .%      MOVS     r5,#1
        0x0000d002:    e00d        ..      B        0xd020 ; am_hal_burst_mode_enable_w_manual_sequence + 360
        0x0000d004:    2507        .%      MOVS     r5,#7
        0x0000d006:    e018        ..      B        0xd03a ; am_hal_burst_mode_enable_w_manual_sequence + 386
        0x0000d008:    f8d90000    ....    LDR      r0,[r9,#0]
        0x0000d00c:    2601        .&      MOVS     r6,#1
        0x0000d00e:    0780        ..      LSLS     r0,r0,#30
        0x0000d010:    d40e        ..      BMI      0xd030 ; am_hal_burst_mode_enable_w_manual_sequence + 376
        0x0000d012:    2501        .%      MOVS     r5,#1
        0x0000d014:    e011        ..      B        0xd03a ; am_hal_burst_mode_enable_w_manual_sequence + 386
        0x0000d016:    bf00        ..      NOP      
        0x0000d018:    6830        0h      LDR      r0,[r6,#0]
        0x0000d01a:    2500        .%      MOVS     r5,#0
        0x0000d01c:    ea270790    '...    BIC      r7,r7,r0,LSR #2
        0x0000d020:    2000        .       MOVS     r0,#0
        0x0000d022:    7027        'p      STRB     r7,[r4,#0]
        0x0000d024:    f8880001    ....    STRB     r0,[r8,#1]
        0x0000d028:    4628        (F      MOV      r0,r5
        0x0000d02a:    b003        ..      ADD      sp,sp,#0xc
        0x0000d02c:    e8bd83f0    ....    POP      {r4-r9,pc}
        0x0000d030:    f8d90000    ....    LDR      r0,[r9,#0]
        0x0000d034:    2500        .%      MOVS     r5,#0
        0x0000d036:    ea260690    &...    BIC      r6,r6,r0,LSR #2
        0x0000d03a:    2000        .       MOVS     r0,#0
        0x0000d03c:    7026        &p      STRB     r6,[r4,#0]
        0x0000d03e:    f8880001    ....    STRB     r0,[r8,#1]
        0x0000d042:    f44f70c8    O..p    MOV      r0,#0x190
        0x0000d046:    f000ff35    ..5.    BL       am_hal_flash_delay ; 0xdeb4
        0x0000d04a:    6838        8h      LDR      r0,[r7,#0]
        0x0000d04c:    f4207080     ..p    BIC      r0,r0,#0x100
        0x0000d050:    6038        8`      STR      r0,[r7,#0]
        0x0000d052:    6838        8h      LDR      r0,[r7,#0]
        0x0000d054:    f0200080     ...    BIC      r0,r0,#0x80
        0x0000d058:    6038        8`      STR      r0,[r7,#0]
        0x0000d05a:    6838        8h      LDR      r0,[r7,#0]
        0x0000d05c:    f0200040     .@.    BIC      r0,r0,#0x40
        0x0000d060:    6038        8`      STR      r0,[r7,#0]
        0x0000d062:    6838        8h      LDR      r0,[r7,#0]
        0x0000d064:    f0200020     . .    BIC      r0,r0,#0x20
        0x0000d068:    6038        8`      STR      r0,[r7,#0]
        0x0000d06a:    6878        xh      LDR      r0,[r7,#4]
        0x0000d06c:    07c0        ..      LSLS     r0,r0,#31
        0x0000d06e:    d003        ..      BEQ      0xd078 ; am_hal_burst_mode_enable_w_manual_sequence + 448
        0x0000d070:    6878        xh      LDR      r0,[r7,#4]
        0x0000d072:    f0200001     ...    BIC      r0,r0,#1
        0x0000d076:    6078        x`      STR      r0,[r7,#4]
        0x0000d078:    f002fd5a    ..Z.    BL       am_hal_pwrctrl_wa_vddf_boost ; 0xfb30
        0x0000d07c:    9802        ..      LDR      r0,[sp,#8]
        0x0000d07e:    f001f93d    ..=.    BL       am_hal_interrupt_master_set ; 0xe2fc
        0x0000d082:    4628        (F      MOV      r0,r5
        0x0000d084:    b003        ..      ADD      sp,sp,#0xc
        0x0000d086:    e8bd83f0    ....    POP      {r4-r9,pc}
        0x0000d08a:    0000        ..      MOVS     r0,r0
    am_hal_cachectrl_config
        0x0000d08c:    b5b0        ..      PUSH     {r4,r5,r7,lr}
        0x0000d08e:    b082        ..      SUB      sp,sp,#8
        0x0000d090:    4604        .F      MOV      r4,r0
        0x0000d092:    f001f92b    ..+.    BL       am_hal_interrupt_master_disable ; 0xe2ec
        0x0000d096:    f2480500    H...    MOVW     r5,#0x8000
        0x0000d09a:    9001        ..      STR      r0,[sp,#4]
        0x0000d09c:    f2c40501    ....    MOVT     r5,#0x4001
        0x0000d0a0:    6828        (h      LDR      r0,[r5,#0]
        0x0000d0a2:    f4207040     .@p    BIC      r0,r0,#0x300
        0x0000d0a6:    6028        (`      STR      r0,[r5,#0]
        0x0000d0a8:    9801        ..      LDR      r0,[sp,#4]
        0x0000d0aa:    f001f927    ..'.    BL       am_hal_interrupt_master_set ; 0xe2fc
        0x0000d0ae:    78a1        .x      LDRB     r1,[r4,#2]
        0x0000d0b0:    7820         x      LDRB     r0,[r4,#0]
        0x0000d0b2:    7862        bx      LDRB     r2,[r4,#1]
        0x0000d0b4:    0049        I.      LSLS     r1,r1,#1
        0x0000d0b6:    b2c9        ..      UXTB     r1,r1
        0x0000d0b8:    f0020203    ....    AND      r2,r2,#3
        0x0000d0bc:    f3601107    `...    BFI      r1,r0,#4,#4
        0x0000d0c0:    ea412002    A..     ORR      r0,r1,r2,LSL #8
        0x0000d0c4:    f4401080    @...    ORR      r0,r0,#0x100000
        0x0000d0c8:    f4406180    @..a    ORR      r1,r0,#0x400
        0x0000d0cc:    2000        .       MOVS     r0,#0
        0x0000d0ce:    6029        )`      STR      r1,[r5,#0]
        0x0000d0d0:    b002        ..      ADD      sp,sp,#8
        0x0000d0d2:    bdb0        ..      POP      {r4,r5,r7,pc}
    am_hal_cachectrl_control
        0x0000d0d4:    b510        ..      PUSH     {r4,lr}
        0x0000d0d6:    b082        ..      SUB      sp,sp,#8
        0x0000d0d8:    1e42        B.      SUBS     r2,r0,#1
        0x0000d0da:    2a10        .*      CMP      r2,#0x10
        0x0000d0dc:    f20080a0    ....    BHI.W    0xd220 ; am_hal_cachectrl_control + 332
        0x0000d0e0:    e8dff002    ....    TBB      [pc,r2]
    $d.4
        0x0000d0e4:    18140aa3    ....    DCD    403966627
        0x0000d0e8:    24201e1c    .. $    DCD    606084636
        0x0000d0ec:    58483628    (6HX    DCD    1481127464
        0x0000d0f0:    8a827a62    bz..    DCD    2323806818
        0x0000d0f4:    bf000094    ....    DCD    3204448404
    $t.5
        0x0000d0f8:    f2480000    H...    MOVW     r0,#0x8000
        0x0000d0fc:    f2c40001    ....    MOVT     r0,#0x4001
        0x0000d100:    6800        .h      LDR      r0,[r0,#0]
        0x0000d102:    01c0        ..      LSLS     r0,r0,#7
        0x0000d104:    f1008090    ....    BMI.W    0xd228 ; am_hal_cachectrl_control + 340
        0x0000d108:    2407        .$      MOVS     r4,#7
        0x0000d10a:    e061        a.      B        0xd1d0 ; am_hal_cachectrl_control + 252
        0x0000d10c:    f44f6088    O..`    MOV      r0,#0x440
        0x0000d110:    e08b        ..      B        0xd22a ; am_hal_cachectrl_control + 342
        0x0000d112:    bf00        ..      NOP      
        0x0000d114:    f44f7008    O..p    MOV      r0,#0x220
        0x0000d118:    e087        ..      B        0xd22a ; am_hal_cachectrl_control + 342
        0x0000d11a:    bf00        ..      NOP      
        0x0000d11c:    2040        @       MOVS     r0,#0x40
        0x0000d11e:    e084        ..      B        0xd22a ; am_hal_cachectrl_control + 342
        0x0000d120:    2020                MOVS     r0,#0x20
        0x0000d122:    e082        ..      B        0xd22a ; am_hal_cachectrl_control + 342
        0x0000d124:    f44f6080    O..`    MOV      r0,#0x400
        0x0000d128:    e07f        ..      B        0xd22a ; am_hal_cachectrl_control + 342
        0x0000d12a:    bf00        ..      NOP      
        0x0000d12c:    f44f7000    O..p    MOV      r0,#0x200
        0x0000d130:    e07b        {.      B        0xd22a ; am_hal_cachectrl_control + 342
        0x0000d132:    bf00        ..      NOP      
        0x0000d134:    f001f8da    ....    BL       am_hal_interrupt_master_disable ; 0xe2ec
        0x0000d138:    9001        ..      STR      r0,[sp,#4]
        0x0000d13a:    f2480000    H...    MOVW     r0,#0x8000
        0x0000d13e:    f2c40001    ....    MOVT     r0,#0x4001
        0x0000d142:    6801        .h      LDR      r1,[r0,#0]
        0x0000d144:    f0417180    A..q    ORR      r1,r1,#0x1000000
        0x0000d148:    6001        .`      STR      r1,[r0,#0]
        0x0000d14a:    9801        ..      LDR      r0,[sp,#4]
        0x0000d14c:    e00c        ..      B        0xd168 ; am_hal_cachectrl_control + 148
        0x0000d14e:    bf00        ..      NOP      
        0x0000d150:    f001f8cc    ....    BL       am_hal_interrupt_master_disable ; 0xe2ec
        0x0000d154:    9000        ..      STR      r0,[sp,#0]
        0x0000d156:    f2480000    H...    MOVW     r0,#0x8000
        0x0000d15a:    f2c40001    ....    MOVT     r0,#0x4001
        0x0000d15e:    6801        .h      LDR      r1,[r0,#0]
        0x0000d160:    f0217180    !..q    BIC      r1,r1,#0x1000000
        0x0000d164:    6001        .`      STR      r1,[r0,#0]
        0x0000d166:    9800        ..      LDR      r0,[sp,#0]
        0x0000d168:    f001f8c8    ....    BL       am_hal_interrupt_master_set ; 0xe2fc
        0x0000d16c:    2400        .$      MOVS     r4,#0
        0x0000d16e:    4620         F      MOV      r0,r4
        0x0000d170:    b002        ..      ADD      sp,sp,#8
        0x0000d172:    bd10        ..      POP      {r4,pc}
        0x0000d174:    2000        .       MOVS     r0,#0
        0x0000d176:    f004f81f    ....    BL       set_LPMMODE ; 0x111b8
        0x0000d17a:    2800        .(      CMP      r0,#0
        0x0000d17c:    d042        B.      BEQ      0xd204 ; am_hal_cachectrl_control + 304
        0x0000d17e:    2007        .       MOVS     r0,#7
        0x0000d180:    f004f8d0    ....    BL       set_SEDELAY ; 0x11324
        0x0000d184:    2800        .(      CMP      r0,#0
        0x0000d186:    d03d        =.      BEQ      0xd204 ; am_hal_cachectrl_control + 304
        0x0000d188:    2003        .       MOVS     r0,#3
        0x0000d18a:    f004f873    ..s.    BL       set_RDWAIT ; 0x11274
        0x0000d18e:    2800        .(      CMP      r0,#0
        0x0000d190:    d1ec        ..      BNE      0xd16c ; am_hal_cachectrl_control + 152
        0x0000d192:    e037        7.      B        0xd204 ; am_hal_cachectrl_control + 304
        0x0000d194:    2001        .       MOVS     r0,#1
        0x0000d196:    2401        .$      MOVS     r4,#1
        0x0000d198:    f004f80e    ....    BL       set_LPMMODE ; 0x111b8
        0x0000d19c:    b1c0        ..      CBZ      r0,0xd1d0 ; am_hal_cachectrl_control + 252
        0x0000d19e:    2005        .       MOVS     r0,#5
        0x0000d1a0:    f004f8c0    ....    BL       set_SEDELAY ; 0x11324
        0x0000d1a4:    b948        H.      CBNZ     r0,0xd1ba ; am_hal_cachectrl_control + 230
        0x0000d1a6:    e02d        -.      B        0xd204 ; am_hal_cachectrl_control + 304
        0x0000d1a8:    2001        .       MOVS     r0,#1
        0x0000d1aa:    2401        .$      MOVS     r4,#1
        0x0000d1ac:    f004f804    ....    BL       set_LPMMODE ; 0x111b8
        0x0000d1b0:    b170        p.      CBZ      r0,0xd1d0 ; am_hal_cachectrl_control + 252
        0x0000d1b2:    2006        .       MOVS     r0,#6
        0x0000d1b4:    f004f8b6    ....    BL       set_SEDELAY ; 0x11324
        0x0000d1b8:    b320         .      CBZ      r0,0xd204 ; am_hal_cachectrl_control + 304
        0x0000d1ba:    2001        .       MOVS     r0,#1
        0x0000d1bc:    2401        .$      MOVS     r4,#1
        0x0000d1be:    f004f859    ..Y.    BL       set_RDWAIT ; 0x11274
        0x0000d1c2:    2800        .(      CMP      r0,#0
        0x0000d1c4:    bf18        ..      IT       NE
        0x0000d1c6:    2400        .$      MOVNE    r4,#0
        0x0000d1c8:    4620         F      MOV      r0,r4
        0x0000d1ca:    b002        ..      ADD      sp,sp,#8
        0x0000d1cc:    bd10        ..      POP      {r4,pc}
        0x0000d1ce:    bf00        ..      NOP      
        0x0000d1d0:    4620         F      MOV      r0,r4
        0x0000d1d2:    b002        ..      ADD      sp,sp,#8
        0x0000d1d4:    bd10        ..      POP      {r4,pc}
        0x0000d1d6:    bf00        ..      NOP      
        0x0000d1d8:    b311        ..      CBZ      r1,0xd220 ; am_hal_cachectrl_control + 332
        0x0000d1da:    6808        .h      LDR      r0,[r1,#0]
        0x0000d1dc:    f003ffec    ....    BL       set_LPMMODE ; 0x111b8
        0x0000d1e0:    2800        .(      CMP      r0,#0
        0x0000d1e2:    d1c3        ..      BNE      0xd16c ; am_hal_cachectrl_control + 152
        0x0000d1e4:    e00e        ..      B        0xd204 ; am_hal_cachectrl_control + 304
        0x0000d1e6:    bf00        ..      NOP      
        0x0000d1e8:    b1d1        ..      CBZ      r1,0xd220 ; am_hal_cachectrl_control + 332
        0x0000d1ea:    6808        .h      LDR      r0,[r1,#0]
        0x0000d1ec:    f004f89a    ....    BL       set_SEDELAY ; 0x11324
        0x0000d1f0:    2800        .(      CMP      r0,#0
        0x0000d1f2:    d1bb        ..      BNE      0xd16c ; am_hal_cachectrl_control + 152
        0x0000d1f4:    e006        ..      B        0xd204 ; am_hal_cachectrl_control + 304
        0x0000d1f6:    bf00        ..      NOP      
        0x0000d1f8:    b191        ..      CBZ      r1,0xd220 ; am_hal_cachectrl_control + 332
        0x0000d1fa:    6808        .h      LDR      r0,[r1,#0]
        0x0000d1fc:    f004f83a    ..:.    BL       set_RDWAIT ; 0x11274
        0x0000d200:    2800        .(      CMP      r0,#0
        0x0000d202:    d1b3        ..      BNE      0xd16c ; am_hal_cachectrl_control + 152
        0x0000d204:    2401        .$      MOVS     r4,#1
        0x0000d206:    4620         F      MOV      r0,r4
        0x0000d208:    b002        ..      ADD      sp,sp,#8
        0x0000d20a:    bd10        ..      POP      {r4,pc}
        0x0000d20c:    b141        A.      CBZ      r1,0xd220 ; am_hal_cachectrl_control + 332
        0x0000d20e:    6848        Hh      LDR      r0,[r1,#4]
        0x0000d210:    220f        ."      MOVS     r2,#0xf
        0x0000d212:    f6cf0200    ....    MOVT     r2,#0xf800
        0x0000d216:    4210        .B      TST      r0,r2
        0x0000d218:    d102        ..      BNE      0xd220 ; am_hal_cachectrl_control + 332
        0x0000d21a:    688b        .h      LDR      r3,[r1,#8]
        0x0000d21c:    4213        .B      TST      r3,r2
        0x0000d21e:    d00d        ..      BEQ      0xd23c ; am_hal_cachectrl_control + 360
        0x0000d220:    2406        .$      MOVS     r4,#6
        0x0000d222:    4620         F      MOV      r0,r4
        0x0000d224:    b002        ..      ADD      sp,sp,#8
        0x0000d226:    bd10        ..      POP      {r4,pc}
        0x0000d228:    2002        .       MOVS     r0,#2
        0x0000d22a:    f2480100    H...    MOVW     r1,#0x8000
        0x0000d22e:    f2c40101    ....    MOVT     r1,#0x4001
        0x0000d232:    2400        .$      MOVS     r4,#0
        0x0000d234:    6088        .`      STR      r0,[r1,#8]
        0x0000d236:    4620         F      MOV      r0,r4
        0x0000d238:    b002        ..      ADD      sp,sp,#8
        0x0000d23a:    bd10        ..      POP      {r4,pc}
        0x0000d23c:    780a        .x      LDRB     r2,[r1,#0]
        0x0000d23e:    2a01        .*      CMP      r2,#1
        0x0000d240:    d016        ..      BEQ      0xd270 ; am_hal_cachectrl_control + 412
        0x0000d242:    2a00        .*      CMP      r2,#0
        0x0000d244:    d1ec        ..      BNE      0xd220 ; am_hal_cachectrl_control + 332
        0x0000d246:    f2480200    H...    MOVW     r2,#0x8000
        0x0000d24a:    f2c40201    ....    MOVT     r2,#0x4001
        0x0000d24e:    6110        .a      STR      r0,[r2,#0x10]
        0x0000d250:    6888        .h      LDR      r0,[r1,#8]
        0x0000d252:    2400        .$      MOVS     r4,#0
        0x0000d254:    6150        Pa      STR      r0,[r2,#0x14]
        0x0000d256:    7848        Hx      LDRB     r0,[r1,#1]
        0x0000d258:    6811        .h      LDR      r1,[r2,#0]
        0x0000d25a:    f000003f    ..?.    AND      r0,r0,#0x3f
        0x0000d25e:    f0210104    !...    BIC      r1,r1,#4
        0x0000d262:    ea410080    A...    ORR      r0,r1,r0,LSL #2
        0x0000d266:    6010        .`      STR      r0,[r2,#0]
        0x0000d268:    4620         F      MOV      r0,r4
        0x0000d26a:    b002        ..      ADD      sp,sp,#8
        0x0000d26c:    bd10        ..      POP      {r4,pc}
        0x0000d26e:    bf00        ..      NOP      
        0x0000d270:    f2480200    H...    MOVW     r2,#0x8000
        0x0000d274:    f2c40201    ....    MOVT     r2,#0x4001
        0x0000d278:    6190        .a      STR      r0,[r2,#0x18]
        0x0000d27a:    6888        .h      LDR      r0,[r1,#8]
        0x0000d27c:    2400        .$      MOVS     r4,#0
        0x0000d27e:    61d0        .a      STR      r0,[r2,#0x1c]
        0x0000d280:    7848        Hx      LDRB     r0,[r1,#1]
        0x0000d282:    6811        .h      LDR      r1,[r2,#0]
        0x0000d284:    f000001f    ....    AND      r0,r0,#0x1f
        0x0000d288:    f0210108    !...    BIC      r1,r1,#8
        0x0000d28c:    ea4100c0    A...    ORR      r0,r1,r0,LSL #3
        0x0000d290:    6010        .`      STR      r0,[r2,#0]
        0x0000d292:    4620         F      MOV      r0,r4
        0x0000d294:    b002        ..      ADD      sp,sp,#8
        0x0000d296:    bd10        ..      POP      {r4,pc}
    am_hal_cachectrl_enable
        0x0000d298:    f2480100    H...    MOVW     r1,#0x8000
        0x0000d29c:    f2c40101    ....    MOVT     r1,#0x4001
        0x0000d2a0:    6808        .h      LDR      r0,[r1,#0]
        0x0000d2a2:    f0400201    @...    ORR      r2,r0,#1
        0x0000d2a6:    2000        .       MOVS     r0,#0
        0x0000d2a8:    600a        .`      STR      r2,[r1,#0]
        0x0000d2aa:    4770        pG      BX       lr
    am_hal_clkgen_control
        0x0000d2ac:    b510        ..      PUSH     {r4,lr}
        0x0000d2ae:    f2417204    A..r    MOV      r2,#0x1704
        0x0000d2b2:    f2c10201    ....    MOVT     r2,#0x1001
        0x0000d2b6:    6813        .h      LDR      r3,[r2,#0]
        0x0000d2b8:    460c        .F      MOV      r4,r1
        0x0000d2ba:    b92b        +.      CBNZ     r3,0xd2c8 ; am_hal_clkgen_control + 28
        0x0000d2bc:    f24f0100    O...    MOVW     r1,#0xf000
        0x0000d2c0:    f6c471ff    ...q    MOVT     r1,#0x4fff
        0x0000d2c4:    6809        .h      LDR      r1,[r1,#0]
        0x0000d2c6:    6011        .`      STR      r1,[r2,#0]
        0x0000d2c8:    2809        .(      CMP      r0,#9
        0x0000d2ca:    d811        ..      BHI      0xd2f0 ; am_hal_clkgen_control + 68
        0x0000d2cc:    e8dff000    ....    TBB      [pc,r0]
    $d.1
        0x0000d2d0:    261c1206    ...&    DCD    639373830
        0x0000d2d4:    62584c42    BLXb    DCD    1649953858
        0x0000d2d8:    bf00866c    l...    DCD    3204482668
    $t.2
        0x0000d2dc:    f244010c    D...    MOV      r1,#0x400c
        0x0000d2e0:    f2c40100    ....    MOVT     r1,#0x4000
        0x0000d2e4:    2047        G       MOVS     r0,#0x47
        0x0000d2e6:    6088        .`      STR      r0,[r1,#8]
        0x0000d2e8:    2000        .       MOVS     r0,#0
        0x0000d2ea:    60c8        .`      STR      r0,[r1,#0xc]
        0x0000d2ec:    6088        .`      STR      r0,[r1,#8]
        0x0000d2ee:    bd10        ..      POP      {r4,pc}
        0x0000d2f0:    2006        .       MOVS     r0,#6
        0x0000d2f2:    bd10        ..      POP      {r4,pc}
        0x0000d2f4:    f244000c    D...    MOV      r0,#0x400c
        0x0000d2f8:    f2c40000    ....    MOVT     r0,#0x4000
        0x0000d2fc:    6801        .h      LDR      r1,[r0,#0]
        0x0000d2fe:    f0210101    !...    BIC      r1,r1,#1
        0x0000d302:    6001        .`      STR      r1,[r0,#0]
        0x0000d304:    2000        .       MOVS     r0,#0
        0x0000d306:    bd10        ..      POP      {r4,pc}
        0x0000d308:    f244000c    D...    MOV      r0,#0x400c
        0x0000d30c:    f2c40000    ....    MOVT     r0,#0x4000
        0x0000d310:    6801        .h      LDR      r1,[r0,#0]
        0x0000d312:    f0210102    !...    BIC      r1,r1,#2
        0x0000d316:    6001        .`      STR      r1,[r0,#0]
        0x0000d318:    2000        .       MOVS     r0,#0
        0x0000d31a:    bd10        ..      POP      {r4,pc}
        0x0000d31c:    f2401020    @. .    MOVW     r0,#0x120
        0x0000d320:    f64f61ec    O..a    MOV      r1,#0xfeec
        0x0000d324:    f2c40002    ....    MOVT     r0,#0x4002
        0x0000d328:    f6cf71ff    ...q    MOVT     r1,#0xffff
        0x0000d32c:    5841        AX      LDR      r1,[r0,r1]
        0x0000d32e:    b2c9        ..      UXTB     r1,r1
        0x0000d330:    2921        !)      CMP      r1,#0x21
        0x0000d332:    d304        ..      BCC      0xd33e ; am_hal_clkgen_control + 146
        0x0000d334:    6801        .h      LDR      r1,[r0,#0]
        0x0000d336:    2201        ."      MOVS     r2,#1
        0x0000d338:    f3622109    b..!    BFI      r1,r2,#8,#2
        0x0000d33c:    6001        .`      STR      r1,[r0,#0]
        0x0000d33e:    f244000c    D...    MOV      r0,#0x400c
        0x0000d342:    f2c40000    ....    MOVT     r0,#0x4000
        0x0000d346:    6801        .h      LDR      r1,[r0,#0]
        0x0000d348:    f0410101    A...    ORR      r1,r1,#1
        0x0000d34c:    6001        .`      STR      r1,[r0,#0]
        0x0000d34e:    2000        .       MOVS     r0,#0
        0x0000d350:    bd10        ..      POP      {r4,pc}
        0x0000d352:    bf00        ..      NOP      
        0x0000d354:    f244000c    D...    MOV      r0,#0x400c
        0x0000d358:    f2c40000    ....    MOVT     r0,#0x4000
        0x0000d35c:    6801        .h      LDR      r1,[r0,#0]
        0x0000d35e:    f0410102    A...    ORR      r1,r1,#2
        0x0000d362:    6001        .`      STR      r1,[r0,#0]
        0x0000d364:    2000        .       MOVS     r0,#0
        0x0000d366:    bd10        ..      POP      {r4,pc}
        0x0000d368:    f244010c    D...    MOV      r1,#0x400c
        0x0000d36c:    f2c40100    ....    MOVT     r1,#0x4000
        0x0000d370:    2047        G       MOVS     r0,#0x47
        0x0000d372:    6088        .`      STR      r0,[r1,#8]
        0x0000d374:    2001        .       MOVS     r0,#1
        0x0000d376:    60c8        .`      STR      r0,[r1,#0xc]
        0x0000d378:    2000        .       MOVS     r0,#0
        0x0000d37a:    6088        .`      STR      r0,[r1,#8]
        0x0000d37c:    bd10        ..      POP      {r4,pc}
        0x0000d37e:    bf00        ..      NOP      
        0x0000d380:    f244000c    D...    MOV      r0,#0x400c
        0x0000d384:    f2c40000    ....    MOVT     r0,#0x4000
        0x0000d388:    6801        .h      LDR      r1,[r0,#0]
        0x0000d38a:    f0210180    !...    BIC      r1,r1,#0x80
        0x0000d38e:    6001        .`      STR      r1,[r0,#0]
        0x0000d390:    2000        .       MOVS     r0,#0
        0x0000d392:    bd10        ..      POP      {r4,pc}
        0x0000d394:    f244000c    D...    MOV      r0,#0x400c
        0x0000d398:    f2c40000    ....    MOVT     r0,#0x4000
        0x0000d39c:    6801        .h      LDR      r1,[r0,#0]
        0x0000d39e:    f0410180    A...    ORR      r1,r1,#0x80
        0x0000d3a2:    6001        .`      STR      r1,[r0,#0]
        0x0000d3a4:    2000        .       MOVS     r0,#0
        0x0000d3a6:    bd10        ..      POP      {r4,pc}
        0x0000d3a8:    f2401020    @. .    MOVW     r0,#0x120
        0x0000d3ac:    f64f61ec    O..a    MOV      r1,#0xfeec
        0x0000d3b0:    f2c40002    ....    MOVT     r0,#0x4002
        0x0000d3b4:    f6cf71ff    ...q    MOVT     r1,#0xffff
        0x0000d3b8:    5841        AX      LDR      r1,[r0,r1]
        0x0000d3ba:    b2c9        ..      UXTB     r1,r1
        0x0000d3bc:    2921        !)      CMP      r1,#0x21
        0x0000d3be:    d307        ..      BCC      0xd3d0 ; am_hal_clkgen_control + 292
        0x0000d3c0:    6801        .h      LDR      r1,[r0,#0]
        0x0000d3c2:    f4417140    A.@q    ORR      r1,r1,#0x300
        0x0000d3c6:    6001        .`      STR      r1,[r0,#0]
        0x0000d3c8:    f44f507a    O.zP    MOV      r0,#0x3e80
        0x0000d3cc:    f000fd72    ..r.    BL       am_hal_flash_delay ; 0xdeb4
        0x0000d3d0:    b174        t.      CBZ      r4,0xd3f0 ; am_hal_clkgen_control + 324
        0x0000d3d2:    6820         h      LDR      r0,[r4,#0]
        0x0000d3d4:    f0400001    @...    ORR      r0,r0,#1
        0x0000d3d8:    e00e        ..      B        0xd3f8 ; am_hal_clkgen_control + 332
        0x0000d3da:    bf00        ..      NOP      
        0x0000d3dc:    f244000c    D...    MOV      r0,#0x400c
        0x0000d3e0:    f2c40000    ....    MOVT     r0,#0x4000
        0x0000d3e4:    6941        Ai      LDR      r1,[r0,#0x14]
        0x0000d3e6:    f0210101    !...    BIC      r1,r1,#1
        0x0000d3ea:    6141        Aa      STR      r1,[r0,#0x14]
        0x0000d3ec:    2000        .       MOVS     r0,#0
        0x0000d3ee:    bd10        ..      POP      {r4,pc}
        0x0000d3f0:    f64b0001    K...    MOV      r0,#0xb801
        0x0000d3f4:    f2c00025    ..%.    MOVT     r0,#0x25
        0x0000d3f8:    f244010c    D...    MOV      r1,#0x400c
        0x0000d3fc:    f2c40100    ....    MOVT     r1,#0x4000
        0x0000d400:    6148        Ha      STR      r0,[r1,#0x14]
        0x0000d402:    2000        .       MOVS     r0,#0
        0x0000d404:    bd10        ..      POP      {r4,pc}
        0x0000d406:    0000        ..      MOVS     r0,r0
    am_hal_clkgen_status_get
        0x0000d408:    2800        .(      CMP      r0,#0
        0x0000d40a:    bf04        ..      ITT      EQ
        0x0000d40c:    2006        .       MOVEQ    r0,#6
        0x0000d40e:    4770        pG      BXEQ     lr
        0x0000d410:    f2440118    D...    MOV      r1,#0x4018
        0x0000d414:    f2c40100    ....    MOVT     r1,#0x4000
        0x0000d418:    680a        .h      LDR      r2,[r1,#0]
        0x0000d41a:    07d2        ..      LSLS     r2,r2,#31
        0x0000d41c:    f2436200    C..b    MOVW     r2,#0x3600
        0x0000d420:    f2c0126e    ..n.    MOVT     r2,#0x16e
        0x0000d424:    bf04        ..      ITT      EQ
        0x0000d426:    f6464200    F..B    MOVWEQ   r2,#0x6c00
        0x0000d42a:    f2c022dc    ..."    MOVTEQ   r2,#0x2dc
        0x0000d42e:    6002        .`      STR      r2,[r0,#0]
        0x0000d430:    6849        Ih      LDR      r1,[r1,#4]
        0x0000d432:    f0010201    ....    AND      r2,r1,#1
        0x0000d436:    f3c10140    ..@.    UBFX     r1,r1,#1,#1
        0x0000d43a:    6042        B`      STR      r2,[r0,#4]
        0x0000d43c:    7201        .r      STRB     r1,[r0,#8]
        0x0000d43e:    2000        .       MOVS     r0,#0
        0x0000d440:    4770        pG      BX       lr
        0x0000d442:    0000        ..      MOVS     r0,r0
    am_hal_cmdq_alloc_block
        0x0000d444:    b5f0        ..      PUSH     {r4-r7,lr}
        0x0000d446:    b081        ..      SUB      sp,sp,#4
        0x0000d448:    b3a0        ..      CBZ      r0,0xd4b4 ; am_hal_cmdq_alloc_block + 112
        0x0000d44a:    4605        .F      MOV      r5,r0
        0x0000d44c:    6800        .h      LDR      r0,[r0,#0]
        0x0000d44e:    460f        .F      MOV      r7,r1
        0x0000d450:    f64c51cd    L..Q    MOV      r1,#0xcdcd
        0x0000d454:    f020407e     .~@    BIC      r0,r0,#0xfe000000
        0x0000d458:    f2c011cd    ....    MOVT     r1,#0x1cd
        0x0000d45c:    4288        .B      CMP      r0,r1
        0x0000d45e:    d129        ).      BNE      0xd4b4 ; am_hal_cmdq_alloc_block + 112
        0x0000d460:    4616        .F      MOV      r6,r2
        0x0000d462:    2a00        .*      CMP      r2,#0
        0x0000d464:    f04f0006    O...    MOV      r0,#6
        0x0000d468:    d051        Q.      BEQ      0xd50e ; am_hal_cmdq_alloc_block + 202
        0x0000d46a:    461c        .F      MOV      r4,r3
        0x0000d46c:    2b00        .+      CMP      r3,#0
        0x0000d46e:    d04e        N.      BEQ      0xd50e ; am_hal_cmdq_alloc_block + 202
        0x0000d470:    e9d50104    ....    LDRD     r0,r1,[r5,#0x10]
        0x0000d474:    4288        .B      CMP      r0,r1
        0x0000d476:    d121        !.      BNE      0xd4bc ; am_hal_cmdq_alloc_block + 120
        0x0000d478:    f000ff38    ..8.    BL       am_hal_interrupt_master_disable ; 0xe2ec
        0x0000d47c:    9000        ..      STR      r0,[sp,#0]
        0x0000d47e:    e9d51008    ....    LDRD     r1,r0,[r5,#0x20]
        0x0000d482:    e9d00201    ....    LDRD     r0,r2,[r0,#4]
        0x0000d486:    460b        .F      MOV      r3,r1
        0x0000d488:    6812        .h      LDR      r2,[r2,#0]
        0x0000d48a:    f3620307    b...    BFI      r3,r2,#0,#8
        0x0000d48e:    4299        .B      CMP      r1,r3
        0x0000d490:    bfb8        ..      IT       LT
        0x0000d492:    f5a37380    ...s    SUBLT    r3,r3,#0x100
        0x0000d496:    61eb        .a      STR      r3,[r5,#0x1c]
        0x0000d498:    6800        .h      LDR      r0,[r0,#0]
        0x0000d49a:    60e8        .`      STR      r0,[r5,#0xc]
        0x0000d49c:    9800        ..      LDR      r0,[sp,#0]
        0x0000d49e:    f000ff2d    ..-.    BL       am_hal_interrupt_master_set ; 0xe2fc
        0x0000d4a2:    e9d51007    ....    LDRD     r1,r0,[r5,#0x1c]
        0x0000d4a6:    31fe        .1      ADDS     r1,r1,#0xfe
        0x0000d4a8:    4281        .B      CMP      r1,r0
        0x0000d4aa:    da0b        ..      BGE      0xd4c4 ; am_hal_cmdq_alloc_block + 128
        0x0000d4ac:    2005        .       MOVS     r0,#5
        0x0000d4ae:    b001        ..      ADD      sp,sp,#4
        0x0000d4b0:    bdf0        ..      POP      {r4-r7,pc}
        0x0000d4b2:    bf00        ..      NOP      
        0x0000d4b4:    2002        .       MOVS     r0,#2
        0x0000d4b6:    b001        ..      ADD      sp,sp,#4
        0x0000d4b8:    bdf0        ..      POP      {r4-r7,pc}
        0x0000d4ba:    bf00        ..      NOP      
        0x0000d4bc:    2007        .       MOVS     r0,#7
        0x0000d4be:    b001        ..      ADD      sp,sp,#4
        0x0000d4c0:    bdf0        ..      POP      {r4-r7,pc}
        0x0000d4c2:    bf00        ..      NOP      
        0x0000d4c4:    e9d53103    ...1    LDRD     r3,r1,[r5,#0xc]
        0x0000d4c8:    00fa        ..      LSLS     r2,r7,#3
        0x0000d4ca:    4299        .B      CMP      r1,r3
        0x0000d4cc:    d204        ..      BCS      0xd4d8 ; am_hal_cmdq_alloc_block + 148
        0x0000d4ce:    1857        W.      ADDS     r7,r2,r1
        0x0000d4d0:    3708        .7      ADDS     r7,r7,#8
        0x0000d4d2:    429f        .B      CMP      r7,r3
        0x0000d4d4:    d2ea        ..      BCS      0xd4ac ; am_hal_cmdq_alloc_block + 104
        0x0000d4d6:    e013        ..      B        0xd500 ; am_hal_cmdq_alloc_block + 188
        0x0000d4d8:    eb020c01    ....    ADD      r12,r2,r1
        0x0000d4dc:    f8d5e008    ....    LDR      lr,[r5,#8]
        0x0000d4e0:    f10c0710    ....    ADD      r7,r12,#0x10
        0x0000d4e4:    4577        wE      CMP      r7,lr
        0x0000d4e6:    d90b        ..      BLS      0xd500 ; am_hal_cmdq_alloc_block + 188
        0x0000d4e8:    f8d5c004    ....    LDR      r12,[r5,#4]
        0x0000d4ec:    eb02070c    ....    ADD      r7,r2,r12
        0x0000d4f0:    3708        .7      ADDS     r7,r7,#8
        0x0000d4f2:    429f        .B      CMP      r7,r3
        0x0000d4f4:    d2da        ..      BCS      0xd4ac ; am_hal_cmdq_alloc_block + 104
        0x0000d4f6:    6a6b        kj      LDR      r3,[r5,#0x24]
        0x0000d4f8:    685b        [h      LDR      r3,[r3,#4]
        0x0000d4fa:    e9c13c00    ...<    STRD     r3,r12,[r1,#0]
        0x0000d4fe:    4661        aF      MOV      r1,r12
        0x0000d500:    3001        .0      ADDS     r0,#1
        0x0000d502:    6228        (b      STR      r0,[r5,#0x20]
        0x0000d504:    6020         `      STR      r0,[r4,#0]
        0x0000d506:    1888        ..      ADDS     r0,r1,r2
        0x0000d508:    6168        ha      STR      r0,[r5,#0x14]
        0x0000d50a:    2000        .       MOVS     r0,#0
        0x0000d50c:    6031        1`      STR      r1,[r6,#0]
        0x0000d50e:    b001        ..      ADD      sp,sp,#4
        0x0000d510:    bdf0        ..      POP      {r4-r7,pc}
        0x0000d512:    0000        ..      MOVS     r0,r0
    am_hal_cmdq_disable
        0x0000d514:    b1c0        ..      CBZ      r0,0xd548 ; am_hal_cmdq_disable + 52
        0x0000d516:    6801        .h      LDR      r1,[r0,#0]
        0x0000d518:    f64c53cd    L..S    MOV      r3,#0xcdcd
        0x0000d51c:    f021427e    !.~B    BIC      r2,r1,#0xfe000000
        0x0000d520:    f2c013cd    ....    MOVT     r3,#0x1cd
        0x0000d524:    429a        .B      CMP      r2,r3
        0x0000d526:    d10f        ..      BNE      0xd548 ; am_hal_cmdq_disable + 52
        0x0000d528:    0189        ..      LSLS     r1,r1,#6
        0x0000d52a:    bf5c        \.      ITT      PL
        0x0000d52c:    2000        .       MOVPL    r0,#0
        0x0000d52e:    4770        pG      BXPL     lr
        0x0000d530:    6a41        Aj      LDR      r1,[r0,#0x24]
        0x0000d532:    6809        .h      LDR      r1,[r1,#0]
        0x0000d534:    680a        .h      LDR      r2,[r1,#0]
        0x0000d536:    f0220201    "...    BIC      r2,r2,#1
        0x0000d53a:    600a        .`      STR      r2,[r1,#0]
        0x0000d53c:    6801        .h      LDR      r1,[r0,#0]
        0x0000d53e:    f0217100    !..q    BIC      r1,r1,#0x2000000
        0x0000d542:    6001        .`      STR      r1,[r0,#0]
        0x0000d544:    2000        .       MOVS     r0,#0
        0x0000d546:    4770        pG      BX       lr
        0x0000d548:    2002        .       MOVS     r0,#2
        0x0000d54a:    4770        pG      BX       lr
    am_hal_cmdq_enable
        0x0000d54c:    b1c0        ..      CBZ      r0,0xd580 ; am_hal_cmdq_enable + 52
        0x0000d54e:    6801        .h      LDR      r1,[r0,#0]
        0x0000d550:    f64c53cd    L..S    MOV      r3,#0xcdcd
        0x0000d554:    f021427e    !.~B    BIC      r2,r1,#0xfe000000
        0x0000d558:    f2c013cd    ....    MOVT     r3,#0x1cd
        0x0000d55c:    429a        .B      CMP      r2,r3
        0x0000d55e:    d10f        ..      BNE      0xd580 ; am_hal_cmdq_enable + 52
        0x0000d560:    0189        ..      LSLS     r1,r1,#6
        0x0000d562:    bf44        D.      ITT      MI
        0x0000d564:    2000        .       MOVMI    r0,#0
        0x0000d566:    4770        pG      BXMI     lr
        0x0000d568:    6a41        Aj      LDR      r1,[r0,#0x24]
        0x0000d56a:    6809        .h      LDR      r1,[r1,#0]
        0x0000d56c:    680a        .h      LDR      r2,[r1,#0]
        0x0000d56e:    f0420201    B...    ORR      r2,r2,#1
        0x0000d572:    600a        .`      STR      r2,[r1,#0]
        0x0000d574:    6801        .h      LDR      r1,[r0,#0]
        0x0000d576:    f0417100    A..q    ORR      r1,r1,#0x2000000
        0x0000d57a:    6001        .`      STR      r1,[r0,#0]
        0x0000d57c:    2000        .       MOVS     r0,#0
        0x0000d57e:    4770        pG      BX       lr
        0x0000d580:    2002        .       MOVS     r0,#2
        0x0000d582:    4770        pG      BX       lr
    am_hal_cmdq_error_resume
        0x0000d584:    b580        ..      PUSH     {r7,lr}
        0x0000d586:    2800        .(      CMP      r0,#0
        0x0000d588:    d048        H.      BEQ      0xd61c ; am_hal_cmdq_error_resume + 152
        0x0000d58a:    6801        .h      LDR      r1,[r0,#0]
        0x0000d58c:    f64c53cd    L..S    MOV      r3,#0xcdcd
        0x0000d590:    f021427e    !.~B    BIC      r2,r1,#0xfe000000
        0x0000d594:    f2c013cd    ....    MOVT     r3,#0x1cd
        0x0000d598:    429a        .B      CMP      r2,r3
        0x0000d59a:    d13f        ?.      BNE      0xd61c ; am_hal_cmdq_error_resume + 152
        0x0000d59c:    0189        ..      LSLS     r1,r1,#6
        0x0000d59e:    bf5c        \.      ITT      PL
        0x0000d5a0:    2000        .       MOVPL    r0,#0
        0x0000d5a2:    bd80        ..      POPPL    {r7,pc}
        0x0000d5a4:    6a41        Aj      LDR      r1,[r0,#0x24]
        0x0000d5a6:    e8915008    ...P    LDM      r1,{r3,r12,lr}
        0x0000d5aa:    6819        .h      LDR      r1,[r3,#0]
        0x0000d5ac:    f0210101    !...    BIC      r1,r1,#1
        0x0000d5b0:    6019        .`      STR      r1,[r3,#0]
        0x0000d5b2:    f8dc3000    ...0    LDR      r3,[r12,#0]
        0x0000d5b6:    6819        .h      LDR      r1,[r3,#0]
        0x0000d5b8:    f0210201    !...    BIC      r2,r1,#1
        0x0000d5bc:    4572        rE      CMP      r2,lr
        0x0000d5be:    d023        #.      BEQ      0xd608 ; am_hal_cmdq_error_resume + 132
        0x0000d5c0:    4561        aE      CMP      r1,r12
        0x0000d5c2:    bf14        ..      ITE      NE
        0x0000d5c4:    3308        .3      ADDNE    r3,r3,#8
        0x0000d5c6:    685b        [h      LDREQ    r3,[r3,#4]
        0x0000d5c8:    6819        .h      LDR      r1,[r3,#0]
        0x0000d5ca:    f0210201    !...    BIC      r2,r1,#1
        0x0000d5ce:    4572        rE      CMP      r2,lr
        0x0000d5d0:    d01a        ..      BEQ      0xd608 ; am_hal_cmdq_error_resume + 132
        0x0000d5d2:    4561        aE      CMP      r1,r12
        0x0000d5d4:    bf0c        ..      ITE      EQ
        0x0000d5d6:    685b        [h      LDREQ    r3,[r3,#4]
        0x0000d5d8:    3308        .3      ADDNE    r3,r3,#8
        0x0000d5da:    6819        .h      LDR      r1,[r3,#0]
        0x0000d5dc:    f0210201    !...    BIC      r2,r1,#1
        0x0000d5e0:    4572        rE      CMP      r2,lr
        0x0000d5e2:    d011        ..      BEQ      0xd608 ; am_hal_cmdq_error_resume + 132
        0x0000d5e4:    4561        aE      CMP      r1,r12
        0x0000d5e6:    bf0c        ..      ITE      EQ
        0x0000d5e8:    685b        [h      LDREQ    r3,[r3,#4]
        0x0000d5ea:    3308        .3      ADDNE    r3,r3,#8
        0x0000d5ec:    6819        .h      LDR      r1,[r3,#0]
        0x0000d5ee:    f0210201    !...    BIC      r2,r1,#1
        0x0000d5f2:    4572        rE      CMP      r2,lr
        0x0000d5f4:    d008        ..      BEQ      0xd608 ; am_hal_cmdq_error_resume + 132
        0x0000d5f6:    4561        aE      CMP      r1,r12
        0x0000d5f8:    bf0c        ..      ITE      EQ
        0x0000d5fa:    685b        [h      LDREQ    r3,[r3,#4]
        0x0000d5fc:    3308        .3      ADDNE    r3,r3,#8
        0x0000d5fe:    6819        .h      LDR      r1,[r3,#0]
        0x0000d600:    f0210201    !...    BIC      r2,r1,#1
        0x0000d604:    4572        rE      CMP      r2,lr
        0x0000d606:    d1db        ..      BNE      0xd5c0 ; am_hal_cmdq_error_resume + 60
        0x0000d608:    f8c3e000    ....    STR      lr,[r3,#0]
        0x0000d60c:    f8cc3000    ...0    STR      r3,[r12,#0]
        0x0000d610:    6801        .h      LDR      r1,[r0,#0]
        0x0000d612:    f0217100    !..q    BIC      r1,r1,#0x2000000
        0x0000d616:    6001        .`      STR      r1,[r0,#0]
        0x0000d618:    2000        .       MOVS     r0,#0
        0x0000d61a:    bd80        ..      POP      {r7,pc}
        0x0000d61c:    2002        .       MOVS     r0,#2
        0x0000d61e:    bd80        ..      POP      {r7,pc}
    am_hal_cmdq_get_status
        0x0000d620:    b5b0        ..      PUSH     {r4,r5,r7,lr}
        0x0000d622:    b082        ..      SUB      sp,sp,#8
        0x0000d624:    2800        .(      CMP      r0,#0
        0x0000d626:    d041        A.      BEQ      0xd6ac ; am_hal_cmdq_get_status + 140
        0x0000d628:    4605        .F      MOV      r5,r0
        0x0000d62a:    6800        .h      LDR      r0,[r0,#0]
        0x0000d62c:    460c        .F      MOV      r4,r1
        0x0000d62e:    f64c51cd    L..Q    MOV      r1,#0xcdcd
        0x0000d632:    f020407e     .~@    BIC      r0,r0,#0xfe000000
        0x0000d636:    f2c011cd    ....    MOVT     r1,#0x1cd
        0x0000d63a:    4288        .B      CMP      r0,r1
        0x0000d63c:    d136        6.      BNE      0xd6ac ; am_hal_cmdq_get_status + 140
        0x0000d63e:    b3cc        ..      CBZ      r4,0xd6b4 ; am_hal_cmdq_get_status + 148
        0x0000d640:    f000fe54    ..T.    BL       am_hal_interrupt_master_disable ; 0xe2ec
        0x0000d644:    9001        ..      STR      r0,[sp,#4]
        0x0000d646:    e9d51008    ....    LDRD     r1,r0,[r5,#0x20]
        0x0000d64a:    e9d00201    ....    LDRD     r0,r2,[r0,#4]
        0x0000d64e:    460b        .F      MOV      r3,r1
        0x0000d650:    6812        .h      LDR      r2,[r2,#0]
        0x0000d652:    f3620307    b...    BFI      r3,r2,#0,#8
        0x0000d656:    4299        .B      CMP      r1,r3
        0x0000d658:    bfb8        ..      IT       LT
        0x0000d65a:    f5a37380    ...s    SUBLT    r3,r3,#0x100
        0x0000d65e:    61eb        .a      STR      r3,[r5,#0x1c]
        0x0000d660:    6800        .h      LDR      r0,[r0,#0]
        0x0000d662:    60e8        .`      STR      r0,[r5,#0xc]
        0x0000d664:    9801        ..      LDR      r0,[sp,#4]
        0x0000d666:    f000fe49    ..I.    BL       am_hal_interrupt_master_set ; 0xe2fc
        0x0000d66a:    e9d50104    ....    LDRD     r0,r1,[r5,#0x10]
        0x0000d66e:    e9d52307    ...#    LDRD     r2,r3,[r5,#0x1c]
        0x0000d672:    4281        .B      CMP      r1,r0
        0x0000d674:    60a3        .`      STR      r3,[r4,#8]
        0x0000d676:    bf18        ..      IT       NE
        0x0000d678:    3b01        .;      SUBNE    r3,#1
        0x0000d67a:    6a68        hj      LDR      r0,[r5,#0x24]
        0x0000d67c:    6063        c`      STR      r3,[r4,#4]
        0x0000d67e:    f1000318    ....    ADD      r3,r0,#0x18
        0x0000d682:    6022        "`      STR      r2,[r4,#0]
        0x0000d684:    cb0e        ..      LDM      r3,{r1-r3}
        0x0000d686:    6a40        @j      LDR      r0,[r0,#0x24]
        0x0000d688:    6809        .h      LDR      r1,[r1,#0]
        0x0000d68a:    400a        .@      ANDS     r2,r2,r1
        0x0000d68c:    bf18        ..      IT       NE
        0x0000d68e:    2201        ."      MOVNE    r2,#1
        0x0000d690:    4008        .@      ANDS     r0,r0,r1
        0x0000d692:    7322        "s      STRB     r2,[r4,#0xc]
        0x0000d694:    bf18        ..      IT       NE
        0x0000d696:    2001        .       MOVNE    r0,#1
        0x0000d698:    7360        `s      STRB     r0,[r4,#0xd]
        0x0000d69a:    ea130001    ....    ANDS     r0,r3,r1
        0x0000d69e:    bf18        ..      IT       NE
        0x0000d6a0:    2001        .       MOVNE    r0,#1
        0x0000d6a2:    73a0        .s      STRB     r0,[r4,#0xe]
        0x0000d6a4:    2000        .       MOVS     r0,#0
        0x0000d6a6:    b002        ..      ADD      sp,sp,#8
        0x0000d6a8:    bdb0        ..      POP      {r4,r5,r7,pc}
        0x0000d6aa:    bf00        ..      NOP      
        0x0000d6ac:    2002        .       MOVS     r0,#2
        0x0000d6ae:    b002        ..      ADD      sp,sp,#8
        0x0000d6b0:    bdb0        ..      POP      {r4,r5,r7,pc}
        0x0000d6b2:    bf00        ..      NOP      
        0x0000d6b4:    2006        .       MOVS     r0,#6
        0x0000d6b6:    b002        ..      ADD      sp,sp,#8
        0x0000d6b8:    bdb0        ..      POP      {r4,r5,r7,pc}
        0x0000d6ba:    0000        ..      MOVS     r0,r0
    am_hal_cmdq_init
        0x0000d6bc:    e92d41f0    -..A    PUSH     {r4-r8,lr}
        0x0000d6c0:    2809        .(      CMP      r0,#9
        0x0000d6c2:    bf84        ..      ITT      HI
        0x0000d6c4:    2005        .       MOVHI    r0,#5
        0x0000d6c6:    e8bd81f0    ....    POPHI    {r4-r8,pc}
        0x0000d6ca:    b171        q.      CBZ      r1,0xd6ea ; am_hal_cmdq_init + 46
        0x0000d6cc:    4603        .F      MOV      r3,r0
        0x0000d6ce:    2a00        .*      CMP      r2,#0
        0x0000d6d0:    f04f0006    O...    MOV      r0,#6
        0x0000d6d4:    d04f        O.      BEQ      0xd776 ; am_hal_cmdq_init + 186
        0x0000d6d6:    f8d1e004    ....    LDR      lr,[r1,#4]
        0x0000d6da:    f1be0f00    ....    CMP      lr,#0
        0x0000d6de:    bf08        ..      IT       EQ
        0x0000d6e0:    e8bd81f0    ....    POPEQ    {r4-r8,pc}
        0x0000d6e4:    6808        .h      LDR      r0,[r1,#0]
        0x0000d6e6:    2802        .(      CMP      r0,#2
        0x0000d6e8:    d202        ..      BCS      0xd6f0 ; am_hal_cmdq_init + 52
        0x0000d6ea:    2006        .       MOVS     r0,#6
        0x0000d6ec:    e8bd81f0    ....    POP      {r4-r8,pc}
        0x0000d6f0:    f2415c4c    A.L\    MOV      r12,#0x154c
        0x0000d6f4:    252c        ,%      MOVS     r5,#0x2c
        0x0000d6f6:    f2c10c01    ....    MOVT     r12,#0x1001
        0x0000d6fa:    fb03f405    ....    MUL      r4,r3,r5
        0x0000d6fe:    f85c4004    \..@    LDR      r4,[r12,r4]
        0x0000d702:    01e6        ..      LSLS     r6,r4,#7
        0x0000d704:    bf44        D.      ITT      MI
        0x0000d706:    2007        .       MOVMI    r0,#7
        0x0000d708:    e8bd81f0    ....    POPMI    {r4-r8,pc}
        0x0000d70c:    f6410890    A...    MOV      r8,#0x1890
        0x0000d710:    fb13cc05    ....    SMLABB   r12,r3,r5,r12
        0x0000d714:    00c5        ..      LSLS     r5,r0,#3
        0x0000d716:    eb0e06c0    ....    ADD      r6,lr,r0,LSL #3
        0x0000d71a:    f64c50cd    L..P    MOV      r0,#0xcdcd
        0x0000d71e:    eb030383    ....    ADD      r3,r3,r3,LSL #2
        0x0000d722:    f2c00801    ....    MOVT     r8,#1
        0x0000d726:    f2c010cd    ....    MOVT     r0,#0x1cd
        0x0000d72a:    eb0807c3    ....    ADD      r7,r8,r3,LSL #3
        0x0000d72e:    f3600419    `...    BFI      r4,r0,#0,#26
        0x0000d732:    e9cce601    ....    STRD     lr,r6,[r12,#4]
        0x0000d736:    e9cce505    ....    STRD     lr,r5,[r12,#0x14]
        0x0000d73a:    e9d76502    ...e    LDRD     r6,r5,[r7,#8]
        0x0000d73e:    f8cc4000    ...@    STR      r4,[r12,#0]
        0x0000d742:    2000        .       MOVS     r0,#0
        0x0000d744:    693c        <i      LDR      r4,[r7,#0x10]
        0x0000d746:    f8cc7024    ..$p    STR      r7,[r12,#0x24]
        0x0000d74a:    e9ccee03    ....    STRD     lr,lr,[r12,#0xc]
        0x0000d74e:    e9cc0007    ....    STRD     r0,r0,[r12,#0x1c]
        0x0000d752:    6030        0`      STR      r0,[r6,#0]
        0x0000d754:    6028        (`      STR      r0,[r5,#0]
        0x0000d756:    697e        ~i      LDR      r6,[r7,#0x14]
        0x0000d758:    6825        %h      LDR      r5,[r4,#0]
        0x0000d75a:    687f        .h      LDR      r7,[r7,#4]
        0x0000d75c:    432e        .C      ORRS     r6,r6,r5
        0x0000d75e:    6026        &`      STR      r6,[r4,#0]
        0x0000d760:    684e        Nh      LDR      r6,[r1,#4]
        0x0000d762:    f8583033    X.30    LDR      r3,[r8,r3,LSL #3]
        0x0000d766:    603e        >`      STR      r6,[r7,#0]
        0x0000d768:    7a09        .z      LDRB     r1,[r1,#8]
        0x0000d76a:    2702        .'      MOVS     r7,#2
        0x0000d76c:    ea070141    ..A.    AND      r1,r7,r1,LSL #1
        0x0000d770:    6019        .`      STR      r1,[r3,#0]
        0x0000d772:    f8c2c000    ....    STR      r12,[r2,#0]
        0x0000d776:    e8bd81f0    ....    POP      {r4-r8,pc}
        0x0000d77a:    0000        ..      MOVS     r0,r0
    am_hal_cmdq_post_block
        0x0000d77c:    b580        ..      PUSH     {r7,lr}
        0x0000d77e:    b1f8        ..      CBZ      r0,0xd7c0 ; am_hal_cmdq_post_block + 68
        0x0000d780:    6802        .h      LDR      r2,[r0,#0]
        0x0000d782:    f64c53cd    L..S    MOV      r3,#0xcdcd
        0x0000d786:    f022427e    ".~B    BIC      r2,r2,#0xfe000000
        0x0000d78a:    f2c013cd    ....    MOVT     r3,#0x1cd
        0x0000d78e:    429a        .B      CMP      r2,r3
        0x0000d790:    d116        ..      BNE      0xd7c0 ; am_hal_cmdq_post_block + 68
        0x0000d792:    e9d03204    ...2    LDRD     r3,r2,[r0,#0x10]
        0x0000d796:    4293        .B      CMP      r3,r2
        0x0000d798:    bf04        ..      ITT      EQ
        0x0000d79a:    2007        .       MOVEQ    r0,#7
        0x0000d79c:    bd80        ..      POPEQ    {r7,pc}
        0x0000d79e:    e9d0c308    ....    LDRD     r12,r3,[r0,#0x20]
        0x0000d7a2:    e9d3e302    ....    LDRD     lr,r3,[r3,#8]
        0x0000d7a6:    ea41010e    A...    ORR      r1,r1,lr
        0x0000d7aa:    e9c21c00    ....    STRD     r1,r12,[r2,#0]
        0x0000d7ae:    f1020108    ....    ADD      r1,r2,#8
        0x0000d7b2:    e9c01104    ....    STRD     r1,r1,[r0,#0x10]
        0x0000d7b6:    fa5ff08c    _...    UXTB     r0,r12
        0x0000d7ba:    6018        .`      STR      r0,[r3,#0]
        0x0000d7bc:    2000        .       MOVS     r0,#0
        0x0000d7be:    bd80        ..      POP      {r7,pc}
        0x0000d7c0:    2002        .       MOVS     r0,#2
        0x0000d7c2:    bd80        ..      POP      {r7,pc}
    am_hal_cmdq_release_block
        0x0000d7c4:    b1a0        ..      CBZ      r0,0xd7f0 ; am_hal_cmdq_release_block + 44
        0x0000d7c6:    6801        .h      LDR      r1,[r0,#0]
        0x0000d7c8:    f64c52cd    L..R    MOV      r2,#0xcdcd
        0x0000d7cc:    f021417e    !.~A    BIC      r1,r1,#0xfe000000
        0x0000d7d0:    f2c012cd    ....    MOVT     r2,#0x1cd
        0x0000d7d4:    4291        .B      CMP      r1,r2
        0x0000d7d6:    d10b        ..      BNE      0xd7f0 ; am_hal_cmdq_release_block + 44
        0x0000d7d8:    e9d01204    ....    LDRD     r1,r2,[r0,#0x10]
        0x0000d7dc:    4291        .B      CMP      r1,r2
        0x0000d7de:    bf04        ..      ITT      EQ
        0x0000d7e0:    2007        .       MOVEQ    r0,#7
        0x0000d7e2:    4770        pG      BXEQ     lr
        0x0000d7e4:    6a02        .j      LDR      r2,[r0,#0x20]
        0x0000d7e6:    6141        Aa      STR      r1,[r0,#0x14]
        0x0000d7e8:    1e51        Q.      SUBS     r1,r2,#1
        0x0000d7ea:    6201        .b      STR      r1,[r0,#0x20]
        0x0000d7ec:    2000        .       MOVS     r0,#0
        0x0000d7ee:    4770        pG      BX       lr
        0x0000d7f0:    2002        .       MOVS     r0,#2
        0x0000d7f2:    4770        pG      BX       lr
    am_hal_cmdq_term
        0x0000d7f4:    b5b0        ..      PUSH     {r4,r5,r7,lr}
        0x0000d7f6:    b082        ..      SUB      sp,sp,#8
        0x0000d7f8:    b3c0        ..      CBZ      r0,0xd86c ; am_hal_cmdq_term + 120
        0x0000d7fa:    4604        .F      MOV      r4,r0
        0x0000d7fc:    6800        .h      LDR      r0,[r0,#0]
        0x0000d7fe:    460d        .F      MOV      r5,r1
        0x0000d800:    f64c51cd    L..Q    MOV      r1,#0xcdcd
        0x0000d804:    f020407e     .~@    BIC      r0,r0,#0xfe000000
        0x0000d808:    f2c011cd    ....    MOVT     r1,#0x1cd
        0x0000d80c:    4288        .B      CMP      r0,r1
        0x0000d80e:    d12d        -.      BNE      0xd86c ; am_hal_cmdq_term + 120
        0x0000d810:    f000fd6c    ..l.    BL       am_hal_interrupt_master_disable ; 0xe2ec
        0x0000d814:    9001        ..      STR      r0,[sp,#4]
        0x0000d816:    e9d41008    ....    LDRD     r1,r0,[r4,#0x20]
        0x0000d81a:    e9d00201    ....    LDRD     r0,r2,[r0,#4]
        0x0000d81e:    460b        .F      MOV      r3,r1
        0x0000d820:    6812        .h      LDR      r2,[r2,#0]
        0x0000d822:    f3620307    b...    BFI      r3,r2,#0,#8
        0x0000d826:    4299        .B      CMP      r1,r3
        0x0000d828:    bfb8        ..      IT       LT
        0x0000d82a:    f5a37380    ...s    SUBLT    r3,r3,#0x100
        0x0000d82e:    61e3        .a      STR      r3,[r4,#0x1c]
        0x0000d830:    6800        .h      LDR      r0,[r0,#0]
        0x0000d832:    60e0        .`      STR      r0,[r4,#0xc]
        0x0000d834:    9801        ..      LDR      r0,[sp,#4]
        0x0000d836:    f000fd61    ..a.    BL       am_hal_interrupt_master_set ; 0xe2fc
        0x0000d83a:    b91d        ..      CBNZ     r5,0xd844 ; am_hal_cmdq_term + 80
        0x0000d83c:    e9d40107    ....    LDRD     r0,r1,[r4,#0x1c]
        0x0000d840:    4288        .B      CMP      r0,r1
        0x0000d842:    d117        ..      BNE      0xd874 ; am_hal_cmdq_term + 128
        0x0000d844:    6820         h      LDR      r0,[r4,#0]
        0x0000d846:    6a61        aj      LDR      r1,[r4,#0x24]
        0x0000d848:    f0207080     ..p    BIC      r0,r0,#0x1000000
        0x0000d84c:    6020         `      STR      r0,[r4,#0]
        0x0000d84e:    6808        .h      LDR      r0,[r1,#0]
        0x0000d850:    690a        .i      LDR      r2,[r1,#0x10]
        0x0000d852:    6803        .h      LDR      r3,[r0,#0]
        0x0000d854:    f0230301    #...    BIC      r3,r3,#1
        0x0000d858:    6003        .`      STR      r3,[r0,#0]
        0x0000d85a:    6948        Hi      LDR      r0,[r1,#0x14]
        0x0000d85c:    6811        .h      LDR      r1,[r2,#0]
        0x0000d85e:    ea210000    !...    BIC      r0,r1,r0
        0x0000d862:    6010        .`      STR      r0,[r2,#0]
        0x0000d864:    2000        .       MOVS     r0,#0
        0x0000d866:    b002        ..      ADD      sp,sp,#8
        0x0000d868:    bdb0        ..      POP      {r4,r5,r7,pc}
        0x0000d86a:    bf00        ..      NOP      
        0x0000d86c:    2002        .       MOVS     r0,#2
        0x0000d86e:    b002        ..      ADD      sp,sp,#8
        0x0000d870:    bdb0        ..      POP      {r4,r5,r7,pc}
        0x0000d872:    bf00        ..      NOP      
        0x0000d874:    2003        .       MOVS     r0,#3
        0x0000d876:    b002        ..      ADD      sp,sp,#8
        0x0000d878:    bdb0        ..      POP      {r4,r5,r7,pc}
        0x0000d87a:    0000        ..      MOVS     r0,r0
    am_hal_ctimer_clear
        0x0000d87c:    b5b0        ..      PUSH     {r4,r5,r7,lr}
        0x0000d87e:    b082        ..      SUB      sp,sp,#8
        0x0000d880:    460c        .F      MOV      r4,r1
        0x0000d882:    0145        E.      LSLS     r5,r0,#5
        0x0000d884:    f000fd32    ..2.    BL       am_hal_interrupt_master_disable ; 0xe2ec
        0x0000d888:    9001        ..      STR      r0,[sp,#4]
        0x0000d88a:    f248000c    H...    MOV      r0,#0x800c
        0x0000d88e:    f2c40000    ....    MOVT     r0,#0x4000
        0x0000d892:    5941        AY      LDR      r1,[r0,r5]
        0x0000d894:    f0042208    ..."    AND      r2,r4,#0x8000800
        0x0000d898:    4311        .C      ORRS     r1,r1,r2
        0x0000d89a:    5141        AQ      STR      r1,[r0,r5]
        0x0000d89c:    9801        ..      LDR      r0,[sp,#4]
        0x0000d89e:    b002        ..      ADD      sp,sp,#8
        0x0000d8a0:    e8bd40b0    ...@    POP      {r4,r5,r7,lr}
        0x0000d8a4:    f000bd2a    ..*.    B.W      am_hal_interrupt_master_set ; 0xe2fc
    am_hal_ctimer_config
        0x0000d8a8:    e92d41f0    -..A    PUSH     {r4-r8,lr}
        0x0000d8ac:    b082        ..      SUB      sp,sp,#8
        0x0000d8ae:    460d        .F      MOV      r5,r1
        0x0000d8b0:    4680        .F      MOV      r8,r0
        0x0000d8b2:    0146        F.      LSLS     r6,r0,#5
        0x0000d8b4:    f000fd1a    ....    BL       am_hal_interrupt_master_disable ; 0xe2ec
        0x0000d8b8:    f248070c    H...    MOV      r7,#0x800c
        0x0000d8bc:    9001        ..      STR      r0,[sp,#4]
        0x0000d8be:    f2c40700    ....    MOVT     r7,#0x4000
        0x0000d8c2:    59b8        .Y      LDR      r0,[r7,r6]
        0x0000d8c4:    f0402008    @..     ORR      r0,r0,#0x8000800
        0x0000d8c8:    51b8        .Q      STR      r0,[r7,r6]
        0x0000d8ca:    9801        ..      LDR      r0,[sp,#4]
        0x0000d8cc:    f000fd16    ....    BL       am_hal_interrupt_master_set ; 0xe2fc
        0x0000d8d0:    68a9        .h      LDR      r1,[r5,#8]
        0x0000d8d2:    e9d52000    ...     LDRD     r2,r0,[r5,#0]
        0x0000d8d6:    ea404401    @..D    ORR      r4,r0,r1,LSL #16
        0x0000d8da:    2a00        .*      CMP      r2,#0
        0x0000d8dc:    bf18        ..      IT       NE
        0x0000d8de:    f0444400    D..D    ORRNE    r4,r4,#0x80000000
        0x0000d8e2:    f000fd03    ....    BL       am_hal_interrupt_master_disable ; 0xe2ec
        0x0000d8e6:    9000        ..      STR      r0,[sp,#0]
        0x0000d8e8:    51bc        .Q      STR      r4,[r7,r6]
        0x0000d8ea:    9800        ..      LDR      r0,[sp,#0]
        0x0000d8ec:    f000fd06    ....    BL       am_hal_interrupt_master_set ; 0xe2fc
        0x0000d8f0:    6868        hh      LDR      r0,[r5,#4]
        0x0000d8f2:    b108        ..      CBZ      r0,0xd8f8 ; am_hal_ctimer_config + 80
        0x0000d8f4:    2100        .!      MOVS     r1,#0
        0x0000d8f6:    e008        ..      B        0xd90a ; am_hal_ctimer_config + 98
        0x0000d8f8:    6828        (h      LDR      r0,[r5,#0]
        0x0000d8fa:    b118        ..      CBZ      r0,0xd904 ; am_hal_ctimer_config + 92
        0x0000d8fc:    2000        .       MOVS     r0,#0
        0x0000d8fe:    2100        .!      MOVS     r1,#0
        0x0000d900:    e003        ..      B        0xd90a ; am_hal_ctimer_config + 98
        0x0000d902:    bf00        ..      NOP      
        0x0000d904:    68a8        .h      LDR      r0,[r5,#8]
        0x0000d906:    b148        H.      CBZ      r0,0xd91c ; am_hal_ctimer_config + 116
        0x0000d908:    2101        .!      MOVS     r1,#1
        0x0000d90a:    f241027c    A.|.    MOV      r2,#0x107c
        0x0000d90e:    f2c10201    ....    MOVT     r2,#0x1001
        0x0000d912:    f3c00044    ..D.    UBFX     r0,r0,#1,#5
        0x0000d916:    eb020248    ..H.    ADD      r2,r2,r8,LSL #1
        0x0000d91a:    5450        PT      STRB     r0,[r2,r1]
        0x0000d91c:    b002        ..      ADD      sp,sp,#8
        0x0000d91e:    e8bd81f0    ....    POP      {r4-r8,pc}
        0x0000d922:    0000        ..      MOVS     r0,r0
    am_hal_ctimer_int_clear
        0x0000d924:    b510        ..      PUSH     {r4,lr}
        0x0000d926:    b082        ..      SUB      sp,sp,#8
        0x0000d928:    4604        .F      MOV      r4,r0
        0x0000d92a:    f000fcdf    ....    BL       am_hal_interrupt_master_disable ; 0xe2ec
        0x0000d92e:    9001        ..      STR      r0,[sp,#4]
        0x0000d930:    f2482008    H..     MOV      r0,#0x8208
        0x0000d934:    f2c40000    ....    MOVT     r0,#0x4000
        0x0000d938:    6004        .`      STR      r4,[r0,#0]
        0x0000d93a:    9801        ..      LDR      r0,[sp,#4]
        0x0000d93c:    b002        ..      ADD      sp,sp,#8
        0x0000d93e:    e8bd4010    ...@    POP      {r4,lr}
        0x0000d942:    f000bcdb    ....    B.W      am_hal_interrupt_master_set ; 0xe2fc
        0x0000d946:    0000        ..      MOVS     r0,r0
    am_hal_ctimer_int_disable
        0x0000d948:    b510        ..      PUSH     {r4,lr}
        0x0000d94a:    b082        ..      SUB      sp,sp,#8
        0x0000d94c:    4604        .F      MOV      r4,r0
        0x0000d94e:    f000fccd    ....    BL       am_hal_interrupt_master_disable ; 0xe2ec
        0x0000d952:    9001        ..      STR      r0,[sp,#4]
        0x0000d954:    f2482000    H..     MOVW     r0,#0x8200
        0x0000d958:    f2c40000    ....    MOVT     r0,#0x4000
        0x0000d95c:    6801        .h      LDR      r1,[r0,#0]
        0x0000d95e:    43a1        .C      BICS     r1,r1,r4
        0x0000d960:    6001        .`      STR      r1,[r0,#0]
        0x0000d962:    9801        ..      LDR      r0,[sp,#4]
        0x0000d964:    b002        ..      ADD      sp,sp,#8
        0x0000d966:    e8bd4010    ...@    POP      {r4,lr}
        0x0000d96a:    f000bcc7    ....    B.W      am_hal_interrupt_master_set ; 0xe2fc
        0x0000d96e:    0000        ..      MOVS     r0,r0
    am_hal_ctimer_int_enable
        0x0000d970:    b510        ..      PUSH     {r4,lr}
        0x0000d972:    b082        ..      SUB      sp,sp,#8
        0x0000d974:    4604        .F      MOV      r4,r0
        0x0000d976:    f000fcb9    ....    BL       am_hal_interrupt_master_disable ; 0xe2ec
        0x0000d97a:    9001        ..      STR      r0,[sp,#4]
        0x0000d97c:    f2482000    H..     MOVW     r0,#0x8200
        0x0000d980:    f2c40000    ....    MOVT     r0,#0x4000
        0x0000d984:    6801        .h      LDR      r1,[r0,#0]
        0x0000d986:    4321        !C      ORRS     r1,r1,r4
        0x0000d988:    6001        .`      STR      r1,[r0,#0]
        0x0000d98a:    9801        ..      LDR      r0,[sp,#4]
        0x0000d98c:    b002        ..      ADD      sp,sp,#8
        0x0000d98e:    e8bd4010    ...@    POP      {r4,lr}
        0x0000d992:    f000bcb3    ....    B.W      am_hal_interrupt_master_set ; 0xe2fc
        0x0000d996:    0000        ..      MOVS     r0,r0
    am_hal_ctimer_int_register
        0x0000d998:    b510        ..      PUSH     {r4,lr}
        0x0000d99a:    f5b04f00    ...O    CMP      r0,#0x8000
        0x0000d99e:    460c        .F      MOV      r4,r1
        0x0000d9a0:    f2808052    ..R.    BGE.W    0xda48 ; am_hal_ctimer_int_register + 176
        0x0000d9a4:    287f        .(      CMP      r0,#0x7f
        0x0000d9a6:    f3008069    ..i.    BGT.W    0xda7c ; am_hal_ctimer_int_register + 228
        0x0000d9aa:    1e41        A.      SUBS     r1,r0,#1
        0x0000d9ac:    293f        ?)      CMP      r1,#0x3f
        0x0000d9ae:    f2008121    ..!.    BHI.W    0xdbf4 ; am_hal_ctimer_int_register + 604
        0x0000d9b2:    2000        .       MOVS     r0,#0
        0x0000d9b4:    e8dff011    ....    TBH      [pc,r1,LSL #1]
    $d.2
        0x0000d9b8:    00400041    A.@.    DCD    4194369
        0x0000d9bc:    012a01b2    ..*.    DCD    19530162
        0x0000d9c0:    01b201b2    ....    DCD    28443058
        0x0000d9c4:    013201b2    ..2.    DCD    20054450
        0x0000d9c8:    01b201b2    ....    DCD    28443058
        0x0000d9cc:    01b201b2    ....    DCD    28443058
        0x0000d9d0:    01b201b2    ....    DCD    28443058
        0x0000d9d4:    013a01b2    ..:.    DCD    20578738
        0x0000d9d8:    01b201b2    ....    DCD    28443058
        0x0000d9dc:    01b201b2    ....    DCD    28443058
        0x0000d9e0:    01b201b2    ....    DCD    28443058
        0x0000d9e4:    01b201b2    ....    DCD    28443058
        0x0000d9e8:    01b201b2    ....    DCD    28443058
        0x0000d9ec:    01b201b2    ....    DCD    28443058
        0x0000d9f0:    01b201b2    ....    DCD    28443058
        0x0000d9f4:    014201b2    ..B.    DCD    21103026
        0x0000d9f8:    01b201b2    ....    DCD    28443058
        0x0000d9fc:    01b201b2    ....    DCD    28443058
        0x0000da00:    01b201b2    ....    DCD    28443058
        0x0000da04:    01b201b2    ....    DCD    28443058
        0x0000da08:    01b201b2    ....    DCD    28443058
        0x0000da0c:    01b201b2    ....    DCD    28443058
        0x0000da10:    01b201b2    ....    DCD    28443058
        0x0000da14:    01b201b2    ....    DCD    28443058
        0x0000da18:    01b201b2    ....    DCD    28443058
        0x0000da1c:    01b201b2    ....    DCD    28443058
        0x0000da20:    01b201b2    ....    DCD    28443058
        0x0000da24:    01b201b2    ....    DCD    28443058
        0x0000da28:    01b201b2    ....    DCD    28443058
        0x0000da2c:    01b201b2    ....    DCD    28443058
        0x0000da30:    01b201b2    ....    DCD    28443058
        0x0000da34:    014a01b2    ..J.    DCD    21627314
    $t.3
        0x0000da38:    2001        .       MOVS     r0,#1
        0x0000da3a:    f64431f0    D..1    MOV      r1,#0x4bf0
        0x0000da3e:    f2c10101    ....    MOVT     r1,#0x1001
        0x0000da42:    f8414020    A. @    STR      r4,[r1,r0,LSL #2]
        0x0000da46:    bd10        ..      POP      {r4,pc}
        0x0000da48:    f5b00f00    ....    CMP      r0,#0x800000
        0x0000da4c:    da2c        ,.      BGE      0xdaa8 ; am_hal_ctimer_int_register + 272
        0x0000da4e:    f5b02f00    .../    CMP      r0,#0x80000
        0x0000da52:    da3f        ?.      BGE      0xdad4 ; am_hal_ctimer_int_register + 316
        0x0000da54:    f5b03f00    ...?    CMP      r0,#0x20000
        0x0000da58:    da78        x.      BGE      0xdb4c ; am_hal_ctimer_int_register + 436
        0x0000da5a:    f5b04f00    ...O    CMP      r0,#0x8000
        0x0000da5e:    f00080fd    ....    BEQ.W    0xdc5c ; am_hal_ctimer_int_register + 708
        0x0000da62:    f5b03f80    ...?    CMP      r0,#0x10000
        0x0000da66:    f0408159    @.Y.    BNE.W    0xdd1c ; am_hal_ctimer_int_register + 900
        0x0000da6a:    2010        .       MOVS     r0,#0x10
        0x0000da6c:    f64431f0    D..1    MOV      r1,#0x4bf0
        0x0000da70:    f2c10101    ....    MOVT     r1,#0x1001
        0x0000da74:    f8414020    A. @    STR      r4,[r1,r0,LSL #2]
        0x0000da78:    bd10        ..      POP      {r4,pc}
        0x0000da7a:    bf00        ..      NOP      
        0x0000da7c:    f5b06f00    ...o    CMP      r0,#0x800
        0x0000da80:    da3c        <.      BGE      0xdafc ; am_hal_ctimer_int_register + 356
        0x0000da82:    f5b07f00    ....    CMP      r0,#0x200
        0x0000da86:    da6f        o.      BGE      0xdb68 ; am_hal_ctimer_int_register + 464
        0x0000da88:    2880        .(      CMP      r0,#0x80
        0x0000da8a:    f00080ef    ....    BEQ.W    0xdc6c ; am_hal_ctimer_int_register + 724
        0x0000da8e:    f5b07f80    ....    CMP      r0,#0x100
        0x0000da92:    f0408143    @.C.    BNE.W    0xdd1c ; am_hal_ctimer_int_register + 900
        0x0000da96:    2008        .       MOVS     r0,#8
        0x0000da98:    f64431f0    D..1    MOV      r1,#0x4bf0
        0x0000da9c:    f2c10101    ....    MOVT     r1,#0x1001
        0x0000daa0:    f8414020    A. @    STR      r4,[r1,r0,LSL #2]
        0x0000daa4:    bd10        ..      POP      {r4,pc}
        0x0000daa6:    bf00        ..      NOP      
        0x0000daa8:    f1b06f00    ...o    CMP      r0,#0x8000000
        0x0000daac:    da3a        :.      BGE      0xdb24 ; am_hal_ctimer_int_register + 396
        0x0000daae:    f1b07f00    ....    CMP      r0,#0x2000000
        0x0000dab2:    da67        g.      BGE      0xdb84 ; am_hal_ctimer_int_register + 492
        0x0000dab4:    f5b00f00    ....    CMP      r0,#0x800000
        0x0000dab8:    f00080e0    ....    BEQ.W    0xdc7c ; am_hal_ctimer_int_register + 740
        0x0000dabc:    f1b07f80    ....    CMP      r0,#0x1000000
        0x0000dac0:    f040812c    @.,.    BNE.W    0xdd1c ; am_hal_ctimer_int_register + 900
        0x0000dac4:    2018        .       MOVS     r0,#0x18
        0x0000dac6:    f64431f0    D..1    MOV      r1,#0x4bf0
        0x0000daca:    f2c10101    ....    MOVT     r1,#0x1001
        0x0000dace:    f8414020    A. @    STR      r4,[r1,r0,LSL #2]
        0x0000dad2:    bd10        ..      POP      {r4,pc}
        0x0000dad4:    f5b01f00    ....    CMP      r0,#0x200000
        0x0000dad8:    da62        b.      BGE      0xdba0 ; am_hal_ctimer_int_register + 520
        0x0000dada:    f5b02f00    .../    CMP      r0,#0x80000
        0x0000dade:    f00080d5    ....    BEQ.W    0xdc8c ; am_hal_ctimer_int_register + 756
        0x0000dae2:    f5b01f80    ....    CMP      r0,#0x100000
        0x0000dae6:    f0408119    @...    BNE.W    0xdd1c ; am_hal_ctimer_int_register + 900
        0x0000daea:    2014        .       MOVS     r0,#0x14
        0x0000daec:    f64431f0    D..1    MOV      r1,#0x4bf0
        0x0000daf0:    f2c10101    ....    MOVT     r1,#0x1001
        0x0000daf4:    f8414020    A. @    STR      r4,[r1,r0,LSL #2]
        0x0000daf8:    bd10        ..      POP      {r4,pc}
        0x0000dafa:    bf00        ..      NOP      
        0x0000dafc:    f5b05f00    ..._    CMP      r0,#0x2000
        0x0000db00:    da5c        \.      BGE      0xdbbc ; am_hal_ctimer_int_register + 548
        0x0000db02:    f5b06f00    ...o    CMP      r0,#0x800
        0x0000db06:    f00080c9    ....    BEQ.W    0xdc9c ; am_hal_ctimer_int_register + 772
        0x0000db0a:    f5b05f80    ..._    CMP      r0,#0x1000
        0x0000db0e:    f0408105    @...    BNE.W    0xdd1c ; am_hal_ctimer_int_register + 900
        0x0000db12:    200c        .       MOVS     r0,#0xc
        0x0000db14:    f64431f0    D..1    MOV      r1,#0x4bf0
        0x0000db18:    f2c10101    ....    MOVT     r1,#0x1001
        0x0000db1c:    f8414020    A. @    STR      r4,[r1,r0,LSL #2]
        0x0000db20:    bd10        ..      POP      {r4,pc}
        0x0000db22:    bf00        ..      NOP      
        0x0000db24:    f1b05f00    ..._    CMP      r0,#0x20000000
        0x0000db28:    da56        V.      BGE      0xdbd8 ; am_hal_ctimer_int_register + 576
        0x0000db2a:    f1b06f00    ...o    CMP      r0,#0x8000000
        0x0000db2e:    f00080bd    ....    BEQ.W    0xdcac ; am_hal_ctimer_int_register + 788
        0x0000db32:    f1b05f80    ..._    CMP      r0,#0x10000000
        0x0000db36:    f04080f1    @...    BNE.W    0xdd1c ; am_hal_ctimer_int_register + 900
        0x0000db3a:    201c        .       MOVS     r0,#0x1c
        0x0000db3c:    f64431f0    D..1    MOV      r1,#0x4bf0
        0x0000db40:    f2c10101    ....    MOVT     r1,#0x1001
        0x0000db44:    f8414020    A. @    STR      r4,[r1,r0,LSL #2]
        0x0000db48:    bd10        ..      POP      {r4,pc}
        0x0000db4a:    bf00        ..      NOP      
        0x0000db4c:    f00080b6    ....    BEQ.W    0xdcbc ; am_hal_ctimer_int_register + 804
        0x0000db50:    f5b02f80    .../    CMP      r0,#0x40000
        0x0000db54:    f04080e2    @...    BNE.W    0xdd1c ; am_hal_ctimer_int_register + 900
        0x0000db58:    2012        .       MOVS     r0,#0x12
        0x0000db5a:    f64431f0    D..1    MOV      r1,#0x4bf0
        0x0000db5e:    f2c10101    ....    MOVT     r1,#0x1001
        0x0000db62:    f8414020    A. @    STR      r4,[r1,r0,LSL #2]
        0x0000db66:    bd10        ..      POP      {r4,pc}
        0x0000db68:    f00080b0    ....    BEQ.W    0xdccc ; am_hal_ctimer_int_register + 820
        0x0000db6c:    f5b06f80    ...o    CMP      r0,#0x400
        0x0000db70:    f04080d4    @...    BNE.W    0xdd1c ; am_hal_ctimer_int_register + 900
        0x0000db74:    200a        .       MOVS     r0,#0xa
        0x0000db76:    f64431f0    D..1    MOV      r1,#0x4bf0
        0x0000db7a:    f2c10101    ....    MOVT     r1,#0x1001
        0x0000db7e:    f8414020    A. @    STR      r4,[r1,r0,LSL #2]
        0x0000db82:    bd10        ..      POP      {r4,pc}
        0x0000db84:    f00080aa    ....    BEQ.W    0xdcdc ; am_hal_ctimer_int_register + 836
        0x0000db88:    f1b06f80    ...o    CMP      r0,#0x4000000
        0x0000db8c:    f04080c6    @...    BNE.W    0xdd1c ; am_hal_ctimer_int_register + 900
        0x0000db90:    201a        .       MOVS     r0,#0x1a
        0x0000db92:    f64431f0    D..1    MOV      r1,#0x4bf0
        0x0000db96:    f2c10101    ....    MOVT     r1,#0x1001
        0x0000db9a:    f8414020    A. @    STR      r4,[r1,r0,LSL #2]
        0x0000db9e:    bd10        ..      POP      {r4,pc}
        0x0000dba0:    f00080a4    ....    BEQ.W    0xdcec ; am_hal_ctimer_int_register + 852
        0x0000dba4:    f5b00f80    ....    CMP      r0,#0x400000
        0x0000dba8:    f04080b8    @...    BNE.W    0xdd1c ; am_hal_ctimer_int_register + 900
        0x0000dbac:    2016        .       MOVS     r0,#0x16
        0x0000dbae:    f64431f0    D..1    MOV      r1,#0x4bf0
        0x0000dbb2:    f2c10101    ....    MOVT     r1,#0x1001
        0x0000dbb6:    f8414020    A. @    STR      r4,[r1,r0,LSL #2]
        0x0000dbba:    bd10        ..      POP      {r4,pc}
        0x0000dbbc:    f000809e    ....    BEQ.W    0xdcfc ; am_hal_ctimer_int_register + 868
        0x0000dbc0:    f5b04f80    ...O    CMP      r0,#0x4000
        0x0000dbc4:    f04080aa    @...    BNE.W    0xdd1c ; am_hal_ctimer_int_register + 900
        0x0000dbc8:    200e        .       MOVS     r0,#0xe
        0x0000dbca:    f64431f0    D..1    MOV      r1,#0x4bf0
        0x0000dbce:    f2c10101    ....    MOVT     r1,#0x1001
        0x0000dbd2:    f8414020    A. @    STR      r4,[r1,r0,LSL #2]
        0x0000dbd6:    bd10        ..      POP      {r4,pc}
        0x0000dbd8:    f0008098    ....    BEQ.W    0xdd0c ; am_hal_ctimer_int_register + 884
        0x0000dbdc:    f1b04f80    ...O    CMP      r0,#0x40000000
        0x0000dbe0:    f040809c    @...    BNE.W    0xdd1c ; am_hal_ctimer_int_register + 900
        0x0000dbe4:    201e        .       MOVS     r0,#0x1e
        0x0000dbe6:    f64431f0    D..1    MOV      r1,#0x4bf0
        0x0000dbea:    f2c10101    ....    MOVT     r1,#0x1001
        0x0000dbee:    f8414020    A. @    STR      r4,[r1,r0,LSL #2]
        0x0000dbf2:    bd10        ..      POP      {r4,pc}
        0x0000dbf4:    f1b04f00    ...O    CMP      r0,#0x80000000
        0x0000dbf8:    f0408090    @...    BNE.W    0xdd1c ; am_hal_ctimer_int_register + 900
        0x0000dbfc:    201f        .       MOVS     r0,#0x1f
        0x0000dbfe:    f64431f0    D..1    MOV      r1,#0x4bf0
        0x0000dc02:    f2c10101    ....    MOVT     r1,#0x1001
        0x0000dc06:    f8414020    A. @    STR      r4,[r1,r0,LSL #2]
        0x0000dc0a:    bd10        ..      POP      {r4,pc}
        0x0000dc0c:    2002        .       MOVS     r0,#2
        0x0000dc0e:    f64431f0    D..1    MOV      r1,#0x4bf0
        0x0000dc12:    f2c10101    ....    MOVT     r1,#0x1001
        0x0000dc16:    f8414020    A. @    STR      r4,[r1,r0,LSL #2]
        0x0000dc1a:    bd10        ..      POP      {r4,pc}
        0x0000dc1c:    2003        .       MOVS     r0,#3
        0x0000dc1e:    f64431f0    D..1    MOV      r1,#0x4bf0
        0x0000dc22:    f2c10101    ....    MOVT     r1,#0x1001
        0x0000dc26:    f8414020    A. @    STR      r4,[r1,r0,LSL #2]
        0x0000dc2a:    bd10        ..      POP      {r4,pc}
        0x0000dc2c:    2004        .       MOVS     r0,#4
        0x0000dc2e:    f64431f0    D..1    MOV      r1,#0x4bf0
        0x0000dc32:    f2c10101    ....    MOVT     r1,#0x1001
        0x0000dc36:    f8414020    A. @    STR      r4,[r1,r0,LSL #2]
        0x0000dc3a:    bd10        ..      POP      {r4,pc}
        0x0000dc3c:    2005        .       MOVS     r0,#5
        0x0000dc3e:    f64431f0    D..1    MOV      r1,#0x4bf0
        0x0000dc42:    f2c10101    ....    MOVT     r1,#0x1001
        0x0000dc46:    f8414020    A. @    STR      r4,[r1,r0,LSL #2]
        0x0000dc4a:    bd10        ..      POP      {r4,pc}
        0x0000dc4c:    2006        .       MOVS     r0,#6
        0x0000dc4e:    f64431f0    D..1    MOV      r1,#0x4bf0
        0x0000dc52:    f2c10101    ....    MOVT     r1,#0x1001
        0x0000dc56:    f8414020    A. @    STR      r4,[r1,r0,LSL #2]
        0x0000dc5a:    bd10        ..      POP      {r4,pc}
        0x0000dc5c:    200f        .       MOVS     r0,#0xf
        0x0000dc5e:    f64431f0    D..1    MOV      r1,#0x4bf0
        0x0000dc62:    f2c10101    ....    MOVT     r1,#0x1001
        0x0000dc66:    f8414020    A. @    STR      r4,[r1,r0,LSL #2]
        0x0000dc6a:    bd10        ..      POP      {r4,pc}
        0x0000dc6c:    2007        .       MOVS     r0,#7
        0x0000dc6e:    f64431f0    D..1    MOV      r1,#0x4bf0
        0x0000dc72:    f2c10101    ....    MOVT     r1,#0x1001
        0x0000dc76:    f8414020    A. @    STR      r4,[r1,r0,LSL #2]
        0x0000dc7a:    bd10        ..      POP      {r4,pc}
        0x0000dc7c:    2017        .       MOVS     r0,#0x17
        0x0000dc7e:    f64431f0    D..1    MOV      r1,#0x4bf0
        0x0000dc82:    f2c10101    ....    MOVT     r1,#0x1001
        0x0000dc86:    f8414020    A. @    STR      r4,[r1,r0,LSL #2]
        0x0000dc8a:    bd10        ..      POP      {r4,pc}
        0x0000dc8c:    2013        .       MOVS     r0,#0x13
        0x0000dc8e:    f64431f0    D..1    MOV      r1,#0x4bf0
        0x0000dc92:    f2c10101    ....    MOVT     r1,#0x1001
        0x0000dc96:    f8414020    A. @    STR      r4,[r1,r0,LSL #2]
        0x0000dc9a:    bd10        ..      POP      {r4,pc}
        0x0000dc9c:    200b        .       MOVS     r0,#0xb
        0x0000dc9e:    f64431f0    D..1    MOV      r1,#0x4bf0
        0x0000dca2:    f2c10101    ....    MOVT     r1,#0x1001
        0x0000dca6:    f8414020    A. @    STR      r4,[r1,r0,LSL #2]
        0x0000dcaa:    bd10        ..      POP      {r4,pc}
        0x0000dcac:    201b        .       MOVS     r0,#0x1b
        0x0000dcae:    f64431f0    D..1    MOV      r1,#0x4bf0
        0x0000dcb2:    f2c10101    ....    MOVT     r1,#0x1001
        0x0000dcb6:    f8414020    A. @    STR      r4,[r1,r0,LSL #2]
        0x0000dcba:    bd10        ..      POP      {r4,pc}
        0x0000dcbc:    2011        .       MOVS     r0,#0x11
        0x0000dcbe:    f64431f0    D..1    MOV      r1,#0x4bf0
        0x0000dcc2:    f2c10101    ....    MOVT     r1,#0x1001
        0x0000dcc6:    f8414020    A. @    STR      r4,[r1,r0,LSL #2]
        0x0000dcca:    bd10        ..      POP      {r4,pc}
        0x0000dccc:    2009        .       MOVS     r0,#9
        0x0000dcce:    f64431f0    D..1    MOV      r1,#0x4bf0
        0x0000dcd2:    f2c10101    ....    MOVT     r1,#0x1001
        0x0000dcd6:    f8414020    A. @    STR      r4,[r1,r0,LSL #2]
        0x0000dcda:    bd10        ..      POP      {r4,pc}
        0x0000dcdc:    2019        .       MOVS     r0,#0x19
        0x0000dcde:    f64431f0    D..1    MOV      r1,#0x4bf0
        0x0000dce2:    f2c10101    ....    MOVT     r1,#0x1001
        0x0000dce6:    f8414020    A. @    STR      r4,[r1,r0,LSL #2]
        0x0000dcea:    bd10        ..      POP      {r4,pc}
        0x0000dcec:    2015        .       MOVS     r0,#0x15
        0x0000dcee:    f64431f0    D..1    MOV      r1,#0x4bf0
        0x0000dcf2:    f2c10101    ....    MOVT     r1,#0x1001
        0x0000dcf6:    f8414020    A. @    STR      r4,[r1,r0,LSL #2]
        0x0000dcfa:    bd10        ..      POP      {r4,pc}
        0x0000dcfc:    200d        .       MOVS     r0,#0xd
        0x0000dcfe:    f64431f0    D..1    MOV      r1,#0x4bf0
        0x0000dd02:    f2c10101    ....    MOVT     r1,#0x1001
        0x0000dd06:    f8414020    A. @    STR      r4,[r1,r0,LSL #2]
        0x0000dd0a:    bd10        ..      POP      {r4,pc}
        0x0000dd0c:    201d        .       MOVS     r0,#0x1d
        0x0000dd0e:    f64431f0    D..1    MOV      r1,#0x4bf0
        0x0000dd12:    f2c10101    ....    MOVT     r1,#0x1001
        0x0000dd16:    f8414020    A. @    STR      r4,[r1,r0,LSL #2]
        0x0000dd1a:    bd10        ..      POP      {r4,pc}
        0x0000dd1c:    a006        ..      ADR      r0,{pc}+0x1c ; 0xdd38
        0x0000dd1e:    a20a        ..      ADR      r2,{pc}+0x2a ; 0xdd48
        0x0000dd20:    f24011e7    @...    MOV      r1,#0x1e7
        0x0000dd24:    f000f8c4    ....    BL       am_hal_debug_error ; 0xdeb0
        0x0000dd28:    2000        .       MOVS     r0,#0
        0x0000dd2a:    f64431f0    D..1    MOV      r1,#0x4bf0
        0x0000dd2e:    f2c10101    ....    MOVT     r1,#0x1001
        0x0000dd32:    f8414020    A. @    STR      r4,[r1,r0,LSL #2]
        0x0000dd36:    bd10        ..      POP      {r4,pc}
    $d.4
        0x0000dd38:    685f6d61    am_h    DCD    1751084385
        0x0000dd3c:    635f6c61    al_c    DCD    1667198049
        0x0000dd40:    656d6974    time    DCD    1701669236
        0x0000dd44:    00632e72    r.c.    DCD    6499954
        0x0000dd48:    6d695443    CTim    DCD    1835619395
        0x0000dd4c:    69207265    er i    DCD    1763734117
        0x0000dd50:    7265746e    nter    DCD    1919251566
        0x0000dd54:    74707572    rupt    DCD    1953527154
        0x0000dd58:    6d756e20     num    DCD    1836412448
        0x0000dd5c:    20726562    ber     DCD    544367970
        0x0000dd60:    2074756f    out     DCD    544503151
        0x0000dd64:    7220666f    of r    DCD    1914725999
        0x0000dd68:    65676e61    ange    DCD    1701277281
        0x0000dd6c:    0000002e    ....    DCD    46
    $t.0
    am_hal_ctimer_int_service
        0x0000dd70:    b5f0        ..      PUSH     {r4-r7,lr}
        0x0000dd72:    b081        ..      SUB      sp,sp,#4
        0x0000dd74:    b1a0        ..      CBZ      r0,0xdda0 ; am_hal_ctimer_int_service + 48
        0x0000dd76:    f64436f0    D..6    MOV      r6,#0x4bf0
        0x0000dd7a:    4604        .F      MOV      r4,r0
        0x0000dd7c:    f04f4500    O..E    MOV      r5,#0x80000000
        0x0000dd80:    f2c10601    ....    MOVT     r6,#0x1001
        0x0000dd84:    fab4f784    ....    CLZ      r7,r4
        0x0000dd88:    f087001f    ....    EOR      r0,r7,#0x1f
        0x0000dd8c:    f8560020    V. .    LDR      r0,[r6,r0,LSL #2]
        0x0000dd90:    2800        .(      CMP      r0,#0
        0x0000dd92:    bf18        ..      IT       NE
        0x0000dd94:    4780        .G      BLXNE    r0
        0x0000dd96:    fa25f007    %...    LSR      r0,r5,r7
        0x0000dd9a:    4384        .C      BICS     r4,r4,r0
        0x0000dd9c:    2c00        .,      CMP      r4,#0
        0x0000dd9e:    d1f1        ..      BNE      0xdd84 ; am_hal_ctimer_int_service + 20
        0x0000dda0:    b001        ..      ADD      sp,sp,#4
        0x0000dda2:    bdf0        ..      POP      {r4-r7,pc}
    am_hal_ctimer_int_status_get
        0x0000dda4:    b570        p.      PUSH     {r4-r6,lr}
        0x0000dda6:    b082        ..      SUB      sp,sp,#8
        0x0000dda8:    f2482600    H..&    MOVW     r6,#0x8200
        0x0000ddac:    4605        .F      MOV      r5,r0
        0x0000ddae:    f2c40600    ....    MOVT     r6,#0x4000
        0x0000ddb2:    f000fa9b    ....    BL       am_hal_interrupt_master_disable ; 0xe2ec
        0x0000ddb6:    9001        ..      STR      r0,[sp,#4]
        0x0000ddb8:    6874        th      LDR      r4,[r6,#4]
        0x0000ddba:    2d00        .-      CMP      r5,#0
        0x0000ddbc:    bf1c        ..      ITT      NE
        0x0000ddbe:    6830        0h      LDRNE    r0,[r6,#0]
        0x0000ddc0:    4004        .@      ANDNE    r4,r4,r0
        0x0000ddc2:    9801        ..      LDR      r0,[sp,#4]
        0x0000ddc4:    f000fa9a    ....    BL       am_hal_interrupt_master_set ; 0xe2fc
        0x0000ddc8:    4620         F      MOV      r0,r4
        0x0000ddca:    b002        ..      ADD      sp,sp,#8
        0x0000ddcc:    bd70        p.      POP      {r4-r6,pc}
        0x0000ddce:    0000        ..      MOVS     r0,r0
    am_hal_ctimer_period_set
        0x0000ddd0:    e92d43f0    -..C    PUSH     {r4-r9,lr}
        0x0000ddd4:    b081        ..      SUB      sp,sp,#4
        0x0000ddd6:    f2480804    H...    MOV      r8,#0x8004
        0x0000ddda:    f2c40800    ....    MOVT     r8,#0x4000
        0x0000ddde:    461e        .F      MOV      r6,r3
        0x0000dde0:    4614        .F      MOV      r4,r2
        0x0000dde2:    460d        .F      MOV      r5,r1
        0x0000dde4:    ea4f1940    O.@.    LSL      r9,r0,#5
        0x0000dde8:    eb081740    ..@.    ADD      r7,r8,r0,LSL #5
        0x0000ddec:    f000fa7e    ..~.    BL       am_hal_interrupt_master_disable ; 0xe2ec
        0x0000ddf0:    9000        ..      STR      r0,[sp,#0]
        0x0000ddf2:    68b8        .h      LDR      r0,[r7,#8]
        0x0000ddf4:    f5153f80    ...?    CMN      r5,#0x10000
        0x0000ddf8:    bf08        ..      IT       EQ
        0x0000ddfa:    0c00        ..      LSREQ    r0,r0,#16
        0x0000ddfc:    f40070c0    ...p    AND      r0,r0,#0x180
        0x0000de00:    2880        .(      CMP      r0,#0x80
        0x0000de02:    4620         F      MOV      r0,r4
        0x0000de04:    f64f71ff    O..q    MOV      r1,#0xffff
        0x0000de08:    bf0c        ..      ITE      EQ
        0x0000de0a:    1b80        ..      SUBEQ    r0,r0,r6
        0x0000de0c:    2400        .$      MOVNE    r4,#0
        0x0000de0e:    428d        .B      CMP      r5,r1
        0x0000de10:    eac04104    ...A    PKHBT    r1,r0,r4,LSL #16
        0x0000de14:    d108        ..      BNE      0xde28 ; am_hal_ctimer_period_set + 88
        0x0000de16:    f8481009    H...    STR      r1,[r8,r9]
        0x0000de1a:    9800        ..      LDR      r0,[sp,#0]
        0x0000de1c:    b001        ..      ADD      sp,sp,#4
        0x0000de1e:    e8bd43f0    ...C    POP      {r4-r9,lr}
        0x0000de22:    f000ba6b    ..k.    B.W      am_hal_interrupt_master_set ; 0xe2fc
        0x0000de26:    bf00        ..      NOP      
        0x0000de28:    f5153f80    ...?    CMN      r5,#0x10000
        0x0000de2c:    f1080204    ....    ADD      r2,r8,#4
        0x0000de30:    bf0f        ..      ITEEE    EQ
        0x0000de32:    f8491002    I...    STREQ    r1,[r9,r2]
        0x0000de36:    f8481009    H...    STRNE    r1,[r8,r9]
        0x0000de3a:    eac44020    .. @    PKHTBNE  r0,r4,r0,ASR #16
        0x0000de3e:    f8490002    I...    STRNE    r0,[r9,r2]
        0x0000de42:    9800        ..      LDR      r0,[sp,#0]
        0x0000de44:    b001        ..      ADD      sp,sp,#4
        0x0000de46:    e8bd43f0    ...C    POP      {r4-r9,lr}
        0x0000de4a:    f000ba57    ..W.    B.W      am_hal_interrupt_master_set ; 0xe2fc
        0x0000de4e:    0000        ..      MOVS     r0,r0
    am_hal_ctimer_start
        0x0000de50:    b570        p.      PUSH     {r4-r6,lr}
        0x0000de52:    b082        ..      SUB      sp,sp,#8
        0x0000de54:    460c        .F      MOV      r4,r1
        0x0000de56:    4605        .F      MOV      r5,r0
        0x0000de58:    0146        F.      LSLS     r6,r0,#5
        0x0000de5a:    f000fa47    ..G.    BL       am_hal_interrupt_master_disable ; 0xe2ec
        0x0000de5e:    9001        ..      STR      r0,[sp,#4]
        0x0000de60:    f248000c    H...    MOV      r0,#0x800c
        0x0000de64:    f2c40000    ....    MOVT     r0,#0x4000
        0x0000de68:    5981        .Y      LDR      r1,[r0,r6]
        0x0000de6a:    2201        ."      MOVS     r2,#1
        0x0000de6c:    f06f2308    o..#    MVN      r3,#0x8000800
        0x0000de70:    f5143f80    ...?    CMN      r4,#0x10000
        0x0000de74:    bf08        ..      IT       EQ
        0x0000de76:    2211        ."      MOVEQ    r2,#0x11
        0x0000de78:    ea630304    c...    ORN      r3,r3,r4
        0x0000de7c:    fa21f202    !...    LSR      r2,r1,r2
        0x0000de80:    4019        .@      ANDS     r1,r1,r3
        0x0000de82:    f0041301    ....    AND      r3,r4,#0x10001
        0x0000de86:    4319        .C      ORRS     r1,r1,r3
        0x0000de88:    f241037c    A.|.    MOV      r3,#0x107c
        0x0000de8c:    f2c10301    ....    MOVT     r3,#0x1001
        0x0000de90:    f002021f    ....    AND      r2,r2,#0x1f
        0x0000de94:    eb030345    ..E.    ADD      r3,r3,r5,LSL #1
        0x0000de98:    f5143f80    ...?    CMN      r4,#0x10000
        0x0000de9c:    bf08        ..      IT       EQ
        0x0000de9e:    3301        .3      ADDEQ    r3,#1
        0x0000dea0:    701a        .p      STRB     r2,[r3,#0]
        0x0000dea2:    5181        .Q      STR      r1,[r0,r6]
        0x0000dea4:    9801        ..      LDR      r0,[sp,#4]
        0x0000dea6:    b002        ..      ADD      sp,sp,#8
        0x0000dea8:    e8bd4070    ..p@    POP      {r4-r6,lr}
        0x0000deac:    f000ba26    ..&.    B.W      am_hal_interrupt_master_set ; 0xe2fc
    am_hal_debug_error
        0x0000deb0:    e7fe        ..      B        am_hal_debug_error ; 0xdeb0
        0x0000deb2:    0000        ..      MOVS     r0,r0
    am_hal_flash_delay
        0x0000deb4:    f2440134    D.4.    MOV      r1,#0x4034
        0x0000deb8:    f2c40100    ....    MOVT     r1,#0x4000
        0x0000debc:    680a        .h      LDR      r2,[r1,#0]
        0x0000debe:    f3c20180    ....    UBFX     r1,r2,#2,#1
        0x0000dec2:    4088        .@      LSLS     r0,r0,r1
        0x0000dec4:    210e        .!      MOVS     r1,#0xe
        0x0000dec6:    f0120f04    ....    TST      r2,#4
        0x0000deca:    bf08        ..      IT       EQ
        0x0000decc:    210b        .!      MOVEQ    r1,#0xb
        0x0000dece:    4281        .B      CMP      r1,r0
        0x0000ded0:    bf28        (.      IT       CS
        0x0000ded2:    4770        pG      BXCS     lr
        0x0000ded4:    1a40        @.      SUBS     r0,r0,r1
        0x0000ded6:    219d        .!      MOVS     r1,#0x9d
        0x0000ded8:    f6c00100    ....    MOVT     r1,#0x800
        0x0000dedc:    4708        .G      BX       r1
        0x0000dede:    0000        ..      MOVS     r0,r0
    am_hal_flash_delay_status_check
        0x0000dee0:    e92d47f0    -..G    PUSH     {r4-r10,lr}
        0x0000dee4:    460e        .F      MOV      r6,r1
        0x0000dee6:    4615        .F      MOV      r5,r2
        0x0000dee8:    9908        ..      LDR      r1,[sp,#0x20]
        0x0000deea:    6832        2h      LDR      r2,[r6,#0]
        0x0000deec:    461c        .F      MOV      r4,r3
        0x0000deee:    2900        .)      CMP      r1,#0
        0x0000def0:    ea020105    ....    AND      r1,r2,r5
        0x0000def4:    d024        $.      BEQ      0xdf40 ; am_hal_flash_delay_status_check + 96
        0x0000def6:    42a1        .B      CMP      r1,r4
        0x0000def8:    d047        G.      BEQ      0xdf8a ; am_hal_flash_delay_status_check + 170
        0x0000defa:    f2440834    D.4.    MOV      r8,#0x4034
        0x0000defe:    f2400a9d    @...    MOVW     r10,#0x9d
        0x0000df02:    f2c40800    ....    MOVT     r8,#0x4000
        0x0000df06:    1c47        G.      ADDS     r7,r0,#1
        0x0000df08:    f04f0910    O...    MOV      r9,#0x10
        0x0000df0c:    f6c00a00    ....    MOVT     r10,#0x800
        0x0000df10:    3f01        .?      SUBS     r7,#1
        0x0000df12:    d03d        =.      BEQ      0xdf90 ; am_hal_flash_delay_status_check + 176
        0x0000df14:    f8d80000    ....    LDR      r0,[r8,#0]
        0x0000df18:    f3c00180    ....    UBFX     r1,r0,#2,#1
        0x0000df1c:    f0100f04    ....    TST      r0,#4
        0x0000df20:    f06f000d    o...    MVN      r0,#0xd
        0x0000df24:    bf08        ..      IT       EQ
        0x0000df26:    f06f000a    o...    MVNEQ    r0,#0xa
        0x0000df2a:    fa09f101    ....    LSL      r1,r9,r1
        0x0000df2e:    4408        .D      ADD      r0,r0,r1
        0x0000df30:    47d0        .G      BLX      r10
        0x0000df32:    6830        0h      LDR      r0,[r6,#0]
        0x0000df34:    4028        (@      ANDS     r0,r0,r5
        0x0000df36:    42a0        .B      CMP      r0,r4
        0x0000df38:    d1ea        ..      BNE      0xdf10 ; am_hal_flash_delay_status_check + 48
        0x0000df3a:    2000        .       MOVS     r0,#0
        0x0000df3c:    e8bd87f0    ....    POP      {r4-r10,pc}
        0x0000df40:    42a1        .B      CMP      r1,r4
        0x0000df42:    bf1c        ..      ITT      NE
        0x0000df44:    2000        .       MOVNE    r0,#0
        0x0000df46:    e8bd87f0    ....    POPNE    {r4-r10,pc}
        0x0000df4a:    f2440834    D.4.    MOV      r8,#0x4034
        0x0000df4e:    f2400a9d    @...    MOVW     r10,#0x9d
        0x0000df52:    f2c40800    ....    MOVT     r8,#0x4000
        0x0000df56:    1c47        G.      ADDS     r7,r0,#1
        0x0000df58:    f04f0910    O...    MOV      r9,#0x10
        0x0000df5c:    f6c00a00    ....    MOVT     r10,#0x800
        0x0000df60:    3f01        .?      SUBS     r7,#1
        0x0000df62:    d015        ..      BEQ      0xdf90 ; am_hal_flash_delay_status_check + 176
        0x0000df64:    f8d80000    ....    LDR      r0,[r8,#0]
        0x0000df68:    f3c00180    ....    UBFX     r1,r0,#2,#1
        0x0000df6c:    f0100f04    ....    TST      r0,#4
        0x0000df70:    f06f000d    o...    MVN      r0,#0xd
        0x0000df74:    bf08        ..      IT       EQ
        0x0000df76:    f06f000a    o...    MVNEQ    r0,#0xa
        0x0000df7a:    fa09f101    ....    LSL      r1,r9,r1
        0x0000df7e:    4408        .D      ADD      r0,r0,r1
        0x0000df80:    47d0        .G      BLX      r10
        0x0000df82:    6830        0h      LDR      r0,[r6,#0]
        0x0000df84:    4028        (@      ANDS     r0,r0,r5
        0x0000df86:    42a0        .B      CMP      r0,r4
        0x0000df88:    d0ea        ..      BEQ      0xdf60 ; am_hal_flash_delay_status_check + 128
        0x0000df8a:    2000        .       MOVS     r0,#0
        0x0000df8c:    e8bd87f0    ....    POP      {r4-r10,pc}
        0x0000df90:    2004        .       MOVS     r0,#4
        0x0000df92:    e8bd87f0    ....    POP      {r4-r10,pc}
        0x0000df96:    0000        ..      MOVS     r0,r0
    am_hal_flash_load_ui32
        0x0000df98:    2175        u!      MOVS     r1,#0x75
        0x0000df9a:    f6c00100    ....    MOVT     r1,#0x800
        0x0000df9e:    4708        .G      BX       r1
    am_hal_flash_store_ui32
        0x0000dfa0:    b580        ..      PUSH     {r7,lr}
        0x0000dfa2:    b084        ..      SUB      sp,sp,#0x10
        0x0000dfa4:    f2447270    D.pr    MOV      r2,#0x4770
        0x0000dfa8:    f6cb7200    ...r    MOVT     r2,#0xbf00
        0x0000dfac:    9203        ..      STR      r2,[sp,#0xc]
        0x0000dfae:    f6460200    F...    MOVW     r2,#0x6800
        0x0000dfb2:    f6cb7200    ...r    MOVT     r2,#0xbf00
        0x0000dfb6:    9202        ..      STR      r2,[sp,#8]
        0x0000dfb8:    f2460201    F...    MOV      r2,#0x6001
        0x0000dfbc:    f6cb7200    ...r    MOVT     r2,#0xbf00
        0x0000dfc0:    9201        ..      STR      r2,[sp,#4]
        0x0000dfc2:    aa01        ..      ADD      r2,sp,#4
        0x0000dfc4:    3201        .2      ADDS     r2,#1
        0x0000dfc6:    4790        .G      BLX      r2
        0x0000dfc8:    b004        ..      ADD      sp,sp,#0x10
        0x0000dfca:    bd80        ..      POP      {r7,pc}
    am_hal_gpio_pinconfig
        0x0000dfcc:    e92d4ff0    -..O    PUSH     {r4-r11,lr}
        0x0000dfd0:    b087        ..      SUB      sp,sp,#0x1c
        0x0000dfd2:    2849        I(      CMP      r0,#0x49
        0x0000dfd4:    d904        ..      BLS      0xdfe0 ; am_hal_gpio_pinconfig + 20
        0x0000dfd6:    2506        .%      MOVS     r5,#6
        0x0000dfd8:    4628        (F      MOV      r0,r5
        0x0000dfda:    b007        ..      ADD      sp,sp,#0x1c
        0x0000dfdc:    e8bd8ff0    ....    POP      {r4-r11,pc}
        0x0000dfe0:    f2401202    @...    MOVW     r2,#0x102
        0x0000dfe4:    f0010307    ....    AND      r3,r1,#7
        0x0000dfe8:    f3c11742    ..B.    UBFX     r7,r1,#5,#3
        0x0000dfec:    4604        .F      MOV      r4,r0
        0x0000dfee:    f6c00200    ....    MOVT     r2,#0x800
        0x0000dff2:    ea4f00c3    O...    LSL      r0,r3,#3
        0x0000dff6:    b1ff        ..      CBZ      r7,0xe038 ; am_hal_gpio_pinconfig + 108
        0x0000dff8:    f1a10640    ..@.    SUB      r6,r1,#0x40
        0x0000dffc:    b276        v.      SXTB     r6,r6
        0x0000dffe:    2e00        ..      CMP      r6,#0
        0x0000e000:    f0400001    @...    ORR      r0,r0,#1
        0x0000e004:    d40a        ..      BMI      0xe01c ; am_hal_gpio_pinconfig + 80
        0x0000e006:    f64126cc    A..&    MOV      r6,#0x1acc
        0x0000e00a:    f2c00601    ....    MOVT     r6,#1
        0x0000e00e:    5d36        6]      LDRB     r6,[r6,r4]
        0x0000e010:    07f6        ..      LSLS     r6,r6,#31
        0x0000e012:    d021        !.      BEQ      0xe058 ; am_hal_gpio_pinconfig + 140
        0x0000e014:    ea401087    @...    ORR      r0,r0,r7,LSL #6
        0x0000e018:    3880        .8      SUBS     r0,r0,#0x80
        0x0000e01a:    e00d        ..      B        0xe038 ; am_hal_gpio_pinconfig + 108
        0x0000e01c:    2f06        ./      CMP      r7,#6
        0x0000e01e:    d107        ..      BNE      0xe030 ; am_hal_gpio_pinconfig + 100
        0x0000e020:    2c14        .,      CMP      r4,#0x14
        0x0000e022:    d009        ..      BEQ      0xe038 ; am_hal_gpio_pinconfig + 108
        0x0000e024:    1e55        U.      SUBS     r5,r2,#1
        0x0000e026:    4628        (F      MOV      r0,r5
        0x0000e028:    b007        ..      ADD      sp,sp,#0x1c
        0x0000e02a:    e8bd8ff0    ....    POP      {r4-r11,pc}
        0x0000e02e:    bf00        ..      NOP      
        0x0000e030:    2c14        .,      CMP      r4,#0x14
        0x0000e032:    bf08        ..      IT       EQ
        0x0000e034:    2f01        ./      CMPEQ    r7,#1
        0x0000e036:    d00f        ..      BEQ      0xe058 ; am_hal_gpio_pinconfig + 140
        0x0000e038:    f3c107c1    ....    UBFX     r7,r1,#3,#2
        0x0000e03c:    b1cf        ..      CBZ      r7,0xe072 ; am_hal_gpio_pinconfig + 166
        0x0000e03e:    2f02        ./      CMP      r7,#2
        0x0000e040:    d010        ..      BEQ      0xe064 ; am_hal_gpio_pinconfig + 152
        0x0000e042:    2f01        ./      CMP      r7,#1
        0x0000e044:    f0408076    @.v.    BNE.W    0xe134 ; am_hal_gpio_pinconfig + 360
        0x0000e048:    2c24        $,      CMP      r4,#0x24
        0x0000e04a:    d002        ..      BEQ      0xe052 ; am_hal_gpio_pinconfig + 134
        0x0000e04c:    2c03        .,      CMP      r4,#3
        0x0000e04e:    4615        .F      MOV      r5,r2
        0x0000e050:    d1c2        ..      BNE      0xdfd8 ; am_hal_gpio_pinconfig + 12
        0x0000e052:    f0400040    @.@.    ORR      r0,r0,#0x40
        0x0000e056:    e00c        ..      B        0xe072 ; am_hal_gpio_pinconfig + 166
        0x0000e058:    1e95        ..      SUBS     r5,r2,#2
        0x0000e05a:    4628        (F      MOV      r0,r5
        0x0000e05c:    b007        ..      ADD      sp,sp,#0x1c
        0x0000e05e:    e8bd8ff0    ....    POP      {r4-r11,pc}
        0x0000e062:    bf00        ..      NOP      
        0x0000e064:    2c29        ),      CMP      r4,#0x29
        0x0000e066:    d002        ..      BEQ      0xe06e ; am_hal_gpio_pinconfig + 162
        0x0000e068:    2c25        %,      CMP      r4,#0x25
        0x0000e06a:    4615        .F      MOV      r5,r2
        0x0000e06c:    d1b4        ..      BNE      0xdfd8 ; am_hal_gpio_pinconfig + 12
        0x0000e06e:    f0400080    @...    ORR      r0,r0,#0x80
        0x0000e072:    f6413716    A..7    MOV      r7,#0x1b16
        0x0000e076:    f2c00701    ....    MOVT     r7,#1
        0x0000e07a:    5d3f        ?]      LDRB     r7,[r7,r4]
        0x0000e07c:    40df        .@      LSRS     r7,r7,r3
        0x0000e07e:    07ff        ..      LSLS     r7,r7,#31
        0x0000e080:    f6414788    A..G    MOV      r7,#0x1c88
        0x0000e084:    f2c00701    ....    MOVT     r7,#1
        0x0000e088:    5d3f        ?]      LDRB     r7,[r7,r4]
        0x0000e08a:    bf18        ..      IT       NE
        0x0000e08c:    f0400002    @...    ORRNE    r0,r0,#2
        0x0000e090:    429f        .B      CMP      r7,r3
        0x0000e092:    d11f        ..      BNE      0xe0d4 ; am_hal_gpio_pinconfig + 264
        0x0000e094:    0c0b        ..      LSRS     r3,r1,#16
        0x0000e096:    f003070d    ....    AND      r7,r3,#0xd
        0x0000e09a:    2f0d        ./      CMP      r7,#0xd
        0x0000e09c:    f1020501    ....    ADD      r5,r2,#1
        0x0000e0a0:    d09a        ..      BEQ      0xdfd8 ; am_hal_gpio_pinconfig + 12
        0x0000e0a2:    07df        ..      LSLS     r7,r3,#31
        0x0000e0a4:    d104        ..      BNE      0xe0b0 ; am_hal_gpio_pinconfig + 228
        0x0000e0a6:    f003070e    ....    AND      r7,r3,#0xe
        0x0000e0aa:    2f04        ./      CMP      r7,#4
        0x0000e0ac:    f63faf94    ?...    BHI.W    0xdfd8 ; am_hal_gpio_pinconfig + 12
        0x0000e0b0:    f6413c60    A.`<    MOVW     r12,#0x1b60
        0x0000e0b4:    f0030630    ..0.    AND      r6,r3,#0x30
        0x0000e0b8:    f2c00c01    ....    MOVT     r12,#1
        0x0000e0bc:    f3c30542    ..B.    UBFX     r5,r3,#1,#3
        0x0000e0c0:    f36316c7    c...    BFI      r6,r3,#7,#1
        0x0000e0c4:    f81c7024    ..$p    LDRB     r7,[r12,r4,LSL #2]
        0x0000e0c8:    1973        s.      ADDS     r3,r6,r5
        0x0000e0ca:    42bb        .B      CMP      r3,r7
        0x0000e0cc:    f0408094    @...    BNE.W    0xe1f8 ; am_hal_gpio_pinconfig + 556
        0x0000e0d0:    2200        ."      MOVS     r2,#0
        0x0000e0d2:    e0a3        ..      B        0xe21c ; am_hal_gpio_pinconfig + 592
        0x0000e0d4:    2202        ."      MOVS     r2,#2
        0x0000e0d6:    ea0222d1    ..."    AND      r2,r2,r1,LSR #11
        0x0000e0da:    f3c12307    ...#    UBFX     r3,r1,#8,#8
        0x0000e0de:    4310        .C      ORRS     r0,r0,r2
        0x0000e0e0:    2208        ."      MOVS     r2,#8
        0x0000e0e2:    f3c30781    ....    UBFX     r7,r3,#2,#2
        0x0000e0e6:    ea022291    ..."    AND      r2,r2,r1,LSR #10
        0x0000e0ea:    ea420247    B.G.    ORR      r2,r2,r7,LSL #1
        0x0000e0ee:    3f01        .?      SUBS     r7,#1
        0x0000e0f0:    1ece        ..      SUBS     r6,r1,#3
        0x0000e0f2:    fab7f787    ....    CLZ      r7,r7
        0x0000e0f6:    fab6f686    ....    CLZ      r6,r6
        0x0000e0fa:    097f        ..      LSRS     r7,r7,#5
        0x0000e0fc:    0976        v.      LSRS     r6,r6,#5
        0x0000e0fe:    f0030360    ..`.    AND      r3,r3,#0x60
        0x0000e102:    2b40        @+      CMP      r3,#0x40
        0x0000e104:    ea470306    G...    ORR      r3,r7,r6
        0x0000e108:    9301        ..      STR      r3,[sp,#4]
        0x0000e10a:    bf07        ..      ITTEE    EQ
        0x0000e10c:    f3c133c0    ...3    UBFXEQ   r3,r1,#15,#1
        0x0000e110:    ea420c03    B...    ORREQ    r12,r2,r3
        0x0000e114:    f3c13380    ...3    UBFXNE   r3,r1,#14,#1
        0x0000e118:    eb020c03    ....    ADDNE    r12,r2,r3
        0x0000e11c:    0a09        ..      LSRS     r1,r1,#8
        0x0000e11e:    f0010103    ....    AND      r1,r1,#3
        0x0000e122:    e8dff001    ....    TBB      [pc,r1]
    $d.2
        0x0000e126:    0310        ..      DCW    784
        0x0000e128:    bf000d0f    ....    DCD    3204451599
    $t.3
        0x0000e12c:    f0400004    @...    ORR      r0,r0,#4
        0x0000e130:    2100        .!      MOVS     r1,#0
        0x0000e132:    e008        ..      B        0xe146 ; am_hal_gpio_pinconfig + 378
        0x0000e134:    4615        .F      MOV      r5,r2
        0x0000e136:    4628        (F      MOV      r0,r5
        0x0000e138:    b007        ..      ADD      sp,sp,#0x1c
        0x0000e13a:    e8bd8ff0    ....    POP      {r4-r11,pc}
        0x0000e13e:    bf00        ..      NOP      
        0x0000e140:    f0400004    @...    ORR      r0,r0,#4
        0x0000e144:    2101        .!      MOVS     r1,#1
        0x0000e146:    f06f0303    o...    MVN      r3,#3
        0x0000e14a:    ea030254    ..T.    AND      r2,r3,r4,LSR #1
        0x0000e14e:    231c        .#      MOVS     r3,#0x1c
        0x0000e150:    ea030384    ....    AND      r3,r3,r4,LSL #2
        0x0000e154:    260f        .&      MOVS     r6,#0xf
        0x0000e156:    409e        .@      LSLS     r6,r6,r3
        0x0000e158:    9205        ..      STR      r2,[sp,#0x14]
        0x0000e15a:    2218        ."      MOVS     r2,#0x18
        0x0000e15c:    43f6        .C      MVNS     r6,r6
        0x0000e15e:    ea0202c4    ....    AND      r2,r2,r4,LSL #3
        0x0000e162:    9604        ..      STR      r6,[sp,#0x10]
        0x0000e164:    26ff        .&      MOVS     r6,#0xff
        0x0000e166:    4096        .@      LSLS     r6,r6,r2
        0x0000e168:    f2400a74    @.t.    MOVW     r10,#0x74
        0x0000e16c:    ea6f0806    o...    MVN      r8,r6
        0x0000e170:    fa00f602    ....    LSL      r6,r0,r2
        0x0000e174:    fa01f002    ....    LSL      r0,r1,r2
        0x0000e178:    f2c40a01    ....    MOVT     r10,#0x4001
        0x0000e17c:    9003        ..      STR      r0,[sp,#0xc]
        0x0000e17e:    fa0cf003    ....    LSL      r0,r12,r3
        0x0000e182:    f1aa0928    ..(.    SUB      r9,r10,#0x28
        0x0000e186:    f0240703    $...    BIC      r7,r4,#3
        0x0000e18a:    f1aa0574    ..t.    SUB      r5,r10,#0x74
        0x0000e18e:    f10a0b84    ....    ADD      r11,r10,#0x84
        0x0000e192:    9002        ..      STR      r0,[sp,#8]
        0x0000e194:    f000f8aa    ....    BL       am_hal_interrupt_master_disable ; 0xe2ec
        0x0000e198:    9901        ..      LDR      r1,[sp,#4]
        0x0000e19a:    9006        ..      STR      r0,[sp,#0x18]
        0x0000e19c:    b149        I.      CBZ      r1,0xe1b2 ; am_hal_gpio_pinconfig + 486
        0x0000e19e:    f004001f    ....    AND      r0,r4,#0x1f
        0x0000e1a2:    2101        .!      MOVS     r1,#1
        0x0000e1a4:    fa01f000    ....    LSL      r0,r1,r0
        0x0000e1a8:    f3c41141    ..A.    UBFX     r1,r4,#5,#2
        0x0000e1ac:    eb0a0181    ....    ADD      r1,r10,r1,LSL #2
        0x0000e1b0:    6548        He      STR      r0,[r1,#0x54]
        0x0000e1b2:    2073        s       MOVS     r0,#0x73
        0x0000e1b4:    f8ca0000    ....    STR      r0,[r10,#0]
        0x0000e1b8:    5978        xY      LDR      r0,[r7,r5]
        0x0000e1ba:    ea000008    ....    AND      r0,r0,r8
        0x0000e1be:    4330        0C      ORRS     r0,r0,r6
        0x0000e1c0:    5178        xQ      STR      r0,[r7,r5]
        0x0000e1c2:    9905        ..      LDR      r1,[sp,#0x14]
        0x0000e1c4:    2500        .%      MOVS     r5,#0
        0x0000e1c6:    f8510009    Q...    LDR      r0,[r1,r9]
        0x0000e1ca:    9b04        ..      LDR      r3,[sp,#0x10]
        0x0000e1cc:    4018        .@      ANDS     r0,r0,r3
        0x0000e1ce:    9b02        ..      LDR      r3,[sp,#8]
        0x0000e1d0:    4318        .C      ORRS     r0,r0,r3
        0x0000e1d2:    f8410009    A...    STR      r0,[r1,r9]
        0x0000e1d6:    f857000b    W...    LDR      r0,[r7,r11]
        0x0000e1da:    9903        ..      LDR      r1,[sp,#0xc]
        0x0000e1dc:    ea000008    ....    AND      r0,r0,r8
        0x0000e1e0:    4308        .C      ORRS     r0,r0,r1
        0x0000e1e2:    f847000b    G...    STR      r0,[r7,r11]
        0x0000e1e6:    f8ca5000    ...P    STR      r5,[r10,#0]
        0x0000e1ea:    9806        ..      LDR      r0,[sp,#0x18]
        0x0000e1ec:    f000f886    ....    BL       am_hal_interrupt_master_set ; 0xe2fc
        0x0000e1f0:    4628        (F      MOV      r0,r5
        0x0000e1f2:    b007        ..      ADD      sp,sp,#0x1c
        0x0000e1f4:    e8bd8ff0    ....    POP      {r4-r11,pc}
        0x0000e1f8:    eb0c0784    ....    ADD      r7,r12,r4,LSL #2
        0x0000e1fc:    787e        ~x      LDRB     r6,[r7,#1]
        0x0000e1fe:    42b3        .B      CMP      r3,r6
        0x0000e200:    d102        ..      BNE      0xe208 ; am_hal_gpio_pinconfig + 572
        0x0000e202:    2202        ."      MOVS     r2,#2
        0x0000e204:    e00a        ..      B        0xe21c ; am_hal_gpio_pinconfig + 592
        0x0000e206:    bf00        ..      NOP      
        0x0000e208:    78be        .x      LDRB     r6,[r7,#2]
        0x0000e20a:    42b3        .B      CMP      r3,r6
        0x0000e20c:    d102        ..      BNE      0xe214 ; am_hal_gpio_pinconfig + 584
        0x0000e20e:    2204        ."      MOVS     r2,#4
        0x0000e210:    e004        ..      B        0xe21c ; am_hal_gpio_pinconfig + 592
        0x0000e212:    bf00        ..      NOP      
        0x0000e214:    78ff        .x      LDRB     r7,[r7,#3]
        0x0000e216:    42bb        .B      CMP      r3,r7
        0x0000e218:    d108        ..      BNE      0xe22c ; am_hal_gpio_pinconfig + 608
        0x0000e21a:    2206        ."      MOVS     r2,#6
        0x0000e21c:    2308        .#      MOVS     r3,#8
        0x0000e21e:    ea0343d1    ...C    AND      r3,r3,r1,LSR #19
        0x0000e222:    eb020c03    ....    ADD      r12,r2,r3
        0x0000e226:    2200        ."      MOVS     r2,#0
        0x0000e228:    9201        ..      STR      r2,[sp,#4]
        0x0000e22a:    e777        w.      B        0xe11c ; am_hal_gpio_pinconfig + 336
        0x0000e22c:    1c95        ..      ADDS     r5,r2,#2
        0x0000e22e:    4628        (F      MOV      r0,r5
        0x0000e230:    b007        ..      ADD      sp,sp,#0x1c
        0x0000e232:    e8bd8ff0    ....    POP      {r4-r11,pc}
        0x0000e236:    0000        ..      MOVS     r0,r0
    am_hal_gpio_state_write
        0x0000e238:    b5b0        ..      PUSH     {r4,r5,r7,lr}
        0x0000e23a:    b082        ..      SUB      sp,sp,#8
        0x0000e23c:    2849        I(      CMP      r0,#0x49
        0x0000e23e:    d903        ..      BLS      0xe248 ; am_hal_gpio_state_write + 16
        0x0000e240:    2405        .$      MOVS     r4,#5
        0x0000e242:    4620         F      MOV      r0,r4
        0x0000e244:    b002        ..      ADD      sp,sp,#8
        0x0000e246:    bdb0        ..      POP      {r4,r5,r7,pc}
        0x0000e248:    460d        .F      MOV      r5,r1
        0x0000e24a:    2905        .)      CMP      r1,#5
        0x0000e24c:    d904        ..      BLS      0xe258 ; am_hal_gpio_state_write + 32
        0x0000e24e:    2406        .$      MOVS     r4,#6
        0x0000e250:    4620         F      MOV      r0,r4
        0x0000e252:    b002        ..      ADD      sp,sp,#8
        0x0000e254:    bdb0        ..      POP      {r4,r5,r7,pc}
        0x0000e256:    bf00        ..      NOP      
        0x0000e258:    4604        .F      MOV      r4,r0
        0x0000e25a:    f000f847    ..G.    BL       am_hal_interrupt_master_disable ; 0xe2ec
        0x0000e25e:    2d05        .-      CMP      r5,#5
        0x0000e260:    9001        ..      STR      r0,[sp,#4]
        0x0000e262:    d841        A.      BHI      0xe2e8 ; am_hal_gpio_state_write + 176
        0x0000e264:    f004001f    ....    AND      r0,r4,#0x1f
        0x0000e268:    2101        .!      MOVS     r1,#1
        0x0000e26a:    fa01f000    ....    LSL      r0,r1,r0
        0x0000e26e:    210c        .!      MOVS     r1,#0xc
        0x0000e270:    ea0101d4    ....    AND      r1,r1,r4,LSR #3
        0x0000e274:    e8dff005    ....    TBB      [pc,r5]
    $d.7
        0x0000e278:    1e140c04    ....    DCD    504630276
        0x0000e27c:    bf002a22    "*..    DCD    3204459042
    $t.8
        0x0000e280:    22c8        ."      MOVS     r2,#0xc8
        0x0000e282:    f2c40201    ....    MOVT     r2,#0x4001
        0x0000e286:    4411        .D      ADD      r1,r1,r2
        0x0000e288:    f8410c24    A.$.    STR      r0,[r1,#-0x24]
        0x0000e28c:    e024        $.      B        0xe2d8 ; am_hal_gpio_state_write + 160
        0x0000e28e:    bf00        ..      NOP      
        0x0000e290:    22c8        ."      MOVS     r2,#0xc8
        0x0000e292:    f2c40201    ....    MOVT     r2,#0x4001
        0x0000e296:    4411        .D      ADD      r1,r1,r2
        0x0000e298:    f8410c30    A.0.    STR      r0,[r1,#-0x30]
        0x0000e29c:    e01c        ..      B        0xe2d8 ; am_hal_gpio_state_write + 160
        0x0000e29e:    bf00        ..      NOP      
        0x0000e2a0:    22c8        ."      MOVS     r2,#0xc8
        0x0000e2a2:    f2c40201    ....    MOVT     r2,#0x4001
        0x0000e2a6:    4411        .D      ADD      r1,r1,r2
        0x0000e2a8:    f8512c3c    Q.<,    LDR      r2,[r1,#-0x3c]
        0x0000e2ac:    4050        P@      EORS     r0,r0,r2
        0x0000e2ae:    f8410c3c    A.<.    STR      r0,[r1,#-0x3c]
        0x0000e2b2:    e011        ..      B        0xe2d8 ; am_hal_gpio_state_write + 160
        0x0000e2b4:    22c8        ."      MOVS     r2,#0xc8
        0x0000e2b6:    f2c40201    ....    MOVT     r2,#0x4001
        0x0000e2ba:    e00c        ..      B        0xe2d6 ; am_hal_gpio_state_write + 158
        0x0000e2bc:    22c8        ."      MOVS     r2,#0xc8
        0x0000e2be:    f2c40201    ....    MOVT     r2,#0x4001
        0x0000e2c2:    4411        .D      ADD      r1,r1,r2
        0x0000e2c4:    f8410c0c    A...    STR      r0,[r1,#-0xc]
        0x0000e2c8:    e006        ..      B        0xe2d8 ; am_hal_gpio_state_write + 160
        0x0000e2ca:    bf00        ..      NOP      
        0x0000e2cc:    22c8        ."      MOVS     r2,#0xc8
        0x0000e2ce:    f2c40201    ....    MOVT     r2,#0x4001
        0x0000e2d2:    588b        .X      LDR      r3,[r1,r2]
        0x0000e2d4:    4058        X@      EORS     r0,r0,r3
        0x0000e2d6:    5088        .P      STR      r0,[r1,r2]
        0x0000e2d8:    2400        .$      MOVS     r4,#0
        0x0000e2da:    9801        ..      LDR      r0,[sp,#4]
        0x0000e2dc:    f000f80e    ....    BL       am_hal_interrupt_master_set ; 0xe2fc
        0x0000e2e0:    4620         F      MOV      r0,r4
        0x0000e2e2:    b002        ..      ADD      sp,sp,#8
        0x0000e2e4:    bdb0        ..      POP      {r4,r5,r7,pc}
        0x0000e2e6:    bf00        ..      NOP      
        0x0000e2e8:    2406        .$      MOVS     r4,#6
        0x0000e2ea:    e7f6        ..      B        0xe2da ; am_hal_gpio_state_write + 162
    am_hal_interrupt_master_disable
        0x0000e2ec:    f3ef8010    ....    MRS      r0,PRIMASK
        0x0000e2f0:    b672        r.      CPSID    i
        0x0000e2f2:    4770        pG      BX       lr
    am_hal_interrupt_master_enable
        0x0000e2f4:    f3ef8010    ....    MRS      r0,PRIMASK
        0x0000e2f8:    b662        b.      CPSIE    i
        0x0000e2fa:    4770        pG      BX       lr
    am_hal_interrupt_master_set
        0x0000e2fc:    f3808810    ....    MSR      PRIMASK,r0
        0x0000e300:    4770        pG      BX       lr
        0x0000e302:    0000        ..      MOVS     r0,r0
    am_hal_iom_CQAddTransaction
        0x0000e304:    e92d47f0    -..G    PUSH     {r4-r10,lr}
        0x0000e308:    b082        ..      SUB      sp,sp,#8
        0x0000e30a:    4605        .F      MOV      r5,r0
        0x0000e30c:    6a40        @j      LDR      r0,[r0,#0x24]
        0x0000e30e:    f5b07f80    ....    CMP      r0,#0x100
        0x0000e312:    d00a        ..      BEQ      0xe32a ; am_hal_iom_CQAddTransaction + 38
        0x0000e314:    f8d50828    ..(.    LDR      r0,[r5,#0x828]
        0x0000e318:    4698        .F      MOV      r8,r3
        0x0000e31a:    4691        .F      MOV      r9,r2
        0x0000e31c:    460f        .F      MOV      r7,r1
        0x0000e31e:    aa01        ..      ADD      r2,sp,#4
        0x0000e320:    466b        kF      MOV      r3,sp
        0x0000e322:    210b        .!      MOVS     r1,#0xb
        0x0000e324:    f7fff88e    ....    BL       am_hal_cmdq_alloc_block ; 0xd444
        0x0000e328:    b120         .      CBZ      r0,0xe334 ; am_hal_iom_CQAddTransaction + 48
        0x0000e32a:    2005        .       MOVS     r0,#5
        0x0000e32c:    b002        ..      ADD      sp,sp,#8
        0x0000e32e:    e8bd87f0    ....    POP      {r4-r10,pc}
        0x0000e332:    bf00        ..      NOP      
        0x0000e334:    6869        ih      LDR      r1,[r5,#4]
        0x0000e336:    f2440200    D...    MOVW     r2,#0x4000
        0x0000e33a:    f2c50200    ....    MOVT     r2,#0x5000
        0x0000e33e:    9801        ..      LDR      r0,[sp,#4]
        0x0000e340:    eb023101    ...1    ADD      r1,r2,r1,LSL #12
        0x0000e344:    f8d7c008    ....    LDR      r12,[r7,#8]
        0x0000e348:    f5017208    ...r    ADD      r2,r1,#0x220
        0x0000e34c:    6102        .a      STR      r2,[r0,#0x10]
        0x0000e34e:    f3cc220f    ..."    UBFX     r2,r12,#8,#16
        0x0000e352:    6142        Ba      STR      r2,[r0,#0x14]
        0x0000e354:    f2014204    ...B    ADD      r2,r1,#0x404
        0x0000e358:    6182        .a      STR      r2,[r0,#0x18]
        0x0000e35a:    683c        <h      LDR      r4,[r7,#0]
        0x0000e35c:    f5017322    .."s    ADD      r3,r1,#0x288
        0x0000e360:    f897e010    ....    LDRB     lr,[r7,#0x10]
        0x0000e364:    6283        .b      STR      r3,[r0,#0x28]
        0x0000e366:    f5017323    ..#s    ADD      r3,r1,#0x28c
        0x0000e36a:    f36f249f    o..$    BFC      r4,#10,#22
        0x0000e36e:    f5017620    .. v    ADD      r6,r1,#0x280
        0x0000e372:    f04f0a00    O...    MOV      r10,#0
        0x0000e376:    6303        .c      STR      r3,[r0,#0x30]
        0x0000e378:    2318        .#      MOVS     r3,#0x18
        0x0000e37a:    68fa        .h      LDR      r2,[r7,#0xc]
        0x0000e37c:    61c4        .a      STR      r4,[r0,#0x1c]
        0x0000e37e:    6206        .b      STR      r6,[r0,#0x20]
        0x0000e380:    f8c0a024    ..$.    STR      r10,[r0,#0x24]
        0x0000e384:    f1be0f00    ....    CMP      lr,#0
        0x0000e388:    bf08        ..      IT       EQ
        0x0000e38a:    2314        .#      MOVEQ    r3,#0x14
        0x0000e38c:    58fb        .X      LDR      r3,[r7,r3]
        0x0000e38e:    6386        .c      STR      r6,[r0,#0x38]
        0x0000e390:    6343        Cc      STR      r3,[r0,#0x34]
        0x0000e392:    7fbb        ..      LDRB     r3,[r7,#0x1e]
        0x0000e394:    4616        .F      MOV      r6,r2
        0x0000e396:    62c2        .b      STR      r2,[r0,#0x2c]
        0x0000e398:    f0030301    ....    AND      r3,r3,#1
        0x0000e39c:    2a00        .*      CMP      r2,#0
        0x0000e39e:    bf18        ..      IT       NE
        0x0000e3a0:    2601        .&      MOVNE    r6,#1
        0x0000e3a2:    f1be0f00    ....    CMP      lr,#0
        0x0000e3a6:    bf08        ..      IT       EQ
        0x0000e3a8:    3602        .6      ADDEQ    r6,#2
        0x0000e3aa:    ea462303    F..#    ORR      r3,r6,r3,LSL #8
        0x0000e3ae:    63c3        .c      STR      r3,[r0,#0x3c]
        0x0000e3b0:    7a2b        +z      LDRB     r3,[r5,#8]
        0x0000e3b2:    f5017607    ...v    ADD      r6,r1,#0x21c
        0x0000e3b6:    6406        .d      STR      r6,[r0,#0x40]
        0x0000e3b8:    b113        ..      CBZ      r3,0xe3c0 ; am_hal_iom_CQAddTransaction + 188
        0x0000e3ba:    f8c0a044    ..D.    STR      r10,[r0,#0x44]
        0x0000e3be:    e009        ..      B        0xe3d4 ; am_hal_iom_CQAddTransaction + 208
        0x0000e3c0:    683b        ;h      LDR      r3,[r7,#0]
        0x0000e3c2:    f44f1440    O.@.    MOV      r4,#0x300000
        0x0000e3c6:    442b        +D      ADD      r3,r3,r5
        0x0000e3c8:    f89338a0    ...8    LDRB     r3,[r3,#0x8a0]
        0x0000e3cc:    6443        Cd      STR      r3,[r0,#0x44]
        0x0000e3ce:    683b        ;h      LDR      r3,[r7,#0]
        0x0000e3d0:    ea045a03    ...Z    AND      r10,r4,r3,LSL #20
        0x0000e3d4:    2401        .$      MOVS     r4,#1
        0x0000e3d6:    7f3b        ;.      LDRB     r3,[r7,#0x1c]
        0x0000e3d8:    687e        ~h      LDR      r6,[r7,#4]
        0x0000e3da:    f1be0f01    ....    CMP      lr,#1
        0x0000e3de:    bf08        ..      IT       EQ
        0x0000e3e0:    2402        .$      MOVEQ    r4,#2
        0x0000e3e2:    ea44640c    D..d    ORR      r4,r4,r12,LSL #24
        0x0000e3e6:    f3622413    b..$    BFI      r4,r2,#8,#12
        0x0000e3ea:    f0030301    ....    AND      r3,r3,#1
        0x0000e3ee:    ea4a0204    J...    ORR      r2,r10,r4
        0x0000e3f2:    f0060603    ....    AND      r6,r6,#3
        0x0000e3f6:    ea4212c3    B...    ORR      r2,r2,r3,LSL #7
        0x0000e3fa:    ea421246    B.F.    ORR      r2,r2,r6,LSL #5
        0x0000e3fe:    f5017306    ...s    ADD      r3,r1,#0x218
        0x0000e402:    e9c03212    ...2    STRD     r3,r2,[r0,#0x48]
        0x0000e406:    f8d53838    ..88    LDR      r3,[r5,#0x838]
        0x0000e40a:    f501762a    ..*v    ADD      r6,r1,#0x2a8
        0x0000e40e:    f44f4200    O..B    MOV      r2,#0x8000
        0x0000e412:    2b02        .+      CMP      r3,#2
        0x0000e414:    6006        .`      STR      r6,[r0,#0]
        0x0000e416:    6086        .`      STR      r6,[r0,#8]
        0x0000e418:    60c2        .`      STR      r2,[r0,#0xc]
        0x0000e41a:    d00c        ..      BEQ      0xe436 ; am_hal_iom_CQAddTransaction + 306
        0x0000e41c:    6a3a        :j      LDR      r2,[r7,#0x20]
        0x0000e41e:    2b01        .+      CMP      r3,#1
        0x0000e420:    d106        ..      BNE      0xe430 ; am_hal_iom_CQAddTransaction + 300
        0x0000e422:    f24803a0    H...    MOV      r3,#0x80a0
        0x0000e426:    431a        .C      ORRS     r2,r2,r3
        0x0000e428:    2302        .#      MOVS     r3,#2
        0x0000e42a:    f8c53838    ..88    STR      r3,[r5,#0x838]
        0x0000e42e:    e002        ..      B        0xe436 ; am_hal_iom_CQAddTransaction + 306
        0x0000e430:    f2480380    H...    MOV      r3,#0x8080
        0x0000e434:    431a        .C      ORRS     r2,r2,r3
        0x0000e436:    f5017129    ..)q    ADD      r1,r1,#0x2a4
        0x0000e43a:    6042        B`      STR      r2,[r0,#4]
        0x0000e43c:    6a7a        zj      LDR      r2,[r7,#0x24]
        0x0000e43e:    6501        .e      STR      r1,[r0,#0x50]
        0x0000e440:    f89d1000    ....    LDRB     r1,[sp,#0]
        0x0000e444:    6542        Be      STR      r2,[r0,#0x54]
        0x0000e446:    eb050081    ....    ADD      r0,r5,r1,LSL #2
        0x0000e44a:    f8c09028    ..(.    STR      r9,[r0,#0x28]
        0x0000e44e:    f8c08428    ..(.    STR      r8,[r0,#0x428]
        0x0000e452:    2000        .       MOVS     r0,#0
        0x0000e454:    b002        ..      ADD      sp,sp,#8
        0x0000e456:    e8bd87f0    ....    POP      {r4-r10,pc}
        0x0000e45a:    0000        ..      MOVS     r0,r0
    am_hal_iom_CQEnable
        0x0000e45c:    6a41        Aj      LDR      r1,[r0,#0x24]
        0x0000e45e:    b119        ..      CBZ      r1,0xe468 ; am_hal_iom_CQEnable + 12
        0x0000e460:    f8d00828    ..(.    LDR      r0,[r0,#0x828]
        0x0000e464:    f7ffb872    ..r.    B        am_hal_cmdq_enable ; 0xd54c
        0x0000e468:    6841        Ah      LDR      r1,[r0,#4]
        0x0000e46a:    f2442398    D..#    MOV      r3,#0x4298
        0x0000e46e:    030a        ..      LSLS     r2,r1,#12
        0x0000e470:    f2c50300    ....    MOVT     r3,#0x5000
        0x0000e474:    589a        .X      LDR      r2,[r3,r2]
        0x0000e476:    eb033101    ...1    ADD      r1,r3,r1,LSL #12
        0x0000e47a:    e9c21200    ....    STRD     r1,r2,[r2,#0]
        0x0000e47e:    f8d00828    ..(.    LDR      r0,[r0,#0x828]
        0x0000e482:    f7ffb863    ..c.    B        am_hal_cmdq_enable ; 0xd54c
        0x0000e486:    0000        ..      MOVS     r0,r0
    am_hal_iom_blocking_transfer
        0x0000e488:    e92d4ff0    -..O    PUSH     {r4-r11,lr}
        0x0000e48c:    b08b        ..      SUB      sp,sp,#0x2c
        0x0000e48e:    b1a8        ..      CBZ      r0,0xe4bc ; am_hal_iom_blocking_transfer + 52
        0x0000e490:    4604        .F      MOV      r4,r0
        0x0000e492:    6800        .h      LDR      r0,[r0,#0]
        0x0000e494:    460e        .F      MOV      r6,r1
        0x0000e496:    f2434156    C.VA    MOV      r1,#0x3456
        0x0000e49a:    f020407e     .~@    BIC      r0,r0,#0xfe000000
        0x0000e49e:    f2c01112    ....    MOVT     r1,#0x112
        0x0000e4a2:    4288        .B      CMP      r0,r1
        0x0000e4a4:    d10a        ..      BNE      0xe4bc ; am_hal_iom_blocking_transfer + 52
        0x0000e4a6:    b316        ..      CBZ      r6,0xe4ee ; am_hal_iom_blocking_transfer + 102
        0x0000e4a8:    f8969010    ....    LDRB     r9,[r6,#0x10]
        0x0000e4ac:    f1b90f01    ....    CMP      r9,#1
        0x0000e4b0:    d90a        ..      BLS      0xe4c8 ; am_hal_iom_blocking_transfer + 64
        0x0000e4b2:    2707        .'      MOVS     r7,#7
        0x0000e4b4:    4638        8F      MOV      r0,r7
        0x0000e4b6:    b00b        ..      ADD      sp,sp,#0x2c
        0x0000e4b8:    e8bd8ff0    ....    POP      {r4-r11,pc}
        0x0000e4bc:    2702        .'      MOVS     r7,#2
        0x0000e4be:    4638        8F      MOV      r0,r7
        0x0000e4c0:    b00b        ..      ADD      sp,sp,#0x2c
        0x0000e4c2:    e8bd8ff0    ....    POP      {r4-r11,pc}
        0x0000e4c6:    bf00        ..      NOP      
        0x0000e4c8:    68f5        .h      LDR      r5,[r6,#0xc]
        0x0000e4ca:    2d00        .-      CMP      r5,#0
        0x0000e4cc:    bf04        ..      ITT      EQ
        0x0000e4ce:    f04f0900    O...    MOVEQ    r9,#0
        0x0000e4d2:    f8869010    ....    STRBEQ   r9,[r6,#0x10]
        0x0000e4d6:    f8d6a004    ....    LDR      r10,[r6,#4]
        0x0000e4da:    f1ba0f03    ....    CMP      r10,#3
        0x0000e4de:    d806        ..      BHI      0xe4ee ; am_hal_iom_blocking_transfer + 102
        0x0000e4e0:    f8d68008    ....    LDR      r8,[r6,#8]
        0x0000e4e4:    ea4f00ca    O...    LSL      r0,r10,#3
        0x0000e4e8:    fa38f000    8...    LSRS     r0,r8,r0
        0x0000e4ec:    d004        ..      BEQ      0xe4f8 ; am_hal_iom_blocking_transfer + 112
        0x0000e4ee:    2706        .'      MOVS     r7,#6
        0x0000e4f0:    4638        8F      MOV      r0,r7
        0x0000e4f2:    b00b        ..      ADD      sp,sp,#0x2c
        0x0000e4f4:    e8bd8ff0    ....    POP      {r4-r11,pc}
        0x0000e4f8:    2d00        .-      CMP      r5,#0
        0x0000e4fa:    bf18        ..      IT       NE
        0x0000e4fc:    f1b90f00    ....    CMPNE    r9,#0
        0x0000e500:    d108        ..      BNE      0xe514 ; am_hal_iom_blocking_transfer + 140
        0x0000e502:    2d00        .-      CMP      r5,#0
        0x0000e504:    bf18        ..      IT       NE
        0x0000e506:    f1b90f01    ....    CMPNE    r9,#1
        0x0000e50a:    d006        ..      BEQ      0xe51a ; am_hal_iom_blocking_transfer + 146
        0x0000e50c:    6970        pi      LDR      r0,[r6,#0x14]
        0x0000e50e:    b920         .      CBNZ     r0,0xe51a ; am_hal_iom_blocking_transfer + 146
        0x0000e510:    e7ed        ..      B        0xe4ee ; am_hal_iom_blocking_transfer + 102
        0x0000e512:    bf00        ..      NOP      
        0x0000e514:    69b0        .i      LDR      r0,[r6,#0x18]
        0x0000e516:    2800        .(      CMP      r0,#0
        0x0000e518:    d0e9        ..      BEQ      0xe4ee ; am_hal_iom_blocking_transfer + 102
        0x0000e51a:    7a20         z      LDRB     r0,[r4,#8]
        0x0000e51c:    b130        0.      CBZ      r0,0xe52c ; am_hal_iom_blocking_transfer + 164
        0x0000e51e:    2801        .(      CMP      r0,#1
        0x0000e520:    d10c        ..      BNE      0xe53c ; am_hal_iom_blocking_transfer + 180
        0x0000e522:    f5b57f00    ....    CMP      r5,#0x200
        0x0000e526:    d909        ..      BLS      0xe53c ; am_hal_iom_blocking_transfer + 180
        0x0000e528:    e7e1        ..      B        0xe4ee ; am_hal_iom_blocking_transfer + 102
        0x0000e52a:    bf00        ..      NOP      
        0x0000e52c:    6830        0h      LDR      r0,[r6,#0]
        0x0000e52e:    2706        .'      MOVS     r7,#6
        0x0000e530:    2803        .(      CMP      r0,#3
        0x0000e532:    d8bf        ..      BHI      0xe4b4 ; am_hal_iom_blocking_transfer + 44
        0x0000e534:    2000        .       MOVS     r0,#0
        0x0000e536:    ebb03f15    ...?    CMP      r0,r5,LSR #12
        0x0000e53a:    d1bb        ..      BNE      0xe4b4 ; am_hal_iom_blocking_transfer + 44
        0x0000e53c:    f894082c    ..,.    LDRB     r0,[r4,#0x82c]
        0x0000e540:    2802        .(      CMP      r0,#2
        0x0000e542:    d105        ..      BNE      0xe550 ; am_hal_iom_blocking_transfer + 200
        0x0000e544:    2707        .'      MOVS     r7,#7
        0x0000e546:    4638        8F      MOV      r0,r7
        0x0000e548:    b00b        ..      ADD      sp,sp,#0x2c
        0x0000e54a:    e8bd8ff0    ....    POP      {r4-r11,pc}
        0x0000e54e:    bf00        ..      NOP      
        0x0000e550:    6860        `h      LDR      r0,[r4,#4]
        0x0000e552:    f1b90f00    ....    CMP      r9,#0
        0x0000e556:    900a        ..      STR      r0,[sp,#0x28]
        0x0000e558:    7f30        0.      LDRB     r0,[r6,#0x1c]
        0x0000e55a:    f1040124    ..$.    ADD      r1,r4,#0x24
        0x0000e55e:    9008        ..      STR      r0,[sp,#0x20]
        0x0000e560:    f04f0018    O...    MOV      r0,#0x18
        0x0000e564:    bf08        ..      IT       EQ
        0x0000e566:    2014        .       MOVEQ    r0,#0x14
        0x0000e568:    5830        0X      LDR      r0,[r6,r0]
        0x0000e56a:    f04f0b01    O...    MOV      r11,#1
        0x0000e56e:    9009        ..      STR      r0,[sp,#0x24]
        0x0000e570:    f8d40860    ..`.    LDR      r0,[r4,#0x860]
        0x0000e574:    f04f32ff    O..2    MOV      r2,#0xffffffff
        0x0000e578:    2300        .#      MOVS     r3,#0
        0x0000e57a:    f8cdb000    ....    STR      r11,[sp,#0]
        0x0000e57e:    f7fffcaf    ....    BL       am_hal_flash_delay_status_check ; 0xdee0
        0x0000e582:    4607        .F      MOV      r7,r0
        0x0000e584:    2800        .(      CMP      r0,#0
        0x0000e586:    d195        ..      BNE      0xe4b4 ; am_hal_iom_blocking_transfer + 44
        0x0000e588:    f24421b4    D..!    MOV      r1,#0x42b4
        0x0000e58c:    9a0a        ..      LDR      r2,[sp,#0x28]
        0x0000e58e:    f8d40860    ..`.    LDR      r0,[r4,#0x860]
        0x0000e592:    f2c50100    ....    MOVT     r1,#0x5000
        0x0000e596:    eb013102    ...1    ADD      r1,r1,r2,LSL #12
        0x0000e59a:    2206        ."      MOVS     r2,#6
        0x0000e59c:    2304        .#      MOVS     r3,#4
        0x0000e59e:    9106        ..      STR      r1,[sp,#0x18]
        0x0000e5a0:    f8cdb000    ....    STR      r11,[sp,#0]
        0x0000e5a4:    f7fffc9c    ....    BL       am_hal_flash_delay_status_check ; 0xdee0
        0x0000e5a8:    4607        .F      MOV      r7,r0
        0x0000e5aa:    2800        .(      CMP      r0,#0
        0x0000e5ac:    f47faf82    ....    BNE.W    0xe4b4 ; am_hal_iom_blocking_transfer + 44
        0x0000e5b0:    f2440000    D...    MOVW     r0,#0x4000
        0x0000e5b4:    990a        ..      LDR      r1,[sp,#0x28]
        0x0000e5b6:    f2c50000    ....    MOVT     r0,#0x5000
        0x0000e5ba:    eb003b01    ...;    ADD      r11,r0,r1,LSL #12
        0x0000e5be:    2000        .       MOVS     r0,#0
        0x0000e5c0:    f8db2200    ..."    LDR      r2,[r11,#0x200]
        0x0000e5c4:    f8cb0200    ....    STR      r0,[r11,#0x200]
        0x0000e5c8:    f8db1280    ....    LDR      r1,[r11,#0x280]
        0x0000e5cc:    f0210101    !...    BIC      r1,r1,#1
        0x0000e5d0:    f8cb1280    ....    STR      r1,[r11,#0x280]
        0x0000e5d4:    f04f31ff    O..1    MOV      r1,#0xffffffff
        0x0000e5d8:    f8cb1208    ....    STR      r1,[r11,#0x208]
        0x0000e5dc:    6831        1h      LDR      r1,[r6,#0]
        0x0000e5de:    f8cb1404    ....    STR      r1,[r11,#0x404]
        0x0000e5e2:    7a21        !z      LDRB     r1,[r4,#8]
        0x0000e5e4:    b919        ..      CBNZ     r1,0xe5ee ; am_hal_iom_blocking_transfer + 358
        0x0000e5e6:    6830        0h      LDR      r0,[r6,#0]
        0x0000e5e8:    4420         D      ADD      r0,r0,r4
        0x0000e5ea:    f89008a0    ....    LDRB     r0,[r0,#0x8a0]
        0x0000e5ee:    f8cb021c    ....    STR      r0,[r11,#0x21c]
        0x0000e5f2:    7a20         z      LDRB     r0,[r4,#8]
        0x0000e5f4:    9205        ..      STR      r2,[sp,#0x14]
        0x0000e5f6:    b108        ..      CBZ      r0,0xe5fc ; am_hal_iom_blocking_transfer + 372
        0x0000e5f8:    2000        .       MOVS     r0,#0
        0x0000e5fa:    e004        ..      B        0xe606 ; am_hal_iom_blocking_transfer + 382
        0x0000e5fc:    6830        0h      LDR      r0,[r6,#0]
        0x0000e5fe:    f44f1140    O.@.    MOV      r1,#0x300000
        0x0000e602:    ea015000    ...P    AND      r0,r1,r0,LSL #20
        0x0000e606:    f64f7100    O..q    MOVW     r1,#0xff00
        0x0000e60a:    f2c0010f    ....    MOVT     r1,#0xf
        0x0000e60e:    ea012105    ...!    AND      r1,r1,r5,LSL #8
        0x0000e612:    2201        ."      MOVS     r2,#1
        0x0000e614:    f1b90f01    ....    CMP      r9,#1
        0x0000e618:    bf08        ..      IT       EQ
        0x0000e61a:    2202        ."      MOVEQ    r2,#2
        0x0000e61c:    9b08        ..      LDR      r3,[sp,#0x20]
        0x0000e61e:    f00a0703    ....    AND      r7,r10,#3
        0x0000e622:    4411        .D      ADD      r1,r1,r2
        0x0000e624:    ea411147    A.G.    ORR      r1,r1,r7,LSL #5
        0x0000e628:    f3c8220f    ..."    UBFX     r2,r8,#8,#16
        0x0000e62c:    f0030301    ....    AND      r3,r3,#1
        0x0000e630:    ea416108    A..a    ORR      r1,r1,r8,LSL #24
        0x0000e634:    f8cb2220    .. "    STR      r2,[r11,#0x220]
        0x0000e638:    ea4111c3    A...    ORR      r1,r1,r3,LSL #7
        0x0000e63c:    f8d6a00c    ....    LDR      r10,[r6,#0xc]
        0x0000e640:    f1b90f01    ....    CMP      r9,#1
        0x0000e644:    ea400001    @...    ORR      r0,r0,r1
        0x0000e648:    f04080b0    @...    BNE.W    0xe7ac ; am_hal_iom_blocking_transfer + 804
        0x0000e64c:    f1ba0f00    ....    CMP      r10,#0
        0x0000e650:    f8cb0218    ....    STR      r0,[r11,#0x218]
        0x0000e654:    f00081d0    ....    BEQ.W    0xe9f8 ; am_hal_iom_blocking_transfer + 1392
        0x0000e658:    2200        ."      MOVS     r2,#0
        0x0000e65a:    f8db0100    ....    LDR      r0,[r11,#0x100]
        0x0000e65e:    f3c04107    ...A    UBFX     r1,r0,#16,#8
        0x0000e662:    2903        .)      CMP      r1,#3
        0x0000e664:    d81e        ..      BHI      0xe6a4 ; am_hal_iom_blocking_transfer + 540
        0x0000e666:    2600        .&      MOVS     r6,#0
        0x0000e668:    2500        .%      MOVS     r5,#0
        0x0000e66a:    458a        .E      CMP      r10,r1
        0x0000e66c:    f24a111f    J...    MOV      r1,#0xa11f
        0x0000e670:    f04f0000    O...    MOV      r0,#0
        0x0000e674:    f2c00107    ....    MOVT     r1,#7
        0x0000e678:    bf88        ..      IT       HI
        0x0000e67a:    2001        .       MOVHI    r0,#1
        0x0000e67c:    428d        .B      CMP      r5,r1
        0x0000e67e:    f20081bc    ....    BHI.W    0xe9fa ; am_hal_iom_blocking_transfer + 1394
        0x0000e682:    4010        .@      ANDS     r0,r0,r2
        0x0000e684:    f04081b9    @...    BNE.W    0xe9fa ; am_hal_iom_blocking_transfer + 1394
        0x0000e688:    2010        .       MOVS     r0,#0x10
        0x0000e68a:    3501        .5      ADDS     r5,#1
        0x0000e68c:    f7fffc12    ....    BL       am_hal_flash_delay ; 0xdeb4
        0x0000e690:    f8db0204    ....    LDR      r0,[r11,#0x204]
        0x0000e694:    f8db1100    ....    LDR      r1,[r11,#0x100]
        0x0000e698:    f0000201    ....    AND      r2,r0,#1
        0x0000e69c:    f3c14107    ...A    UBFX     r1,r1,#16,#8
        0x0000e6a0:    2904        .)      CMP      r1,#4
        0x0000e6a2:    d3e2        ..      BCC      0xe66a ; am_hal_iom_blocking_transfer + 482
        0x0000e6a4:    f1aa0010    ....    SUB      r0,r10,#0x10
        0x0000e6a8:    9003        ..      STR      r0,[sp,#0xc]
        0x0000e6aa:    f1aa000c    ....    SUB      r0,r10,#0xc
        0x0000e6ae:    9004        ..      STR      r0,[sp,#0x10]
        0x0000e6b0:    f1aa0008    ....    SUB      r0,r10,#8
        0x0000e6b4:    9007        ..      STR      r0,[sp,#0x1c]
        0x0000e6b6:    f1aa0004    ....    SUB      r0,r10,#4
        0x0000e6ba:    9202        ..      STR      r2,[sp,#8]
        0x0000e6bc:    9008        ..      STR      r0,[sp,#0x20]
        0x0000e6be:    f06f0707    o...    MVN      r7,#7
        0x0000e6c2:    2500        .%      MOVS     r5,#0
        0x0000e6c4:    f06f020b    o...    MVN      r2,#0xb
        0x0000e6c8:    f06f0003    o...    MVN      r0,#3
        0x0000e6cc:    f04f0e00    O...    MOV      lr,#0
        0x0000e6d0:    46d0        .F      MOV      r8,r10
        0x0000e6d2:    900a        ..      STR      r0,[sp,#0x28]
        0x0000e6d4:    eb0a0305    ....    ADD      r3,r10,r5
        0x0000e6d8:    f8db9108    ....    LDR      r9,[r11,#0x108]
        0x0000e6dc:    2b03        .+      CMP      r3,#3
        0x0000e6de:    f24080bf    @...    BLS.W    0xe860 ; am_hal_iom_blocking_transfer + 984
        0x0000e6e2:    1948        H.      ADDS     r0,r1,r5
        0x0000e6e4:    9b09        ..      LDR      r3,[sp,#0x24]
        0x0000e6e6:    f0200003     ...    BIC      r0,r0,#3
        0x0000e6ea:    eb030c0e    ....    ADD      r12,r3,lr
        0x0000e6ee:    f843900e    C...    STR      r9,[r3,lr]
        0x0000e6f2:    2804        .(      CMP      r0,#4
        0x0000e6f4:    f1a80304    ....    SUB      r3,r8,#4
        0x0000e6f8:    d046        F.      BEQ      0xe788 ; am_hal_iom_blocking_transfer + 768
        0x0000e6fa:    9e08        ..      LDR      r6,[sp,#0x20]
        0x0000e6fc:    4576        vE      CMP      r6,lr
        0x0000e6fe:    d043        C.      BEQ      0xe788 ; am_hal_iom_blocking_transfer + 768
        0x0000e700:    9e0a        ..      LDR      r6,[sp,#0x28]
        0x0000e702:    f8db9108    ....    LDR      r9,[r11,#0x108]
        0x0000e706:    4456        VD      ADD      r6,r6,r10
        0x0000e708:    2e04        ..      CMP      r6,#4
        0x0000e70a:    f0c080ad    ....    BCC.W    0xe868 ; am_hal_iom_blocking_transfer + 992
        0x0000e70e:    2808        .(      CMP      r0,#8
        0x0000e710:    f1a80308    ....    SUB      r3,r8,#8
        0x0000e714:    f8cc9004    ....    STR      r9,[r12,#4]
        0x0000e718:    d03a        :.      BEQ      0xe790 ; am_hal_iom_blocking_transfer + 776
        0x0000e71a:    9e07        ..      LDR      r6,[sp,#0x1c]
        0x0000e71c:    4576        vE      CMP      r6,lr
        0x0000e71e:    d037        7.      BEQ      0xe790 ; am_hal_iom_blocking_transfer + 776
        0x0000e720:    eb0a0607    ....    ADD      r6,r10,r7
        0x0000e724:    f8db9108    ....    LDR      r9,[r11,#0x108]
        0x0000e728:    2e04        ..      CMP      r6,#4
        0x0000e72a:    f0c080a1    ....    BCC.W    0xe870 ; am_hal_iom_blocking_transfer + 1000
        0x0000e72e:    280c        .(      CMP      r0,#0xc
        0x0000e730:    f1a8030c    ....    SUB      r3,r8,#0xc
        0x0000e734:    f8cc9008    ....    STR      r9,[r12,#8]
        0x0000e738:    d02e        ..      BEQ      0xe798 ; am_hal_iom_blocking_transfer + 784
        0x0000e73a:    9804        ..      LDR      r0,[sp,#0x10]
        0x0000e73c:    4570        pE      CMP      r0,lr
        0x0000e73e:    d02b        +.      BEQ      0xe798 ; am_hal_iom_blocking_transfer + 784
        0x0000e740:    eb0a0002    ....    ADD      r0,r10,r2
        0x0000e744:    f8db9108    ....    LDR      r9,[r11,#0x108]
        0x0000e748:    2804        .(      CMP      r0,#4
        0x0000e74a:    f0c08095    ....    BCC.W    0xe878 ; am_hal_iom_blocking_transfer + 1008
        0x0000e74e:    19c8        ..      ADDS     r0,r1,r7
        0x0000e750:    f1a00308    ....    SUB      r3,r0,#8
        0x0000e754:    f10e0010    ....    ADD      r0,lr,#0x10
        0x0000e758:    2b04        .+      CMP      r3,#4
        0x0000e75a:    f1a50510    ....    SUB      r5,r5,#0x10
        0x0000e75e:    f8cc900c    ....    STR      r9,[r12,#0xc]
        0x0000e762:    d30a        ..      BCC      0xe77a ; am_hal_iom_blocking_transfer + 754
        0x0000e764:    9b0a        ..      LDR      r3,[sp,#0x28]
        0x0000e766:    f1a80810    ....    SUB      r8,r8,#0x10
        0x0000e76a:    3b10        .;      SUBS     r3,r3,#0x10
        0x0000e76c:    930a        ..      STR      r3,[sp,#0x28]
        0x0000e76e:    9b03        ..      LDR      r3,[sp,#0xc]
        0x0000e770:    3f10        .?      SUBS     r7,r7,#0x10
        0x0000e772:    3a10        .:      SUBS     r2,r2,#0x10
        0x0000e774:    4573        sE      CMP      r3,lr
        0x0000e776:    4686        .F      MOV      lr,r0
        0x0000e778:    d1ac        ..      BNE      0xe6d4 ; am_hal_iom_blocking_transfer + 588
        0x0000e77a:    9909        ..      LDR      r1,[sp,#0x24]
        0x0000e77c:    eb0a0305    ....    ADD      r3,r10,r5
        0x0000e780:    4401        .D      ADD      r1,r1,r0
        0x0000e782:    9109        ..      STR      r1,[sp,#0x24]
        0x0000e784:    e00b        ..      B        0xe79e ; am_hal_iom_blocking_transfer + 790
        0x0000e786:    bf00        ..      NOP      
        0x0000e788:    f10c0004    ....    ADD      r0,r12,#4
        0x0000e78c:    e006        ..      B        0xe79c ; am_hal_iom_blocking_transfer + 788
        0x0000e78e:    bf00        ..      NOP      
        0x0000e790:    f10c0008    ....    ADD      r0,r12,#8
        0x0000e794:    e002        ..      B        0xe79c ; am_hal_iom_blocking_transfer + 788
        0x0000e796:    bf00        ..      NOP      
        0x0000e798:    f10c000c    ....    ADD      r0,r12,#0xc
        0x0000e79c:    9009        ..      STR      r0,[sp,#0x24]
        0x0000e79e:    9a02        ..      LDR      r2,[sp,#8]
        0x0000e7a0:    2601        .&      MOVS     r6,#1
        0x0000e7a2:    2b00        .+      CMP      r3,#0
        0x0000e7a4:    469a        .F      MOV      r10,r3
        0x0000e7a6:    f47faf58    ..X.    BNE      0xe65a ; am_hal_iom_blocking_transfer + 466
        0x0000e7aa:    e126        &.      B        0xe9fa ; am_hal_iom_blocking_transfer + 1394
        0x0000e7ac:    f8db1100    ....    LDR      r1,[r11,#0x100]
        0x0000e7b0:    9d09        ..      LDR      r5,[sp,#0x24]
        0x0000e7b2:    f3c12107    ...!    UBFX     r1,r1,#8,#8
        0x0000e7b6:    2904        .)      CMP      r1,#4
        0x0000e7b8:    d346        F.      BCC      0xe848 ; am_hal_iom_blocking_transfer + 960
        0x0000e7ba:    f1ba0f00    ....    CMP      r10,#0
        0x0000e7be:    d043        C.      BEQ      0xe848 ; am_hal_iom_blocking_transfer + 960
        0x0000e7c0:    682f        /h      LDR      r7,[r5,#0]
        0x0000e7c2:    f1ba0f03    ....    CMP      r10,#3
        0x0000e7c6:    f04f0900    O...    MOV      r9,#0
        0x0000e7ca:    f0210203    !...    BIC      r2,r1,#3
        0x0000e7ce:    f1aa0304    ....    SUB      r3,r10,#4
        0x0000e7d2:    bf88        ..      IT       HI
        0x0000e7d4:    4699        .F      MOVHI    r9,r3
        0x0000e7d6:    2a04        .*      CMP      r2,#4
        0x0000e7d8:    f8cb710c    ...q    STR      r7,[r11,#0x10c]
        0x0000e7dc:    bf18        ..      IT       NE
        0x0000e7de:    f1b90f00    ....    CMPNE    r9,#0
        0x0000e7e2:    d035        5.      BEQ      0xe850 ; am_hal_iom_blocking_transfer + 968
        0x0000e7e4:    686e        nh      LDR      r6,[r5,#4]
        0x0000e7e6:    2b03        .+      CMP      r3,#3
        0x0000e7e8:    f04f0900    O...    MOV      r9,#0
        0x0000e7ec:    f1a30704    ....    SUB      r7,r3,#4
        0x0000e7f0:    bf88        ..      IT       HI
        0x0000e7f2:    46b9        .F      MOVHI    r9,r7
        0x0000e7f4:    2a08        .*      CMP      r2,#8
        0x0000e7f6:    f8cb610c    ...a    STR      r6,[r11,#0x10c]
        0x0000e7fa:    bf18        ..      IT       NE
        0x0000e7fc:    f1b90f00    ....    CMPNE    r9,#0
        0x0000e800:    d02a        *.      BEQ      0xe858 ; am_hal_iom_blocking_transfer + 976
        0x0000e802:    68ae        .h      LDR      r6,[r5,#8]
        0x0000e804:    2f03        ./      CMP      r7,#3
        0x0000e806:    f04f0900    O...    MOV      r9,#0
        0x0000e80a:    f1a70304    ....    SUB      r3,r7,#4
        0x0000e80e:    bf88        ..      IT       HI
        0x0000e810:    4699        .F      MOVHI    r9,r3
        0x0000e812:    2a0c        .*      CMP      r2,#0xc
        0x0000e814:    f8cb610c    ...a    STR      r6,[r11,#0x10c]
        0x0000e818:    bf18        ..      IT       NE
        0x0000e81a:    f1b90f00    ....    CMPNE    r9,#0
        0x0000e81e:    d053        S.      BEQ      0xe8c8 ; am_hal_iom_blocking_transfer + 1088
        0x0000e820:    68ea        .h      LDR      r2,[r5,#0xc]
        0x0000e822:    3910        .9      SUBS     r1,r1,#0x10
        0x0000e824:    2b03        .+      CMP      r3,#3
        0x0000e826:    f04f0900    O...    MOV      r9,#0
        0x0000e82a:    f8cb210c    ...!    STR      r2,[r11,#0x10c]
        0x0000e82e:    f1a30a04    ....    SUB      r10,r3,#4
        0x0000e832:    bf88        ..      IT       HI
        0x0000e834:    46d1        .F      MOVHI    r9,r10
        0x0000e836:    2904        .)      CMP      r1,#4
        0x0000e838:    f1050810    ....    ADD      r8,r5,#0x10
        0x0000e83c:    d346        F.      BCC      0xe8cc ; am_hal_iom_blocking_transfer + 1092
        0x0000e83e:    f1b90f00    ....    CMP      r9,#0
        0x0000e842:    4645        EF      MOV      r5,r8
        0x0000e844:    d1bc        ..      BNE      0xe7c0 ; am_hal_iom_blocking_transfer + 824
        0x0000e846:    e041        A.      B        0xe8cc ; am_hal_iom_blocking_transfer + 1092
        0x0000e848:    46d1        .F      MOV      r9,r10
        0x0000e84a:    46a8        .F      MOV      r8,r5
        0x0000e84c:    e03e        >.      B        0xe8cc ; am_hal_iom_blocking_transfer + 1092
        0x0000e84e:    bf00        ..      NOP      
        0x0000e850:    f1050804    ....    ADD      r8,r5,#4
        0x0000e854:    e03a        :.      B        0xe8cc ; am_hal_iom_blocking_transfer + 1092
        0x0000e856:    bf00        ..      NOP      
        0x0000e858:    f1050808    ....    ADD      r8,r5,#8
        0x0000e85c:    e036        6.      B        0xe8cc ; am_hal_iom_blocking_transfer + 1092
        0x0000e85e:    bf00        ..      NOP      
        0x0000e860:    9809        ..      LDR      r0,[sp,#0x24]
        0x0000e862:    4470        pD      ADD      r0,r0,lr
        0x0000e864:    e00a        ..      B        0xe87c ; am_hal_iom_blocking_transfer + 1012
        0x0000e866:    bf00        ..      NOP      
        0x0000e868:    f10c0004    ....    ADD      r0,r12,#4
        0x0000e86c:    e006        ..      B        0xe87c ; am_hal_iom_blocking_transfer + 1012
        0x0000e86e:    bf00        ..      NOP      
        0x0000e870:    f10c0008    ....    ADD      r0,r12,#8
        0x0000e874:    e002        ..      B        0xe87c ; am_hal_iom_blocking_transfer + 1012
        0x0000e876:    bf00        ..      NOP      
        0x0000e878:    f10c000c    ....    ADD      r0,r12,#0xc
        0x0000e87c:    f1a30201    ....    SUB      r2,r3,#1
        0x0000e880:    b143        C.      CBZ      r3,0xe894 ; am_hal_iom_blocking_transfer + 1036
        0x0000e882:    4607        .F      MOV      r7,r0
        0x0000e884:    f8079b01    ....    STRB     r9,[r7],#1
        0x0000e888:    2b01        .+      CMP      r3,#1
        0x0000e88a:    ea4f2119    O..!    LSR      r1,r9,#8
        0x0000e88e:    d103        ..      BNE      0xe898 ; am_hal_iom_blocking_transfer + 1040
        0x0000e890:    4638        8F      MOV      r0,r7
        0x0000e892:    e00b        ..      B        0xe8ac ; am_hal_iom_blocking_transfer + 1060
        0x0000e894:    4649        IF      MOV      r1,r9
        0x0000e896:    e009        ..      B        0xe8ac ; am_hal_iom_blocking_transfer + 1060
        0x0000e898:    7041        Ap      STRB     r1,[r0,#1]
        0x0000e89a:    ea4f4119    O..A    LSR      r1,r9,#16
        0x0000e89e:    2b02        .+      CMP      r3,#2
        0x0000e8a0:    bf0f        ..      ITEEE    EQ
        0x0000e8a2:    3002        .0      ADDEQ    r0,#2
        0x0000e8a4:    7081        .p      STRBNE   r1,[r0,#2]
        0x0000e8a6:    3003        .0      ADDNE    r0,#3
        0x0000e8a8:    ea4f6119    O..a    LSRNE    r1,r9,#24
        0x0000e8ac:    2a03        .*      CMP      r2,#3
        0x0000e8ae:    f0c080a3    ....    BCC.W    0xe9f8 ; am_hal_iom_blocking_transfer + 1392
        0x0000e8b2:    f06f0203    o...    MVN      r2,#3
        0x0000e8b6:    1883        ..      ADDS     r3,r0,r2
        0x0000e8b8:    3204        .2      ADDS     r2,#4
        0x0000e8ba:    6059        Y`      STR      r1,[r3,#4]
        0x0000e8bc:    1d11        ..      ADDS     r1,r2,#4
        0x0000e8be:    f04f0100    O...    MOV      r1,#0
        0x0000e8c2:    d1f8        ..      BNE      0xe8b6 ; am_hal_iom_blocking_transfer + 1070
        0x0000e8c4:    e098        ..      B        0xe9f8 ; am_hal_iom_blocking_transfer + 1392
        0x0000e8c6:    bf00        ..      NOP      
        0x0000e8c8:    f105080c    ....    ADD      r8,r5,#0xc
        0x0000e8cc:    f1b90f00    ....    CMP      r9,#0
        0x0000e8d0:    f8cb0218    ....    STR      r0,[r11,#0x218]
        0x0000e8d4:    f0008090    ....    BEQ.W    0xe9f8 ; am_hal_iom_blocking_transfer + 1392
        0x0000e8d8:    f8db0100    ....    LDR      r0,[r11,#0x100]
        0x0000e8dc:    f3c02007    ...     UBFX     r0,r0,#8,#8
        0x0000e8e0:    2803        .(      CMP      r0,#3
        0x0000e8e2:    d816        ..      BHI      0xe912 ; am_hal_iom_blocking_transfer + 1162
        0x0000e8e4:    2700        .'      MOVS     r7,#0
        0x0000e8e6:    f8db0204    ....    LDR      r0,[r11,#0x204]
        0x0000e8ea:    2600        .&      MOVS     r6,#0
        0x0000e8ec:    07c0        ..      LSLS     r0,r0,#31
        0x0000e8ee:    f0408084    @...    BNE.W    0xe9fa ; am_hal_iom_blocking_transfer + 1394
        0x0000e8f2:    f24a101f    J...    MOV      r0,#0xa11f
        0x0000e8f6:    f2c00007    ....    MOVT     r0,#7
        0x0000e8fa:    4287        .B      CMP      r7,r0
        0x0000e8fc:    d87d        }.      BHI      0xe9fa ; am_hal_iom_blocking_transfer + 1394
        0x0000e8fe:    2010        .       MOVS     r0,#0x10
        0x0000e900:    3701        .7      ADDS     r7,#1
        0x0000e902:    f7fffad7    ....    BL       am_hal_flash_delay ; 0xdeb4
        0x0000e906:    f8db0100    ....    LDR      r0,[r11,#0x100]
        0x0000e90a:    f3c02007    ...     UBFX     r0,r0,#8,#8
        0x0000e90e:    2804        .(      CMP      r0,#4
        0x0000e910:    d3e9        ..      BCC      0xe8e6 ; am_hal_iom_blocking_transfer + 1118
        0x0000e912:    f1a90104    ....    SUB      r1,r9,#4
        0x0000e916:    910a        ..      STR      r1,[sp,#0x28]
        0x0000e918:    f1a00110    ....    SUB      r1,r0,#0x10
        0x0000e91c:    9108        ..      STR      r1,[sp,#0x20]
        0x0000e91e:    f1a90110    ....    SUB      r1,r9,#0x10
        0x0000e922:    9107        ..      STR      r1,[sp,#0x1c]
        0x0000e924:    f1a9010c    ....    SUB      r1,r9,#0xc
        0x0000e928:    f1a90e08    ....    SUB      lr,r9,#8
        0x0000e92c:    2300        .#      MOVS     r3,#0
        0x0000e92e:    464e        NF      MOV      r6,r9
        0x0000e930:    9109        ..      STR      r1,[sp,#0x24]
        0x0000e932:    18c7        ..      ADDS     r7,r0,r3
        0x0000e934:    eb090103    ....    ADD      r1,r9,r3
        0x0000e938:    9a0a        ..      LDR      r2,[sp,#0x28]
        0x0000e93a:    f8d85000    ...P    LDR      r5,[r8,#0]
        0x0000e93e:    2903        .)      CMP      r1,#3
        0x0000e940:    f04f0100    O...    MOV      r1,#0
        0x0000e944:    f0270703    '...    BIC      r7,r7,#3
        0x0000e948:    441a        .D      ADD      r2,r2,r3
        0x0000e94a:    bf88        ..      IT       HI
        0x0000e94c:    4611        .F      MOVHI    r1,r2
        0x0000e94e:    2f04        ./      CMP      r7,#4
        0x0000e950:    f8cb510c    ...Q    STR      r5,[r11,#0x10c]
        0x0000e954:    bf18        ..      IT       NE
        0x0000e956:    2900        .)      CMPNE    r1,#0
        0x0000e958:    d03a        :.      BEQ      0xe9d0 ; am_hal_iom_blocking_transfer + 1352
        0x0000e95a:    f8d85004    ...P    LDR      r5,[r8,#4]
        0x0000e95e:    2a03        .*      CMP      r2,#3
        0x0000e960:    f04f0100    O...    MOV      r1,#0
        0x0000e964:    eb0e0a03    ....    ADD      r10,lr,r3
        0x0000e968:    bf88        ..      IT       HI
        0x0000e96a:    4651        QF      MOVHI    r1,r10
        0x0000e96c:    2f08        ./      CMP      r7,#8
        0x0000e96e:    f8cb510c    ...Q    STR      r5,[r11,#0x10c]
        0x0000e972:    bf18        ..      IT       NE
        0x0000e974:    2900        .)      CMPNE    r1,#0
        0x0000e976:    d031        1.      BEQ      0xe9dc ; am_hal_iom_blocking_transfer + 1364
        0x0000e978:    9909        ..      LDR      r1,[sp,#0x24]
        0x0000e97a:    f8d82008    ...     LDR      r2,[r8,#8]
        0x0000e97e:    eb010c03    ....    ADD      r12,r1,r3
        0x0000e982:    f1ba0f03    ....    CMP      r10,#3
        0x0000e986:    f04f0100    O...    MOV      r1,#0
        0x0000e98a:    bf88        ..      IT       HI
        0x0000e98c:    4661        aF      MOVHI    r1,r12
        0x0000e98e:    2f0c        ./      CMP      r7,#0xc
        0x0000e990:    f8cb210c    ...!    STR      r2,[r11,#0x10c]
        0x0000e994:    bf18        ..      IT       NE
        0x0000e996:    2900        .)      CMPNE    r1,#0
        0x0000e998:    d026        &.      BEQ      0xe9e8 ; am_hal_iom_blocking_transfer + 1376
        0x0000e99a:    f8d8100c    ....    LDR      r1,[r8,#0xc]
        0x0000e99e:    f1bc0f03    ....    CMP      r12,#3
        0x0000e9a2:    f8cb110c    ....    STR      r1,[r11,#0x10c]
        0x0000e9a6:    9908        ..      LDR      r1,[sp,#0x20]
        0x0000e9a8:    f1080710    ....    ADD      r7,r8,#0x10
        0x0000e9ac:    eb010203    ....    ADD      r2,r1,r3
        0x0000e9b0:    f04f0100    O...    MOV      r1,#0
        0x0000e9b4:    9d07        ..      LDR      r5,[sp,#0x1c]
        0x0000e9b6:    bf88        ..      IT       HI
        0x0000e9b8:    18e9        ..      ADDHI    r1,r5,r3
        0x0000e9ba:    2a04        .*      CMP      r2,#4
        0x0000e9bc:    f1a30310    ....    SUB      r3,r3,#0x10
        0x0000e9c0:    d303        ..      BCC      0xe9ca ; am_hal_iom_blocking_transfer + 1346
        0x0000e9c2:    3e10        .>      SUBS     r6,r6,#0x10
        0x0000e9c4:    2900        .)      CMP      r1,#0
        0x0000e9c6:    46b8        .F      MOV      r8,r7
        0x0000e9c8:    d1b3        ..      BNE      0xe932 ; am_hal_iom_blocking_transfer + 1194
        0x0000e9ca:    4499        .D      ADD      r9,r9,r3
        0x0000e9cc:    e010        ..      B        0xe9f0 ; am_hal_iom_blocking_transfer + 1384
        0x0000e9ce:    bf00        ..      NOP      
        0x0000e9d0:    f1a60904    ....    SUB      r9,r6,#4
        0x0000e9d4:    f1080704    ....    ADD      r7,r8,#4
        0x0000e9d8:    e00a        ..      B        0xe9f0 ; am_hal_iom_blocking_transfer + 1384
        0x0000e9da:    bf00        ..      NOP      
        0x0000e9dc:    f1a60908    ....    SUB      r9,r6,#8
        0x0000e9e0:    f1080708    ....    ADD      r7,r8,#8
        0x0000e9e4:    e004        ..      B        0xe9f0 ; am_hal_iom_blocking_transfer + 1384
        0x0000e9e6:    bf00        ..      NOP      
        0x0000e9e8:    f1a6090c    ....    SUB      r9,r6,#0xc
        0x0000e9ec:    f108070c    ....    ADD      r7,r8,#0xc
        0x0000e9f0:    2900        .)      CMP      r1,#0
        0x0000e9f2:    46b8        .F      MOV      r8,r7
        0x0000e9f4:    f47faf70    ..p.    BNE      0xe8d8 ; am_hal_iom_blocking_transfer + 1104
        0x0000e9f8:    2601        .&      MOVS     r6,#1
        0x0000e9fa:    f24a101f    J...    MOV      r0,#0xa11f
        0x0000e9fe:    f2c00007    ....    MOVT     r0,#7
        0x0000ea02:    9906        ..      LDR      r1,[sp,#0x18]
        0x0000ea04:    3001        .0      ADDS     r0,#1
        0x0000ea06:    2701        .'      MOVS     r7,#1
        0x0000ea08:    2206        ."      MOVS     r2,#6
        0x0000ea0a:    2304        .#      MOVS     r3,#4
        0x0000ea0c:    9700        ..      STR      r7,[sp,#0]
        0x0000ea0e:    f7fffa67    ..g.    BL       am_hal_flash_delay_status_check ; 0xdee0
        0x0000ea12:    4607        .F      MOV      r7,r0
        0x0000ea14:    b9d8        ..      CBNZ     r0,0xea4e ; am_hal_iom_blocking_transfer + 1478
        0x0000ea16:    f8db0204    ....    LDR      r0,[r11,#0x204]
        0x0000ea1a:    f0100f6c    ..l.    TST      r0,#0x6c
        0x0000ea1e:    d003        ..      BEQ      0xea28 ; am_hal_iom_blocking_transfer + 1440
        0x0000ea20:    f04f6700    O..g    MOV      r7,#0x8000000
        0x0000ea24:    e013        ..      B        0xea4e ; am_hal_iom_blocking_transfer + 1478
        0x0000ea26:    bf00        ..      NOP      
        0x0000ea28:    2701        .'      MOVS     r7,#1
        0x0000ea2a:    0581        ..      LSLS     r1,r0,#22
        0x0000ea2c:    f6c00700    ....    MOVT     r7,#0x800
        0x0000ea30:    d40d        ..      BMI      0xea4e ; am_hal_iom_blocking_transfer + 1478
        0x0000ea32:    06c1        ..      LSLS     r1,r0,#27
        0x0000ea34:    d408        ..      BMI      0xea48 ; am_hal_iom_blocking_transfer + 1472
        0x0000ea36:    f4004090    ...@    AND      r0,r0,#0x4800
        0x0000ea3a:    fab0f080    ....    CLZ      r0,r0
        0x0000ea3e:    0940        @.      LSRS     r0,r0,#5
        0x0000ea40:    4206        .B      TST      r6,r0
        0x0000ea42:    d003        ..      BEQ      0xea4c ; am_hal_iom_blocking_transfer + 1476
        0x0000ea44:    2700        .'      MOVS     r7,#0
        0x0000ea46:    e007        ..      B        0xea58 ; am_hal_iom_blocking_transfer + 1488
        0x0000ea48:    3701        .7      ADDS     r7,#1
        0x0000ea4a:    e000        ..      B        0xea4e ; am_hal_iom_blocking_transfer + 1478
        0x0000ea4c:    2701        .'      MOVS     r7,#1
        0x0000ea4e:    f8db1204    ....    LDR      r1,[r11,#0x204]
        0x0000ea52:    4620         F      MOV      r0,r4
        0x0000ea54:    f001fffe    ....    BL       internal_iom_reset_on_error ; 0x10a54
        0x0000ea58:    f04f30ff    O..0    MOV      r0,#0xffffffff
        0x0000ea5c:    f8cb0208    ....    STR      r0,[r11,#0x208]
        0x0000ea60:    9805        ..      LDR      r0,[sp,#0x14]
        0x0000ea62:    f8cb0200    ....    STR      r0,[r11,#0x200]
        0x0000ea66:    4638        8F      MOV      r0,r7
        0x0000ea68:    b00b        ..      ADD      sp,sp,#0x2c
        0x0000ea6a:    e8bd8ff0    ....    POP      {r4-r11,pc}
        0x0000ea6e:    0000        ..      MOVS     r0,r0
    am_hal_iom_configure
        0x0000ea70:    b5f0        ..      PUSH     {r4-r7,lr}
        0x0000ea72:    b081        ..      SUB      sp,sp,#4
        0x0000ea74:    b190        ..      CBZ      r0,0xea9c ; am_hal_iom_configure + 44
        0x0000ea76:    460d        .F      MOV      r5,r1
        0x0000ea78:    6801        .h      LDR      r1,[r0,#0]
        0x0000ea7a:    f2434256    C.VB    MOV      r2,#0x3456
        0x0000ea7e:    4604        .F      MOV      r4,r0
        0x0000ea80:    f021407e    !.~@    BIC      r0,r1,#0xfe000000
        0x0000ea84:    f2c01212    ....    MOVT     r2,#0x112
        0x0000ea88:    4290        .B      CMP      r0,r2
        0x0000ea8a:    d107        ..      BNE      0xea9c ; am_hal_iom_configure + 44
        0x0000ea8c:    b115        ..      CBZ      r5,0xea94 ; am_hal_iom_configure + 36
        0x0000ea8e:    6860        `h      LDR      r0,[r4,#4]
        0x0000ea90:    2805        .(      CMP      r0,#5
        0x0000ea92:    d907        ..      BLS      0xeaa4 ; am_hal_iom_configure + 52
        0x0000ea94:    2006        .       MOVS     r0,#6
        0x0000ea96:    b001        ..      ADD      sp,sp,#4
        0x0000ea98:    bdf0        ..      POP      {r4-r7,pc}
        0x0000ea9a:    bf00        ..      NOP      
        0x0000ea9c:    2002        .       MOVS     r0,#2
        0x0000ea9e:    b001        ..      ADD      sp,sp,#4
        0x0000eaa0:    bdf0        ..      POP      {r4-r7,pc}
        0x0000eaa2:    bf00        ..      NOP      
        0x0000eaa4:    0189        ..      LSLS     r1,r1,#6
        0x0000eaa6:    d42b        +.      BMI      0xeb00 ; am_hal_iom_configure + 144
        0x0000eaa8:    68e9        .h      LDR      r1,[r5,#0xc]
        0x0000eaaa:    f1b15f80    ..._    CMP      r1,#0x10000000
        0x0000eaae:    d304        ..      BCC      0xeaba ; am_hal_iom_configure + 74
        0x0000eab0:    2200        ."      MOVS     r2,#0
        0x0000eab2:    f2c10201    ....    MOVT     r2,#0x1001
        0x0000eab6:    4291        .B      CMP      r1,r2
        0x0000eab8:    d326        &.      BCC      0xeb08 ; am_hal_iom_configure + 152
        0x0000eaba:    7829        )x      LDRB     r1,[r5,#0]
        0x0000eabc:    7221        !r      STRB     r1,[r4,#8]
        0x0000eabe:    f2440100    D...    MOVW     r1,#0x4000
        0x0000eac2:    f2c50100    ....    MOVT     r1,#0x5000
        0x0000eac6:    eb013600    ...6    ADD      r6,r1,r0,LSL #12
        0x0000eaca:    f2410010    A...    MOV      r0,#0x1010
        0x0000eace:    f8c60104    ....    STR      r0,[r6,#0x104]
        0x0000ead2:    7828        (x      LDRB     r0,[r5,#0]
        0x0000ead4:    2801        .(      CMP      r0,#1
        0x0000ead6:    d01b        ..      BEQ      0xeb10 ; am_hal_iom_configure + 160
        0x0000ead8:    b9b0        ..      CBNZ     r0,0xeb08 ; am_hal_iom_configure + 152
        0x0000eada:    7a2f        /z      LDRB     r7,[r5,#8]
        0x0000eadc:    2f03        ./      CMP      r7,#3
        0x0000eade:    d8d9        ..      BHI      0xea94 ; am_hal_iom_configure + 36
        0x0000eae0:    6868        hh      LDR      r0,[r5,#4]
        0x0000eae2:    f6464100    F..A    MOVW     r1,#0x6c00
        0x0000eae6:    f2c021dc    ...!    MOVT     r1,#0x2dc
        0x0000eaea:    4288        .B      CMP      r0,r1
        0x0000eaec:    d8d2        ..      BHI      0xea94 ; am_hal_iom_configure + 36
        0x0000eaee:    0879        y.      LSRS     r1,r7,#1
        0x0000eaf0:    f002f8b2    ....    BL       iom_get_interface_clock_cfg ; 0x10c58
        0x0000eaf4:    f8c67300    ...s    STR      r7,[r6,#0x300]
        0x0000eaf8:    f0400001    @...    ORR      r0,r0,#1
        0x0000eafc:    e03e        >.      B        0xeb7c ; am_hal_iom_configure + 268
        0x0000eafe:    bf00        ..      NOP      
        0x0000eb00:    2007        .       MOVS     r0,#7
        0x0000eb02:    b001        ..      ADD      sp,sp,#4
        0x0000eb04:    bdf0        ..      POP      {r4-r7,pc}
        0x0000eb06:    bf00        ..      NOP      
        0x0000eb08:    2005        .       MOVS     r0,#5
        0x0000eb0a:    b001        ..      ADD      sp,sp,#4
        0x0000eb0c:    bdf0        ..      POP      {r4-r7,pc}
        0x0000eb0e:    bf00        ..      NOP      
        0x0000eb10:    6868        hh      LDR      r0,[r5,#4]
        0x0000eb12:    f2442140    D.@!    MOV      r1,#0x4240
        0x0000eb16:    f2c0010f    ....    MOVT     r1,#0xf
        0x0000eb1a:    4288        .B      CMP      r0,r1
        0x0000eb1c:    d016        ..      BEQ      0xeb4c ; am_hal_iom_configure + 220
        0x0000eb1e:    f6412180    A..!    MOVW     r1,#0x1a80
        0x0000eb22:    f2c00106    ....    MOVT     r1,#6
        0x0000eb26:    4288        .B      CMP      r0,r1
        0x0000eb28:    d01c        ..      BEQ      0xeb64 ; am_hal_iom_configure + 244
        0x0000eb2a:    f24861a0    H..a    MOV      r1,#0x86a0
        0x0000eb2e:    f2c00101    ....    MOVT     r1,#1
        0x0000eb32:    4288        .B      CMP      r0,r1
        0x0000eb34:    d1ae        ..      BNE      0xea94 ; am_hal_iom_configure + 36
        0x0000eb36:    f24f0070    O.p.    MOV      r0,#0xf070
        0x0000eb3a:    f2c00003    ....    MOVT     r0,#3
        0x0000eb3e:    f8c60400    ....    STR      r0,[r6,#0x400]
        0x0000eb42:    f2412001    A..     MOV      r0,#0x1201
        0x0000eb46:    f2c7703b    ..;p    MOVT     r0,#0x773b
        0x0000eb4a:    e017        ..      B        0xeb7c ; am_hal_iom_configure + 268
        0x0000eb4c:    f2430040    C.@.    MOVW     r0,#0x3040
        0x0000eb50:    f2c00021    ..!.    MOVT     r0,#0x21
        0x0000eb54:    f8c60400    ....    STR      r0,[r6,#0x400]
        0x0000eb58:    f2413001    A..0    MOV      r0,#0x1301
        0x0000eb5c:    f2c06003    ...`    MOVT     r0,#0x603
        0x0000eb60:    e00c        ..      B        0xeb7c ; am_hal_iom_configure + 268
        0x0000eb62:    bf00        ..      NOP      
        0x0000eb64:    f24f0070    O.p.    MOV      r0,#0xf070
        0x0000eb68:    f2c00003    ....    MOVT     r0,#3
        0x0000eb6c:    f5007000    ...p    ADD      r0,r0,#0x200
        0x0000eb70:    f8c60400    ....    STR      r0,[r6,#0x400]
        0x0000eb74:    f2412001    A..     MOV      r0,#0x1201
        0x0000eb78:    f6c1500e    ...P    MOVT     r0,#0x1d0e
        0x0000eb7c:    f8c60210    ....    STR      r0,[r6,#0x210]
        0x0000eb80:    6928        (i      LDR      r0,[r5,#0x10]
        0x0000eb82:    f06f011f    o...    MVN      r1,#0x1f
        0x0000eb86:    f64a22ab    J.."    MOV      r2,#0xaaab
        0x0000eb8a:    eb010180    ....    ADD      r1,r1,r0,LSL #2
        0x0000eb8e:    f6ca22aa    ..."    MOVT     r2,#0xaaaa
        0x0000eb92:    fba12302    ...#    UMULL    r2,r3,r1,r2
        0x0000eb96:    686a        jh      LDR      r2,[r5,#4]
        0x0000eb98:    f6464700    F..G    MOVW     r7,#0x6c00
        0x0000eb9c:    f2c027dc    ...'    MOVT     r7,#0x2dc
        0x0000eba0:    fbb7f2f2    ....    UDIV     r2,r7,r2
        0x0000eba4:    f44f777a    O.zw    MOV      r7,#0x3e8
        0x0000eba8:    f8c47860    ..`x    STR      r7,[r4,#0x860]
        0x0000ebac:    68ef        .h      LDR      r7,[r5,#0xc]
        0x0000ebae:    f8c42864    ..d(    STR      r2,[r4,#0x864]
        0x0000ebb2:    e9c47003    ...p    STRD     r7,r0,[r4,#0xc]
        0x0000ebb6:    0998        ..      LSRS     r0,r3,#6
        0x0000ebb8:    f246025f    F._.    MOV      r2,#0x605f
        0x0000ebbc:    4291        .B      CMP      r1,r2
        0x0000ebbe:    bf88        ..      IT       HI
        0x0000ebc0:    f44f7080    O..p    MOVHI    r0,#0x100
        0x0000ebc4:    f8c40858    ..X.    STR      r0,[r4,#0x858]
        0x0000ebc8:    2000        .       MOVS     r0,#0
        0x0000ebca:    f8c408a0    ....    STR      r0,[r4,#0x8a0]
        0x0000ebce:    b001        ..      ADD      sp,sp,#4
        0x0000ebd0:    bdf0        ..      POP      {r4-r7,pc}
        0x0000ebd2:    0000        ..      MOVS     r0,r0
    am_hal_iom_disable
        0x0000ebd4:    b510        ..      PUSH     {r4,lr}
        0x0000ebd6:    b3b8        ..      CBZ      r0,0xec48 ; am_hal_iom_disable + 116
        0x0000ebd8:    4604        .F      MOV      r4,r0
        0x0000ebda:    6800        .h      LDR      r0,[r0,#0]
        0x0000ebdc:    f2434256    C.VB    MOV      r2,#0x3456
        0x0000ebe0:    f020417e     .~A    BIC      r1,r0,#0xfe000000
        0x0000ebe4:    f2c01212    ....    MOVT     r2,#0x112
        0x0000ebe8:    4291        .B      CMP      r1,r2
        0x0000ebea:    d12d        -.      BNE      0xec48 ; am_hal_iom_disable + 116
        0x0000ebec:    0180        ..      LSLS     r0,r0,#6
        0x0000ebee:    bf5c        \.      ITT      PL
        0x0000ebf0:    2000        .       MOVPL    r0,#0
        0x0000ebf2:    bd10        ..      POPPL    {r4,pc}
        0x0000ebf4:    6a60        `j      LDR      r0,[r4,#0x24]
        0x0000ebf6:    2800        .(      CMP      r0,#0
        0x0000ebf8:    bf1c        ..      ITT      NE
        0x0000ebfa:    2003        .       MOVNE    r0,#3
        0x0000ebfc:    bd10        ..      POPNE    {r4,pc}
        0x0000ebfe:    6860        `h      LDR      r0,[r4,#4]
        0x0000ec00:    f2440100    D...    MOVW     r1,#0x4000
        0x0000ec04:    f2c50100    ....    MOVT     r1,#0x5000
        0x0000ec08:    eb013000    ...0    ADD      r0,r1,r0,LSL #12
        0x0000ec0c:    f8d02214    ..."    LDR      r2,[r0,#0x214]
        0x0000ec10:    f0220201    "...    BIC      r2,r2,#1
        0x0000ec14:    f8c02214    ..."    STR      r2,[r0,#0x214]
        0x0000ec18:    6860        `h      LDR      r0,[r4,#4]
        0x0000ec1a:    eb013000    ...0    ADD      r0,r1,r0,LSL #12
        0x0000ec1e:    f8d01214    ....    LDR      r1,[r0,#0x214]
        0x0000ec22:    f0210110    !...    BIC      r1,r1,#0x10
        0x0000ec26:    f8c01214    ....    STR      r1,[r0,#0x214]
        0x0000ec2a:    f8d40828    ..(.    LDR      r0,[r4,#0x828]
        0x0000ec2e:    b128        (.      CBZ      r0,0xec3c ; am_hal_iom_disable + 104
        0x0000ec30:    2101        .!      MOVS     r1,#1
        0x0000ec32:    f7fefddf    ....    BL       am_hal_cmdq_term ; 0xd7f4
        0x0000ec36:    2000        .       MOVS     r0,#0
        0x0000ec38:    f8c40828    ..(.    STR      r0,[r4,#0x828]
        0x0000ec3c:    6820         h      LDR      r0,[r4,#0]
        0x0000ec3e:    f0207000     ..p    BIC      r0,r0,#0x2000000
        0x0000ec42:    6020         `      STR      r0,[r4,#0]
        0x0000ec44:    2000        .       MOVS     r0,#0
        0x0000ec46:    bd10        ..      POP      {r4,pc}
        0x0000ec48:    2002        .       MOVS     r0,#2
        0x0000ec4a:    bd10        ..      POP      {r4,pc}
    am_hal_iom_enable
        0x0000ec4c:    b5f0        ..      PUSH     {r4-r7,lr}
        0x0000ec4e:    b083        ..      SUB      sp,sp,#0xc
        0x0000ec50:    2800        .(      CMP      r0,#0
        0x0000ec52:    d05b        [.      BEQ      0xed0c ; am_hal_iom_enable + 192
        0x0000ec54:    4604        .F      MOV      r4,r0
        0x0000ec56:    6800        .h      LDR      r0,[r0,#0]
        0x0000ec58:    f2434256    C.VB    MOV      r2,#0x3456
        0x0000ec5c:    f020417e     .~A    BIC      r1,r0,#0xfe000000
        0x0000ec60:    f2c01212    ....    MOVT     r2,#0x112
        0x0000ec64:    4291        .B      CMP      r1,r2
        0x0000ec66:    d151        Q.      BNE      0xed0c ; am_hal_iom_enable + 192
        0x0000ec68:    0180        ..      LSLS     r0,r0,#6
        0x0000ec6a:    d45e        ^.      BMI      0xed2a ; am_hal_iom_enable + 222
        0x0000ec6c:    f2440500    D...    MOVW     r5,#0x4000
        0x0000ec70:    6861        ah      LDR      r1,[r4,#4]
        0x0000ec72:    f2c50500    ....    MOVT     r5,#0x5000
        0x0000ec76:    eb053101    ...1    ADD      r1,r5,r1,LSL #12
        0x0000ec7a:    7a20         z      LDRB     r0,[r4,#8]
        0x0000ec7c:    f8d12214    ..."    LDR      r2,[r1,#0x214]
        0x0000ec80:    2800        .(      CMP      r0,#0
        0x0000ec82:    f3c20242    ..B.    UBFX     r2,r2,#1,#3
        0x0000ec86:    f04f0310    O...    MOV      r3,#0x10
        0x0000ec8a:    bf18        ..      IT       NE
        0x0000ec8c:    2001        .       MOVNE    r0,#1
        0x0000ec8e:    4282        .B      CMP      r2,r0
        0x0000ec90:    bf08        ..      IT       EQ
        0x0000ec92:    2301        .#      MOVEQ    r3,#1
        0x0000ec94:    f8c13214    ...2    STR      r3,[r1,#0x214]
        0x0000ec98:    68e0        .h      LDR      r0,[r4,#0xc]
        0x0000ec9a:    2800        .(      CMP      r0,#0
        0x0000ec9c:    d041        A.      BEQ      0xed22 ; am_hal_iom_enable + 214
        0x0000ec9e:    2100        .!      MOVS     r1,#0
        0x0000eca0:    6261        ab      STR      r1,[r4,#0x24]
        0x0000eca2:    6860        `h      LDR      r0,[r4,#4]
        0x0000eca4:    2240        @"      MOVS     r2,#0x40
        0x0000eca6:    eb053000    ...0    ADD      r0,r5,r0,LSL #12
        0x0000ecaa:    f2c00280    ....    MOVT     r2,#0x80
        0x0000ecae:    61e1        .a      STR      r1,[r4,#0x1c]
        0x0000ecb0:    f8c022a4    ..."    STR      r2,[r0,#0x2a4]
        0x0000ecb4:    f8c41854    ..T.    STR      r1,[r4,#0x854]
        0x0000ecb8:    f884183c    ..<.    STRB     r1,[r4,#0x83c]
        0x0000ecbc:    e9d43603    ...6    LDRD     r3,r6,[r4,#0xc]
        0x0000ecc0:    f8c41838    ..8.    STR      r1,[r4,#0x838]
        0x0000ecc4:    f8c41840    ..@.    STR      r1,[r4,#0x840]
        0x0000ecc8:    f8c41844    ..D.    STR      r1,[r4,#0x844]
        0x0000eccc:    f8c41830    ..0.    STR      r1,[r4,#0x830]
        0x0000ecd0:    f8c41828    ..(.    STR      r1,[r4,#0x828]
        0x0000ecd4:    6221        !b      STR      r1,[r4,#0x20]
        0x0000ecd6:    f8c4185c    ..\.    STR      r1,[r4,#0x85c]
        0x0000ecda:    0871        q.      LSRS     r1,r6,#1
        0x0000ecdc:    7920         y      LDRB     r0,[r4,#4]
        0x0000ecde:    9100        ..      STR      r1,[sp,#0]
        0x0000ece0:    2101        .!      MOVS     r1,#1
        0x0000ece2:    f44f7780    O..w    MOV      r7,#0x100
        0x0000ece6:    f6040228    ..(.    ADD      r2,r4,#0x828
        0x0000ecea:    f88d1008    ....    STRB     r1,[sp,#8]
        0x0000ecee:    4669        iF      MOV      r1,sp
        0x0000ecf0:    f8a4782c    ..,x    STRH     r7,[r4,#0x82c]
        0x0000ecf4:    9301        ..      STR      r3,[sp,#4]
        0x0000ecf6:    f7fefce1    ....    BL       am_hal_cmdq_init ; 0xd6bc
        0x0000ecfa:    b158        X.      CBZ      r0,0xed14 ; am_hal_iom_enable + 200
        0x0000ecfc:    6861        ah      LDR      r1,[r4,#4]
        0x0000ecfe:    2202        ."      MOVS     r2,#2
        0x0000ed00:    eb053101    ...1    ADD      r1,r5,r1,LSL #12
        0x0000ed04:    f8c12240    ..@"    STR      r2,[r1,#0x240]
        0x0000ed08:    b003        ..      ADD      sp,sp,#0xc
        0x0000ed0a:    bdf0        ..      POP      {r4-r7,pc}
        0x0000ed0c:    2002        .       MOVS     r0,#2
        0x0000ed0e:    b003        ..      ADD      sp,sp,#0xc
        0x0000ed10:    bdf0        ..      POP      {r4-r7,pc}
        0x0000ed12:    bf00        ..      NOP      
        0x0000ed14:    6860        `h      LDR      r0,[r4,#4]
        0x0000ed16:    2102        .!      MOVS     r1,#2
        0x0000ed18:    eb053000    ...0    ADD      r0,r5,r0,LSL #12
        0x0000ed1c:    6227        'b      STR      r7,[r4,#0x20]
        0x0000ed1e:    f8c01240    ..@.    STR      r1,[r0,#0x240]
        0x0000ed22:    6820         h      LDR      r0,[r4,#0]
        0x0000ed24:    f0407000    @..p    ORR      r0,r0,#0x2000000
        0x0000ed28:    6020         `      STR      r0,[r4,#0]
        0x0000ed2a:    2000        .       MOVS     r0,#0
        0x0000ed2c:    b003        ..      ADD      sp,sp,#0xc
        0x0000ed2e:    bdf0        ..      POP      {r4-r7,pc}
    am_hal_iom_initialize
        0x0000ed30:    b580        ..      PUSH     {r7,lr}
        0x0000ed32:    2805        .(      CMP      r0,#5
        0x0000ed34:    bf84        ..      ITT      HI
        0x0000ed36:    2005        .       MOVHI    r0,#5
        0x0000ed38:    bd80        ..      POPHI    {r7,pc}
        0x0000ed3a:    b1d9        ..      CBZ      r1,0xed74 ; am_hal_iom_initialize + 68
        0x0000ed3c:    f6410c14    A...    MOV      r12,#0x1814
        0x0000ed40:    f6400ea4    @...    MOV      lr,#0x8a4
        0x0000ed44:    f2c10c01    ....    MOVT     r12,#0x1001
        0x0000ed48:    fb00f20e    ....    MUL      r2,r0,lr
        0x0000ed4c:    f85c2002    \..     LDR      r2,[r12,r2]
        0x0000ed50:    01d3        ..      LSLS     r3,r2,#7
        0x0000ed52:    bf44        D.      ITT      MI
        0x0000ed54:    2007        .       MOVMI    r0,#7
        0x0000ed56:    bd80        ..      POPMI    {r7,pc}
        0x0000ed58:    f2434356    C.VC    MOV      r3,#0x3456
        0x0000ed5c:    fb00cc0e    ....    MLA      r12,r0,lr,r12
        0x0000ed60:    f2c01312    ....    MOVT     r3,#0x112
        0x0000ed64:    f3630219    c...    BFI      r2,r3,#0,#26
        0x0000ed68:    e9cc2000    ...     STRD     r2,r0,[r12,#0]
        0x0000ed6c:    2000        .       MOVS     r0,#0
        0x0000ed6e:    f8c1c000    ....    STR      r12,[r1,#0]
        0x0000ed72:    bd80        ..      POP      {r7,pc}
        0x0000ed74:    2006        .       MOVS     r0,#6
        0x0000ed76:    bd80        ..      POP      {r7,pc}
    am_hal_iom_interrupt_clear
        0x0000ed78:    b190        ..      CBZ      r0,0xeda0 ; am_hal_iom_interrupt_clear + 40
        0x0000ed7a:    6802        .h      LDR      r2,[r0,#0]
        0x0000ed7c:    f2434356    C.VC    MOV      r3,#0x3456
        0x0000ed80:    f022427e    ".~B    BIC      r2,r2,#0xfe000000
        0x0000ed84:    f2c01312    ....    MOVT     r3,#0x112
        0x0000ed88:    429a        .B      CMP      r2,r3
        0x0000ed8a:    d109        ..      BNE      0xeda0 ; am_hal_iom_interrupt_clear + 40
        0x0000ed8c:    6840        @h      LDR      r0,[r0,#4]
        0x0000ed8e:    f2442208    D.."    MOV      r2,#0x4208
        0x0000ed92:    0300        ..      LSLS     r0,r0,#12
        0x0000ed94:    f2c50200    ....    MOVT     r2,#0x5000
        0x0000ed98:    5011        .P      STR      r1,[r2,r0]
        0x0000ed9a:    2000        .       MOVS     r0,#0
        0x0000ed9c:    4770        pG      BX       lr
        0x0000ed9e:    bf00        ..      NOP      
        0x0000eda0:    2002        .       MOVS     r0,#2
        0x0000eda2:    4770        pG      BX       lr
    am_hal_iom_interrupt_service
        0x0000eda4:    e92d47f0    -..G    PUSH     {r4-r10,lr}
        0x0000eda8:    b084        ..      SUB      sp,sp,#0x10
        0x0000edaa:    2800        .(      CMP      r0,#0
        0x0000edac:    d04a        J.      BEQ      0xee44 ; am_hal_iom_interrupt_service + 160
        0x0000edae:    4604        .F      MOV      r4,r0
        0x0000edb0:    6800        .h      LDR      r0,[r0,#0]
        0x0000edb2:    460e        .F      MOV      r6,r1
        0x0000edb4:    f2434156    C.VA    MOV      r1,#0x3456
        0x0000edb8:    f020407e     .~@    BIC      r0,r0,#0xfe000000
        0x0000edbc:    f2c01112    ....    MOVT     r1,#0x112
        0x0000edc0:    4288        .B      CMP      r0,r1
        0x0000edc2:    d13f        ?.      BNE      0xee44 ; am_hal_iom_interrupt_service + 160
        0x0000edc4:    6865        eh      LDR      r5,[r4,#4]
        0x0000edc6:    f894083c    ..<.    LDRB     r0,[r4,#0x83c]
        0x0000edca:    2800        .(      CMP      r0,#0
        0x0000edcc:    d03e        >.      BEQ      0xee4c ; am_hal_iom_interrupt_service + 168
        0x0000edce:    69a0        .i      LDR      r0,[r4,#0x18]
        0x0000edd0:    ea400106    @...    ORR      r1,r0,r6
        0x0000edd4:    f6400001    @...    MOV      r0,#0x801
        0x0000edd8:    4201        .B      TST      r1,r0
        0x0000edda:    61a1        .a      STR      r1,[r4,#0x18]
        0x0000eddc:    d048        H.      BEQ      0xee70 ; am_hal_iom_interrupt_service + 204
        0x0000edde:    f2440800    D...    MOVW     r8,#0x4000
        0x0000ede2:    f2c50800    ....    MOVT     r8,#0x5000
        0x0000ede6:    eb083505    ...5    ADD      r5,r8,r5,LSL #12
        0x0000edea:    f8d50280    ....    LDR      r0,[r5,#0x280]
        0x0000edee:    07c0        ..      LSLS     r0,r0,#31
        0x0000edf0:    d003        ..      BEQ      0xedfa ; am_hal_iom_interrupt_service + 86
        0x0000edf2:    f644607c    D.|`    MOV      r0,#0x4e7c
        0x0000edf6:    4008        .@      ANDS     r0,r0,r1
        0x0000edf8:    d03a        :.      BEQ      0xee70 ; am_hal_iom_interrupt_service + 204
        0x0000edfa:    f8d40850    ..P.    LDR      r0,[r4,#0x850]
        0x0000edfe:    f8d42848    ..H(    LDR      r2,[r4,#0x848]
        0x0000ee02:    3001        .0      ADDS     r0,#1
        0x0000ee04:    fbb0f3f2    ....    UDIV     r3,r0,r2
        0x0000ee08:    f8d47840    ..@x    LDR      r7,[r4,#0x840]
        0x0000ee0c:    fb030212    ....    MLS      r2,r3,r2,r0
        0x0000ee10:    f8d43854    ..T8    LDR      r3,[r4,#0x854]
        0x0000ee14:    f8c40850    ..P.    STR      r0,[r4,#0x850]
        0x0000ee18:    1e78        x.      SUBS     r0,r7,#1
        0x0000ee1a:    f8c40840    ..@.    STR      r0,[r4,#0x840]
        0x0000ee1e:    eb031042    ..B.    ADD      r0,r3,r2,LSL #5
        0x0000ee22:    4607        .F      MOV      r7,r0
        0x0000ee24:    f8572f18    W../    LDR      r2,[r7,#0x18]!
        0x0000ee28:    2a00        .*      CMP      r2,#0
        0x0000ee2a:    f00080c2    ....    BEQ.W    0xefb2 ; am_hal_iom_interrupt_service + 526
        0x0000ee2e:    69c0        .i      LDR      r0,[r0,#0x1c]
        0x0000ee30:    f8d53204    ...2    LDR      r3,[r5,#0x204]
        0x0000ee34:    430b        .C      ORRS     r3,r3,r1
        0x0000ee36:    f0130f6c    ..l.    TST      r3,#0x6c
        0x0000ee3a:    f00080a7    ....    BEQ.W    0xef8c ; am_hal_iom_interrupt_service + 488
        0x0000ee3e:    f04f6100    O..a    MOV      r1,#0x8000000
        0x0000ee42:    e0b2        ..      B        0xefaa ; am_hal_iom_interrupt_service + 518
        0x0000ee44:    2002        .       MOVS     r0,#2
        0x0000ee46:    b004        ..      ADD      sp,sp,#0x10
        0x0000ee48:    e8bd87f0    ....    POP      {r4-r10,pc}
        0x0000ee4c:    6a60        `j      LDR      r0,[r4,#0x24]
        0x0000ee4e:    b178        x.      CBZ      r0,0xee70 ; am_hal_iom_interrupt_service + 204
        0x0000ee50:    f8d40828    ..(.    LDR      r0,[r4,#0x828]
        0x0000ee54:    2800        .(      CMP      r0,#0
        0x0000ee56:    f0008081    ....    BEQ.W    0xef5c ; am_hal_iom_interrupt_service + 440
        0x0000ee5a:    4669        iF      MOV      r1,sp
        0x0000ee5c:    f7fefbe0    ....    BL       am_hal_cmdq_get_status ; 0xd620
        0x0000ee60:    b150        P.      CBZ      r0,0xee78 ; am_hal_iom_interrupt_service + 212
        0x0000ee62:    6a61        aj      LDR      r1,[r4,#0x24]
        0x0000ee64:    2900        .)      CMP      r1,#0
        0x0000ee66:    d07e        ~.      BEQ      0xef66 ; am_hal_iom_interrupt_service + 450
        0x0000ee68:    b004        ..      ADD      sp,sp,#0x10
        0x0000ee6a:    e8bd87f0    ....    POP      {r4-r10,pc}
        0x0000ee6e:    bf00        ..      NOP      
        0x0000ee70:    2000        .       MOVS     r0,#0
        0x0000ee72:    b004        ..      ADD      sp,sp,#0x10
        0x0000ee74:    e8bd87f0    ....    POP      {r4-r10,pc}
        0x0000ee78:    f04f0800    O...    MOV      r8,#0
        0x0000ee7c:    f8848834    ..4.    STRB     r8,[r4,#0x834]
        0x0000ee80:    69e0        .i      LDR      r0,[r4,#0x1c]
        0x0000ee82:    9900        ..      LDR      r1,[sp,#0]
        0x0000ee84:    4288        .B      CMP      r0,r1
        0x0000ee86:    d01b        ..      BEQ      0xeec0 ; am_hal_iom_interrupt_service + 284
        0x0000ee88:    f8941834    ..4.    LDRB     r1,[r4,#0x834]
        0x0000ee8c:    b9c1        ..      CBNZ     r1,0xeec0 ; am_hal_iom_interrupt_service + 284
        0x0000ee8e:    3001        .0      ADDS     r0,#1
        0x0000ee90:    61e0        .a      STR      r0,[r4,#0x1c]
        0x0000ee92:    6a61        aj      LDR      r1,[r4,#0x24]
        0x0000ee94:    b2c0        ..      UXTB     r0,r0
        0x0000ee96:    3901        .9      SUBS     r1,#1
        0x0000ee98:    eb040080    ....    ADD      r0,r4,r0,LSL #2
        0x0000ee9c:    6261        ab      STR      r1,[r4,#0x24]
        0x0000ee9e:    4607        .F      MOV      r7,r0
        0x0000eea0:    f8572f28    W.(/    LDR      r2,[r7,#0x28]!
        0x0000eea4:    2a00        .*      CMP      r2,#0
        0x0000eea6:    d0eb        ..      BEQ      0xee80 ; am_hal_iom_interrupt_service + 220
        0x0000eea8:    f8d00428    ..(.    LDR      r0,[r0,#0x428]
        0x0000eeac:    2100        .!      MOVS     r1,#0
        0x0000eeae:    4790        .G      BLX      r2
        0x0000eeb0:    f894082c    ..,.    LDRB     r0,[r4,#0x82c]
        0x0000eeb4:    2802        .(      CMP      r0,#2
        0x0000eeb6:    bf18        ..      IT       NE
        0x0000eeb8:    f8c78000    ....    STRNE    r8,[r7,#0]
        0x0000eebc:    e7e0        ..      B        0xee80 ; am_hal_iom_interrupt_service + 220
        0x0000eebe:    bf00        ..      NOP      
        0x0000eec0:    f8941834    ..4.    LDRB     r1,[r4,#0x834]
        0x0000eec4:    2900        .)      CMP      r1,#0
        0x0000eec6:    d143        C.      BNE      0xef50 ; am_hal_iom_interrupt_service + 428
        0x0000eec8:    f644217c    D.|!    MOV      r1,#0x4a7c
        0x0000eecc:    ea160801    ....    ANDS     r8,r6,r1
        0x0000eed0:    d03e        >.      BEQ      0xef50 ; am_hal_iom_interrupt_service + 428
        0x0000eed2:    3001        .0      ADDS     r0,#1
        0x0000eed4:    61e0        .a      STR      r0,[r4,#0x1c]
        0x0000eed6:    6a61        aj      LDR      r1,[r4,#0x24]
        0x0000eed8:    b2c0        ..      UXTB     r0,r0
        0x0000eeda:    3901        .9      SUBS     r1,#1
        0x0000eedc:    eb040080    ....    ADD      r0,r4,r0,LSL #2
        0x0000eee0:    6261        ab      STR      r1,[r4,#0x24]
        0x0000eee2:    4607        .F      MOV      r7,r0
        0x0000eee4:    f857af28    W.(.    LDR      r10,[r7,#0x28]!
        0x0000eee8:    f1ba0f00    ....    CMP      r10,#0
        0x0000eeec:    d00e        ..      BEQ      0xef0c ; am_hal_iom_interrupt_service + 360
        0x0000eeee:    f8d09428    ..(.    LDR      r9,[r0,#0x428]
        0x0000eef2:    4628        (F      MOV      r0,r5
        0x0000eef4:    4631        1F      MOV      r1,r6
        0x0000eef6:    f001fd8f    ....    BL       internal_iom_get_int_err ; 0x10a18
        0x0000eefa:    4601        .F      MOV      r1,r0
        0x0000eefc:    4648        HF      MOV      r0,r9
        0x0000eefe:    47d0        .G      BLX      r10
        0x0000ef00:    f894082c    ..,.    LDRB     r0,[r4,#0x82c]
        0x0000ef04:    2802        .(      CMP      r0,#2
        0x0000ef06:    bf1c        ..      ITT      NE
        0x0000ef08:    2000        .       MOVNE    r0,#0
        0x0000ef0a:    6038        8`      STRNE    r0,[r7,#0]
        0x0000ef0c:    f2440000    D...    MOVW     r0,#0x4000
        0x0000ef10:    f2c50000    ....    MOVT     r0,#0x5000
        0x0000ef14:    eb003005    ...0    ADD      r0,r0,r5,LSL #12
        0x0000ef18:    f8d01294    ....    LDR      r1,[r0,#0x294]
        0x0000ef1c:    f0210101    !...    BIC      r1,r1,#1
        0x0000ef20:    f8c01294    ....    STR      r1,[r0,#0x294]
        0x0000ef24:    f8d01280    ....    LDR      r1,[r0,#0x280]
        0x0000ef28:    f0210101    !...    BIC      r1,r1,#1
        0x0000ef2c:    f8c01280    ....    STR      r1,[r0,#0x280]
        0x0000ef30:    2100        .!      MOVS     r1,#0
        0x0000ef32:    f8c01290    ....    STR      r1,[r0,#0x290]
        0x0000ef36:    4620         F      MOV      r0,r4
        0x0000ef38:    4641        AF      MOV      r1,r8
        0x0000ef3a:    f001fd8b    ....    BL       internal_iom_reset_on_error ; 0x10a54
        0x0000ef3e:    f8d40828    ..(.    LDR      r0,[r4,#0x828]
        0x0000ef42:    f7fefb1f    ....    BL       am_hal_cmdq_error_resume ; 0xd584
        0x0000ef46:    6a60        `j      LDR      r0,[r4,#0x24]
        0x0000ef48:    b110        ..      CBZ      r0,0xef50 ; am_hal_iom_interrupt_service + 428
        0x0000ef4a:    4620         F      MOV      r0,r4
        0x0000ef4c:    f7fffa86    ....    BL       am_hal_iom_CQEnable ; 0xe45c
        0x0000ef50:    6a60        `j      LDR      r0,[r4,#0x24]
        0x0000ef52:    b918        ..      CBNZ     r0,0xef5c ; am_hal_iom_interrupt_service + 440
        0x0000ef54:    f8d40828    ..(.    LDR      r0,[r4,#0x828]
        0x0000ef58:    f7fefadc    ....    BL       am_hal_cmdq_disable ; 0xd514
        0x0000ef5c:    2000        .       MOVS     r0,#0
        0x0000ef5e:    6a61        aj      LDR      r1,[r4,#0x24]
        0x0000ef60:    2900        .)      CMP      r1,#0
        0x0000ef62:    f47faf81    ....    BNE.W    0xee68 ; am_hal_iom_interrupt_service + 196
        0x0000ef66:    f2440100    D...    MOVW     r1,#0x4000
        0x0000ef6a:    f2c50100    ....    MOVT     r1,#0x5000
        0x0000ef6e:    eb013105    ...1    ADD      r1,r1,r5,LSL #12
        0x0000ef72:    2200        ."      MOVS     r2,#0
        0x0000ef74:    f8c12200    ..."    STR      r2,[r1,#0x200]
        0x0000ef78:    f04f32ff    O..2    MOV      r2,#0xffffffff
        0x0000ef7c:    f8c12208    ..."    STR      r2,[r1,#0x208]
        0x0000ef80:    6962        bi      LDR      r2,[r4,#0x14]
        0x0000ef82:    f8c12200    ..."    STR      r2,[r1,#0x200]
        0x0000ef86:    b004        ..      ADD      sp,sp,#0x10
        0x0000ef88:    e8bd87f0    ....    POP      {r4-r10,pc}
        0x0000ef8c:    0599        ..      LSLS     r1,r3,#22
        0x0000ef8e:    f2400101    @...    MOVW     r1,#1
        0x0000ef92:    f6c00100    ....    MOVT     r1,#0x800
        0x0000ef96:    d408        ..      BMI      0xefaa ; am_hal_iom_interrupt_service + 518
        0x0000ef98:    06de        ..      LSLS     r6,r3,#27
        0x0000ef9a:    d405        ..      BMI      0xefa8 ; am_hal_iom_interrupt_service + 516
        0x0000ef9c:    f4134190    ...A    ANDS     r1,r3,#0x4800
        0x0000efa0:    bf18        ..      IT       NE
        0x0000efa2:    2101        .!      MOVNE    r1,#1
        0x0000efa4:    e001        ..      B        0xefaa ; am_hal_iom_interrupt_service + 518
        0x0000efa6:    bf00        ..      NOP      
        0x0000efa8:    3101        .1      ADDS     r1,#1
        0x0000efaa:    4790        .G      BLX      r2
        0x0000efac:    2000        .       MOVS     r0,#0
        0x0000efae:    6038        8`      STR      r0,[r7,#0]
        0x0000efb0:    69a1        .i      LDR      r1,[r4,#0x18]
        0x0000efb2:    f644207c    D.|     MOV      r0,#0x4a7c
        0x0000efb6:    4201        .B      TST      r1,r0
        0x0000efb8:    d00d        ..      BEQ      0xefd6 ; am_hal_iom_interrupt_service + 562
        0x0000efba:    f8d51280    ....    LDR      r1,[r5,#0x280]
        0x0000efbe:    f0210101    !...    BIC      r1,r1,#1
        0x0000efc2:    f8c51280    ....    STR      r1,[r5,#0x280]
        0x0000efc6:    2100        .!      MOVS     r1,#0
        0x0000efc8:    f8c51290    ....    STR      r1,[r5,#0x290]
        0x0000efcc:    69a1        .i      LDR      r1,[r4,#0x18]
        0x0000efce:    4001        .@      ANDS     r1,r1,r0
        0x0000efd0:    4620         F      MOV      r0,r4
        0x0000efd2:    f001fd3f    ..?.    BL       internal_iom_reset_on_error ; 0x10a54
        0x0000efd6:    f8d40840    ..@.    LDR      r0,[r4,#0x840]
        0x0000efda:    b358        X.      CBZ      r0,0xf034 ; am_hal_iom_interrupt_service + 656
        0x0000efdc:    2000        .       MOVS     r0,#0
        0x0000efde:    f8c50290    ....    STR      r0,[r5,#0x290]
        0x0000efe2:    f8d41850    ..P.    LDR      r1,[r4,#0x850]
        0x0000efe6:    f8d42848    ..H(    LDR      r2,[r4,#0x848]
        0x0000efea:    3101        .1      ADDS     r1,#1
        0x0000efec:    fbb1f3f2    ....    UDIV     r3,r1,r2
        0x0000eff0:    f8d47854    ..Tx    LDR      r7,[r4,#0x854]
        0x0000eff4:    fb031112    ....    MLS      r1,r3,r2,r1
        0x0000eff8:    61a0        .a      STR      r0,[r4,#0x18]
        0x0000effa:    6862        bh      LDR      r2,[r4,#4]
        0x0000effc:    eb071341    ..A.    ADD      r3,r7,r1,LSL #5
        0x0000f000:    0149        I.      LSLS     r1,r1,#5
        0x0000f002:    5879        yX      LDR      r1,[r7,r1]
        0x0000f004:    eb083202    ...2    ADD      r2,r8,r2,LSL #12
        0x0000f008:    f8c21220    .. .    STR      r1,[r2,#0x220]
        0x0000f00c:    6859        Yh      LDR      r1,[r3,#4]
        0x0000f00e:    f8c21404    ....    STR      r1,[r2,#0x404]
        0x0000f012:    f8c20280    ....    STR      r0,[r2,#0x280]
        0x0000f016:    6899        .h      LDR      r1,[r3,#8]
        0x0000f018:    f8c21288    ....    STR      r1,[r2,#0x288]
        0x0000f01c:    68d9        .h      LDR      r1,[r3,#0xc]
        0x0000f01e:    f8c2128c    ....    STR      r1,[r2,#0x28c]
        0x0000f022:    6919        .i      LDR      r1,[r3,#0x10]
        0x0000f024:    f8c21280    ....    STR      r1,[r2,#0x280]
        0x0000f028:    6959        Yi      LDR      r1,[r3,#0x14]
        0x0000f02a:    f8c21218    ....    STR      r1,[r2,#0x218]
        0x0000f02e:    b004        ..      ADD      sp,sp,#0x10
        0x0000f030:    e8bd87f0    ....    POP      {r4-r10,pc}
        0x0000f034:    2000        .       MOVS     r0,#0
        0x0000f036:    f884083c    ..<.    STRB     r0,[r4,#0x83c]
        0x0000f03a:    f8d51200    ....    LDR      r1,[r5,#0x200]
        0x0000f03e:    f2404201    @..B    MOV      r2,#0x401
        0x0000f042:    4391        .C      BICS     r1,r1,r2
        0x0000f044:    f8c51200    ....    STR      r1,[r5,#0x200]
        0x0000f048:    f44f0100    O...    MOV      r1,#0x800000
        0x0000f04c:    f8c512a4    ....    STR      r1,[r5,#0x2a4]
        0x0000f050:    b004        ..      ADD      sp,sp,#0x10
        0x0000f052:    e8bd87f0    ....    POP      {r4-r10,pc}
        0x0000f056:    0000        ..      MOVS     r0,r0
    am_hal_iom_interrupt_status_get
        0x0000f058:    b1f0        ..      CBZ      r0,0xf098 ; am_hal_iom_interrupt_status_get + 64
        0x0000f05a:    6803        .h      LDR      r3,[r0,#0]
        0x0000f05c:    f0234c7e    #.~L    BIC      r12,r3,#0xfe000000
        0x0000f060:    f2434356    C.VC    MOV      r3,#0x3456
        0x0000f064:    f2c01312    ....    MOVT     r3,#0x112
        0x0000f068:    459c        .E      CMP      r12,r3
        0x0000f06a:    d115        ..      BNE      0xf098 ; am_hal_iom_interrupt_status_get + 64
        0x0000f06c:    2a00        .*      CMP      r2,#0
        0x0000f06e:    bf04        ..      ITT      EQ
        0x0000f070:    2006        .       MOVEQ    r0,#6
        0x0000f072:    4770        pG      BXEQ     lr
        0x0000f074:    6840        @h      LDR      r0,[r0,#4]
        0x0000f076:    f2440300    D...    MOVW     r3,#0x4000
        0x0000f07a:    f2c50300    ....    MOVT     r3,#0x5000
        0x0000f07e:    eb033300    ...3    ADD      r3,r3,r0,LSL #12
        0x0000f082:    f8d30204    ....    LDR      r0,[r3,#0x204]
        0x0000f086:    2900        .)      CMP      r1,#0
        0x0000f088:    bf1c        ..      ITT      NE
        0x0000f08a:    f8d31200    ....    LDRNE    r1,[r3,#0x200]
        0x0000f08e:    4008        .@      ANDNE    r0,r0,r1
        0x0000f090:    6010        .`      STR      r0,[r2,#0]
        0x0000f092:    2000        .       MOVS     r0,#0
        0x0000f094:    4770        pG      BX       lr
        0x0000f096:    bf00        ..      NOP      
        0x0000f098:    2002        .       MOVS     r0,#2
        0x0000f09a:    4770        pG      BX       lr
    am_hal_iom_nonblocking_transfer
        0x0000f09c:    e92d41f0    -..A    PUSH     {r4-r8,lr}
        0x0000f0a0:    b390        ..      CBZ      r0,0xf108 ; am_hal_iom_nonblocking_transfer + 108
        0x0000f0a2:    4604        .F      MOV      r4,r0
        0x0000f0a4:    6800        .h      LDR      r0,[r0,#0]
        0x0000f0a6:    4615        .F      MOV      r5,r2
        0x0000f0a8:    f2434256    C.VB    MOV      r2,#0x3456
        0x0000f0ac:    f020407e     .~@    BIC      r0,r0,#0xfe000000
        0x0000f0b0:    f2c01212    ....    MOVT     r2,#0x112
        0x0000f0b4:    4290        .B      CMP      r0,r2
        0x0000f0b6:    d127        '.      BNE      0xf108 ; am_hal_iom_nonblocking_transfer + 108
        0x0000f0b8:    b311        ..      CBZ      r1,0xf100 ; am_hal_iom_nonblocking_transfer + 100
        0x0000f0ba:    7c0a        .|      LDRB     r2,[r1,#0x10]
        0x0000f0bc:    2a01        .*      CMP      r2,#1
        0x0000f0be:    bf84        ..      ITT      HI
        0x0000f0c0:    2007        .       MOVHI    r0,#7
        0x0000f0c2:    e8bd81f0    ....    POPHI    {r4-r8,pc}
        0x0000f0c6:    2018        .       MOVS     r0,#0x18
        0x0000f0c8:    2a00        .*      CMP      r2,#0
        0x0000f0ca:    bf08        ..      IT       EQ
        0x0000f0cc:    2014        .       MOVEQ    r0,#0x14
        0x0000f0ce:    5808        .X      LDR      r0,[r1,r0]
        0x0000f0d0:    f1b05f80    ..._    CMP      r0,#0x10000000
        0x0000f0d4:    d307        ..      BCC      0xf0e6 ; am_hal_iom_nonblocking_transfer + 74
        0x0000f0d6:    2700        .'      MOVS     r7,#0
        0x0000f0d8:    f2c10701    ....    MOVT     r7,#0x1001
        0x0000f0dc:    42b8        .B      CMP      r0,r7
        0x0000f0de:    bf3c        <.      ITT      CC
        0x0000f0e0:    2005        .       MOVCC    r0,#5
        0x0000f0e2:    e8bd81f0    ....    POPCC    {r4-r8,pc}
        0x0000f0e6:    68c8        .h      LDR      r0,[r1,#0xc]
        0x0000f0e8:    2800        .(      CMP      r0,#0
        0x0000f0ea:    bf04        ..      ITT      EQ
        0x0000f0ec:    2200        ."      MOVEQ    r2,#0
        0x0000f0ee:    740a        .t      STRBEQ   r2,[r1,#0x10]
        0x0000f0f0:    684f        Oh      LDR      r7,[r1,#4]
        0x0000f0f2:    2f03        ./      CMP      r7,#3
        0x0000f0f4:    d804        ..      BHI      0xf100 ; am_hal_iom_nonblocking_transfer + 100
        0x0000f0f6:    688e        .h      LDR      r6,[r1,#8]
        0x0000f0f8:    00ff        ..      LSLS     r7,r7,#3
        0x0000f0fa:    fa36f707    6...    LSRS     r7,r6,r7
        0x0000f0fe:    d007        ..      BEQ      0xf110 ; am_hal_iom_nonblocking_transfer + 116
        0x0000f100:    2006        .       MOVS     r0,#6
        0x0000f102:    e8bd81f0    ....    POP      {r4-r8,pc}
        0x0000f106:    bf00        ..      NOP      
        0x0000f108:    2002        .       MOVS     r0,#2
        0x0000f10a:    e8bd81f0    ....    POP      {r4-r8,pc}
        0x0000f10e:    bf00        ..      NOP      
        0x0000f110:    2800        .(      CMP      r0,#0
        0x0000f112:    bf18        ..      IT       NE
        0x0000f114:    2a00        .*      CMPNE    r2,#0
        0x0000f116:    d107        ..      BNE      0xf128 ; am_hal_iom_nonblocking_transfer + 140
        0x0000f118:    2800        .(      CMP      r0,#0
        0x0000f11a:    bf18        ..      IT       NE
        0x0000f11c:    2a01        .*      CMPNE    r2,#1
        0x0000f11e:    d006        ..      BEQ      0xf12e ; am_hal_iom_nonblocking_transfer + 146
        0x0000f120:    694a        Ji      LDR      r2,[r1,#0x14]
        0x0000f122:    b922        ".      CBNZ     r2,0xf12e ; am_hal_iom_nonblocking_transfer + 146
        0x0000f124:    e7ec        ..      B        0xf100 ; am_hal_iom_nonblocking_transfer + 100
        0x0000f126:    bf00        ..      NOP      
        0x0000f128:    698a        .i      LDR      r2,[r1,#0x18]
        0x0000f12a:    2a00        .*      CMP      r2,#0
        0x0000f12c:    d0e8        ..      BEQ      0xf100 ; am_hal_iom_nonblocking_transfer + 100
        0x0000f12e:    7a22        "z      LDRB     r2,[r4,#8]
        0x0000f130:    b142        B.      CBZ      r2,0xf144 ; am_hal_iom_nonblocking_transfer + 168
        0x0000f132:    2a01        .*      CMP      r2,#1
        0x0000f134:    d110        ..      BNE      0xf158 ; am_hal_iom_nonblocking_transfer + 188
        0x0000f136:    f5b07f00    ....    CMP      r0,#0x200
        0x0000f13a:    bf84        ..      ITT      HI
        0x0000f13c:    2006        .       MOVHI    r0,#6
        0x0000f13e:    e8bd81f0    ....    POPHI    {r4-r8,pc}
        0x0000f142:    e009        ..      B        0xf158 ; am_hal_iom_nonblocking_transfer + 188
        0x0000f144:    680a        .h      LDR      r2,[r1,#0]
        0x0000f146:    2606        .&      MOVS     r6,#6
        0x0000f148:    2a03        .*      CMP      r2,#3
        0x0000f14a:    f200808e    ....    BHI.W    0xf26a ; am_hal_iom_nonblocking_transfer + 462
        0x0000f14e:    2200        ."      MOVS     r2,#0
        0x0000f150:    ebb23f10    ...?    CMP      r2,r0,LSR #12
        0x0000f154:    f0408089    @...    BNE.W    0xf26a ; am_hal_iom_nonblocking_transfer + 462
        0x0000f158:    6a08        .j      LDR      r0,[r1,#0x20]
        0x0000f15a:    f0100fe0    ....    TST      r0,#0xe0
        0x0000f15e:    d1cf        ..      BNE      0xf100 ; am_hal_iom_nonblocking_transfer + 100
        0x0000f160:    6a4a        Jj      LDR      r2,[r1,#0x24]
        0x0000f162:    f24e07e0    N...    MOV      r7,#0xe0e0
        0x0000f166:    f2c007e0    ....    MOVT     r7,#0xe0
        0x0000f16a:    423a        :B      TST      r2,r7
        0x0000f16c:    d1c8        ..      BNE      0xf100 ; am_hal_iom_nonblocking_transfer + 100
        0x0000f16e:    f8d42828    ..((    LDR      r2,[r4,#0x828]
        0x0000f172:    b11a        ..      CBZ      r2,0xf17c ; am_hal_iom_nonblocking_transfer + 224
        0x0000f174:    f894282c    ..,(    LDRB     r2,[r4,#0x82c]
        0x0000f178:    2a02        .*      CMP      r2,#2
        0x0000f17a:    d103        ..      BNE      0xf184 ; am_hal_iom_nonblocking_transfer + 232
        0x0000f17c:    2007        .       MOVS     r0,#7
        0x0000f17e:    e8bd81f0    ....    POP      {r4-r8,pc}
        0x0000f182:    bf00        ..      NOP      
        0x0000f184:    f8d47838    ..8x    LDR      r7,[r4,#0x838]
        0x0000f188:    b147        G.      CBZ      r7,0xf19c ; am_hal_iom_nonblocking_transfer + 256
        0x0000f18a:    2800        .(      CMP      r0,#0
        0x0000f18c:    bf1c        ..      ITT      NE
        0x0000f18e:    2007        .       MOVNE    r0,#7
        0x0000f190:    e8bd81f0    ....    POPNE    {r4-r8,pc}
        0x0000f194:    fab5f085    ....    CLZ      r0,r5
        0x0000f198:    0947        G.      LSRS     r7,r0,#5
        0x0000f19a:    e014        ..      B        0xf1c6 ; am_hal_iom_nonblocking_transfer + 298
        0x0000f19c:    b115        ..      CBZ      r5,0xf1a4 ; am_hal_iom_nonblocking_transfer + 264
        0x0000f19e:    2700        .'      MOVS     r7,#0
        0x0000f1a0:    e011        ..      B        0xf1c6 ; am_hal_iom_nonblocking_transfer + 298
        0x0000f1a2:    bf00        ..      NOP      
        0x0000f1a4:    b112        ..      CBZ      r2,0xf1ac ; am_hal_iom_nonblocking_transfer + 272
        0x0000f1a6:    2500        .%      MOVS     r5,#0
        0x0000f1a8:    e00c        ..      B        0xf1c4 ; am_hal_iom_nonblocking_transfer + 296
        0x0000f1aa:    bf00        ..      NOP      
        0x0000f1ac:    f8d40858    ..X.    LDR      r0,[r4,#0x858]
        0x0000f1b0:    f8d4285c    ..\(    LDR      r2,[r4,#0x85c]
        0x0000f1b4:    f6404555    @.UE    MOV      r5,#0xc55
        0x0000f1b8:    f2c00501    ....    MOVT     r5,#1
        0x0000f1bc:    ebb20f50    ..P.    CMP      r2,r0,LSR #1
        0x0000f1c0:    bf38        8.      IT       CC
        0x0000f1c2:    2500        .%      MOVCC    r5,#0
        0x0000f1c4:    2701        .'      MOVS     r7,#1
        0x0000f1c6:    4620         F      MOV      r0,r4
        0x0000f1c8:    462a        *F      MOV      r2,r5
        0x0000f1ca:    f7fff89b    ....    BL       am_hal_iom_CQAddTransaction ; 0xe304
        0x0000f1ce:    4606        .F      MOV      r6,r0
        0x0000f1d0:    2800        .(      CMP      r0,#0
        0x0000f1d2:    d14a        J.      BNE      0xf26a ; am_hal_iom_nonblocking_transfer + 462
        0x0000f1d4:    f7fff88a    ....    BL       am_hal_interrupt_master_disable ; 0xe2ec
        0x0000f1d8:    4680        .F      MOV      r8,r0
        0x0000f1da:    f8d40828    ..(.    LDR      r0,[r4,#0x828]
        0x0000f1de:    4629        )F      MOV      r1,r5
        0x0000f1e0:    2d00        .-      CMP      r5,#0
        0x0000f1e2:    bf18        ..      IT       NE
        0x0000f1e4:    2101        .!      MOVNE    r1,#1
        0x0000f1e6:    f7fefac9    ....    BL       am_hal_cmdq_post_block ; 0xd77c
        0x0000f1ea:    4606        .F      MOV      r6,r0
        0x0000f1ec:    b120         .      CBZ      r0,0xf1f8 ; am_hal_iom_nonblocking_transfer + 348
        0x0000f1ee:    f8d40828    ..(.    LDR      r0,[r4,#0x828]
        0x0000f1f2:    f7fefae7    ....    BL       am_hal_cmdq_release_block ; 0xd7c4
        0x0000f1f6:    e035        5.      B        0xf264 ; am_hal_iom_nonblocking_transfer + 456
        0x0000f1f8:    6a60        `j      LDR      r0,[r4,#0x24]
        0x0000f1fa:    f1000101    ....    ADD      r1,r0,#1
        0x0000f1fe:    6261        ab      STR      r1,[r4,#0x24]
        0x0000f200:    f8d41830    ..0.    LDR      r1,[r4,#0x830]
        0x0000f204:    f1010101    ....    ADD      r1,r1,#1
        0x0000f208:    f8c41830    ..0.    STR      r1,[r4,#0x830]
        0x0000f20c:    b117        ..      CBZ      r7,0xf214 ; am_hal_iom_nonblocking_transfer + 376
        0x0000f20e:    b12d        -.      CBZ      r5,0xf21c ; am_hal_iom_nonblocking_transfer + 384
        0x0000f210:    2100        .!      MOVS     r1,#0
        0x0000f212:    e006        ..      B        0xf222 ; am_hal_iom_nonblocking_transfer + 390
        0x0000f214:    2100        .!      MOVS     r1,#0
        0x0000f216:    f884182d    ..-.    STRB     r1,[r4,#0x82d]
        0x0000f21a:    e002        ..      B        0xf222 ; am_hal_iom_nonblocking_transfer + 390
        0x0000f21c:    f8d4185c    ..\.    LDR      r1,[r4,#0x85c]
        0x0000f220:    3101        .1      ADDS     r1,#1
        0x0000f222:    f8c4185c    ..\.    STR      r1,[r4,#0x85c]
        0x0000f226:    b9e8        ..      CBNZ     r0,0xf264 ; am_hal_iom_nonblocking_transfer + 456
        0x0000f228:    6860        `h      LDR      r0,[r4,#4]
        0x0000f22a:    f2440100    D...    MOVW     r1,#0x4000
        0x0000f22e:    f2c50100    ....    MOVT     r1,#0x5000
        0x0000f232:    eb013000    ...0    ADD      r0,r1,r0,LSL #12
        0x0000f236:    f8d02200    ..."    LDR      r2,[r0,#0x200]
        0x0000f23a:    6162        ba      STR      r2,[r4,#0x14]
        0x0000f23c:    2200        ."      MOVS     r2,#0
        0x0000f23e:    f8c02200    ..."    STR      r2,[r0,#0x200]
        0x0000f242:    6860        `h      LDR      r0,[r4,#4]
        0x0000f244:    f04f32ff    O..2    MOV      r2,#0xffffffff
        0x0000f248:    eb013000    ...0    ADD      r0,r1,r0,LSL #12
        0x0000f24c:    f8c02208    ..."    STR      r2,[r0,#0x208]
        0x0000f250:    6860        `h      LDR      r0,[r4,#4]
        0x0000f252:    eb013000    ...0    ADD      r0,r1,r0,LSL #12
        0x0000f256:    f646217c    F.|!    MOV      r1,#0x6a7c
        0x0000f25a:    f8c01200    ....    STR      r1,[r0,#0x200]
        0x0000f25e:    4620         F      MOV      r0,r4
        0x0000f260:    f7fff8fc    ....    BL       am_hal_iom_CQEnable ; 0xe45c
        0x0000f264:    4640        @F      MOV      r0,r8
        0x0000f266:    f7fff849    ..I.    BL       am_hal_interrupt_master_set ; 0xe2fc
        0x0000f26a:    4630        0F      MOV      r0,r6
        0x0000f26c:    e8bd81f0    ....    POP      {r4-r8,pc}
    am_hal_iom_power_ctrl
        0x0000f270:    b5b0        ..      PUSH     {r4,r5,r7,lr}
        0x0000f272:    2800        .(      CMP      r0,#0
        0x0000f274:    d064        d.      BEQ      0xf340 ; am_hal_iom_power_ctrl + 208
        0x0000f276:    4604        .F      MOV      r4,r0
        0x0000f278:    6800        .h      LDR      r0,[r0,#0]
        0x0000f27a:    f2434356    C.VC    MOV      r3,#0x3456
        0x0000f27e:    4615        .F      MOV      r5,r2
        0x0000f280:    f020427e     .~B    BIC      r2,r0,#0xfe000000
        0x0000f284:    f2c01312    ....    MOVT     r3,#0x112
        0x0000f288:    429a        .B      CMP      r2,r3
        0x0000f28a:    d159        Y.      BNE      0xf340 ; am_hal_iom_power_ctrl + 208
        0x0000f28c:    1e4a        J.      SUBS     r2,r1,#1
        0x0000f28e:    2a02        .*      CMP      r2,#2
        0x0000f290:    d258        X.      BCS      0xf344 ; am_hal_iom_power_ctrl + 212
        0x0000f292:    0180        ..      LSLS     r0,r0,#6
        0x0000f294:    f10080d8    ....    BMI.W    0xf448 ; am_hal_iom_power_ctrl + 472
        0x0000f298:    2d00        .-      CMP      r5,#0
        0x0000f29a:    d045        E.      BEQ      0xf328 ; am_hal_iom_power_ctrl + 184
        0x0000f29c:    6860        `h      LDR      r0,[r4,#4]
        0x0000f29e:    f2440100    D...    MOVW     r1,#0x4000
        0x0000f2a2:    f2c50100    ....    MOVT     r1,#0x5000
        0x0000f2a6:    eb013000    ...0    ADD      r0,r1,r0,LSL #12
        0x0000f2aa:    f8d01104    ....    LDR      r1,[r0,#0x104]
        0x0000f2ae:    f8c4186c    ..l.    STR      r1,[r4,#0x86c]
        0x0000f2b2:    f8d01210    ....    LDR      r1,[r0,#0x210]
        0x0000f2b6:    f8c41874    ..t.    STR      r1,[r4,#0x874]
        0x0000f2ba:    f8d01214    ....    LDR      r1,[r0,#0x214]
        0x0000f2be:    f8c41878    ..x.    STR      r1,[r4,#0x878]
        0x0000f2c2:    f8d01294    ....    LDR      r1,[r0,#0x294]
        0x0000f2c6:    f8c4187c    ..|.    STR      r1,[r4,#0x87c]
        0x0000f2ca:    f8d01298    ....    LDR      r1,[r0,#0x298]
        0x0000f2ce:    f8c41880    ....    STR      r1,[r4,#0x880]
        0x0000f2d2:    f8d012a0    ....    LDR      r1,[r0,#0x2a0]
        0x0000f2d6:    f8c41884    ....    STR      r1,[r4,#0x884]
        0x0000f2da:    f8d012a8    ....    LDR      r1,[r0,#0x2a8]
        0x0000f2de:    f8c41888    ....    STR      r1,[r4,#0x888]
        0x0000f2e2:    f8d012ac    ....    LDR      r1,[r0,#0x2ac]
        0x0000f2e6:    f8c4188c    ....    STR      r1,[r4,#0x88c]
        0x0000f2ea:    f8d012b0    ....    LDR      r1,[r0,#0x2b0]
        0x0000f2ee:    f8c41890    ....    STR      r1,[r4,#0x890]
        0x0000f2f2:    f8d01300    ....    LDR      r1,[r0,#0x300]
        0x0000f2f6:    f8c41894    ....    STR      r1,[r4,#0x894]
        0x0000f2fa:    f8d01400    ....    LDR      r1,[r0,#0x400]
        0x0000f2fe:    f8c41898    ....    STR      r1,[r4,#0x898]
        0x0000f302:    f8d01200    ....    LDR      r1,[r0,#0x200]
        0x0000f306:    f8c4189c    ....    STR      r1,[r4,#0x89c]
        0x0000f30a:    f8d01240    ..@.    LDR      r1,[r0,#0x240]
        0x0000f30e:    f8c41870    ..p.    STR      r1,[r4,#0x870]
        0x0000f312:    f8d00294    ....    LDR      r0,[r0,#0x294]
        0x0000f316:    07c0        ..      LSLS     r0,r0,#31
        0x0000f318:    d003        ..      BEQ      0xf322 ; am_hal_iom_power_ctrl + 178
        0x0000f31a:    f8d40828    ..(.    LDR      r0,[r4,#0x828]
        0x0000f31e:    f7fef8f9    ....    BL       am_hal_cmdq_disable ; 0xd514
        0x0000f322:    2001        .       MOVS     r0,#1
        0x0000f324:    f8840868    ..h.    STRB     r0,[r4,#0x868]
        0x0000f328:    7920         y      LDRB     r0,[r4,#4]
        0x0000f32a:    3002        .0      ADDS     r0,#2
        0x0000f32c:    b2c0        ..      UXTB     r0,r0
        0x0000f32e:    f000fb6f    ..o.    BL       am_hal_pwrctrl_periph_disable ; 0xfa10
        0x0000f332:    2800        .(      CMP      r0,#0
        0x0000f334:    bf1c        ..      ITT      NE
        0x0000f336:    2009        .       MOVNE    r0,#9
        0x0000f338:    bdb0        ..      POPNE    {r4,r5,r7,pc}
        0x0000f33a:    2000        .       MOVS     r0,#0
        0x0000f33c:    bdb0        ..      POP      {r4,r5,r7,pc}
        0x0000f33e:    bf00        ..      NOP      
        0x0000f340:    2002        .       MOVS     r0,#2
        0x0000f342:    bdb0        ..      POP      {r4,r5,r7,pc}
        0x0000f344:    2900        .)      CMP      r1,#0
        0x0000f346:    bf1c        ..      ITT      NE
        0x0000f348:    2006        .       MOVNE    r0,#6
        0x0000f34a:    bdb0        ..      POPNE    {r4,r5,r7,pc}
        0x0000f34c:    b125        %.      CBZ      r5,0xf358 ; am_hal_iom_power_ctrl + 232
        0x0000f34e:    f8940868    ..h.    LDRB     r0,[r4,#0x868]
        0x0000f352:    2800        .(      CMP      r0,#0
        0x0000f354:    f000808c    ....    BEQ.W    0xf470 ; am_hal_iom_power_ctrl + 512
        0x0000f358:    7920         y      LDRB     r0,[r4,#4]
        0x0000f35a:    3002        .0      ADDS     r0,#2
        0x0000f35c:    b2c0        ..      UXTB     r0,r0
        0x0000f35e:    f000fbab    ....    BL       am_hal_pwrctrl_periph_enable ; 0xfab8
        0x0000f362:    2800        .(      CMP      r0,#0
        0x0000f364:    bf1c        ..      ITT      NE
        0x0000f366:    2009        .       MOVNE    r0,#9
        0x0000f368:    bdb0        ..      POPNE    {r4,r5,r7,pc}
        0x0000f36a:    2d00        .-      CMP      r5,#0
        0x0000f36c:    d0e5        ..      BEQ      0xf33a ; am_hal_iom_power_ctrl + 202
        0x0000f36e:    6862        bh      LDR      r2,[r4,#4]
        0x0000f370:    f2440000    D...    MOVW     r0,#0x4000
        0x0000f374:    f8d4186c    ..l.    LDR      r1,[r4,#0x86c]
        0x0000f378:    f2c50000    ....    MOVT     r0,#0x5000
        0x0000f37c:    eb003202    ...2    ADD      r2,r0,r2,LSL #12
        0x0000f380:    f8c21104    ....    STR      r1,[r2,#0x104]
        0x0000f384:    6861        ah      LDR      r1,[r4,#4]
        0x0000f386:    f8d42874    ..t(    LDR      r2,[r4,#0x874]
        0x0000f38a:    eb003101    ...1    ADD      r1,r0,r1,LSL #12
        0x0000f38e:    f8c12210    ..."    STR      r2,[r1,#0x210]
        0x0000f392:    6861        ah      LDR      r1,[r4,#4]
        0x0000f394:    f8d42878    ..x(    LDR      r2,[r4,#0x878]
        0x0000f398:    eb003101    ...1    ADD      r1,r0,r1,LSL #12
        0x0000f39c:    f8c12214    ..."    STR      r2,[r1,#0x214]
        0x0000f3a0:    6861        ah      LDR      r1,[r4,#4]
        0x0000f3a2:    f8d42880    ...(    LDR      r2,[r4,#0x880]
        0x0000f3a6:    eb003101    ...1    ADD      r1,r0,r1,LSL #12
        0x0000f3aa:    f8c12298    ..."    STR      r2,[r1,#0x298]
        0x0000f3ae:    6861        ah      LDR      r1,[r4,#4]
        0x0000f3b0:    f8d42888    ...(    LDR      r2,[r4,#0x888]
        0x0000f3b4:    eb003101    ...1    ADD      r1,r0,r1,LSL #12
        0x0000f3b8:    f8c122a8    ..."    STR      r2,[r1,#0x2a8]
        0x0000f3bc:    6861        ah      LDR      r1,[r4,#4]
        0x0000f3be:    f8d4288c    ...(    LDR      r2,[r4,#0x88c]
        0x0000f3c2:    eb003101    ...1    ADD      r1,r0,r1,LSL #12
        0x0000f3c6:    f8c122ac    ..."    STR      r2,[r1,#0x2ac]
        0x0000f3ca:    6861        ah      LDR      r1,[r4,#4]
        0x0000f3cc:    f8d42890    ...(    LDR      r2,[r4,#0x890]
        0x0000f3d0:    eb003101    ...1    ADD      r1,r0,r1,LSL #12
        0x0000f3d4:    f8c122b0    ..."    STR      r2,[r1,#0x2b0]
        0x0000f3d8:    6861        ah      LDR      r1,[r4,#4]
        0x0000f3da:    f8d42894    ...(    LDR      r2,[r4,#0x894]
        0x0000f3de:    eb003101    ...1    ADD      r1,r0,r1,LSL #12
        0x0000f3e2:    f8c12300    ...#    STR      r2,[r1,#0x300]
        0x0000f3e6:    6861        ah      LDR      r1,[r4,#4]
        0x0000f3e8:    f8d42898    ...(    LDR      r2,[r4,#0x898]
        0x0000f3ec:    eb003101    ...1    ADD      r1,r0,r1,LSL #12
        0x0000f3f0:    f8c12400    ...$    STR      r2,[r1,#0x400]
        0x0000f3f4:    6861        ah      LDR      r1,[r4,#4]
        0x0000f3f6:    f8d4289c    ...(    LDR      r2,[r4,#0x89c]
        0x0000f3fa:    eb003101    ...1    ADD      r1,r0,r1,LSL #12
        0x0000f3fe:    f8c12200    ..."    STR      r2,[r1,#0x200]
        0x0000f402:    6861        ah      LDR      r1,[r4,#4]
        0x0000f404:    f8d42870    ..p(    LDR      r2,[r4,#0x870]
        0x0000f408:    eb003101    ...1    ADD      r1,r0,r1,LSL #12
        0x0000f40c:    f8c12240    ..@"    STR      r2,[r1,#0x240]
        0x0000f410:    6861        ah      LDR      r1,[r4,#4]
        0x0000f412:    f8942884    ...(    LDRB     r2,[r4,#0x884]
        0x0000f416:    eb003101    ...1    ADD      r1,r0,r1,LSL #12
        0x0000f41a:    f8c122a4    ..."    STR      r2,[r1,#0x2a4]
        0x0000f41e:    f8d4187c    ..|.    LDR      r1,[r4,#0x87c]
        0x0000f422:    6862        bh      LDR      r2,[r4,#4]
        0x0000f424:    f0210101    !...    BIC      r1,r1,#1
        0x0000f428:    eb003002    ...0    ADD      r0,r0,r2,LSL #12
        0x0000f42c:    f8c01294    ....    STR      r1,[r0,#0x294]
        0x0000f430:    f894087c    ..|.    LDRB     r0,[r4,#0x87c]
        0x0000f434:    07c0        ..      LSLS     r0,r0,#31
        0x0000f436:    d002        ..      BEQ      0xf43e ; am_hal_iom_power_ctrl + 462
        0x0000f438:    4620         F      MOV      r0,r4
        0x0000f43a:    f7fff80f    ....    BL       am_hal_iom_CQEnable ; 0xe45c
        0x0000f43e:    2000        .       MOVS     r0,#0
        0x0000f440:    f8840868    ..h.    STRB     r0,[r4,#0x868]
        0x0000f444:    2000        .       MOVS     r0,#0
        0x0000f446:    bdb0        ..      POP      {r4,r5,r7,pc}
        0x0000f448:    6860        `h      LDR      r0,[r4,#4]
        0x0000f44a:    f2440100    D...    MOVW     r1,#0x4000
        0x0000f44e:    f2c50100    ....    MOVT     r1,#0x5000
        0x0000f452:    eb013000    ...0    ADD      r0,r1,r0,LSL #12
        0x0000f456:    f8d002b4    ....    LDR      r0,[r0,#0x2b4]
        0x0000f45a:    f0000006    ....    AND      r0,r0,#6
        0x0000f45e:    2804        .(      CMP      r0,#4
        0x0000f460:    d103        ..      BNE      0xf46a ; am_hal_iom_power_ctrl + 506
        0x0000f462:    6a60        `j      LDR      r0,[r4,#0x24]
        0x0000f464:    2800        .(      CMP      r0,#0
        0x0000f466:    f43faf17    ?...    BEQ      0xf298 ; am_hal_iom_power_ctrl + 40
        0x0000f46a:    2003        .       MOVS     r0,#3
        0x0000f46c:    bdb0        ..      POP      {r4,r5,r7,pc}
        0x0000f46e:    bf00        ..      NOP      
        0x0000f470:    2007        .       MOVS     r0,#7
        0x0000f472:    bdb0        ..      POP      {r4,r5,r7,pc}
    am_hal_iom_uninitialize
        0x0000f474:    b510        ..      PUSH     {r4,lr}
        0x0000f476:    b1b8        ..      CBZ      r0,0xf4a8 ; am_hal_iom_uninitialize + 52
        0x0000f478:    4604        .F      MOV      r4,r0
        0x0000f47a:    6800        .h      LDR      r0,[r0,#0]
        0x0000f47c:    f2434156    C.VA    MOV      r1,#0x3456
        0x0000f480:    f2c01112    ....    MOVT     r1,#0x112
        0x0000f484:    f020427e     .~B    BIC      r2,r0,#0xfe000000
        0x0000f488:    428a        .B      CMP      r2,r1
        0x0000f48a:    d10d        ..      BNE      0xf4a8 ; am_hal_iom_uninitialize + 52
        0x0000f48c:    f020427c     .|B    BIC      r2,r0,#0xfc000000
        0x0000f490:    f1017100    ...q    ADD      r1,r1,#0x2000000
        0x0000f494:    428a        .B      CMP      r2,r1
        0x0000f496:    d101        ..      BNE      0xf49c ; am_hal_iom_uninitialize + 40
        0x0000f498:    6a61        aj      LDR      r1,[r4,#0x24]
        0x0000f49a:    b139        9.      CBZ      r1,0xf4ac ; am_hal_iom_uninitialize + 56
        0x0000f49c:    f0207080     ..p    BIC      r0,r0,#0x1000000
        0x0000f4a0:    6020         `      STR      r0,[r4,#0]
        0x0000f4a2:    2000        .       MOVS     r0,#0
        0x0000f4a4:    bd10        ..      POP      {r4,pc}
        0x0000f4a6:    bf00        ..      NOP      
        0x0000f4a8:    2002        .       MOVS     r0,#2
        0x0000f4aa:    bd10        ..      POP      {r4,pc}
        0x0000f4ac:    6860        `h      LDR      r0,[r4,#4]
        0x0000f4ae:    f2440100    D...    MOVW     r1,#0x4000
        0x0000f4b2:    f2c50100    ....    MOVT     r1,#0x5000
        0x0000f4b6:    eb013000    ...0    ADD      r0,r1,r0,LSL #12
        0x0000f4ba:    f8d02214    ..."    LDR      r2,[r0,#0x214]
        0x0000f4be:    f0220201    "...    BIC      r2,r2,#1
        0x0000f4c2:    f8c02214    ..."    STR      r2,[r0,#0x214]
        0x0000f4c6:    6860        `h      LDR      r0,[r4,#4]
        0x0000f4c8:    eb013000    ...0    ADD      r0,r1,r0,LSL #12
        0x0000f4cc:    f8d01214    ....    LDR      r1,[r0,#0x214]
        0x0000f4d0:    f0210110    !...    BIC      r1,r1,#0x10
        0x0000f4d4:    f8c01214    ....    STR      r1,[r0,#0x214]
        0x0000f4d8:    f8d40828    ..(.    LDR      r0,[r4,#0x828]
        0x0000f4dc:    b128        (.      CBZ      r0,0xf4ea ; am_hal_iom_uninitialize + 118
        0x0000f4de:    2101        .!      MOVS     r1,#1
        0x0000f4e0:    f7fef988    ....    BL       am_hal_cmdq_term ; 0xd7f4
        0x0000f4e4:    2000        .       MOVS     r0,#0
        0x0000f4e6:    f8c40828    ..(.    STR      r0,[r4,#0x828]
        0x0000f4ea:    6820         h      LDR      r0,[r4,#0]
        0x0000f4ec:    f0207000     ..p    BIC      r0,r0,#0x2000000
        0x0000f4f0:    f0207080     ..p    BIC      r0,r0,#0x1000000
        0x0000f4f4:    6020         `      STR      r0,[r4,#0]
        0x0000f4f6:    2000        .       MOVS     r0,#0
        0x0000f4f8:    bd10        ..      POP      {r4,pc}
        0x0000f4fa:    0000        ..      MOVS     r0,r0
    am_hal_itm_enable
        0x0000f4fc:    f64e50fc    N..P    MOV      r0,#0xedfc
        0x0000f500:    f2ce0000    ....    MOVT     r0,#0xe000
        0x0000f504:    6801        .h      LDR      r1,[r0,#0]
        0x0000f506:    f0417180    A..q    ORR      r1,r1,#0x1000000
        0x0000f50a:    6001        .`      STR      r1,[r0,#0]
        0x0000f50c:    6801        .h      LDR      r1,[r0,#0]
        0x0000f50e:    01c9        ..      LSLS     r1,r1,#7
        0x0000f510:    d409        ..      BMI      0xf526 ; am_hal_itm_enable + 42
        0x0000f512:    6801        .h      LDR      r1,[r0,#0]
        0x0000f514:    01c9        ..      LSLS     r1,r1,#7
        0x0000f516:    bf5c        \.      ITT      PL
        0x0000f518:    6801        .h      LDRPL    r1,[r0,#0]
        0x0000f51a:    ea5f11c1    _...    LSLSPL   r1,r1,#7
        0x0000f51e:    d402        ..      BMI      0xf526 ; am_hal_itm_enable + 42
        0x0000f520:    6801        .h      LDR      r1,[r0,#0]
        0x0000f522:    01c9        ..      LSLS     r1,r1,#7
        0x0000f524:    d5f2        ..      BPL      0xf50c ; am_hal_itm_enable + 16
        0x0000f526:    f6406000    @..`    MOVW     r0,#0xe00
        0x0000f52a:    f64c6155    L.Ua    MOV      r1,#0xce55
        0x0000f52e:    f2ce0000    ....    MOVT     r0,#0xe000
        0x0000f532:    f2cc51ac    ...Q    MOVT     r1,#0xc5ac
        0x0000f536:    f8c011b0    ....    STR      r1,[r0,#0x1b0]
        0x0000f53a:    210f        .!      MOVS     r1,#0xf
        0x0000f53c:    6401        .d      STR      r1,[r0,#0x40]
        0x0000f53e:    f04f31ff    O..1    MOV      r1,#0xffffffff
        0x0000f542:    6001        .`      STR      r1,[r0,#0]
        0x0000f544:    f2405111    @..Q    MOV      r1,#0x511
        0x0000f548:    f2c00115    ....    MOVT     r1,#0x15
        0x0000f54c:    f8c01080    ....    STR      r1,[r0,#0x80]
        0x0000f550:    4770        pG      BX       lr
        0x0000f552:    0000        ..      MOVS     r0,r0
    am_hal_itm_print
        0x0000f554:    b510        ..      PUSH     {r4,lr}
        0x0000f556:    f04f31ff    O..1    MOV      r1,#0xffffffff
        0x0000f55a:    bf00        ..      NOP      
        0x0000f55c:    1842        B.      ADDS     r2,r0,r1
        0x0000f55e:    7853        Sx      LDRB     r3,[r2,#1]
        0x0000f560:    b143        C.      CBZ      r3,0xf574 ; am_hal_itm_print + 32
        0x0000f562:    7893        .x      LDRB     r3,[r2,#2]
        0x0000f564:    b153        S.      CBZ      r3,0xf57c ; am_hal_itm_print + 40
        0x0000f566:    78d3        .x      LDRB     r3,[r2,#3]
        0x0000f568:    b333        3.      CBZ      r3,0xf5b8 ; am_hal_itm_print + 100
        0x0000f56a:    7912        .y      LDRB     r2,[r2,#4]
        0x0000f56c:    3104        .1      ADDS     r1,#4
        0x0000f56e:    2a00        .*      CMP      r2,#0
        0x0000f570:    d1f4        ..      BNE      0xf55c ; am_hal_itm_print + 8
        0x0000f572:    e004        ..      B        0xf57e ; am_hal_itm_print + 42
        0x0000f574:    3101        .1      ADDS     r1,#1
        0x0000f576:    b919        ..      CBNZ     r1,0xf580 ; am_hal_itm_print + 44
        0x0000f578:    e021        !.      B        0xf5be ; am_hal_itm_print + 106
        0x0000f57a:    bf00        ..      NOP      
        0x0000f57c:    3102        .1      ADDS     r1,#2
        0x0000f57e:    b1f1        ..      CBZ      r1,0xf5be ; am_hal_itm_print + 106
        0x0000f580:    f0110e03    ....    ANDS     lr,r1,#3
        0x0000f584:    f1a10c01    ....    SUB      r12,r1,#1
        0x0000f588:    d040        @.      BEQ      0xf60c ; am_hal_itm_print + 184
        0x0000f58a:    7802        .x      LDRB     r2,[r0,#0]
        0x0000f58c:    f04f4360    O.`C    MOV      r3,#0xe0000000
        0x0000f590:    681c        .h      LDR      r4,[r3,#0]
        0x0000f592:    b934        4.      CBNZ     r4,0xf5a2 ; am_hal_itm_print + 78
        0x0000f594:    681c        .h      LDR      r4,[r3,#0]
        0x0000f596:    b924        $.      CBNZ     r4,0xf5a2 ; am_hal_itm_print + 78
        0x0000f598:    681c        .h      LDR      r4,[r3,#0]
        0x0000f59a:    b914        ..      CBNZ     r4,0xf5a2 ; am_hal_itm_print + 78
        0x0000f59c:    681c        .h      LDR      r4,[r3,#0]
        0x0000f59e:    2c00        .,      CMP      r4,#0
        0x0000f5a0:    d0f6        ..      BEQ      0xf590 ; am_hal_itm_print + 60
        0x0000f5a2:    1c44        D.      ADDS     r4,r0,#1
        0x0000f5a4:    f04f4360    O.`C    MOV      r3,#0xe0000000
        0x0000f5a8:    f1be0f01    ....    CMP      lr,#1
        0x0000f5ac:    701a        .p      STRB     r2,[r3,#0]
        0x0000f5ae:    d107        ..      BNE      0xf5c0 ; am_hal_itm_print + 108
        0x0000f5b0:    4661        aF      MOV      r1,r12
        0x0000f5b2:    4620         F      MOV      r0,r4
        0x0000f5b4:    e02a        *.      B        0xf60c ; am_hal_itm_print + 184
        0x0000f5b6:    bf00        ..      NOP      
        0x0000f5b8:    3103        .1      ADDS     r1,#3
        0x0000f5ba:    2900        .)      CMP      r1,#0
        0x0000f5bc:    d1e0        ..      BNE      0xf580 ; am_hal_itm_print + 44
        0x0000f5be:    bd10        ..      POP      {r4,pc}
        0x0000f5c0:    7822        "x      LDRB     r2,[r4,#0]
        0x0000f5c2:    bf00        ..      NOP      
        0x0000f5c4:    681c        .h      LDR      r4,[r3,#0]
        0x0000f5c6:    b934        4.      CBNZ     r4,0xf5d6 ; am_hal_itm_print + 130
        0x0000f5c8:    681c        .h      LDR      r4,[r3,#0]
        0x0000f5ca:    b924        $.      CBNZ     r4,0xf5d6 ; am_hal_itm_print + 130
        0x0000f5cc:    681c        .h      LDR      r4,[r3,#0]
        0x0000f5ce:    b914        ..      CBNZ     r4,0xf5d6 ; am_hal_itm_print + 130
        0x0000f5d0:    681c        .h      LDR      r4,[r3,#0]
        0x0000f5d2:    2c00        .,      CMP      r4,#0
        0x0000f5d4:    d0f6        ..      BEQ      0xf5c4 ; am_hal_itm_print + 112
        0x0000f5d6:    1c84        ..      ADDS     r4,r0,#2
        0x0000f5d8:    f04f4360    O.`C    MOV      r3,#0xe0000000
        0x0000f5dc:    f1be0f02    ....    CMP      lr,#2
        0x0000f5e0:    701a        .p      STRB     r2,[r3,#0]
        0x0000f5e2:    d103        ..      BNE      0xf5ec ; am_hal_itm_print + 152
        0x0000f5e4:    3902        .9      SUBS     r1,#2
        0x0000f5e6:    4620         F      MOV      r0,r4
        0x0000f5e8:    e010        ..      B        0xf60c ; am_hal_itm_print + 184
        0x0000f5ea:    bf00        ..      NOP      
        0x0000f5ec:    7822        "x      LDRB     r2,[r4,#0]
        0x0000f5ee:    bf00        ..      NOP      
        0x0000f5f0:    681c        .h      LDR      r4,[r3,#0]
        0x0000f5f2:    b934        4.      CBNZ     r4,0xf602 ; am_hal_itm_print + 174
        0x0000f5f4:    681c        .h      LDR      r4,[r3,#0]
        0x0000f5f6:    b924        $.      CBNZ     r4,0xf602 ; am_hal_itm_print + 174
        0x0000f5f8:    681c        .h      LDR      r4,[r3,#0]
        0x0000f5fa:    b914        ..      CBNZ     r4,0xf602 ; am_hal_itm_print + 174
        0x0000f5fc:    681c        .h      LDR      r4,[r3,#0]
        0x0000f5fe:    2c00        .,      CMP      r4,#0
        0x0000f600:    d0f6        ..      BEQ      0xf5f0 ; am_hal_itm_print + 156
        0x0000f602:    3003        .0      ADDS     r0,#3
        0x0000f604:    f04f4360    O.`C    MOV      r3,#0xe0000000
        0x0000f608:    3903        .9      SUBS     r1,#3
        0x0000f60a:    701a        .p      STRB     r2,[r3,#0]
        0x0000f60c:    f1bc0f03    ....    CMP      r12,#3
        0x0000f610:    bf38        8.      IT       CC
        0x0000f612:    bd10        ..      POPCC    {r4,pc}
        0x0000f614:    f04f4260    O.`B    MOV      r2,#0xe0000000
        0x0000f618:    e004        ..      B        0xf624 ; am_hal_itm_print + 208
        0x0000f61a:    bf00        ..      NOP      
        0x0000f61c:    3004        .0      ADDS     r0,#4
        0x0000f61e:    3904        .9      SUBS     r1,#4
        0x0000f620:    7013        .p      STRB     r3,[r2,#0]
        0x0000f622:    d0cc        ..      BEQ      0xf5be ; am_hal_itm_print + 106
        0x0000f624:    7803        .x      LDRB     r3,[r0,#0]
        0x0000f626:    bf00        ..      NOP      
        0x0000f628:    6814        .h      LDR      r4,[r2,#0]
        0x0000f62a:    b934        4.      CBNZ     r4,0xf63a ; am_hal_itm_print + 230
        0x0000f62c:    6814        .h      LDR      r4,[r2,#0]
        0x0000f62e:    b924        $.      CBNZ     r4,0xf63a ; am_hal_itm_print + 230
        0x0000f630:    6814        .h      LDR      r4,[r2,#0]
        0x0000f632:    b914        ..      CBNZ     r4,0xf63a ; am_hal_itm_print + 230
        0x0000f634:    6814        .h      LDR      r4,[r2,#0]
        0x0000f636:    2c00        .,      CMP      r4,#0
        0x0000f638:    d0f6        ..      BEQ      0xf628 ; am_hal_itm_print + 212
        0x0000f63a:    7013        .p      STRB     r3,[r2,#0]
        0x0000f63c:    7843        Cx      LDRB     r3,[r0,#1]
        0x0000f63e:    bf00        ..      NOP      
        0x0000f640:    6814        .h      LDR      r4,[r2,#0]
        0x0000f642:    b934        4.      CBNZ     r4,0xf652 ; am_hal_itm_print + 254
        0x0000f644:    6814        .h      LDR      r4,[r2,#0]
        0x0000f646:    b924        $.      CBNZ     r4,0xf652 ; am_hal_itm_print + 254
        0x0000f648:    6814        .h      LDR      r4,[r2,#0]
        0x0000f64a:    b914        ..      CBNZ     r4,0xf652 ; am_hal_itm_print + 254
        0x0000f64c:    6814        .h      LDR      r4,[r2,#0]
        0x0000f64e:    2c00        .,      CMP      r4,#0
        0x0000f650:    d0f6        ..      BEQ      0xf640 ; am_hal_itm_print + 236
        0x0000f652:    7013        .p      STRB     r3,[r2,#0]
        0x0000f654:    7883        .x      LDRB     r3,[r0,#2]
        0x0000f656:    bf00        ..      NOP      
        0x0000f658:    6814        .h      LDR      r4,[r2,#0]
        0x0000f65a:    b934        4.      CBNZ     r4,0xf66a ; am_hal_itm_print + 278
        0x0000f65c:    6814        .h      LDR      r4,[r2,#0]
        0x0000f65e:    b924        $.      CBNZ     r4,0xf66a ; am_hal_itm_print + 278
        0x0000f660:    6814        .h      LDR      r4,[r2,#0]
        0x0000f662:    b914        ..      CBNZ     r4,0xf66a ; am_hal_itm_print + 278
        0x0000f664:    6814        .h      LDR      r4,[r2,#0]
        0x0000f666:    2c00        .,      CMP      r4,#0
        0x0000f668:    d0f6        ..      BEQ      0xf658 ; am_hal_itm_print + 260
        0x0000f66a:    7013        .p      STRB     r3,[r2,#0]
        0x0000f66c:    78c3        .x      LDRB     r3,[r0,#3]
        0x0000f66e:    bf00        ..      NOP      
        0x0000f670:    6814        .h      LDR      r4,[r2,#0]
        0x0000f672:    2c00        .,      CMP      r4,#0
        0x0000f674:    d1d2        ..      BNE      0xf61c ; am_hal_itm_print + 200
        0x0000f676:    6814        .h      LDR      r4,[r2,#0]
        0x0000f678:    2c00        .,      CMP      r4,#0
        0x0000f67a:    d1cf        ..      BNE      0xf61c ; am_hal_itm_print + 200
        0x0000f67c:    6814        .h      LDR      r4,[r2,#0]
        0x0000f67e:    2c00        .,      CMP      r4,#0
        0x0000f680:    d1cc        ..      BNE      0xf61c ; am_hal_itm_print + 200
        0x0000f682:    6814        .h      LDR      r4,[r2,#0]
        0x0000f684:    2c00        .,      CMP      r4,#0
        0x0000f686:    d0f3        ..      BEQ      0xf670 ; am_hal_itm_print + 284
        0x0000f688:    e7c8        ..      B        0xf61c ; am_hal_itm_print + 200
        0x0000f68a:    0000        ..      MOVS     r0,r0
    am_hal_mcuctrl_control
        0x0000f68c:    e92d43f0    -..C    PUSH     {r4-r9,lr}
        0x0000f690:    b081        ..      SUB      sp,sp,#4
        0x0000f692:    2804        .(      CMP      r0,#4
        0x0000f694:    d845        E.      BHI      0xf722 ; am_hal_mcuctrl_control + 150
        0x0000f696:    e8dff000    ....    TBB      [pc,r0]
    $d.1
        0x0000f69a:    1103        ..      DCW    4355
        0x0000f69c:    003f2f1f    ./?.    DCD    4140831
    $t.2
        0x0000f6a0:    f2401020    @. .    MOVW     r0,#0x120
        0x0000f6a4:    f2c40002    ....    MOVT     r0,#0x4002
        0x0000f6a8:    f8d010b0    ....    LDR      r1,[r0,#0xb0]
        0x0000f6ac:    f0410101    A...    ORR      r1,r1,#1
        0x0000f6b0:    f8c010b0    ....    STR      r1,[r0,#0xb0]
        0x0000f6b4:    2000        .       MOVS     r0,#0
        0x0000f6b6:    b001        ..      ADD      sp,sp,#4
        0x0000f6b8:    e8bd83f0    ....    POP      {r4-r9,pc}
        0x0000f6bc:    f2401020    @. .    MOVW     r0,#0x120
        0x0000f6c0:    f2c40002    ....    MOVT     r0,#0x4002
        0x0000f6c4:    f8d010b0    ....    LDR      r1,[r0,#0xb0]
        0x0000f6c8:    f0210101    !...    BIC      r1,r1,#1
        0x0000f6cc:    f8c010b0    ....    STR      r1,[r0,#0xb0]
        0x0000f6d0:    2000        .       MOVS     r0,#0
        0x0000f6d2:    b001        ..      ADD      sp,sp,#4
        0x0000f6d4:    e8bd83f0    ....    POP      {r4-r9,pc}
        0x0000f6d8:    f2401020    @. .    MOVW     r0,#0x120
        0x0000f6dc:    f2c40002    ....    MOVT     r0,#0x4002
        0x0000f6e0:    6801        .h      LDR      r1,[r0,#0]
        0x0000f6e2:    f021011f    !...    BIC      r1,r1,#0x1f
        0x0000f6e6:    6001        .`      STR      r1,[r0,#0]
        0x0000f6e8:    6801        .h      LDR      r1,[r0,#0]
        0x0000f6ea:    f0410107    A...    ORR      r1,r1,#7
        0x0000f6ee:    6001        .`      STR      r1,[r0,#0]
        0x0000f6f0:    2000        .       MOVS     r0,#0
        0x0000f6f2:    b001        ..      ADD      sp,sp,#4
        0x0000f6f4:    e8bd83f0    ....    POP      {r4-r9,pc}
        0x0000f6f8:    f2401020    @. .    MOVW     r0,#0x120
        0x0000f6fc:    f2c40002    ....    MOVT     r0,#0x4002
        0x0000f700:    6801        .h      LDR      r1,[r0,#0]
        0x0000f702:    f021011f    !...    BIC      r1,r1,#0x1f
        0x0000f706:    6001        .`      STR      r1,[r0,#0]
        0x0000f708:    6801        .h      LDR      r1,[r0,#0]
        0x0000f70a:    f0410118    A...    ORR      r1,r1,#0x18
        0x0000f70e:    6001        .`      STR      r1,[r0,#0]
        0x0000f710:    2000        .       MOVS     r0,#0
        0x0000f712:    b001        ..      ADD      sp,sp,#4
        0x0000f714:    e8bd83f0    ....    POP      {r4-r9,pc}
        0x0000f718:    6809        .h      LDR      r1,[r1,#0]
        0x0000f71a:    f06f1033    o.3.    MVN      r0,#0x330033
        0x0000f71e:    4201        .B      TST      r1,r0
        0x0000f720:    d004        ..      BEQ      0xf72c ; am_hal_mcuctrl_control + 160
        0x0000f722:    2006        .       MOVS     r0,#6
        0x0000f724:    b001        ..      ADD      sp,sp,#4
        0x0000f726:    e8bd83f0    ....    POP      {r4-r9,pc}
        0x0000f72a:    bf00        ..      NOP      
        0x0000f72c:    f2401820    @. .    MOVW     r8,#0x120
        0x0000f730:    fa91f0a1    ....    RBIT     r0,r1
        0x0000f734:    220c        ."      MOVS     r2,#0xc
        0x0000f736:    f2c40802    ....    MOVT     r8,#0x4002
        0x0000f73a:    ea027010    ...p    AND      r0,r2,r0,LSR #28
        0x0000f73e:    2202        ."      MOVS     r2,#2
        0x0000f740:    ea0233d1    ...3    AND      r3,r2,r1,LSR #15
        0x0000f744:    f8d82164    ..d!    LDR      r2,[r8,#0x164]
        0x0000f748:    f3c14640    ..@F    UBFX     r6,r1,#17,#1
        0x0000f74c:    4433        3D      ADD      r3,r3,r6
        0x0000f74e:    f0020501    ....    AND      r5,r2,#1
        0x0000f752:    4418        .D      ADD      r0,r0,r3
        0x0000f754:    f0020402    ....    AND      r4,r2,#2
        0x0000f758:    ea4000c5    @...    ORR      r0,r0,r5,LSL #3
        0x0000f75c:    ea400344    @.D.    ORR      r3,r0,r4,LSL #1
        0x0000f760:    2007        .       MOVS     r0,#7
        0x0000f762:    f04f0900    O...    MOV      r9,#0
        0x0000f766:    2500        .%      MOVS     r5,#0
        0x0000f768:    e8dff003    ....    TBB      [pc,r3]
    $d.3
        0x0000f76c:    08081017    ....    DCD    134746135
        0x0000f770:    084e174e    N.N.    DCD    139335502
        0x0000f774:    08080c0c    ....    DCD    134745100
        0x0000f778:    084e0c14    ..N.    DCD    139332628
    $t.4
        0x0000f77c:    2503        .%      MOVS     r5,#3
        0x0000f77e:    f04f0900    O...    MOV      r9,#0
        0x0000f782:    e00a        ..      B        0xf79a ; am_hal_mcuctrl_control + 270
        0x0000f784:    2502        .%      MOVS     r5,#2
        0x0000f786:    f04f0901    O...    MOV      r9,#1
        0x0000f78a:    e006        ..      B        0xf79a ; am_hal_mcuctrl_control + 270
        0x0000f78c:    2502        .%      MOVS     r5,#2
        0x0000f78e:    f04f0900    O...    MOV      r9,#0
        0x0000f792:    e002        ..      B        0xf79a ; am_hal_mcuctrl_control + 270
        0x0000f794:    2500        .%      MOVS     r5,#0
        0x0000f796:    f04f0903    O...    MOV      r9,#3
        0x0000f79a:    2404        .$      MOVS     r4,#4
        0x0000f79c:    2008        .       MOVS     r0,#8
        0x0000f79e:    ea0407d1    ....    AND      r7,r4,r1,LSR #3
        0x0000f7a2:    2602        .&      MOVS     r6,#2
        0x0000f7a4:    ea000351    ..Q.    AND      r3,r0,r1,LSR #1
        0x0000f7a8:    ea0646d1    ...F    AND      r6,r6,r1,LSR #19
        0x0000f7ac:    ea475151    G.QQ    ORR      r1,r7,r1,LSR #21
        0x0000f7b0:    4319        .C      ORRS     r1,r1,r3
        0x0000f7b2:    ea000052    ..R.    AND      r0,r0,r2,LSR #1
        0x0000f7b6:    4331        1C      ORRS     r1,r1,r6
        0x0000f7b8:    ea0402d2    ....    AND      r2,r4,r2,LSR #3
        0x0000f7bc:    4308        .C      ORRS     r0,r0,r1
        0x0000f7be:    ea400102    @...    ORR      r1,r0,r2
        0x0000f7c2:    2007        .       MOVS     r0,#7
        0x0000f7c4:    e8dff001    ....    TBB      [pc,r1]
    $d.5
        0x0000f7c8:    08080e12    ....    DCD    134745618
        0x0000f7cc:    08201220     . .    DCD    136319520
        0x0000f7d0:    08080a0a    ....    DCD    134744586
        0x0000f7d4:    08200a10    .. .    DCD    136317456
    $t.6
        0x0000f7d8:    2530        0%      MOVS     r5,#0x30
        0x0000f7da:    e007        ..      B        0xf7ec ; am_hal_mcuctrl_control + 352
        0x0000f7dc:    2520         %      MOVS     r5,#0x20
        0x0000f7de:    f04f0910    O...    MOV      r9,#0x10
        0x0000f7e2:    e003        ..      B        0xf7ec ; am_hal_mcuctrl_control + 352
        0x0000f7e4:    2520         %      MOVS     r5,#0x20
        0x0000f7e6:    e001        ..      B        0xf7ec ; am_hal_mcuctrl_control + 352
        0x0000f7e8:    f04f0930    O.0.    MOV      r9,#0x30
        0x0000f7ec:    f7fefd7e    ..~.    BL       am_hal_interrupt_master_disable ; 0xe2ec
        0x0000f7f0:    9000        ..      STR      r0,[sp,#0]
        0x0000f7f2:    f8d80164    ..d.    LDR      r0,[r8,#0x164]
        0x0000f7f6:    ea400009    @...    ORR      r0,r0,r9
        0x0000f7fa:    43a8        .C      BICS     r0,r0,r5
        0x0000f7fc:    f8c80164    ..d.    STR      r0,[r8,#0x164]
        0x0000f800:    9800        ..      LDR      r0,[sp,#0]
        0x0000f802:    f7fefd7b    ..{.    BL       am_hal_interrupt_master_set ; 0xe2fc
        0x0000f806:    2000        .       MOVS     r0,#0
        0x0000f808:    b001        ..      ADD      sp,sp,#4
        0x0000f80a:    e8bd83f0    ....    POP      {r4-r9,pc}
        0x0000f80e:    0000        ..      MOVS     r0,r0
    am_hal_pwrctrl_low_power_init
        0x0000f810:    b570        p.      PUSH     {r4-r6,lr}
        0x0000f812:    b082        ..      SUB      sp,sp,#8
        0x0000f814:    f2417004    A..p    MOV      r0,#0x1704
        0x0000f818:    f2c10001    ....    MOVT     r0,#0x1001
        0x0000f81c:    6801        .h      LDR      r1,[r0,#0]
        0x0000f81e:    b929        ).      CBNZ     r1,0xf82c ; am_hal_pwrctrl_low_power_init + 28
        0x0000f820:    f24f0100    O...    MOVW     r1,#0xf000
        0x0000f824:    f6c471ff    ...q    MOVT     r1,#0x4fff
        0x0000f828:    6809        .h      LDR      r1,[r1,#0]
        0x0000f82a:    6001        .`      STR      r1,[r0,#0]
        0x0000f82c:    f2403450    @.P4    MOVW     r4,#0x350
        0x0000f830:    f64f45bc    O..E    MOV      r5,#0xfcbc
        0x0000f834:    f2c40402    ....    MOVT     r4,#0x4002
        0x0000f838:    f6cf75ff    ...u    MOVT     r5,#0xffff
        0x0000f83c:    5960        `Y      LDR      r0,[r4,r5]
        0x0000f83e:    b2c0        ..      UXTB     r0,r0
        0x0000f840:    2821        !(      CMP      r0,#0x21
        0x0000f842:    d30a        ..      BCC      0xf85a ; am_hal_pwrctrl_low_power_init + 74
        0x0000f844:    f241104a    A.J.    MOV      r0,#0x114a
        0x0000f848:    f2c10001    ....    MOVT     r0,#0x1001
        0x0000f84c:    7801        .x      LDRB     r1,[r0,#0]
        0x0000f84e:    2900        .)      CMP      r1,#0
        0x0000f850:    d04e        N.      BEQ      0xf8f0 ; am_hal_pwrctrl_low_power_init + 224
        0x0000f852:    7841        Ax      LDRB     r1,[r0,#1]
        0x0000f854:    2900        .)      CMP      r1,#0
        0x0000f856:    f000808e    ....    BEQ.W    0xf976 ; am_hal_pwrctrl_low_power_init + 358
        0x0000f85a:    5960        `Y      LDR      r0,[r4,r5]
        0x0000f85c:    f00000fe    ....    AND      r0,r0,#0xfe
        0x0000f860:    2812        .(      CMP      r0,#0x12
        0x0000f862:    d303        ..      BCC      0xf86c ; am_hal_pwrctrl_low_power_init + 92
        0x0000f864:    68e0        .h      LDR      r0,[r4,#0xc]
        0x0000f866:    f0207080     ..p    BIC      r0,r0,#0x1000000
        0x0000f86a:    60e0        .`      STR      r0,[r4,#0xc]
        0x0000f86c:    f2410600    A...    MOVW     r6,#0x1000
        0x0000f870:    200c        .       MOVS     r0,#0xc
        0x0000f872:    2100        .!      MOVS     r1,#0
        0x0000f874:    f2c40602    ....    MOVT     r6,#0x4002
        0x0000f878:    f7fdfc2c    ..,.    BL       am_hal_cachectrl_control ; 0xd0d4
        0x0000f87c:    69b0        .i      LDR      r0,[r6,#0x18]
        0x0000f87e:    05c0        ..      LSLS     r0,r0,#23
        0x0000f880:    f10080c0    ....    BMI.W    0xfa04 ; am_hal_pwrctrl_low_power_init + 500
        0x0000f884:    5960        `Y      LDR      r0,[r4,r5]
        0x0000f886:    f00000fe    ....    AND      r0,r0,#0xfe
        0x0000f88a:    2812        .(      CMP      r0,#0x12
        0x0000f88c:    d317        ..      BCC      0xf8be ; am_hal_pwrctrl_low_power_init + 174
        0x0000f88e:    f7fefd2d    ..-.    BL       am_hal_interrupt_master_disable ; 0xe2ec
        0x0000f892:    9001        ..      STR      r0,[sp,#4]
        0x0000f894:    69a0        .i      LDR      r0,[r4,#0x18]
        0x0000f896:    2119        .!      MOVS     r1,#0x19
        0x0000f898:    f361108b    a...    BFI      r0,r1,#6,#6
        0x0000f89c:    61a0        .a      STR      r0,[r4,#0x18]
        0x0000f89e:    69a0        .i      LDR      r0,[r4,#0x18]
        0x0000f8a0:    210c        .!      MOVS     r1,#0xc
        0x0000f8a2:    f3610005    a...    BFI      r0,r1,#0,#6
        0x0000f8a6:    61a0        .a      STR      r0,[r4,#0x18]
        0x0000f8a8:    f244003c    D.<.    MOV      r0,#0x403c
        0x0000f8ac:    f2c40000    ....    MOVT     r0,#0x4000
        0x0000f8b0:    6801        .h      LDR      r1,[r0,#0]
        0x0000f8b2:    f4210180    !...    BIC      r1,r1,#0x400000
        0x0000f8b6:    6001        .`      STR      r1,[r0,#0]
        0x0000f8b8:    9801        ..      LDR      r0,[sp,#4]
        0x0000f8ba:    f7fefd1f    ....    BL       am_hal_interrupt_master_set ; 0xe2fc
        0x0000f8be:    f64f40c8    O..@    MOV      r0,#0xfcc8
        0x0000f8c2:    f6cf70ff    ...p    MOVT     r0,#0xffff
        0x0000f8c6:    5822        "X      LDR      r2,[r4,r0]
        0x0000f8c8:    f5a4714e    ..Nq    SUB      r1,r4,#0x338
        0x0000f8cc:    f0420201    B...    ORR      r2,r2,#1
        0x0000f8d0:    5022        "P      STR      r2,[r4,r0]
        0x0000f8d2:    2501        .%      MOVS     r5,#1
        0x0000f8d4:    f2427010    B..p    MOV      r0,#0x2710
        0x0000f8d8:    2207        ."      MOVS     r2,#7
        0x0000f8da:    2307        .#      MOVS     r3,#7
        0x0000f8dc:    9500        ..      STR      r5,[sp,#0]
        0x0000f8de:    f7fefaff    ....    BL       am_hal_flash_delay_status_check ; 0xdee0
        0x0000f8e2:    2800        .(      CMP      r0,#0
        0x0000f8e4:    f0008086    ....    BEQ.W    0xf9f4 ; am_hal_pwrctrl_low_power_init + 484
        0x0000f8e8:    2004        .       MOVS     r0,#4
        0x0000f8ea:    b002        ..      ADD      sp,sp,#8
        0x0000f8ec:    bd70        p.      POP      {r4-r6,pc}
        0x0000f8ee:    bf00        ..      NOP      
        0x0000f8f0:    2101        .!      MOVS     r1,#1
        0x0000f8f2:    7001        .p      STRB     r1,[r0,#0]
        0x0000f8f4:    6821        !h      LDR      r1,[r4,#0]
        0x0000f8f6:    6823        #h      LDR      r3,[r4,#0]
        0x0000f8f8:    f3c15185    ...Q    UBFX     r1,r1,#22,#6
        0x0000f8fc:    390c        .9      SUBS     r1,r1,#0xc
        0x0000f8fe:    f04f0200    O...    MOV      r2,#0
        0x0000f902:    bf38        8.      IT       CC
        0x0000f904:    4611        .F      MOVCC    r1,r2
        0x0000f906:    f023637c    #.|c    BIC      r3,r3,#0xfc00000
        0x0000f90a:    ea435181    C..Q    ORR      r1,r3,r1,LSL #22
        0x0000f90e:    6021        !`      STR      r1,[r4,#0]
        0x0000f910:    6821        !h      LDR      r1,[r4,#0]
        0x0000f912:    6823        #h      LDR      r3,[r4,#0]
        0x0000f914:    f3c12185    ...!    UBFX     r1,r1,#10,#6
        0x0000f918:    390d        .9      SUBS     r1,r1,#0xd
        0x0000f91a:    bf38        8.      IT       CC
        0x0000f91c:    4611        .F      MOVCC    r1,r2
        0x0000f91e:    f423427c    #.|B    BIC      r2,r3,#0xfc00
        0x0000f922:    ea422181    B..!    ORR      r1,r2,r1,LSL #10
        0x0000f926:    6021        !`      STR      r1,[r4,#0]
        0x0000f928:    6861        ah      LDR      r1,[r4,#4]
        0x0000f92a:    2208        ."      MOVS     r2,#8
        0x0000f92c:    f3625117    b..Q    BFI      r1,r2,#20,#4
        0x0000f930:    6061        a`      STR      r1,[r4,#4]
        0x0000f932:    6861        ah      LDR      r1,[r4,#4]
        0x0000f934:    2305        .#      MOVS     r3,#5
        0x0000f936:    f3634113    c..A    BFI      r1,r3,#16,#4
        0x0000f93a:    6061        a`      STR      r1,[r4,#4]
        0x0000f93c:    68e1        .h      LDR      r1,[r4,#0xc]
        0x0000f93e:    f3620103    b...    BFI      r1,r2,#0,#4
        0x0000f942:    60e1        .`      STR      r1,[r4,#0xc]
        0x0000f944:    68a1        .h      LDR      r1,[r4,#8]
        0x0000f946:    2206        ."      MOVS     r2,#6
        0x0000f948:    f36261de    b..a    BFI      r1,r2,#27,#4
        0x0000f94c:    60a1        .`      STR      r1,[r4,#8]
        0x0000f94e:    68e1        .h      LDR      r1,[r4,#0xc]
        0x0000f950:    f4410100    A...    ORR      r1,r1,#0x800000
        0x0000f954:    60e1        .`      STR      r1,[r4,#0xc]
        0x0000f956:    68e1        .h      LDR      r1,[r4,#0xc]
        0x0000f958:    f0217180    !..q    BIC      r1,r1,#0x1000000
        0x0000f95c:    60e1        .`      STR      r1,[r4,#0xc]
        0x0000f95e:    6861        ah      LDR      r1,[r4,#4]
        0x0000f960:    f0415140    A.@Q    ORR      r1,r1,#0x30000000
        0x0000f964:    6061        a`      STR      r1,[r4,#4]
        0x0000f966:    6861        ah      LDR      r1,[r4,#4]
        0x0000f968:    f041011f    A...    ORR      r1,r1,#0x1f
        0x0000f96c:    6061        a`      STR      r1,[r4,#4]
        0x0000f96e:    7841        Ax      LDRB     r1,[r0,#1]
        0x0000f970:    2900        .)      CMP      r1,#0
        0x0000f972:    f47faf72    ..r.    BNE      0xf85a ; am_hal_pwrctrl_low_power_init + 74
        0x0000f976:    2101        .!      MOVS     r1,#1
        0x0000f978:    7041        Ap      STRB     r1,[r0,#1]
        0x0000f97a:    f6430038    C.8.    MOV      r0,#0x3838
        0x0000f97e:    f2c50002    ....    MOVT     r0,#0x5002
        0x0000f982:    4601        .F      MOV      r1,r0
        0x0000f984:    f8512b38    Q.8+    LDR      r2,[r1],#0x38
        0x0000f988:    f0120208    ....    ANDS     r2,r2,#8
        0x0000f98c:    f5a47232    ..2r    SUB      r2,r4,#0x2c8
        0x0000f990:    bf08        ..      IT       EQ
        0x0000f992:    f1000234    ..4.    ADDEQ    r2,r0,#0x34
        0x0000f996:    6810        .h      LDR      r0,[r2,#0]
        0x0000f998:    f64f5238    O.8R    MOV      r2,#0xfd38
        0x0000f99c:    f6cf72ff    ...r    MOVT     r2,#0xffff
        0x0000f9a0:    bf18        ..      IT       NE
        0x0000f9a2:    4621        !F      MOVNE    r1,r4
        0x0000f9a4:    58a3        .X      LDR      r3,[r4,r2]
        0x0000f9a6:    f000003f    ..?.    AND      r0,r0,#0x3f
        0x0000f9aa:    f023033f    #.?.    BIC      r3,r3,#0x3f
        0x0000f9ae:    283c        <(      CMP      r0,#0x3c
        0x0000f9b0:    bf28        (.      IT       CS
        0x0000f9b2:    203c        <       MOVCS    r0,#0x3c
        0x0000f9b4:    50a3        .P      STR      r3,[r4,r2]
        0x0000f9b6:    58a3        .X      LDR      r3,[r4,r2]
        0x0000f9b8:    3003        .0      ADDS     r0,#3
        0x0000f9ba:    4318        .C      ORRS     r0,r0,r3
        0x0000f9bc:    50a0        .P      STR      r0,[r4,r2]
        0x0000f9be:    6808        .h      LDR      r0,[r1,#0]
        0x0000f9c0:    6821        !h      LDR      r1,[r4,#0]
        0x0000f9c2:    f3c04005    ...@    UBFX     r0,r0,#16,#6
        0x0000f9c6:    f421117c    !.|.    BIC      r1,r1,#0x3f0000
        0x0000f9ca:    283a        :(      CMP      r0,#0x3a
        0x0000f9cc:    bf28        (.      IT       CS
        0x0000f9ce:    203a        :       MOVCS    r0,#0x3a
        0x0000f9d0:    6021        !`      STR      r1,[r4,#0]
        0x0000f9d2:    f44f21a0    O..!    MOV      r1,#0x50000
        0x0000f9d6:    eb014000    ...@    ADD      r0,r1,r0,LSL #16
        0x0000f9da:    6821        !h      LDR      r1,[r4,#0]
        0x0000f9dc:    f400107c    ..|.    AND      r0,r0,#0x3f0000
        0x0000f9e0:    4308        .C      ORRS     r0,r0,r1
        0x0000f9e2:    6020         `      STR      r0,[r4,#0]
        0x0000f9e4:    5960        `Y      LDR      r0,[r4,r5]
        0x0000f9e6:    f00000fe    ....    AND      r0,r0,#0xfe
        0x0000f9ea:    2812        .(      CMP      r0,#0x12
        0x0000f9ec:    f4bfaf3a    ..:.    BCS      0xf864 ; am_hal_pwrctrl_low_power_init + 84
        0x0000f9f0:    e73c        <.      B        0xf86c ; am_hal_pwrctrl_low_power_init + 92
        0x0000f9f2:    bf00        ..      NOP      
        0x0000f9f4:    6830        0h      LDR      r0,[r6,#0]
        0x0000f9f6:    f0400001    @...    ORR      r0,r0,#1
        0x0000f9fa:    6030        0`      STR      r0,[r6,#0]
        0x0000f9fc:    6a70        pj      LDR      r0,[r6,#0x24]
        0x0000f9fe:    f0400040    @.@.    ORR      r0,r0,#0x40
        0x0000fa02:    6270        pb      STR      r0,[r6,#0x24]
        0x0000fa04:    f7fdf954    ..T.    BL       am_hal_burst_ldo_charge ; 0xccb0
        0x0000fa08:    2000        .       MOVS     r0,#0
        0x0000fa0a:    b002        ..      ADD      sp,sp,#8
        0x0000fa0c:    bd70        p.      POP      {r4-r6,pc}
        0x0000fa0e:    0000        ..      MOVS     r0,r0
    am_hal_pwrctrl_periph_disable
        0x0000fa10:    b570        p.      PUSH     {r4-r6,lr}
        0x0000fa12:    b082        ..      SUB      sp,sp,#8
        0x0000fa14:    f2410508    A...    MOV      r5,#0x1008
        0x0000fa18:    4604        .F      MOV      r4,r0
        0x0000fa1a:    f2c40502    ....    MOVT     r5,#0x4002
        0x0000fa1e:    f7fefc65    ..e.    BL       am_hal_interrupt_master_disable ; 0xe2ec
        0x0000fa22:    f24172c4    A..r    MOV      r2,#0x17c4
        0x0000fa26:    9001        ..      STR      r0,[sp,#4]
        0x0000fa28:    eb040144    ..D.    ADD      r1,r4,r4,LSL #1
        0x0000fa2c:    f2c00201    ....    MOVT     r2,#1
        0x0000fa30:    f8524021    R.!@    LDR      r4,[r2,r1,LSL #2]
        0x0000fa34:    6828        (h      LDR      r0,[r5,#0]
        0x0000fa36:    eb020681    ....    ADD      r6,r2,r1,LSL #2
        0x0000fa3a:    43a0        .C      BICS     r0,r0,r4
        0x0000fa3c:    6028        (`      STR      r0,[r5,#0]
        0x0000fa3e:    9801        ..      LDR      r0,[sp,#4]
        0x0000fa40:    f7fefc5c    ..\.    BL       am_hal_interrupt_master_set ; 0xe2fc
        0x0000fa44:    20a0        .       MOVS     r0,#0xa0
        0x0000fa46:    f7fefa35    ..5.    BL       am_hal_flash_delay ; 0xdeb4
        0x0000fa4a:    6928        (i      LDR      r0,[r5,#0x10]
        0x0000fa4c:    6876        vh      LDR      r6,[r6,#4]
        0x0000fa4e:    4206        .B      TST      r6,r0
        0x0000fa50:    d003        ..      BEQ      0xfa5a ; am_hal_pwrctrl_periph_disable + 74
        0x0000fa52:    20a0        .       MOVS     r0,#0xa0
        0x0000fa54:    f7fefa2e    ....    BL       am_hal_flash_delay ; 0xdeb4
        0x0000fa58:    6928        (i      LDR      r0,[r5,#0x10]
        0x0000fa5a:    6928        (i      LDR      r0,[r5,#0x10]
        0x0000fa5c:    4206        .B      TST      r6,r0
        0x0000fa5e:    d00f        ..      BEQ      0xfa80 ; am_hal_pwrctrl_periph_disable + 112
        0x0000fa60:    6829        )h      LDR      r1,[r5,#0]
        0x0000fa62:    2e0f        ..      CMP      r6,#0xf
        0x0000fa64:    f04f0001    O...    MOV      r0,#1
        0x0000fa68:    dc0e        ..      BGT      0xfa88 ; am_hal_pwrctrl_periph_disable + 120
        0x0000fa6a:    2e04        ..      CMP      r6,#4
        0x0000fa6c:    d01a        ..      BEQ      0xfaa4 ; am_hal_pwrctrl_periph_disable + 148
        0x0000fa6e:    2e08        ..      CMP      r6,#8
        0x0000fa70:    d115        ..      BNE      0xfa9e ; am_hal_pwrctrl_periph_disable + 142
        0x0000fa72:    f0110f0e    ....    TST      r1,#0xe
        0x0000fa76:    d10e        ..      BNE      0xfa96 ; am_hal_pwrctrl_periph_disable + 134
        0x0000fa78:    2001        .       MOVS     r0,#1
        0x0000fa7a:    b002        ..      ADD      sp,sp,#8
        0x0000fa7c:    bd70        p.      POP      {r4-r6,pc}
        0x0000fa7e:    bf00        ..      NOP      
        0x0000fa80:    2000        .       MOVS     r0,#0
        0x0000fa82:    b002        ..      ADD      sp,sp,#8
        0x0000fa84:    bd70        p.      POP      {r4-r6,pc}
        0x0000fa86:    bf00        ..      NOP      
        0x0000fa88:    2e10        ..      CMP      r6,#0x10
        0x0000fa8a:    d011        ..      BEQ      0xfab0 ; am_hal_pwrctrl_periph_disable + 160
        0x0000fa8c:    2e40        @.      CMP      r6,#0x40
        0x0000fa8e:    d106        ..      BNE      0xfa9e ; am_hal_pwrctrl_periph_disable + 142
        0x0000fa90:    f4115f60    ..`_    TST      r1,#0x3800
        0x0000fa94:    d0f0        ..      BEQ      0xfa78 ; am_hal_pwrctrl_periph_disable + 104
        0x0000fa96:    ea110004    ....    ANDS     r0,r1,r4
        0x0000fa9a:    bf18        ..      IT       NE
        0x0000fa9c:    2001        .       MOVNE    r0,#1
        0x0000fa9e:    b002        ..      ADD      sp,sp,#8
        0x0000faa0:    bd70        p.      POP      {r4-r6,pc}
        0x0000faa2:    bf00        ..      NOP      
        0x0000faa4:    f2405081    @..P    MOV      r0,#0x581
        0x0000faa8:    4201        .B      TST      r1,r0
        0x0000faaa:    d1f4        ..      BNE      0xfa96 ; am_hal_pwrctrl_periph_disable + 134
        0x0000faac:    e7e4        ..      B        0xfa78 ; am_hal_pwrctrl_periph_disable + 104
        0x0000faae:    bf00        ..      NOP      
        0x0000fab0:    f0110f70    ..p.    TST      r1,#0x70
        0x0000fab4:    d1ef        ..      BNE      0xfa96 ; am_hal_pwrctrl_periph_disable + 134
        0x0000fab6:    e7df        ..      B        0xfa78 ; am_hal_pwrctrl_periph_disable + 104
    am_hal_pwrctrl_periph_enable
        0x0000fab8:    b570        p.      PUSH     {r4-r6,lr}
        0x0000faba:    b082        ..      SUB      sp,sp,#8
        0x0000fabc:    f2410508    A...    MOV      r5,#0x1008
        0x0000fac0:    4604        .F      MOV      r4,r0
        0x0000fac2:    f2c40502    ....    MOVT     r5,#0x4002
        0x0000fac6:    f7fefc11    ....    BL       am_hal_interrupt_master_disable ; 0xe2ec
        0x0000faca:    f24172c4    A..r    MOV      r2,#0x17c4
        0x0000face:    9001        ..      STR      r0,[sp,#4]
        0x0000fad0:    eb040144    ..D.    ADD      r1,r4,r4,LSL #1
        0x0000fad4:    f2c00201    ....    MOVT     r2,#1
        0x0000fad8:    f8524021    R.!@    LDR      r4,[r2,r1,LSL #2]
        0x0000fadc:    6828        (h      LDR      r0,[r5,#0]
        0x0000fade:    eb020681    ....    ADD      r6,r2,r1,LSL #2
        0x0000fae2:    4320         C      ORRS     r0,r0,r4
        0x0000fae4:    6028        (`      STR      r0,[r5,#0]
        0x0000fae6:    9801        ..      LDR      r0,[sp,#4]
        0x0000fae8:    f7fefc08    ....    BL       am_hal_interrupt_master_set ; 0xe2fc
        0x0000faec:    20a0        .       MOVS     r0,#0xa0
        0x0000faee:    f7fef9e1    ....    BL       am_hal_flash_delay ; 0xdeb4
        0x0000faf2:    6928        (i      LDR      r0,[r5,#0x10]
        0x0000faf4:    6876        vh      LDR      r6,[r6,#4]
        0x0000faf6:    4206        .B      TST      r6,r0
        0x0000faf8:    d006        ..      BEQ      0xfb08 ; am_hal_pwrctrl_periph_enable + 80
        0x0000fafa:    6928        (i      LDR      r0,[r5,#0x10]
        0x0000fafc:    4206        .B      TST      r6,r0
        0x0000fafe:    d00a        ..      BEQ      0xfb16 ; am_hal_pwrctrl_periph_enable + 94
        0x0000fb00:    2000        .       MOVS     r0,#0
        0x0000fb02:    b002        ..      ADD      sp,sp,#8
        0x0000fb04:    bd70        p.      POP      {r4-r6,pc}
        0x0000fb06:    bf00        ..      NOP      
        0x0000fb08:    20a0        .       MOVS     r0,#0xa0
        0x0000fb0a:    f7fef9d3    ....    BL       am_hal_flash_delay ; 0xdeb4
        0x0000fb0e:    6928        (i      LDR      r0,[r5,#0x10]
        0x0000fb10:    6928        (i      LDR      r0,[r5,#0x10]
        0x0000fb12:    4206        .B      TST      r6,r0
        0x0000fb14:    d1f4        ..      BNE      0xfb00 ; am_hal_pwrctrl_periph_enable + 72
        0x0000fb16:    f7fefbe9    ....    BL       am_hal_interrupt_master_disable ; 0xe2ec
        0x0000fb1a:    9000        ..      STR      r0,[sp,#0]
        0x0000fb1c:    6828        (h      LDR      r0,[r5,#0]
        0x0000fb1e:    43a0        .C      BICS     r0,r0,r4
        0x0000fb20:    6028        (`      STR      r0,[r5,#0]
        0x0000fb22:    9800        ..      LDR      r0,[sp,#0]
        0x0000fb24:    f7fefbea    ....    BL       am_hal_interrupt_master_set ; 0xe2fc
        0x0000fb28:    2001        .       MOVS     r0,#1
        0x0000fb2a:    b002        ..      ADD      sp,sp,#8
        0x0000fb2c:    bd70        p.      POP      {r4-r6,pc}
        0x0000fb2e:    0000        ..      MOVS     r0,r0
    am_hal_pwrctrl_wa_vddf_boost
        0x0000fb30:    b510        ..      PUSH     {r4,lr}
        0x0000fb32:    b084        ..      SUB      sp,sp,#0x10
        0x0000fb34:    f7fefbda    ....    BL       am_hal_interrupt_master_disable ; 0xe2ec
        0x0000fb38:    9001        ..      STR      r0,[sp,#4]
        0x0000fb3a:    f2410024    A.$.    MOV      r0,#0x1024
        0x0000fb3e:    f2c40002    ....    MOVT     r0,#0x4002
        0x0000fb42:    6804        .h      LDR      r4,[r0,#0]
        0x0000fb44:    f7fdf916    ....    BL       am_hal_burst_ldo_patch_check ; 0xcd74
        0x0000fb48:    07e1        ..      LSLS     r1,r4,#31
        0x0000fb4a:    d111        ..      BNE      0xfb70 ; am_hal_pwrctrl_wa_vddf_boost + 64
        0x0000fb4c:    2800        .(      CMP      r0,#0
        0x0000fb4e:    d049        I.      BEQ      0xfbe4 ; am_hal_pwrctrl_wa_vddf_boost + 180
        0x0000fb50:    f7fefbcc    ....    BL       am_hal_interrupt_master_disable ; 0xe2ec
        0x0000fb54:    9003        ..      STR      r0,[sp,#0xc]
        0x0000fb56:    f7fdf90d    ....    BL       am_hal_burst_ldo_patch_check ; 0xcd74
        0x0000fb5a:    b1c8        ..      CBZ      r0,0xfb90 ; am_hal_pwrctrl_wa_vddf_boost + 96
        0x0000fb5c:    f643006c    C.l.    MOV      r0,#0x386c
        0x0000fb60:    f2c50002    ....    MOVT     r0,#0x5002
        0x0000fb64:    6800        .h      LDR      r0,[r0,#0]
        0x0000fb66:    f000003f    ..?.    AND      r0,r0,#0x3f
        0x0000fb6a:    3003        .0      ADDS     r0,#3
        0x0000fb6c:    e011        ..      B        0xfb92 ; am_hal_pwrctrl_wa_vddf_boost + 98
        0x0000fb6e:    bf00        ..      NOP      
        0x0000fb70:    b3c0        ..      CBZ      r0,0xfbe4 ; am_hal_pwrctrl_wa_vddf_boost + 180
        0x0000fb72:    f7fefbbb    ....    BL       am_hal_interrupt_master_disable ; 0xe2ec
        0x0000fb76:    9002        ..      STR      r0,[sp,#8]
        0x0000fb78:    f7fdf8fc    ....    BL       am_hal_burst_ldo_patch_check ; 0xcd74
        0x0000fb7c:    b1e0        ..      CBZ      r0,0xfbb8 ; am_hal_pwrctrl_wa_vddf_boost + 136
        0x0000fb7e:    f643006c    C.l.    MOV      r0,#0x386c
        0x0000fb82:    f2c50002    ....    MOVT     r0,#0x5002
        0x0000fb86:    6840        @h      LDR      r0,[r0,#4]
        0x0000fb88:    f3c04005    ...@    UBFX     r0,r0,#16,#6
        0x0000fb8c:    3005        .0      ADDS     r0,#5
        0x0000fb8e:    e014        ..      B        0xfbba ; am_hal_pwrctrl_wa_vddf_boost + 138
        0x0000fb90:    2003        .       MOVS     r0,#3
        0x0000fb92:    2188        .!      MOVS     r1,#0x88
        0x0000fb94:    f2c40102    ....    MOVT     r1,#0x4002
        0x0000fb98:    680a        .h      LDR      r2,[r1,#0]
        0x0000fb9a:    283f        ?(      CMP      r0,#0x3f
        0x0000fb9c:    bf28        (.      IT       CS
        0x0000fb9e:    203f        ?       MOVCS    r0,#0x3f
        0x0000fba0:    f022023f    ".?.    BIC      r2,r2,#0x3f
        0x0000fba4:    4310        .C      ORRS     r0,r0,r2
        0x0000fba6:    6008        .`      STR      r0,[r1,#0]
        0x0000fba8:    f44f70a0    O..p    MOV      r0,#0x140
        0x0000fbac:    f7fef982    ....    BL       am_hal_flash_delay ; 0xdeb4
        0x0000fbb0:    9803        ..      LDR      r0,[sp,#0xc]
        0x0000fbb2:    f7fefba3    ....    BL       am_hal_interrupt_master_set ; 0xe2fc
        0x0000fbb6:    e015        ..      B        0xfbe4 ; am_hal_pwrctrl_wa_vddf_boost + 180
        0x0000fbb8:    2005        .       MOVS     r0,#5
        0x0000fbba:    2188        .!      MOVS     r1,#0x88
        0x0000fbbc:    f2c40102    ....    MOVT     r1,#0x4002
        0x0000fbc0:    f8d122c8    ..."    LDR      r2,[r1,#0x2c8]
        0x0000fbc4:    283f        ?(      CMP      r0,#0x3f
        0x0000fbc6:    bf28        (.      IT       CS
        0x0000fbc8:    203f        ?       MOVCS    r0,#0x3f
        0x0000fbca:    f422127c    ".|.    BIC      r2,r2,#0x3f0000
        0x0000fbce:    ea424000    B..@    ORR      r0,r2,r0,LSL #16
        0x0000fbd2:    f8c102c8    ....    STR      r0,[r1,#0x2c8]
        0x0000fbd6:    f44f70a0    O..p    MOV      r0,#0x140
        0x0000fbda:    f7fef96b    ..k.    BL       am_hal_flash_delay ; 0xdeb4
        0x0000fbde:    9802        ..      LDR      r0,[sp,#8]
        0x0000fbe0:    f7fefb8c    ....    BL       am_hal_interrupt_master_set ; 0xe2fc
        0x0000fbe4:    f44f70a0    O..p    MOV      r0,#0x140
        0x0000fbe8:    f7fef964    ..d.    BL       am_hal_flash_delay ; 0xdeb4
        0x0000fbec:    9801        ..      LDR      r0,[sp,#4]
        0x0000fbee:    b004        ..      ADD      sp,sp,#0x10
        0x0000fbf0:    e8bd4010    ...@    POP      {r4,lr}
        0x0000fbf4:    f7febb82    ....    B        am_hal_interrupt_master_set ; 0xe2fc
    am_hal_pwrctrl_wa_vddf_restore
        0x0000fbf8:    b510        ..      PUSH     {r4,lr}
        0x0000fbfa:    b084        ..      SUB      sp,sp,#0x10
        0x0000fbfc:    f7fefb76    ..v.    BL       am_hal_interrupt_master_disable ; 0xe2ec
        0x0000fc00:    9001        ..      STR      r0,[sp,#4]
        0x0000fc02:    f2410024    A.$.    MOV      r0,#0x1024
        0x0000fc06:    f2c40002    ....    MOVT     r0,#0x4002
        0x0000fc0a:    6804        .h      LDR      r4,[r0,#0]
        0x0000fc0c:    f7fdf8b2    ....    BL       am_hal_burst_ldo_patch_check ; 0xcd74
        0x0000fc10:    07e1        ..      LSLS     r1,r4,#31
        0x0000fc12:    d10f        ..      BNE      0xfc34 ; am_hal_pwrctrl_wa_vddf_restore + 60
        0x0000fc14:    2800        .(      CMP      r0,#0
        0x0000fc16:    d041        A.      BEQ      0xfc9c ; am_hal_pwrctrl_wa_vddf_restore + 164
        0x0000fc18:    f7fefb68    ..h.    BL       am_hal_interrupt_master_disable ; 0xe2ec
        0x0000fc1c:    9003        ..      STR      r0,[sp,#0xc]
        0x0000fc1e:    f7fdf8a9    ....    BL       am_hal_burst_ldo_patch_check ; 0xcd74
        0x0000fc22:    b1b8        ..      CBZ      r0,0xfc54 ; am_hal_pwrctrl_wa_vddf_restore + 92
        0x0000fc24:    f643006c    C.l.    MOV      r0,#0x386c
        0x0000fc28:    f2c50002    ....    MOVT     r0,#0x5002
        0x0000fc2c:    6800        .h      LDR      r0,[r0,#0]
        0x0000fc2e:    f000003f    ..?.    AND      r0,r0,#0x3f
        0x0000fc32:    e010        ..      B        0xfc56 ; am_hal_pwrctrl_wa_vddf_restore + 94
        0x0000fc34:    b390        ..      CBZ      r0,0xfc9c ; am_hal_pwrctrl_wa_vddf_restore + 164
        0x0000fc36:    f7fefb59    ..Y.    BL       am_hal_interrupt_master_disable ; 0xe2ec
        0x0000fc3a:    9002        ..      STR      r0,[sp,#8]
        0x0000fc3c:    f7fdf89a    ....    BL       am_hal_burst_ldo_patch_check ; 0xcd74
        0x0000fc40:    b1d0        ..      CBZ      r0,0xfc78 ; am_hal_pwrctrl_wa_vddf_restore + 128
        0x0000fc42:    f643006c    C.l.    MOV      r0,#0x386c
        0x0000fc46:    f2c50002    ....    MOVT     r0,#0x5002
        0x0000fc4a:    6840        @h      LDR      r0,[r0,#4]
        0x0000fc4c:    f400107c    ..|.    AND      r0,r0,#0x3f0000
        0x0000fc50:    e013        ..      B        0xfc7a ; am_hal_pwrctrl_wa_vddf_restore + 130
        0x0000fc52:    bf00        ..      NOP      
        0x0000fc54:    2000        .       MOVS     r0,#0
        0x0000fc56:    2188        .!      MOVS     r1,#0x88
        0x0000fc58:    f2c40102    ....    MOVT     r1,#0x4002
        0x0000fc5c:    680a        .h      LDR      r2,[r1,#0]
        0x0000fc5e:    f022023f    ".?.    BIC      r2,r2,#0x3f
        0x0000fc62:    4410        .D      ADD      r0,r0,r2
        0x0000fc64:    6008        .`      STR      r0,[r1,#0]
        0x0000fc66:    f44f70a0    O..p    MOV      r0,#0x140
        0x0000fc6a:    f7fef923    ..#.    BL       am_hal_flash_delay ; 0xdeb4
        0x0000fc6e:    9803        ..      LDR      r0,[sp,#0xc]
        0x0000fc70:    f7fefb44    ..D.    BL       am_hal_interrupt_master_set ; 0xe2fc
        0x0000fc74:    e012        ..      B        0xfc9c ; am_hal_pwrctrl_wa_vddf_restore + 164
        0x0000fc76:    bf00        ..      NOP      
        0x0000fc78:    2000        .       MOVS     r0,#0
        0x0000fc7a:    2188        .!      MOVS     r1,#0x88
        0x0000fc7c:    f2c40102    ....    MOVT     r1,#0x4002
        0x0000fc80:    f8d122c8    ..."    LDR      r2,[r1,#0x2c8]
        0x0000fc84:    f422127c    ".|.    BIC      r2,r2,#0x3f0000
        0x0000fc88:    4310        .C      ORRS     r0,r0,r2
        0x0000fc8a:    f8c102c8    ....    STR      r0,[r1,#0x2c8]
        0x0000fc8e:    f44f70a0    O..p    MOV      r0,#0x140
        0x0000fc92:    f7fef90f    ....    BL       am_hal_flash_delay ; 0xdeb4
        0x0000fc96:    9802        ..      LDR      r0,[sp,#8]
        0x0000fc98:    f7fefb30    ..0.    BL       am_hal_interrupt_master_set ; 0xe2fc
        0x0000fc9c:    f44f70a0    O..p    MOV      r0,#0x140
        0x0000fca0:    f7fef908    ....    BL       am_hal_flash_delay ; 0xdeb4
        0x0000fca4:    9801        ..      LDR      r0,[sp,#4]
        0x0000fca6:    b004        ..      ADD      sp,sp,#0x10
        0x0000fca8:    e8bd4010    ...@    POP      {r4,lr}
        0x0000fcac:    f7febb26    ..&.    B        am_hal_interrupt_master_set ; 0xe2fc
    am_hal_rtc_osc_disable
        0x0000fcb0:    f2442050    D.P     MOV      r0,#0x4250
        0x0000fcb4:    f2c40000    ....    MOVT     r0,#0x4000
        0x0000fcb8:    6801        .h      LDR      r1,[r0,#0]
        0x0000fcba:    f0410110    A...    ORR      r1,r1,#0x10
        0x0000fcbe:    6001        .`      STR      r1,[r0,#0]
        0x0000fcc0:    4770        pG      BX       lr
        0x0000fcc2:    0000        ..      MOVS     r0,r0
    am_hal_sysctrl_sleep
        0x0000fcc4:    b5b0        ..      PUSH     {r4,r5,r7,lr}
        0x0000fcc6:    b082        ..      SUB      sp,sp,#8
        0x0000fcc8:    4604        .F      MOV      r4,r0
        0x0000fcca:    f7fefb0f    ....    BL       am_hal_interrupt_master_disable ; 0xe2ec
        0x0000fcce:    9000        ..      STR      r0,[sp,#0]
        0x0000fcd0:    f6444070    D.p@    MOV      r0,#0x4c70
        0x0000fcd4:    f2c10001    ....    MOVT     r0,#0x1001
        0x0000fcd8:    6801        .h      LDR      r1,[r0,#0]
        0x0000fcda:    3101        .1      ADDS     r1,#1
        0x0000fcdc:    6001        .`      STR      r1,[r0,#0]
        0x0000fcde:    f2440034    D.4.    MOV      r0,#0x4034
        0x0000fce2:    f2c40000    ....    MOVT     r0,#0x4000
        0x0000fce6:    6800        .h      LDR      r0,[r0,#0]
        0x0000fce8:    f0100504    ....    ANDS     r5,r0,#4
        0x0000fcec:    d00a        ..      BEQ      0xfd04 ; am_hal_sysctrl_sleep + 64
        0x0000fcee:    f10d0007    ....    ADD      r0,sp,#7
        0x0000fcf2:    f7fdf84b    ..K.    BL       am_hal_burst_mode_disable ; 0xcd8c
        0x0000fcf6:    bb08        ..      CBNZ     r0,0xfd3c ; am_hal_sysctrl_sleep + 120
        0x0000fcf8:    f89d0007    ....    LDRB     r0,[sp,#7]
        0x0000fcfc:    2801        .(      CMP      r0,#1
        0x0000fcfe:    d11d        ..      BNE      0xfd3c ; am_hal_sysctrl_sleep + 120
        0x0000fd00:    f7ffff7a    ..z.    BL       am_hal_pwrctrl_wa_vddf_restore ; 0xfbf8
        0x0000fd04:    f64e5010    N..P    MOV      r0,#0xed10
        0x0000fd08:    f2ce0000    ....    MOVT     r0,#0xe000
        0x0000fd0c:    b1c4        ..      CBZ      r4,0xfd40 ; am_hal_sysctrl_sleep + 124
        0x0000fd0e:    f2402150    @.P!    MOVW     r1,#0x250
        0x0000fd12:    f2c40102    ....    MOVT     r1,#0x4002
        0x0000fd16:    6809        .h      LDR      r1,[r1,#0]
        0x0000fd18:    07c9        ..      LSLS     r1,r1,#31
        0x0000fd1a:    d111        ..      BNE      0xfd40 ; am_hal_sysctrl_sleep + 124
        0x0000fd1c:    f2417104    A..q    MOV      r1,#0x1704
        0x0000fd20:    f2c10101    ....    MOVT     r1,#0x1001
        0x0000fd24:    680a        .h      LDR      r2,[r1,#0]
        0x0000fd26:    b92a        *.      CBNZ     r2,0xfd34 ; am_hal_sysctrl_sleep + 112
        0x0000fd28:    f24f0200    O...    MOVW     r2,#0xf000
        0x0000fd2c:    f6c472ff    ...r    MOVT     r2,#0x4fff
        0x0000fd30:    6812        .h      LDR      r2,[r2,#0]
        0x0000fd32:    600a        .`      STR      r2,[r1,#0]
        0x0000fd34:    6801        .h      LDR      r1,[r0,#0]
        0x0000fd36:    f0410104    A...    ORR      r1,r1,#4
        0x0000fd3a:    e004        ..      B        0xfd46 ; am_hal_sysctrl_sleep + 130
        0x0000fd3c:    e7fe        ..      B        0xfd3c ; am_hal_sysctrl_sleep + 120
        0x0000fd3e:    bf00        ..      NOP      
        0x0000fd40:    6801        .h      LDR      r1,[r0,#0]
        0x0000fd42:    f0210104    !...    BIC      r1,r1,#4
        0x0000fd46:    6001        .`      STR      r1,[r0,#0]
        0x0000fd48:    2000        .       MOVS     r0,#0
        0x0000fd4a:    f3bf8f4f    ..O.    DSB      
        0x0000fd4e:    f6c570ff    ...p    MOVT     r0,#0x5fff
        0x0000fd52:    6800        .h      LDR      r0,[r0,#0]
        0x0000fd54:    bf30        0.      WFI      
        0x0000fd56:    f3bf8f6f    ..o.    ISB      
        0x0000fd5a:    b11d        ..      CBZ      r5,0xfd64 ; am_hal_sysctrl_sleep + 160
        0x0000fd5c:    f10d0007    ....    ADD      r0,sp,#7
        0x0000fd60:    f7fdf86e    ..n.    BL       am_hal_burst_mode_enable ; 0xce40
        0x0000fd64:    9800        ..      LDR      r0,[sp,#0]
        0x0000fd66:    f7fefac9    ....    BL       am_hal_interrupt_master_set ; 0xe2fc
        0x0000fd6a:    b002        ..      ADD      sp,sp,#8
        0x0000fd6c:    bdb0        ..      POP      {r4,r5,r7,pc}
        0x0000fd6e:    0000        ..      MOVS     r0,r0
    am_hal_tpiu_enable
        0x0000fd70:    b570        p.      PUSH     {r4-r6,lr}
        0x0000fd72:    b084        ..      SUB      sp,sp,#0x10
        0x0000fd74:    6806        .h      LDR      r6,[r0,#0]
        0x0000fd76:    f6407400    @..t    MOVW     r4,#0xf00
        0x0000fd7a:    2504        .%      MOVS     r5,#4
        0x0000fd7c:    f2ce0404    ....    MOVT     r4,#0xe004
        0x0000fd80:    f2ce0504    ....    MOVT     r5,#0xe004
        0x0000fd84:    2200        ."      MOVS     r2,#0
        0x0000fd86:    f8c52300    ...#    STR      r2,[r5,#0x300]
        0x0000fd8a:    b1de        ..      CBZ      r6,0xfdc4 ; am_hal_tpiu_enable + 84
        0x0000fd8c:    2001        .       MOVS     r0,#1
        0x0000fd8e:    6028        (`      STR      r0,[r5,#0]
        0x0000fd90:    a801        ..      ADD      r0,sp,#4
        0x0000fd92:    f7fdfb39    ..9.    BL       am_hal_clkgen_status_get ; 0xd408
        0x0000fd96:    9801        ..      LDR      r0,[sp,#4]
        0x0000fd98:    1c41        A.      ADDS     r1,r0,#1
        0x0000fd9a:    d021        !.      BEQ      0xfde0 ; am_hal_tpiu_enable + 112
        0x0000fd9c:    f647317f    G..1    MOV      r1,#0x7b7f
        0x0000fda0:    f6cf71e1    ...q    MOVT     r1,#0xffe1
        0x0000fda4:    1872        r.      ADDS     r2,r6,r1
        0x0000fda6:    f5014161    ..aA    ADD      r1,r1,#0xe100
        0x0000fdaa:    08c0        ..      LSRS     r0,r0,#3
        0x0000fdac:    428a        .B      CMP      r2,r1
        0x0000fdae:    bf3c        <.      ITT      CC
        0x0000fdb0:    f2442640    D.@&    MOVCC    r6,#0x4240
        0x0000fdb4:    f2c0060f    ....    MOVTCC   r6,#0xf
        0x0000fdb8:    fbb0f0f6    ....    UDIV     r0,r0,r6
        0x0000fdbc:    3801        .8      SUBS     r0,#1
        0x0000fdbe:    b280        ..      UXTH     r0,r0
        0x0000fdc0:    e00f        ..      B        0xfde2 ; am_hal_tpiu_enable + 114
        0x0000fdc2:    bf00        ..      NOP      
        0x0000fdc4:    e9d01301    ....    LDRD     r1,r3,[r0,#4]
        0x0000fdc8:    e9d00603    ....    LDRD     r0,r6,[r0,#0xc]
        0x0000fdcc:    60ee        .`      STR      r6,[r5,#0xc]
        0x0000fdce:    f8c530ec    ...0    STR      r3,[r5,#0xec]
        0x0000fdd2:    3801        .8      SUBS     r0,#1
        0x0000fdd4:    2301        .#      MOVS     r3,#1
        0x0000fdd6:    fa03f000    ....    LSL      r0,r3,r0
        0x0000fdda:    6028        (`      STR      r0,[r5,#0]
        0x0000fddc:    6022        "`      STR      r2,[r4,#0]
        0x0000fdde:    e008        ..      B        0xfdf2 ; am_hal_tpiu_enable + 130
        0x0000fde0:    2005        .       MOVS     r0,#5
        0x0000fde2:    60e8        .`      STR      r0,[r5,#0xc]
        0x0000fde4:    2002        .       MOVS     r0,#2
        0x0000fde6:    f8c500ec    ....    STR      r0,[r5,#0xec]
        0x0000fdea:    2000        .       MOVS     r0,#0
        0x0000fdec:    6020         `      STR      r0,[r4,#0]
        0x0000fdee:    f2402101    @..!    MOV      r1,#0x201
        0x0000fdf2:    f2402050    @.P     MOVW     r0,#0x250
        0x0000fdf6:    f2c40002    ....    MOVT     r0,#0x4002
        0x0000fdfa:    6001        .`      STR      r1,[r0,#0]
        0x0000fdfc:    f44f7048    O.Hp    MOV      r0,#0x320
        0x0000fe00:    f7fef858    ..X.    BL       am_hal_flash_delay ; 0xdeb4
        0x0000fe04:    b004        ..      ADD      sp,sp,#0x10
        0x0000fe06:    bd70        p.      POP      {r4-r6,pc}
    am_iomaster3_isr
        0x0000fe08:    b580        ..      PUSH     {r7,lr}
        0x0000fe0a:    b082        ..      SUB      sp,sp,#8
        0x0000fe0c:    f644407c    D.|@    MOV      r0,#0x4c7c
        0x0000fe10:    f2c10001    ....    MOVT     r0,#0x1001
        0x0000fe14:    6800        .h      LDR      r0,[r0,#0]
        0x0000fe16:    2101        .!      MOVS     r1,#1
        0x0000fe18:    aa01        ..      ADD      r2,sp,#4
        0x0000fe1a:    f7fff91d    ....    BL       am_hal_iom_interrupt_status_get ; 0xf058
        0x0000fe1e:    b998        ..      CBNZ     r0,0xfe48 ; am_iomaster3_isr + 64
        0x0000fe20:    e7ff        ..      B        0xfe22 ; am_iomaster3_isr + 26
        0x0000fe22:    9801        ..      LDR      r0,[sp,#4]
        0x0000fe24:    b178        x.      CBZ      r0,0xfe46 ; am_iomaster3_isr + 62
        0x0000fe26:    e7ff        ..      B        0xfe28 ; am_iomaster3_isr + 32
        0x0000fe28:    f644407c    D.|@    MOV      r0,#0x4c7c
        0x0000fe2c:    f2c10001    ....    MOVT     r0,#0x1001
        0x0000fe30:    9000        ..      STR      r0,[sp,#0]
        0x0000fe32:    6800        .h      LDR      r0,[r0,#0]
        0x0000fe34:    9901        ..      LDR      r1,[sp,#4]
        0x0000fe36:    f7feff9f    ....    BL       am_hal_iom_interrupt_clear ; 0xed78
        0x0000fe3a:    9800        ..      LDR      r0,[sp,#0]
        0x0000fe3c:    6800        .h      LDR      r0,[r0,#0]
        0x0000fe3e:    9901        ..      LDR      r1,[sp,#4]
        0x0000fe40:    f7feffb0    ....    BL       am_hal_iom_interrupt_service ; 0xeda4
        0x0000fe44:    e7ff        ..      B        0xfe46 ; am_iomaster3_isr + 62
        0x0000fe46:    e7ff        ..      B        0xfe48 ; am_iomaster3_isr + 64
        0x0000fe48:    b002        ..      ADD      sp,sp,#8
        0x0000fe4a:    bd80        ..      POP      {r7,pc}
    am_util_stdio_printf
        0x0000fe4c:    b083        ..      SUB      sp,sp,#0xc
        0x0000fe4e:    b580        ..      PUSH     {r7,lr}
        0x0000fe50:    b085        ..      SUB      sp,sp,#0x14
        0x0000fe52:    9309        ..      STR      r3,[sp,#0x24]
        0x0000fe54:    9208        ..      STR      r2,[sp,#0x20]
        0x0000fe56:    9107        ..      STR      r1,[sp,#0x1c]
        0x0000fe58:    9003        ..      STR      r0,[sp,#0xc]
        0x0000fe5a:    f6444080    D..@    MOVW     r0,#0x4c80
        0x0000fe5e:    f2c10001    ....    MOVT     r0,#0x1001
        0x0000fe62:    6800        .h      LDR      r0,[r0,#0]
        0x0000fe64:    b918        ..      CBNZ     r0,0xfe6e ; am_util_stdio_printf + 34
        0x0000fe66:    e7ff        ..      B        0xfe68 ; am_util_stdio_printf + 28
        0x0000fe68:    2000        .       MOVS     r0,#0
        0x0000fe6a:    9004        ..      STR      r0,[sp,#0x10]
        0x0000fe6c:    e016        ..      B        0xfe9c ; am_util_stdio_printf + 80
        0x0000fe6e:    a807        ..      ADD      r0,sp,#0x1c
        0x0000fe70:    9001        ..      STR      r0,[sp,#4]
        0x0000fe72:    9903        ..      LDR      r1,[sp,#0xc]
        0x0000fe74:    9a01        ..      LDR      r2,[sp,#4]
        0x0000fe76:    f6444084    D..@    MOV      r0,#0x4c84
        0x0000fe7a:    f2c10001    ....    MOVT     r0,#0x1001
        0x0000fe7e:    9000        ..      STR      r0,[sp,#0]
        0x0000fe80:    f000f824    ..$.    BL       am_util_stdio_vsprintf ; 0xfecc
        0x0000fe84:    4601        .F      MOV      r1,r0
        0x0000fe86:    9800        ..      LDR      r0,[sp,#0]
        0x0000fe88:    9102        ..      STR      r1,[sp,#8]
        0x0000fe8a:    f6444180    D..A    MOVW     r1,#0x4c80
        0x0000fe8e:    f2c10101    ....    MOVT     r1,#0x1001
        0x0000fe92:    6809        .h      LDR      r1,[r1,#0]
        0x0000fe94:    4788        .G      BLX      r1
        0x0000fe96:    9802        ..      LDR      r0,[sp,#8]
        0x0000fe98:    9004        ..      STR      r0,[sp,#0x10]
        0x0000fe9a:    e7ff        ..      B        0xfe9c ; am_util_stdio_printf + 80
        0x0000fe9c:    9804        ..      LDR      r0,[sp,#0x10]
        0x0000fe9e:    b005        ..      ADD      sp,sp,#0x14
        0x0000fea0:    e8bd4080    ...@    POP      {r7,lr}
        0x0000fea4:    b003        ..      ADD      sp,sp,#0xc
        0x0000fea6:    4770        pG      BX       lr
    am_util_stdio_printf_init
        0x0000fea8:    b081        ..      SUB      sp,sp,#4
        0x0000feaa:    9000        ..      STR      r0,[sp,#0]
        0x0000feac:    9800        ..      LDR      r0,[sp,#0]
        0x0000feae:    f6444180    D..A    MOVW     r1,#0x4c80
        0x0000feb2:    f2c10101    ....    MOVT     r1,#0x1001
        0x0000feb6:    6008        .`      STR      r0,[r1,#0]
        0x0000feb8:    b001        ..      ADD      sp,sp,#4
        0x0000feba:    4770        pG      BX       lr
    am_util_stdio_terminal_clear
        0x0000febc:    b580        ..      PUSH     {r7,lr}
        0x0000febe:    f6416060    A.``    MOVW     r0,#0x1e60
        0x0000fec2:    f2c00001    ....    MOVT     r0,#1
        0x0000fec6:    f7ffffc1    ....    BL       am_util_stdio_printf ; 0xfe4c
        0x0000feca:    bd80        ..      POP      {r7,pc}
    am_util_stdio_vsprintf
        0x0000fecc:    b580        ..      PUSH     {r7,lr}
        0x0000fece:    b09e        ..      SUB      sp,sp,#0x78
        0x0000fed0:    921d        ..      STR      r2,[sp,#0x74]
        0x0000fed2:    901c        ..      STR      r0,[sp,#0x70]
        0x0000fed4:    911b        ..      STR      r1,[sp,#0x6c]
        0x0000fed6:    2000        .       MOVS     r0,#0
        0x0000fed8:    9014        ..      STR      r0,[sp,#0x50]
        0x0000feda:    900e        ..      STR      r0,[sp,#0x38]
        0x0000fedc:    e7ff        ..      B        0xfede ; am_util_stdio_vsprintf + 18
        0x0000fede:    981b        ..      LDR      r0,[sp,#0x6c]
        0x0000fee0:    7800        .x      LDRB     r0,[r0,#0]
        0x0000fee2:    2800        .(      CMP      r0,#0
        0x0000fee4:    f0008312    ....    BEQ.W    0x1050c ; am_util_stdio_vsprintf + 1600
        0x0000fee8:    e7ff        ..      B        0xfeea ; am_util_stdio_vsprintf + 30
        0x0000feea:    2006        .       MOVS     r0,#6
        0x0000feec:    9011        ..      STR      r0,[sp,#0x44]
        0x0000feee:    981b        ..      LDR      r0,[sp,#0x6c]
        0x0000fef0:    7800        .x      LDRB     r0,[r0,#0]
        0x0000fef2:    2825        %(      CMP      r0,#0x25
        0x0000fef4:    d027        '.      BEQ      0xff46 ; am_util_stdio_vsprintf + 122
        0x0000fef6:    e7ff        ..      B        0xfef8 ; am_util_stdio_vsprintf + 44
        0x0000fef8:    981c        ..      LDR      r0,[sp,#0x70]
        0x0000fefa:    b1e8        ..      CBZ      r0,0xff38 ; am_util_stdio_vsprintf + 108
        0x0000fefc:    e7ff        ..      B        0xfefe ; am_util_stdio_vsprintf + 50
        0x0000fefe:    981b        ..      LDR      r0,[sp,#0x6c]
        0x0000ff00:    7800        .x      LDRB     r0,[r0,#0]
        0x0000ff02:    280a        .(      CMP      r0,#0xa
        0x0000ff04:    d111        ..      BNE      0xff2a ; am_util_stdio_vsprintf + 94
        0x0000ff06:    e7ff        ..      B        0xff08 ; am_util_stdio_vsprintf + 60
        0x0000ff08:    f6444076    D.v@    MOV      r0,#0x4c76
        0x0000ff0c:    f2c10001    ....    MOVT     r0,#0x1001
        0x0000ff10:    7800        .x      LDRB     r0,[r0,#0]
        0x0000ff12:    07c0        ..      LSLS     r0,r0,#31
        0x0000ff14:    b148        H.      CBZ      r0,0xff2a ; am_util_stdio_vsprintf + 94
        0x0000ff16:    e7ff        ..      B        0xff18 ; am_util_stdio_vsprintf + 76
        0x0000ff18:    991c        ..      LDR      r1,[sp,#0x70]
        0x0000ff1a:    1c48        H.      ADDS     r0,r1,#1
        0x0000ff1c:    901c        ..      STR      r0,[sp,#0x70]
        0x0000ff1e:    200d        .       MOVS     r0,#0xd
        0x0000ff20:    7008        .p      STRB     r0,[r1,#0]
        0x0000ff22:    9814        ..      LDR      r0,[sp,#0x50]
        0x0000ff24:    3001        .0      ADDS     r0,#1
        0x0000ff26:    9014        ..      STR      r0,[sp,#0x50]
        0x0000ff28:    e7ff        ..      B        0xff2a ; am_util_stdio_vsprintf + 94
        0x0000ff2a:    981b        ..      LDR      r0,[sp,#0x6c]
        0x0000ff2c:    7800        .x      LDRB     r0,[r0,#0]
        0x0000ff2e:    991c        ..      LDR      r1,[sp,#0x70]
        0x0000ff30:    1c4a        J.      ADDS     r2,r1,#1
        0x0000ff32:    921c        ..      STR      r2,[sp,#0x70]
        0x0000ff34:    7008        .p      STRB     r0,[r1,#0]
        0x0000ff36:    e7ff        ..      B        0xff38 ; am_util_stdio_vsprintf + 108
        0x0000ff38:    981b        ..      LDR      r0,[sp,#0x6c]
        0x0000ff3a:    3001        .0      ADDS     r0,#1
        0x0000ff3c:    901b        ..      STR      r0,[sp,#0x6c]
        0x0000ff3e:    9814        ..      LDR      r0,[sp,#0x50]
        0x0000ff40:    3001        .0      ADDS     r0,#1
        0x0000ff42:    9014        ..      STR      r0,[sp,#0x50]
        0x0000ff44:    e7cb        ..      B        0xfede ; am_util_stdio_vsprintf + 18
        0x0000ff46:    981b        ..      LDR      r0,[sp,#0x6c]
        0x0000ff48:    3001        .0      ADDS     r0,#1
        0x0000ff4a:    901b        ..      STR      r0,[sp,#0x6c]
        0x0000ff4c:    2000        .       MOVS     r0,#0
        0x0000ff4e:    f88d0040    ..@.    STRB     r0,[sp,#0x40]
        0x0000ff52:    f88d0041    ..A.    STRB     r0,[sp,#0x41]
        0x0000ff56:    2020                MOVS     r0,#0x20
        0x0000ff58:    f88d0042    ..B.    STRB     r0,[sp,#0x42]
        0x0000ff5c:    981b        ..      LDR      r0,[sp,#0x6c]
        0x0000ff5e:    7800        .x      LDRB     r0,[r0,#0]
        0x0000ff60:    2830        0(      CMP      r0,#0x30
        0x0000ff62:    d107        ..      BNE      0xff74 ; am_util_stdio_vsprintf + 168
        0x0000ff64:    e7ff        ..      B        0xff66 ; am_util_stdio_vsprintf + 154
        0x0000ff66:    2030        0       MOVS     r0,#0x30
        0x0000ff68:    f88d0042    ..B.    STRB     r0,[sp,#0x42]
        0x0000ff6c:    981b        ..      LDR      r0,[sp,#0x6c]
        0x0000ff6e:    3001        .0      ADDS     r0,#1
        0x0000ff70:    901b        ..      STR      r0,[sp,#0x6c]
        0x0000ff72:    e7ff        ..      B        0xff74 ; am_util_stdio_vsprintf + 168
        0x0000ff74:    981b        ..      LDR      r0,[sp,#0x6c]
        0x0000ff76:    a915        ..      ADD      r1,sp,#0x54
        0x0000ff78:    f000fad2    ....    BL       decstr_to_int ; 0x10520
        0x0000ff7c:    9013        ..      STR      r0,[sp,#0x4c]
        0x0000ff7e:    9915        ..      LDR      r1,[sp,#0x54]
        0x0000ff80:    981b        ..      LDR      r0,[sp,#0x6c]
        0x0000ff82:    4408        .D      ADD      r0,r0,r1
        0x0000ff84:    901b        ..      STR      r0,[sp,#0x6c]
        0x0000ff86:    981b        ..      LDR      r0,[sp,#0x6c]
        0x0000ff88:    7800        .x      LDRB     r0,[r0,#0]
        0x0000ff8a:    2873        s(      CMP      r0,#0x73
        0x0000ff8c:    d009        ..      BEQ      0xffa2 ; am_util_stdio_vsprintf + 214
        0x0000ff8e:    e7ff        ..      B        0xff90 ; am_util_stdio_vsprintf + 196
        0x0000ff90:    9813        ..      LDR      r0,[sp,#0x4c]
        0x0000ff92:    f1b03fff    ...?    CMP      r0,#0xffffffff
        0x0000ff96:    dc04        ..      BGT      0xffa2 ; am_util_stdio_vsprintf + 214
        0x0000ff98:    e7ff        ..      B        0xff9a ; am_util_stdio_vsprintf + 206
        0x0000ff9a:    9813        ..      LDR      r0,[sp,#0x4c]
        0x0000ff9c:    4240        @B      RSBS     r0,r0,#0
        0x0000ff9e:    9013        ..      STR      r0,[sp,#0x4c]
        0x0000ffa0:    e7ff        ..      B        0xffa2 ; am_util_stdio_vsprintf + 214
        0x0000ffa2:    981b        ..      LDR      r0,[sp,#0x6c]
        0x0000ffa4:    7800        .x      LDRB     r0,[r0,#0]
        0x0000ffa6:    282e        .(      CMP      r0,#0x2e
        0x0000ffa8:    d10d        ..      BNE      0xffc6 ; am_util_stdio_vsprintf + 250
        0x0000ffaa:    e7ff        ..      B        0xffac ; am_util_stdio_vsprintf + 224
        0x0000ffac:    981b        ..      LDR      r0,[sp,#0x6c]
        0x0000ffae:    3001        .0      ADDS     r0,#1
        0x0000ffb0:    901b        ..      STR      r0,[sp,#0x6c]
        0x0000ffb2:    981b        ..      LDR      r0,[sp,#0x6c]
        0x0000ffb4:    a915        ..      ADD      r1,sp,#0x54
        0x0000ffb6:    f000fab3    ....    BL       decstr_to_int ; 0x10520
        0x0000ffba:    9011        ..      STR      r0,[sp,#0x44]
        0x0000ffbc:    9915        ..      LDR      r1,[sp,#0x54]
        0x0000ffbe:    981b        ..      LDR      r0,[sp,#0x6c]
        0x0000ffc0:    4408        .D      ADD      r0,r0,r1
        0x0000ffc2:    901b        ..      STR      r0,[sp,#0x6c]
        0x0000ffc4:    e7ff        ..      B        0xffc6 ; am_util_stdio_vsprintf + 250
        0x0000ffc6:    981b        ..      LDR      r0,[sp,#0x6c]
        0x0000ffc8:    7800        .x      LDRB     r0,[r0,#0]
        0x0000ffca:    286c        l(      CMP      r0,#0x6c
        0x0000ffcc:    d110        ..      BNE      0xfff0 ; am_util_stdio_vsprintf + 292
        0x0000ffce:    e7ff        ..      B        0xffd0 ; am_util_stdio_vsprintf + 260
        0x0000ffd0:    981b        ..      LDR      r0,[sp,#0x6c]
        0x0000ffd2:    3001        .0      ADDS     r0,#1
        0x0000ffd4:    901b        ..      STR      r0,[sp,#0x6c]
        0x0000ffd6:    981b        ..      LDR      r0,[sp,#0x6c]
        0x0000ffd8:    7800        .x      LDRB     r0,[r0,#0]
        0x0000ffda:    286c        l(      CMP      r0,#0x6c
        0x0000ffdc:    d107        ..      BNE      0xffee ; am_util_stdio_vsprintf + 290
        0x0000ffde:    e7ff        ..      B        0xffe0 ; am_util_stdio_vsprintf + 276
        0x0000ffe0:    981b        ..      LDR      r0,[sp,#0x6c]
        0x0000ffe2:    3001        .0      ADDS     r0,#1
        0x0000ffe4:    901b        ..      STR      r0,[sp,#0x6c]
        0x0000ffe6:    2001        .       MOVS     r0,#1
        0x0000ffe8:    f88d0040    ..@.    STRB     r0,[sp,#0x40]
        0x0000ffec:    e7ff        ..      B        0xffee ; am_util_stdio_vsprintf + 290
        0x0000ffee:    e7ff        ..      B        0xfff0 ; am_util_stdio_vsprintf + 292
        0x0000fff0:    981b        ..      LDR      r0,[sp,#0x6c]
        0x0000fff2:    7800        .x      LDRB     r0,[r0,#0]
        0x0000fff4:    3846        F8      SUBS     r0,r0,#0x46
        0x0000fff6:    4601        .F      MOV      r1,r0
        0x0000fff8:    910b        ..      STR      r1,[sp,#0x2c]
        0x0000fffa:    2832        2(      CMP      r0,#0x32
        0x0000fffc:    f2008273    ..s.    BHI.W    0x104e6 ; am_util_stdio_vsprintf + 1562
        0x00010000:    990b        ..      LDR      r1,[sp,#0x2c]
        0x00010002:    e8dff011    ....    TBH      [pc,r1,LSL #1]
    $d.4
        0x00010006:    0224        $.      DCW    548
        0x00010008:    02700270    p.p.    DCD    40895088
        0x0001000c:    02700270    p.p.    DCD    40895088
        0x00010010:    02700270    p.p.    DCD    40895088
        0x00010014:    02700270    p.p.    DCD    40895088
        0x00010018:    02700270    p.p.    DCD    40895088
        0x0001001c:    02700270    p.p.    DCD    40895088
        0x00010020:    02700270    p.p.    DCD    40895088
        0x00010024:    02700270    p.p.    DCD    40895088
        0x00010028:    00bf0270    p...    DCD    12518000
        0x0001002c:    02700270    p.p.    DCD    40895088
        0x00010030:    02700270    p.p.    DCD    40895088
        0x00010034:    02700270    p.p.    DCD    40895088
        0x00010038:    02700270    p.p.    DCD    40895088
        0x0001003c:    02700270    p.p.    DCD    40895088
        0x00010040:    016f0033    3.o.    DCD    24051763
        0x00010044:    02240270    p.$.    DCD    35914352
        0x00010048:    02700270    p.p.    DCD    40895088
        0x0001004c:    0270016f    o.p.    DCD    40894831
        0x00010050:    02700270    p.p.    DCD    40895088
        0x00010054:    02700270    p.p.    DCD    40895088
        0x00010058:    02700270    p.p.    DCD    40895088
        0x0001005c:    02700270    p.p.    DCD    40895088
        0x00010060:    02700047    G.p.    DCD    40894535
        0x00010064:    02700119    ..p.    DCD    40894745
        0x00010068:    00bb0270    p...    DCD    12255856
    $t.5
        0x0001006c:    981d        ..      LDR      r0,[sp,#0x74]
        0x0001006e:    1d01        ..      ADDS     r1,r0,#4
        0x00010070:    911d        ..      STR      r1,[sp,#0x74]
        0x00010072:    6800        .h      LDR      r0,[r0,#0]
        0x00010074:    f88d0043    ..C.    STRB     r0,[sp,#0x43]
        0x00010078:    981c        ..      LDR      r0,[sp,#0x70]
        0x0001007a:    b138        8.      CBZ      r0,0x1008c ; am_util_stdio_vsprintf + 448
        0x0001007c:    e7ff        ..      B        0x1007e ; am_util_stdio_vsprintf + 434
        0x0001007e:    f89d0043    ..C.    LDRB     r0,[sp,#0x43]
        0x00010082:    991c        ..      LDR      r1,[sp,#0x70]
        0x00010084:    1c4a        J.      ADDS     r2,r1,#1
        0x00010086:    921c        ..      STR      r2,[sp,#0x70]
        0x00010088:    7008        .p      STRB     r0,[r1,#0]
        0x0001008a:    e7ff        ..      B        0x1008c ; am_util_stdio_vsprintf + 448
        0x0001008c:    9814        ..      LDR      r0,[sp,#0x50]
        0x0001008e:    3001        .0      ADDS     r0,#1
        0x00010090:    9014        ..      STR      r0,[sp,#0x50]
        0x00010092:    e236        6.      B        0x10502 ; am_util_stdio_vsprintf + 1590
        0x00010094:    981d        ..      LDR      r0,[sp,#0x74]
        0x00010096:    1d01        ..      ADDS     r1,r0,#4
        0x00010098:    911d        ..      STR      r1,[sp,#0x74]
        0x0001009a:    6800        .h      LDR      r0,[r0,#0]
        0x0001009c:    901a        ..      STR      r0,[sp,#0x68]
        0x0001009e:    981a        ..      LDR      r0,[sp,#0x68]
        0x000100a0:    f001f99e    ....    BL       simple_strlen ; 0x113e0
        0x000100a4:    900e        ..      STR      r0,[sp,#0x38]
        0x000100a6:    9813        ..      LDR      r0,[sp,#0x4c]
        0x000100a8:    2801        .(      CMP      r0,#1
        0x000100aa:    db25        %.      BLT      0x100f8 ; am_util_stdio_vsprintf + 556
        0x000100ac:    e7ff        ..      B        0x100ae ; am_util_stdio_vsprintf + 482
        0x000100ae:    980e        ..      LDR      r0,[sp,#0x38]
        0x000100b0:    9913        ..      LDR      r1,[sp,#0x4c]
        0x000100b2:    4288        .B      CMP      r0,r1
        0x000100b4:    d21f        ..      BCS      0x100f6 ; am_util_stdio_vsprintf + 554
        0x000100b6:    e7ff        ..      B        0x100b8 ; am_util_stdio_vsprintf + 492
        0x000100b8:    990e        ..      LDR      r1,[sp,#0x38]
        0x000100ba:    9813        ..      LDR      r0,[sp,#0x4c]
        0x000100bc:    1a40        @.      SUBS     r0,r0,r1
        0x000100be:    9013        ..      STR      r0,[sp,#0x4c]
        0x000100c0:    981c        ..      LDR      r0,[sp,#0x70]
        0x000100c2:    f89d1042    ..B.    LDRB     r1,[sp,#0x42]
        0x000100c6:    9a13        ..      LDR      r2,[sp,#0x4c]
        0x000100c8:    f001f808    ....    BL       padbuffer ; 0x110dc
        0x000100cc:    9013        ..      STR      r0,[sp,#0x4c]
        0x000100ce:    981c        ..      LDR      r0,[sp,#0x70]
        0x000100d0:    b118        ..      CBZ      r0,0x100da ; am_util_stdio_vsprintf + 526
        0x000100d2:    e7ff        ..      B        0x100d4 ; am_util_stdio_vsprintf + 520
        0x000100d4:    9813        ..      LDR      r0,[sp,#0x4c]
        0x000100d6:    900a        ..      STR      r0,[sp,#0x28]
        0x000100d8:    e002        ..      B        0x100e0 ; am_util_stdio_vsprintf + 532
        0x000100da:    2000        .       MOVS     r0,#0
        0x000100dc:    900a        ..      STR      r0,[sp,#0x28]
        0x000100de:    e7ff        ..      B        0x100e0 ; am_util_stdio_vsprintf + 532
        0x000100e0:    990a        ..      LDR      r1,[sp,#0x28]
        0x000100e2:    981c        ..      LDR      r0,[sp,#0x70]
        0x000100e4:    4408        .D      ADD      r0,r0,r1
        0x000100e6:    901c        ..      STR      r0,[sp,#0x70]
        0x000100e8:    9913        ..      LDR      r1,[sp,#0x4c]
        0x000100ea:    9814        ..      LDR      r0,[sp,#0x50]
        0x000100ec:    4408        .D      ADD      r0,r0,r1
        0x000100ee:    9014        ..      STR      r0,[sp,#0x50]
        0x000100f0:    2000        .       MOVS     r0,#0
        0x000100f2:    9013        ..      STR      r0,[sp,#0x4c]
        0x000100f4:    e7ff        ..      B        0x100f6 ; am_util_stdio_vsprintf + 554
        0x000100f6:    e7ff        ..      B        0x100f8 ; am_util_stdio_vsprintf + 556
        0x000100f8:    e7ff        ..      B        0x100fa ; am_util_stdio_vsprintf + 558
        0x000100fa:    981a        ..      LDR      r0,[sp,#0x68]
        0x000100fc:    7800        .x      LDRB     r0,[r0,#0]
        0x000100fe:    b188        ..      CBZ      r0,0x10124 ; am_util_stdio_vsprintf + 600
        0x00010100:    e7ff        ..      B        0x10102 ; am_util_stdio_vsprintf + 566
        0x00010102:    981c        ..      LDR      r0,[sp,#0x70]
        0x00010104:    b138        8.      CBZ      r0,0x10116 ; am_util_stdio_vsprintf + 586
        0x00010106:    e7ff        ..      B        0x10108 ; am_util_stdio_vsprintf + 572
        0x00010108:    981a        ..      LDR      r0,[sp,#0x68]
        0x0001010a:    7800        .x      LDRB     r0,[r0,#0]
        0x0001010c:    991c        ..      LDR      r1,[sp,#0x70]
        0x0001010e:    1c4a        J.      ADDS     r2,r1,#1
        0x00010110:    921c        ..      STR      r2,[sp,#0x70]
        0x00010112:    7008        .p      STRB     r0,[r1,#0]
        0x00010114:    e7ff        ..      B        0x10116 ; am_util_stdio_vsprintf + 586
        0x00010116:    981a        ..      LDR      r0,[sp,#0x68]
        0x00010118:    3001        .0      ADDS     r0,#1
        0x0001011a:    901a        ..      STR      r0,[sp,#0x68]
        0x0001011c:    9814        ..      LDR      r0,[sp,#0x50]
        0x0001011e:    3001        .0      ADDS     r0,#1
        0x00010120:    9014        ..      STR      r0,[sp,#0x50]
        0x00010122:    e7ea        ..      B        0x100fa ; am_util_stdio_vsprintf + 558
        0x00010124:    9813        ..      LDR      r0,[sp,#0x4c]
        0x00010126:    b340        @.      CBZ      r0,0x1017a ; am_util_stdio_vsprintf + 686
        0x00010128:    e7ff        ..      B        0x1012a ; am_util_stdio_vsprintf + 606
        0x0001012a:    9813        ..      LDR      r0,[sp,#0x4c]
        0x0001012c:    4240        @B      RSBS     r0,r0,#0
        0x0001012e:    9013        ..      STR      r0,[sp,#0x4c]
        0x00010130:    980e        ..      LDR      r0,[sp,#0x38]
        0x00010132:    9913        ..      LDR      r1,[sp,#0x4c]
        0x00010134:    4288        .B      CMP      r0,r1
        0x00010136:    d21f        ..      BCS      0x10178 ; am_util_stdio_vsprintf + 684
        0x00010138:    e7ff        ..      B        0x1013a ; am_util_stdio_vsprintf + 622
        0x0001013a:    990e        ..      LDR      r1,[sp,#0x38]
        0x0001013c:    9813        ..      LDR      r0,[sp,#0x4c]
        0x0001013e:    1a40        @.      SUBS     r0,r0,r1
        0x00010140:    9013        ..      STR      r0,[sp,#0x4c]
        0x00010142:    981c        ..      LDR      r0,[sp,#0x70]
        0x00010144:    f89d1042    ..B.    LDRB     r1,[sp,#0x42]
        0x00010148:    9a13        ..      LDR      r2,[sp,#0x4c]
        0x0001014a:    f000ffc7    ....    BL       padbuffer ; 0x110dc
        0x0001014e:    9013        ..      STR      r0,[sp,#0x4c]
        0x00010150:    981c        ..      LDR      r0,[sp,#0x70]
        0x00010152:    b118        ..      CBZ      r0,0x1015c ; am_util_stdio_vsprintf + 656
        0x00010154:    e7ff        ..      B        0x10156 ; am_util_stdio_vsprintf + 650
        0x00010156:    9813        ..      LDR      r0,[sp,#0x4c]
        0x00010158:    9009        ..      STR      r0,[sp,#0x24]
        0x0001015a:    e002        ..      B        0x10162 ; am_util_stdio_vsprintf + 662
        0x0001015c:    2000        .       MOVS     r0,#0
        0x0001015e:    9009        ..      STR      r0,[sp,#0x24]
        0x00010160:    e7ff        ..      B        0x10162 ; am_util_stdio_vsprintf + 662
        0x00010162:    9909        ..      LDR      r1,[sp,#0x24]
        0x00010164:    981c        ..      LDR      r0,[sp,#0x70]
        0x00010166:    4408        .D      ADD      r0,r0,r1
        0x00010168:    901c        ..      STR      r0,[sp,#0x70]
        0x0001016a:    9913        ..      LDR      r1,[sp,#0x4c]
        0x0001016c:    9814        ..      LDR      r0,[sp,#0x50]
        0x0001016e:    4408        .D      ADD      r0,r0,r1
        0x00010170:    9014        ..      STR      r0,[sp,#0x50]
        0x00010172:    2000        .       MOVS     r0,#0
        0x00010174:    9013        ..      STR      r0,[sp,#0x4c]
        0x00010176:    e7ff        ..      B        0x10178 ; am_util_stdio_vsprintf + 684
        0x00010178:    e7ff        ..      B        0x1017a ; am_util_stdio_vsprintf + 686
        0x0001017a:    e1c2        ..      B        0x10502 ; am_util_stdio_vsprintf + 1590
        0x0001017c:    2001        .       MOVS     r0,#1
        0x0001017e:    f88d0041    ..A.    STRB     r0,[sp,#0x41]
        0x00010182:    e7ff        ..      B        0x10184 ; am_util_stdio_vsprintf + 696
        0x00010184:    f89d0040    ..@.    LDRB     r0,[sp,#0x40]
        0x00010188:    07c0        ..      LSLS     r0,r0,#31
        0x0001018a:    b160        `.      CBZ      r0,0x101a6 ; am_util_stdio_vsprintf + 730
        0x0001018c:    e7ff        ..      B        0x1018e ; am_util_stdio_vsprintf + 706
        0x0001018e:    981d        ..      LDR      r0,[sp,#0x74]
        0x00010190:    3007        .0      ADDS     r0,#7
        0x00010192:    f0200007     ...    BIC      r0,r0,#7
        0x00010196:    f1000108    ....    ADD      r1,r0,#8
        0x0001019a:    911d        ..      STR      r1,[sp,#0x74]
        0x0001019c:    6801        .h      LDR      r1,[r0,#0]
        0x0001019e:    6840        @h      LDR      r0,[r0,#4]
        0x000101a0:    9107        ..      STR      r1,[sp,#0x1c]
        0x000101a2:    9008        ..      STR      r0,[sp,#0x20]
        0x000101a4:    e007        ..      B        0x101b6 ; am_util_stdio_vsprintf + 746
        0x000101a6:    981d        ..      LDR      r0,[sp,#0x74]
        0x000101a8:    1d01        ..      ADDS     r1,r0,#4
        0x000101aa:    911d        ..      STR      r1,[sp,#0x74]
        0x000101ac:    6801        .h      LDR      r1,[r0,#0]
        0x000101ae:    2000        .       MOVS     r0,#0
        0x000101b0:    9107        ..      STR      r1,[sp,#0x1c]
        0x000101b2:    9008        ..      STR      r0,[sp,#0x20]
        0x000101b4:    e7ff        ..      B        0x101b6 ; am_util_stdio_vsprintf + 746
        0x000101b6:    9907        ..      LDR      r1,[sp,#0x1c]
        0x000101b8:    9808        ..      LDR      r0,[sp,#0x20]
        0x000101ba:    9118        ..      STR      r1,[sp,#0x60]
        0x000101bc:    9019        ..      STR      r0,[sp,#0x64]
        0x000101be:    9813        ..      LDR      r0,[sp,#0x4c]
        0x000101c0:    b318        ..      CBZ      r0,0x1020a ; am_util_stdio_vsprintf + 830
        0x000101c2:    e7ff        ..      B        0x101c4 ; am_util_stdio_vsprintf + 760
        0x000101c4:    9818        ..      LDR      r0,[sp,#0x60]
        0x000101c6:    9919        ..      LDR      r1,[sp,#0x64]
        0x000101c8:    f000ff32    ..2.    BL       ndigits_in_hex ; 0x11030
        0x000101cc:    4601        .F      MOV      r1,r0
        0x000101ce:    9813        ..      LDR      r0,[sp,#0x4c]
        0x000101d0:    1a40        @.      SUBS     r0,r0,r1
        0x000101d2:    9013        ..      STR      r0,[sp,#0x4c]
        0x000101d4:    981c        ..      LDR      r0,[sp,#0x70]
        0x000101d6:    f89d1042    ..B.    LDRB     r1,[sp,#0x42]
        0x000101da:    9a13        ..      LDR      r2,[sp,#0x4c]
        0x000101dc:    f000ff7e    ..~.    BL       padbuffer ; 0x110dc
        0x000101e0:    9013        ..      STR      r0,[sp,#0x4c]
        0x000101e2:    981c        ..      LDR      r0,[sp,#0x70]
        0x000101e4:    b118        ..      CBZ      r0,0x101ee ; am_util_stdio_vsprintf + 802
        0x000101e6:    e7ff        ..      B        0x101e8 ; am_util_stdio_vsprintf + 796
        0x000101e8:    9813        ..      LDR      r0,[sp,#0x4c]
        0x000101ea:    9006        ..      STR      r0,[sp,#0x18]
        0x000101ec:    e002        ..      B        0x101f4 ; am_util_stdio_vsprintf + 808
        0x000101ee:    2000        .       MOVS     r0,#0
        0x000101f0:    9006        ..      STR      r0,[sp,#0x18]
        0x000101f2:    e7ff        ..      B        0x101f4 ; am_util_stdio_vsprintf + 808
        0x000101f4:    9906        ..      LDR      r1,[sp,#0x18]
        0x000101f6:    981c        ..      LDR      r0,[sp,#0x70]
        0x000101f8:    4408        .D      ADD      r0,r0,r1
        0x000101fa:    901c        ..      STR      r0,[sp,#0x70]
        0x000101fc:    9913        ..      LDR      r1,[sp,#0x4c]
        0x000101fe:    9814        ..      LDR      r0,[sp,#0x50]
        0x00010200:    4408        .D      ADD      r0,r0,r1
        0x00010202:    9014        ..      STR      r0,[sp,#0x50]
        0x00010204:    2000        .       MOVS     r0,#0
        0x00010206:    9013        ..      STR      r0,[sp,#0x4c]
        0x00010208:    e7ff        ..      B        0x1020a ; am_util_stdio_vsprintf + 830
        0x0001020a:    9818        ..      LDR      r0,[sp,#0x60]
        0x0001020c:    9919        ..      LDR      r1,[sp,#0x64]
        0x0001020e:    9a1c        ..      LDR      r2,[sp,#0x70]
        0x00010210:    f89d3041    ..A0    LDRB     r3,[sp,#0x41]
        0x00010214:    f0030301    ....    AND      r3,r3,#1
        0x00010218:    f001f920    .. .    BL       uint64_to_hexstr ; 0x1145c
        0x0001021c:    9012        ..      STR      r0,[sp,#0x48]
        0x0001021e:    981c        ..      LDR      r0,[sp,#0x70]
        0x00010220:    b128        (.      CBZ      r0,0x1022e ; am_util_stdio_vsprintf + 866
        0x00010222:    e7ff        ..      B        0x10224 ; am_util_stdio_vsprintf + 856
        0x00010224:    9912        ..      LDR      r1,[sp,#0x48]
        0x00010226:    981c        ..      LDR      r0,[sp,#0x70]
        0x00010228:    4408        .D      ADD      r0,r0,r1
        0x0001022a:    901c        ..      STR      r0,[sp,#0x70]
        0x0001022c:    e7ff        ..      B        0x1022e ; am_util_stdio_vsprintf + 866
        0x0001022e:    9912        ..      LDR      r1,[sp,#0x48]
        0x00010230:    9814        ..      LDR      r0,[sp,#0x50]
        0x00010232:    4408        .D      ADD      r0,r0,r1
        0x00010234:    9014        ..      STR      r0,[sp,#0x50]
        0x00010236:    e164        d.      B        0x10502 ; am_util_stdio_vsprintf + 1590
        0x00010238:    f89d0040    ..@.    LDRB     r0,[sp,#0x40]
        0x0001023c:    07c0        ..      LSLS     r0,r0,#31
        0x0001023e:    b160        `.      CBZ      r0,0x1025a ; am_util_stdio_vsprintf + 910
        0x00010240:    e7ff        ..      B        0x10242 ; am_util_stdio_vsprintf + 886
        0x00010242:    981d        ..      LDR      r0,[sp,#0x74]
        0x00010244:    3007        .0      ADDS     r0,#7
        0x00010246:    f0200007     ...    BIC      r0,r0,#7
        0x0001024a:    f1000108    ....    ADD      r1,r0,#8
        0x0001024e:    911d        ..      STR      r1,[sp,#0x74]
        0x00010250:    6801        .h      LDR      r1,[r0,#0]
        0x00010252:    6840        @h      LDR      r0,[r0,#4]
        0x00010254:    9104        ..      STR      r1,[sp,#0x10]
        0x00010256:    9005        ..      STR      r0,[sp,#0x14]
        0x00010258:    e007        ..      B        0x1026a ; am_util_stdio_vsprintf + 926
        0x0001025a:    981d        ..      LDR      r0,[sp,#0x74]
        0x0001025c:    1d01        ..      ADDS     r1,r0,#4
        0x0001025e:    911d        ..      STR      r1,[sp,#0x74]
        0x00010260:    6801        .h      LDR      r1,[r0,#0]
        0x00010262:    2000        .       MOVS     r0,#0
        0x00010264:    9104        ..      STR      r1,[sp,#0x10]
        0x00010266:    9005        ..      STR      r0,[sp,#0x14]
        0x00010268:    e7ff        ..      B        0x1026a ; am_util_stdio_vsprintf + 926
        0x0001026a:    9904        ..      LDR      r1,[sp,#0x10]
        0x0001026c:    9805        ..      LDR      r0,[sp,#0x14]
        0x0001026e:    9118        ..      STR      r1,[sp,#0x60]
        0x00010270:    9019        ..      STR      r0,[sp,#0x64]
        0x00010272:    9813        ..      LDR      r0,[sp,#0x4c]
        0x00010274:    b318        ..      CBZ      r0,0x102be ; am_util_stdio_vsprintf + 1010
        0x00010276:    e7ff        ..      B        0x10278 ; am_util_stdio_vsprintf + 940
        0x00010278:    9818        ..      LDR      r0,[sp,#0x60]
        0x0001027a:    9919        ..      LDR      r1,[sp,#0x64]
        0x0001027c:    f000ff10    ....    BL       ndigits_in_u64 ; 0x110a0
        0x00010280:    4601        .F      MOV      r1,r0
        0x00010282:    9813        ..      LDR      r0,[sp,#0x4c]
        0x00010284:    1a40        @.      SUBS     r0,r0,r1
        0x00010286:    9013        ..      STR      r0,[sp,#0x4c]
        0x00010288:    981c        ..      LDR      r0,[sp,#0x70]
        0x0001028a:    f89d1042    ..B.    LDRB     r1,[sp,#0x42]
        0x0001028e:    9a13        ..      LDR      r2,[sp,#0x4c]
        0x00010290:    f000ff24    ..$.    BL       padbuffer ; 0x110dc
        0x00010294:    9013        ..      STR      r0,[sp,#0x4c]
        0x00010296:    981c        ..      LDR      r0,[sp,#0x70]
        0x00010298:    b118        ..      CBZ      r0,0x102a2 ; am_util_stdio_vsprintf + 982
        0x0001029a:    e7ff        ..      B        0x1029c ; am_util_stdio_vsprintf + 976
        0x0001029c:    9813        ..      LDR      r0,[sp,#0x4c]
        0x0001029e:    9003        ..      STR      r0,[sp,#0xc]
        0x000102a0:    e002        ..      B        0x102a8 ; am_util_stdio_vsprintf + 988
        0x000102a2:    2000        .       MOVS     r0,#0
        0x000102a4:    9003        ..      STR      r0,[sp,#0xc]
        0x000102a6:    e7ff        ..      B        0x102a8 ; am_util_stdio_vsprintf + 988
        0x000102a8:    9903        ..      LDR      r1,[sp,#0xc]
        0x000102aa:    981c        ..      LDR      r0,[sp,#0x70]
        0x000102ac:    4408        .D      ADD      r0,r0,r1
        0x000102ae:    901c        ..      STR      r0,[sp,#0x70]
        0x000102b0:    9913        ..      LDR      r1,[sp,#0x4c]
        0x000102b2:    9814        ..      LDR      r0,[sp,#0x50]
        0x000102b4:    4408        .D      ADD      r0,r0,r1
        0x000102b6:    9014        ..      STR      r0,[sp,#0x50]
        0x000102b8:    2000        .       MOVS     r0,#0
        0x000102ba:    9013        ..      STR      r0,[sp,#0x4c]
        0x000102bc:    e7ff        ..      B        0x102be ; am_util_stdio_vsprintf + 1010
        0x000102be:    9818        ..      LDR      r0,[sp,#0x60]
        0x000102c0:    9919        ..      LDR      r1,[sp,#0x64]
        0x000102c2:    9a1c        ..      LDR      r2,[sp,#0x70]
        0x000102c4:    f001f92a    ..*.    BL       uint64_to_str ; 0x1151c
        0x000102c8:    9012        ..      STR      r0,[sp,#0x48]
        0x000102ca:    981c        ..      LDR      r0,[sp,#0x70]
        0x000102cc:    b128        (.      CBZ      r0,0x102da ; am_util_stdio_vsprintf + 1038
        0x000102ce:    e7ff        ..      B        0x102d0 ; am_util_stdio_vsprintf + 1028
        0x000102d0:    9912        ..      LDR      r1,[sp,#0x48]
        0x000102d2:    981c        ..      LDR      r0,[sp,#0x70]
        0x000102d4:    4408        .D      ADD      r0,r0,r1
        0x000102d6:    901c        ..      STR      r0,[sp,#0x70]
        0x000102d8:    e7ff        ..      B        0x102da ; am_util_stdio_vsprintf + 1038
        0x000102da:    9912        ..      LDR      r1,[sp,#0x48]
        0x000102dc:    9814        ..      LDR      r0,[sp,#0x50]
        0x000102de:    4408        .D      ADD      r0,r0,r1
        0x000102e0:    9014        ..      STR      r0,[sp,#0x50]
        0x000102e2:    e10e        ..      B        0x10502 ; am_util_stdio_vsprintf + 1590
        0x000102e4:    f89d0040    ..@.    LDRB     r0,[sp,#0x40]
        0x000102e8:    07c0        ..      LSLS     r0,r0,#31
        0x000102ea:    b160        `.      CBZ      r0,0x10306 ; am_util_stdio_vsprintf + 1082
        0x000102ec:    e7ff        ..      B        0x102ee ; am_util_stdio_vsprintf + 1058
        0x000102ee:    981d        ..      LDR      r0,[sp,#0x74]
        0x000102f0:    3007        .0      ADDS     r0,#7
        0x000102f2:    f0200007     ...    BIC      r0,r0,#7
        0x000102f6:    f1000108    ....    ADD      r1,r0,#8
        0x000102fa:    911d        ..      STR      r1,[sp,#0x74]
        0x000102fc:    6801        .h      LDR      r1,[r0,#0]
        0x000102fe:    6840        @h      LDR      r0,[r0,#4]
        0x00010300:    9101        ..      STR      r1,[sp,#4]
        0x00010302:    9002        ..      STR      r0,[sp,#8]
        0x00010304:    e007        ..      B        0x10316 ; am_util_stdio_vsprintf + 1098
        0x00010306:    981d        ..      LDR      r0,[sp,#0x74]
        0x00010308:    1d01        ..      ADDS     r1,r0,#4
        0x0001030a:    911d        ..      STR      r1,[sp,#0x74]
        0x0001030c:    6801        .h      LDR      r1,[r0,#0]
        0x0001030e:    17c8        ..      ASRS     r0,r1,#31
        0x00010310:    9101        ..      STR      r1,[sp,#4]
        0x00010312:    9002        ..      STR      r0,[sp,#8]
        0x00010314:    e7ff        ..      B        0x10316 ; am_util_stdio_vsprintf + 1098
        0x00010316:    9901        ..      LDR      r1,[sp,#4]
        0x00010318:    9802        ..      LDR      r0,[sp,#8]
        0x0001031a:    9116        ..      STR      r1,[sp,#0x58]
        0x0001031c:    9017        ..      STR      r0,[sp,#0x5c]
        0x0001031e:    9817        ..      LDR      r0,[sp,#0x5c]
        0x00010320:    f1b03fff    ...?    CMP      r0,#0xffffffff
        0x00010324:    dc0c        ..      BGT      0x10340 ; am_util_stdio_vsprintf + 1140
        0x00010326:    e7ff        ..      B        0x10328 ; am_util_stdio_vsprintf + 1116
        0x00010328:    9816        ..      LDR      r0,[sp,#0x58]
        0x0001032a:    9a17        ..      LDR      r2,[sp,#0x5c]
        0x0001032c:    4241        AB      RSBS     r1,r0,#0
        0x0001032e:    f04f0000    O...    MOV      r0,#0
        0x00010332:    4190        .A      SBCS     r0,r0,r2
        0x00010334:    9118        ..      STR      r1,[sp,#0x60]
        0x00010336:    9019        ..      STR      r0,[sp,#0x64]
        0x00010338:    2001        .       MOVS     r0,#1
        0x0001033a:    f88d003f    ..?.    STRB     r0,[sp,#0x3f]
        0x0001033e:    e007        ..      B        0x10350 ; am_util_stdio_vsprintf + 1156
        0x00010340:    9816        ..      LDR      r0,[sp,#0x58]
        0x00010342:    9917        ..      LDR      r1,[sp,#0x5c]
        0x00010344:    9119        ..      STR      r1,[sp,#0x64]
        0x00010346:    9018        ..      STR      r0,[sp,#0x60]
        0x00010348:    2000        .       MOVS     r0,#0
        0x0001034a:    f88d003f    ..?.    STRB     r0,[sp,#0x3f]
        0x0001034e:    e7ff        ..      B        0x10350 ; am_util_stdio_vsprintf + 1156
        0x00010350:    9813        ..      LDR      r0,[sp,#0x4c]
        0x00010352:    2800        .(      CMP      r0,#0
        0x00010354:    d055        U.      BEQ      0x10402 ; am_util_stdio_vsprintf + 1334
        0x00010356:    e7ff        ..      B        0x10358 ; am_util_stdio_vsprintf + 1164
        0x00010358:    9818        ..      LDR      r0,[sp,#0x60]
        0x0001035a:    9919        ..      LDR      r1,[sp,#0x64]
        0x0001035c:    f000fe88    ....    BL       ndigits_in_i64 ; 0x11070
        0x00010360:    4601        .F      MOV      r1,r0
        0x00010362:    9813        ..      LDR      r0,[sp,#0x4c]
        0x00010364:    1a40        @.      SUBS     r0,r0,r1
        0x00010366:    9013        ..      STR      r0,[sp,#0x4c]
        0x00010368:    f89d003f    ..?.    LDRB     r0,[sp,#0x3f]
        0x0001036c:    07c0        ..      LSLS     r0,r0,#31
        0x0001036e:    b1b0        ..      CBZ      r0,0x1039e ; am_util_stdio_vsprintf + 1234
        0x00010370:    e7ff        ..      B        0x10372 ; am_util_stdio_vsprintf + 1190
        0x00010372:    9813        ..      LDR      r0,[sp,#0x4c]
        0x00010374:    3801        .8      SUBS     r0,#1
        0x00010376:    9013        ..      STR      r0,[sp,#0x4c]
        0x00010378:    f89d0042    ..B.    LDRB     r0,[sp,#0x42]
        0x0001037c:    2830        0(      CMP      r0,#0x30
        0x0001037e:    d10d        ..      BNE      0x1039c ; am_util_stdio_vsprintf + 1232
        0x00010380:    e7ff        ..      B        0x10382 ; am_util_stdio_vsprintf + 1206
        0x00010382:    981c        ..      LDR      r0,[sp,#0x70]
        0x00010384:    b130        0.      CBZ      r0,0x10394 ; am_util_stdio_vsprintf + 1224
        0x00010386:    e7ff        ..      B        0x10388 ; am_util_stdio_vsprintf + 1212
        0x00010388:    991c        ..      LDR      r1,[sp,#0x70]
        0x0001038a:    1c48        H.      ADDS     r0,r1,#1
        0x0001038c:    901c        ..      STR      r0,[sp,#0x70]
        0x0001038e:    202d        -       MOVS     r0,#0x2d
        0x00010390:    7008        .p      STRB     r0,[r1,#0]
        0x00010392:    e7ff        ..      B        0x10394 ; am_util_stdio_vsprintf + 1224
        0x00010394:    9814        ..      LDR      r0,[sp,#0x50]
        0x00010396:    3001        .0      ADDS     r0,#1
        0x00010398:    9014        ..      STR      r0,[sp,#0x50]
        0x0001039a:    e7ff        ..      B        0x1039c ; am_util_stdio_vsprintf + 1232
        0x0001039c:    e7ff        ..      B        0x1039e ; am_util_stdio_vsprintf + 1234
        0x0001039e:    981c        ..      LDR      r0,[sp,#0x70]
        0x000103a0:    f89d1042    ..B.    LDRB     r1,[sp,#0x42]
        0x000103a4:    9a13        ..      LDR      r2,[sp,#0x4c]
        0x000103a6:    f000fe99    ....    BL       padbuffer ; 0x110dc
        0x000103aa:    9013        ..      STR      r0,[sp,#0x4c]
        0x000103ac:    981c        ..      LDR      r0,[sp,#0x70]
        0x000103ae:    b118        ..      CBZ      r0,0x103b8 ; am_util_stdio_vsprintf + 1260
        0x000103b0:    e7ff        ..      B        0x103b2 ; am_util_stdio_vsprintf + 1254
        0x000103b2:    9813        ..      LDR      r0,[sp,#0x4c]
        0x000103b4:    9000        ..      STR      r0,[sp,#0]
        0x000103b6:    e002        ..      B        0x103be ; am_util_stdio_vsprintf + 1266
        0x000103b8:    2000        .       MOVS     r0,#0
        0x000103ba:    9000        ..      STR      r0,[sp,#0]
        0x000103bc:    e7ff        ..      B        0x103be ; am_util_stdio_vsprintf + 1266
        0x000103be:    9900        ..      LDR      r1,[sp,#0]
        0x000103c0:    981c        ..      LDR      r0,[sp,#0x70]
        0x000103c2:    4408        .D      ADD      r0,r0,r1
        0x000103c4:    901c        ..      STR      r0,[sp,#0x70]
        0x000103c6:    9913        ..      LDR      r1,[sp,#0x4c]
        0x000103c8:    9814        ..      LDR      r0,[sp,#0x50]
        0x000103ca:    4408        .D      ADD      r0,r0,r1
        0x000103cc:    9014        ..      STR      r0,[sp,#0x50]
        0x000103ce:    2000        .       MOVS     r0,#0
        0x000103d0:    9013        ..      STR      r0,[sp,#0x4c]
        0x000103d2:    f89d003f    ..?.    LDRB     r0,[sp,#0x3f]
        0x000103d6:    07c0        ..      LSLS     r0,r0,#31
        0x000103d8:    b190        ..      CBZ      r0,0x10400 ; am_util_stdio_vsprintf + 1332
        0x000103da:    e7ff        ..      B        0x103dc ; am_util_stdio_vsprintf + 1296
        0x000103dc:    f89d0042    ..B.    LDRB     r0,[sp,#0x42]
        0x000103e0:    2820         (      CMP      r0,#0x20
        0x000103e2:    d10d        ..      BNE      0x10400 ; am_util_stdio_vsprintf + 1332
        0x000103e4:    e7ff        ..      B        0x103e6 ; am_util_stdio_vsprintf + 1306
        0x000103e6:    981c        ..      LDR      r0,[sp,#0x70]
        0x000103e8:    b130        0.      CBZ      r0,0x103f8 ; am_util_stdio_vsprintf + 1324
        0x000103ea:    e7ff        ..      B        0x103ec ; am_util_stdio_vsprintf + 1312
        0x000103ec:    991c        ..      LDR      r1,[sp,#0x70]
        0x000103ee:    1c48        H.      ADDS     r0,r1,#1
        0x000103f0:    901c        ..      STR      r0,[sp,#0x70]
        0x000103f2:    202d        -       MOVS     r0,#0x2d
        0x000103f4:    7008        .p      STRB     r0,[r1,#0]
        0x000103f6:    e7ff        ..      B        0x103f8 ; am_util_stdio_vsprintf + 1324
        0x000103f8:    9814        ..      LDR      r0,[sp,#0x50]
        0x000103fa:    3001        .0      ADDS     r0,#1
        0x000103fc:    9014        ..      STR      r0,[sp,#0x50]
        0x000103fe:    e7ff        ..      B        0x10400 ; am_util_stdio_vsprintf + 1332
        0x00010400:    e012        ..      B        0x10428 ; am_util_stdio_vsprintf + 1372
        0x00010402:    f89d003f    ..?.    LDRB     r0,[sp,#0x3f]
        0x00010406:    07c0        ..      LSLS     r0,r0,#31
        0x00010408:    b168        h.      CBZ      r0,0x10426 ; am_util_stdio_vsprintf + 1370
        0x0001040a:    e7ff        ..      B        0x1040c ; am_util_stdio_vsprintf + 1344
        0x0001040c:    981c        ..      LDR      r0,[sp,#0x70]
        0x0001040e:    b130        0.      CBZ      r0,0x1041e ; am_util_stdio_vsprintf + 1362
        0x00010410:    e7ff        ..      B        0x10412 ; am_util_stdio_vsprintf + 1350
        0x00010412:    991c        ..      LDR      r1,[sp,#0x70]
        0x00010414:    1c48        H.      ADDS     r0,r1,#1
        0x00010416:    901c        ..      STR      r0,[sp,#0x70]
        0x00010418:    202d        -       MOVS     r0,#0x2d
        0x0001041a:    7008        .p      STRB     r0,[r1,#0]
        0x0001041c:    e7ff        ..      B        0x1041e ; am_util_stdio_vsprintf + 1362
        0x0001041e:    9814        ..      LDR      r0,[sp,#0x50]
        0x00010420:    3001        .0      ADDS     r0,#1
        0x00010422:    9014        ..      STR      r0,[sp,#0x50]
        0x00010424:    e7ff        ..      B        0x10426 ; am_util_stdio_vsprintf + 1370
        0x00010426:    e7ff        ..      B        0x10428 ; am_util_stdio_vsprintf + 1372
        0x00010428:    9818        ..      LDR      r0,[sp,#0x60]
        0x0001042a:    9919        ..      LDR      r1,[sp,#0x64]
        0x0001042c:    9a1c        ..      LDR      r2,[sp,#0x70]
        0x0001042e:    f001f875    ..u.    BL       uint64_to_str ; 0x1151c
        0x00010432:    9012        ..      STR      r0,[sp,#0x48]
        0x00010434:    981c        ..      LDR      r0,[sp,#0x70]
        0x00010436:    b128        (.      CBZ      r0,0x10444 ; am_util_stdio_vsprintf + 1400
        0x00010438:    e7ff        ..      B        0x1043a ; am_util_stdio_vsprintf + 1390
        0x0001043a:    9912        ..      LDR      r1,[sp,#0x48]
        0x0001043c:    981c        ..      LDR      r0,[sp,#0x70]
        0x0001043e:    4408        .D      ADD      r0,r0,r1
        0x00010440:    901c        ..      STR      r0,[sp,#0x70]
        0x00010442:    e7ff        ..      B        0x10444 ; am_util_stdio_vsprintf + 1400
        0x00010444:    9912        ..      LDR      r1,[sp,#0x48]
        0x00010446:    9814        ..      LDR      r0,[sp,#0x50]
        0x00010448:    4408        .D      ADD      r0,r0,r1
        0x0001044a:    9014        ..      STR      r0,[sp,#0x50]
        0x0001044c:    e059        Y.      B        0x10502 ; am_util_stdio_vsprintf + 1590
        0x0001044e:    981c        ..      LDR      r0,[sp,#0x70]
        0x00010450:    2800        .(      CMP      r0,#0
        0x00010452:    d047        G.      BEQ      0x104e4 ; am_util_stdio_vsprintf + 1560
        0x00010454:    e7ff        ..      B        0x10456 ; am_util_stdio_vsprintf + 1418
        0x00010456:    981d        ..      LDR      r0,[sp,#0x74]
        0x00010458:    3007        .0      ADDS     r0,#7
        0x0001045a:    f0200007     ...    BIC      r0,r0,#7
        0x0001045e:    f1000108    ....    ADD      r1,r0,#8
        0x00010462:    911d        ..      STR      r1,[sp,#0x74]
        0x00010464:    ed900b00    ....    VLDR     d0,[r0,#0]
        0x00010468:    ec510b10    Q...    VMOV     r0,r1,d0
        0x0001046c:    f001f916    ....    BL       __aeabi_d2f ; 0x1169c
        0x00010470:    900d        ..      STR      r0,[sp,#0x34]
        0x00010472:    991c        ..      LDR      r1,[sp,#0x70]
        0x00010474:    2014        .       MOVS     r0,#0x14
        0x00010476:    6008        .`      STR      r0,[r1,#0]
        0x00010478:    ed9d0a0d    ....    VLDR     s0,[sp,#0x34]
        0x0001047c:    981c        ..      LDR      r0,[sp,#0x70]
        0x0001047e:    9911        ..      LDR      r1,[sp,#0x44]
        0x00010480:    f000f994    ....    BL       ftoa ; 0x107ac
        0x00010484:    9012        ..      STR      r0,[sp,#0x48]
        0x00010486:    9812        ..      LDR      r0,[sp,#0x48]
        0x00010488:    f1b03fff    ...?    CMP      r0,#0xffffffff
        0x0001048c:    dc21        !.      BGT      0x104d2 ; am_util_stdio_vsprintf + 1542
        0x0001048e:    e7ff        ..      B        0x10490 ; am_util_stdio_vsprintf + 1476
        0x00010490:    9812        ..      LDR      r0,[sp,#0x48]
        0x00010492:    3001        .0      ADDS     r0,#1
        0x00010494:    b930        0.      CBNZ     r0,0x104a4 ; am_util_stdio_vsprintf + 1496
        0x00010496:    e7ff        ..      B        0x10498 ; am_util_stdio_vsprintf + 1484
        0x00010498:    f6426030    B.0`    MOV      r0,#0x2e30
        0x0001049c:    f2c00030    ..0.    MOVT     r0,#0x30
        0x000104a0:    900c        ..      STR      r0,[sp,#0x30]
        0x000104a2:    e010        ..      B        0x104c6 ; am_util_stdio_vsprintf + 1530
        0x000104a4:    9812        ..      LDR      r0,[sp,#0x48]
        0x000104a6:    3002        .0      ADDS     r0,#2
        0x000104a8:    b930        0.      CBNZ     r0,0x104b8 ; am_util_stdio_vsprintf + 1516
        0x000104aa:    e7ff        ..      B        0x104ac ; am_util_stdio_vsprintf + 1504
        0x000104ac:    f6426023    B.#`    MOV      r0,#0x2e23
        0x000104b0:    f2c00023    ..#.    MOVT     r0,#0x23
        0x000104b4:    900c        ..      STR      r0,[sp,#0x30]
        0x000104b6:    e005        ..      B        0x104c4 ; am_util_stdio_vsprintf + 1528
        0x000104b8:    f642603f    B.?`    MOV      r0,#0x2e3f
        0x000104bc:    f2c0003f    ..?.    MOVT     r0,#0x3f
        0x000104c0:    900c        ..      STR      r0,[sp,#0x30]
        0x000104c2:    e7ff        ..      B        0x104c4 ; am_util_stdio_vsprintf + 1528
        0x000104c4:    e7ff        ..      B        0x104c6 ; am_util_stdio_vsprintf + 1530
        0x000104c6:    980c        ..      LDR      r0,[sp,#0x30]
        0x000104c8:    991c        ..      LDR      r1,[sp,#0x70]
        0x000104ca:    6008        .`      STR      r0,[r1,#0]
        0x000104cc:    2003        .       MOVS     r0,#3
        0x000104ce:    9012        ..      STR      r0,[sp,#0x48]
        0x000104d0:    e7ff        ..      B        0x104d2 ; am_util_stdio_vsprintf + 1542
        0x000104d2:    9912        ..      LDR      r1,[sp,#0x48]
        0x000104d4:    9814        ..      LDR      r0,[sp,#0x50]
        0x000104d6:    4408        .D      ADD      r0,r0,r1
        0x000104d8:    9014        ..      STR      r0,[sp,#0x50]
        0x000104da:    9912        ..      LDR      r1,[sp,#0x48]
        0x000104dc:    981c        ..      LDR      r0,[sp,#0x70]
        0x000104de:    4408        .D      ADD      r0,r0,r1
        0x000104e0:    901c        ..      STR      r0,[sp,#0x70]
        0x000104e2:    e7ff        ..      B        0x104e4 ; am_util_stdio_vsprintf + 1560
        0x000104e4:    e00d        ..      B        0x10502 ; am_util_stdio_vsprintf + 1590
        0x000104e6:    981c        ..      LDR      r0,[sp,#0x70]
        0x000104e8:    b138        8.      CBZ      r0,0x104fa ; am_util_stdio_vsprintf + 1582
        0x000104ea:    e7ff        ..      B        0x104ec ; am_util_stdio_vsprintf + 1568
        0x000104ec:    981b        ..      LDR      r0,[sp,#0x6c]
        0x000104ee:    7800        .x      LDRB     r0,[r0,#0]
        0x000104f0:    991c        ..      LDR      r1,[sp,#0x70]
        0x000104f2:    1c4a        J.      ADDS     r2,r1,#1
        0x000104f4:    921c        ..      STR      r2,[sp,#0x70]
        0x000104f6:    7008        .p      STRB     r0,[r1,#0]
        0x000104f8:    e7ff        ..      B        0x104fa ; am_util_stdio_vsprintf + 1582
        0x000104fa:    9814        ..      LDR      r0,[sp,#0x50]
        0x000104fc:    3001        .0      ADDS     r0,#1
        0x000104fe:    9014        ..      STR      r0,[sp,#0x50]
        0x00010500:    e7ff        ..      B        0x10502 ; am_util_stdio_vsprintf + 1590
        0x00010502:    981b        ..      LDR      r0,[sp,#0x6c]
        0x00010504:    3001        .0      ADDS     r0,#1
        0x00010506:    901b        ..      STR      r0,[sp,#0x6c]
        0x00010508:    f7ffbce9    ....    B.W      0xfede ; am_util_stdio_vsprintf + 18
        0x0001050c:    981c        ..      LDR      r0,[sp,#0x70]
        0x0001050e:    b120         .      CBZ      r0,0x1051a ; am_util_stdio_vsprintf + 1614
        0x00010510:    e7ff        ..      B        0x10512 ; am_util_stdio_vsprintf + 1606
        0x00010512:    991c        ..      LDR      r1,[sp,#0x70]
        0x00010514:    2000        .       MOVS     r0,#0
        0x00010516:    7008        .p      STRB     r0,[r1,#0]
        0x00010518:    e7ff        ..      B        0x1051a ; am_util_stdio_vsprintf + 1614
        0x0001051a:    9814        ..      LDR      r0,[sp,#0x50]
        0x0001051c:    b01e        ..      ADD      sp,sp,#0x78
        0x0001051e:    bd80        ..      POP      {r7,pc}
    decstr_to_int
        0x00010520:    b087        ..      SUB      sp,sp,#0x1c
        0x00010522:    9006        ..      STR      r0,[sp,#0x18]
        0x00010524:    9105        ..      STR      r1,[sp,#0x14]
        0x00010526:    2000        .       MOVS     r0,#0
        0x00010528:    f88d0013    ....    STRB     r0,[sp,#0x13]
        0x0001052c:    9003        ..      STR      r0,[sp,#0xc]
        0x0001052e:    9002        ..      STR      r0,[sp,#8]
        0x00010530:    9806        ..      LDR      r0,[sp,#0x18]
        0x00010532:    7800        .x      LDRB     r0,[r0,#0]
        0x00010534:    282d        -(      CMP      r0,#0x2d
        0x00010536:    d10a        ..      BNE      0x1054e ; decstr_to_int + 46
        0x00010538:    e7ff        ..      B        0x1053a ; decstr_to_int + 26
        0x0001053a:    2001        .       MOVS     r0,#1
        0x0001053c:    f88d0013    ....    STRB     r0,[sp,#0x13]
        0x00010540:    9806        ..      LDR      r0,[sp,#0x18]
        0x00010542:    3001        .0      ADDS     r0,#1
        0x00010544:    9006        ..      STR      r0,[sp,#0x18]
        0x00010546:    9802        ..      LDR      r0,[sp,#8]
        0x00010548:    3001        .0      ADDS     r0,#1
        0x0001054a:    9002        ..      STR      r0,[sp,#8]
        0x0001054c:    e7ff        ..      B        0x1054e ; decstr_to_int + 46
        0x0001054e:    e7ff        ..      B        0x10550 ; decstr_to_int + 48
        0x00010550:    9806        ..      LDR      r0,[sp,#0x18]
        0x00010552:    7801        .x      LDRB     r1,[r0,#0]
        0x00010554:    2000        .       MOVS     r0,#0
        0x00010556:    2930        0)      CMP      r1,#0x30
        0x00010558:    9001        ..      STR      r0,[sp,#4]
        0x0001055a:    db08        ..      BLT      0x1056e ; decstr_to_int + 78
        0x0001055c:    e7ff        ..      B        0x1055e ; decstr_to_int + 62
        0x0001055e:    9806        ..      LDR      r0,[sp,#0x18]
        0x00010560:    7801        .x      LDRB     r1,[r0,#0]
        0x00010562:    2000        .       MOVS     r0,#0
        0x00010564:    293a        :)      CMP      r1,#0x3a
        0x00010566:    bfb8        ..      IT       LT
        0x00010568:    2001        .       MOVLT    r0,#1
        0x0001056a:    9001        ..      STR      r0,[sp,#4]
        0x0001056c:    e7ff        ..      B        0x1056e ; decstr_to_int + 78
        0x0001056e:    9801        ..      LDR      r0,[sp,#4]
        0x00010570:    07c0        ..      LSLS     r0,r0,#31
        0x00010572:    b190        ..      CBZ      r0,0x1059a ; decstr_to_int + 122
        0x00010574:    e7ff        ..      B        0x10576 ; decstr_to_int + 86
        0x00010576:    9802        ..      LDR      r0,[sp,#8]
        0x00010578:    3001        .0      ADDS     r0,#1
        0x0001057a:    9002        ..      STR      r0,[sp,#8]
        0x0001057c:    9803        ..      LDR      r0,[sp,#0xc]
        0x0001057e:    eb000080    ....    ADD      r0,r0,r0,LSL #2
        0x00010582:    0040        @.      LSLS     r0,r0,#1
        0x00010584:    9003        ..      STR      r0,[sp,#0xc]
        0x00010586:    9806        ..      LDR      r0,[sp,#0x18]
        0x00010588:    7800        .x      LDRB     r0,[r0,#0]
        0x0001058a:    9903        ..      LDR      r1,[sp,#0xc]
        0x0001058c:    4408        .D      ADD      r0,r0,r1
        0x0001058e:    3830        08      SUBS     r0,r0,#0x30
        0x00010590:    9003        ..      STR      r0,[sp,#0xc]
        0x00010592:    9806        ..      LDR      r0,[sp,#0x18]
        0x00010594:    3001        .0      ADDS     r0,#1
        0x00010596:    9006        ..      STR      r0,[sp,#0x18]
        0x00010598:    e7da        ..      B        0x10550 ; decstr_to_int + 48
        0x0001059a:    9805        ..      LDR      r0,[sp,#0x14]
        0x0001059c:    b120         .      CBZ      r0,0x105a8 ; decstr_to_int + 136
        0x0001059e:    e7ff        ..      B        0x105a0 ; decstr_to_int + 128
        0x000105a0:    9802        ..      LDR      r0,[sp,#8]
        0x000105a2:    9905        ..      LDR      r1,[sp,#0x14]
        0x000105a4:    6008        .`      STR      r0,[r1,#0]
        0x000105a6:    e7ff        ..      B        0x105a8 ; decstr_to_int + 136
        0x000105a8:    f89d0013    ....    LDRB     r0,[sp,#0x13]
        0x000105ac:    07c0        ..      LSLS     r0,r0,#31
        0x000105ae:    b120         .      CBZ      r0,0x105ba ; decstr_to_int + 154
        0x000105b0:    e7ff        ..      B        0x105b2 ; decstr_to_int + 146
        0x000105b2:    9803        ..      LDR      r0,[sp,#0xc]
        0x000105b4:    4240        @B      RSBS     r0,r0,#0
        0x000105b6:    9000        ..      STR      r0,[sp,#0]
        0x000105b8:    e002        ..      B        0x105c0 ; decstr_to_int + 160
        0x000105ba:    9803        ..      LDR      r0,[sp,#0xc]
        0x000105bc:    9000        ..      STR      r0,[sp,#0]
        0x000105be:    e7ff        ..      B        0x105c0 ; decstr_to_int + 160
        0x000105c0:    9800        ..      LDR      r0,[sp,#0]
        0x000105c2:    b007        ..      ADD      sp,sp,#0x1c
        0x000105c4:    4770        pG      BX       lr
        0x000105c6:    0000        ..      MOVS     r0,r0
    divu64_10
        0x000105c8:    b08c        ..      SUB      sp,sp,#0x30
        0x000105ca:    9109        ..      STR      r1,[sp,#0x24]
        0x000105cc:    9008        ..      STR      r0,[sp,#0x20]
        0x000105ce:    9809        ..      LDR      r0,[sp,#0x24]
        0x000105d0:    2800        .(      CMP      r0,#0
        0x000105d2:    d05b        [.      BEQ      0x1068c ; divu64_10 + 196
        0x000105d4:    e7ff        ..      B        0x105d6 ; divu64_10 + 14
        0x000105d6:    9b08        ..      LDR      r3,[sp,#0x20]
        0x000105d8:    9a09        ..      LDR      r2,[sp,#0x24]
        0x000105da:    ea5f0052    _.R.    LSRS.W   r0,r2,#1
        0x000105de:    ea4f0133    O.3.    RRX      r1,r3
        0x000105e2:    089b        ..      LSRS     r3,r3,#2
        0x000105e4:    ea437382    C..s    ORR      r3,r3,r2,LSL #30
        0x000105e8:    18c9        ..      ADDS     r1,r1,r3
        0x000105ea:    eb400092    @...    ADC      r0,r0,r2,LSR #2
        0x000105ee:    9106        ..      STR      r1,[sp,#0x18]
        0x000105f0:    9007        ..      STR      r0,[sp,#0x1c]
        0x000105f2:    9906        ..      LDR      r1,[sp,#0x18]
        0x000105f4:    9807        ..      LDR      r0,[sp,#0x1c]
        0x000105f6:    090a        ..      LSRS     r2,r1,#4
        0x000105f8:    ea427200    B..r    ORR      r2,r2,r0,LSL #28
        0x000105fc:    1889        ..      ADDS     r1,r1,r2
        0x000105fe:    eb401010    @...    ADC      r0,r0,r0,LSR #4
        0x00010602:    9106        ..      STR      r1,[sp,#0x18]
        0x00010604:    9007        ..      STR      r0,[sp,#0x1c]
        0x00010606:    9906        ..      LDR      r1,[sp,#0x18]
        0x00010608:    9807        ..      LDR      r0,[sp,#0x1c]
        0x0001060a:    0a0a        ..      LSRS     r2,r1,#8
        0x0001060c:    ea426200    B..b    ORR      r2,r2,r0,LSL #24
        0x00010610:    1889        ..      ADDS     r1,r1,r2
        0x00010612:    eb402010    @..     ADC      r0,r0,r0,LSR #8
        0x00010616:    9106        ..      STR      r1,[sp,#0x18]
        0x00010618:    9007        ..      STR      r0,[sp,#0x1c]
        0x0001061a:    9906        ..      LDR      r1,[sp,#0x18]
        0x0001061c:    9807        ..      LDR      r0,[sp,#0x1c]
        0x0001061e:    0c0a        ..      LSRS     r2,r1,#16
        0x00010620:    ea424200    B..B    ORR      r2,r2,r0,LSL #16
        0x00010624:    1889        ..      ADDS     r1,r1,r2
        0x00010626:    eb404010    @..@    ADC      r0,r0,r0,LSR #16
        0x0001062a:    9106        ..      STR      r1,[sp,#0x18]
        0x0001062c:    9007        ..      STR      r0,[sp,#0x1c]
        0x0001062e:    9906        ..      LDR      r1,[sp,#0x18]
        0x00010630:    9807        ..      LDR      r0,[sp,#0x1c]
        0x00010632:    1809        ..      ADDS     r1,r1,r0
        0x00010634:    f1400000    @...    ADC      r0,r0,#0
        0x00010638:    9106        ..      STR      r1,[sp,#0x18]
        0x0001063a:    9007        ..      STR      r0,[sp,#0x1c]
        0x0001063c:    9806        ..      LDR      r0,[sp,#0x18]
        0x0001063e:    9907        ..      LDR      r1,[sp,#0x1c]
        0x00010640:    08c0        ..      LSRS     r0,r0,#3
        0x00010642:    ea407041    @.Ap    ORR      r0,r0,r1,LSL #29
        0x00010646:    08c9        ..      LSRS     r1,r1,#3
        0x00010648:    9107        ..      STR      r1,[sp,#0x1c]
        0x0001064a:    9006        ..      STR      r0,[sp,#0x18]
        0x0001064c:    9908        ..      LDR      r1,[sp,#0x20]
        0x0001064e:    9809        ..      LDR      r0,[sp,#0x24]
        0x00010650:    9a06        ..      LDR      r2,[sp,#0x18]
        0x00010652:    f8ddc01c    ....    LDR      r12,[sp,#0x1c]
        0x00010656:    230a        .#      MOVS     r3,#0xa
        0x00010658:    fba23203    ...2    UMULL    r3,r2,r2,r3
        0x0001065c:    eb0c0c8c    ....    ADD      r12,r12,r12,LSL #2
        0x00010660:    eb02024c    ..L.    ADD      r2,r2,r12,LSL #1
        0x00010664:    1ac9        ..      SUBS     r1,r1,r3
        0x00010666:    4190        .A      SBCS     r0,r0,r2
        0x00010668:    9104        ..      STR      r1,[sp,#0x10]
        0x0001066a:    9005        ..      STR      r0,[sp,#0x14]
        0x0001066c:    9906        ..      LDR      r1,[sp,#0x18]
        0x0001066e:    9807        ..      LDR      r0,[sp,#0x1c]
        0x00010670:    9b04        ..      LDR      r3,[sp,#0x10]
        0x00010672:    9a05        ..      LDR      r2,[sp,#0x14]
        0x00010674:    3306        .3      ADDS     r3,#6
        0x00010676:    f1420200    B...    ADC      r2,r2,#0
        0x0001067a:    091b        ..      LSRS     r3,r3,#4
        0x0001067c:    ea437302    C..s    ORR      r3,r3,r2,LSL #28
        0x00010680:    18c9        ..      ADDS     r1,r1,r3
        0x00010682:    eb401012    @...    ADC      r0,r0,r2,LSR #4
        0x00010686:    910a        ..      STR      r1,[sp,#0x28]
        0x00010688:    900b        ..      STR      r0,[sp,#0x2c]
        0x0001068a:    e025        %.      B        0x106d8 ; divu64_10 + 272
        0x0001068c:    9808        ..      LDR      r0,[sp,#0x20]
        0x0001068e:    9001        ..      STR      r0,[sp,#4]
        0x00010690:    9901        ..      LDR      r1,[sp,#4]
        0x00010692:    0848        H.      LSRS     r0,r1,#1
        0x00010694:    eb000091    ....    ADD      r0,r0,r1,LSR #2
        0x00010698:    9003        ..      STR      r0,[sp,#0xc]
        0x0001069a:    9803        ..      LDR      r0,[sp,#0xc]
        0x0001069c:    eb001010    ....    ADD      r0,r0,r0,LSR #4
        0x000106a0:    9003        ..      STR      r0,[sp,#0xc]
        0x000106a2:    9803        ..      LDR      r0,[sp,#0xc]
        0x000106a4:    eb002010    ...     ADD      r0,r0,r0,LSR #8
        0x000106a8:    9003        ..      STR      r0,[sp,#0xc]
        0x000106aa:    9803        ..      LDR      r0,[sp,#0xc]
        0x000106ac:    eb004010    ...@    ADD      r0,r0,r0,LSR #16
        0x000106b0:    9003        ..      STR      r0,[sp,#0xc]
        0x000106b2:    9803        ..      LDR      r0,[sp,#0xc]
        0x000106b4:    08c0        ..      LSRS     r0,r0,#3
        0x000106b6:    9003        ..      STR      r0,[sp,#0xc]
        0x000106b8:    9801        ..      LDR      r0,[sp,#4]
        0x000106ba:    9903        ..      LDR      r1,[sp,#0xc]
        0x000106bc:    eb010181    ....    ADD      r1,r1,r1,LSL #2
        0x000106c0:    eba00041    ..A.    SUB      r0,r0,r1,LSL #1
        0x000106c4:    9002        ..      STR      r0,[sp,#8]
        0x000106c6:    9803        ..      LDR      r0,[sp,#0xc]
        0x000106c8:    9902        ..      LDR      r1,[sp,#8]
        0x000106ca:    3106        .1      ADDS     r1,#6
        0x000106cc:    eb001011    ....    ADD      r0,r0,r1,LSR #4
        0x000106d0:    2100        .!      MOVS     r1,#0
        0x000106d2:    910b        ..      STR      r1,[sp,#0x2c]
        0x000106d4:    900a        ..      STR      r0,[sp,#0x28]
        0x000106d6:    e7ff        ..      B        0x106d8 ; divu64_10 + 272
        0x000106d8:    980a        ..      LDR      r0,[sp,#0x28]
        0x000106da:    990b        ..      LDR      r1,[sp,#0x2c]
        0x000106dc:    b00c        ..      ADD      sp,sp,#0x30
        0x000106de:    4770        pG      BX       lr
    fram_init
        0x000106e0:    b580        ..      PUSH     {r7,lr}
        0x000106e2:    b086        ..      SUB      sp,sp,#0x18
        0x000106e4:    2000        .       MOVS     r0,#0
        0x000106e6:    9003        ..      STR      r0,[sp,#0xc]
        0x000106e8:    f2450084    E...    MOV      r0,#0x5084
        0x000106ec:    f2c10001    ....    MOVT     r0,#0x1001
        0x000106f0:    6800        .h      LDR      r0,[r0,#0]
        0x000106f2:    9000        ..      STR      r0,[sp,#0]
        0x000106f4:    f241104c    A.L.    MOV      r0,#0x114c
        0x000106f8:    f2c10001    ....    MOVT     r0,#0x1001
        0x000106fc:    9001        ..      STR      r0,[sp,#4]
        0x000106fe:    f44f7080    O..p    MOV      r0,#0x100
        0x00010702:    9002        ..      STR      r0,[sp,#8]
        0x00010704:    f2410028    A.(.    MOV      r0,#0x1028
        0x00010708:    f2c10001    ....    MOVT     r0,#0x1001
        0x0001070c:    f8d0c014    ....    LDR      r12,[r0,#0x14]
        0x00010710:    f64432ec    D..2    MOV      r2,#0x4bec
        0x00010714:    f2c10201    ....    MOVT     r2,#0x1001
        0x00010718:    f644437c    D.|C    MOV      r3,#0x4c7c
        0x0001071c:    f2c10301    ....    MOVT     r3,#0x1001
        0x00010720:    2003        .       MOVS     r0,#3
        0x00010722:    4669        iF      MOV      r1,sp
        0x00010724:    47e0        .G      BLX      r12
        0x00010726:    9004        ..      STR      r0,[sp,#0x10]
        0x00010728:    9804        ..      LDR      r0,[sp,#0x10]
        0x0001072a:    bb48        H.      CBNZ     r0,0x10780 ; fram_init + 160
        0x0001072c:    e7ff        ..      B        0x1072e ; fram_init + 78
        0x0001072e:    f2410028    A.(.    MOV      r0,#0x1028
        0x00010732:    f2c10001    ....    MOVT     r0,#0x1001
        0x00010736:    69c2        .i      LDR      r2,[r0,#0x1c]
        0x00010738:    f64430ec    D..0    MOV      r0,#0x4bec
        0x0001073c:    f2c10001    ....    MOVT     r0,#0x1001
        0x00010740:    6800        .h      LDR      r0,[r0,#0]
        0x00010742:    a903        ..      ADD      r1,sp,#0xc
        0x00010744:    4790        .G      BLX      r2
        0x00010746:    9004        ..      STR      r0,[sp,#0x10]
        0x00010748:    9804        ..      LDR      r0,[sp,#0x10]
        0x0001074a:    b940        @.      CBNZ     r0,0x1075e ; fram_init + 126
        0x0001074c:    e7ff        ..      B        0x1074e ; fram_init + 110
        0x0001074e:    9803        ..      LDR      r0,[sp,#0xc]
        0x00010750:    f24a3100    J..1    MOVW     r1,#0xa300
        0x00010754:    f2c00158    ..X.    MOVT     r1,#0x58
        0x00010758:    4288        .B      CMP      r0,r1
        0x0001075a:    d004        ..      BEQ      0x10766 ; fram_init + 134
        0x0001075c:    e7ff        ..      B        0x1075e ; fram_init + 126
        0x0001075e:    f04f30ff    O..0    MOV      r0,#0xffffffff
        0x00010762:    9005        ..      STR      r0,[sp,#0x14]
        0x00010764:    e010        ..      B        0x10788 ; fram_init + 168
        0x00010766:    f641501a    A..P    MOV      r0,#0x1d1a
        0x0001076a:    f2c00001    ....    MOVT     r0,#1
        0x0001076e:    f2410128    A.(.    MOV      r1,#0x1028
        0x00010772:    f2c10101    ....    MOVT     r1,#0x1001
        0x00010776:    f7fffb69    ..i.    BL       am_util_stdio_printf ; 0xfe4c
        0x0001077a:    2000        .       MOVS     r0,#0
        0x0001077c:    9005        ..      STR      r0,[sp,#0x14]
        0x0001077e:    e003        ..      B        0x10788 ; fram_init + 168
        0x00010780:    f04f30ff    O..0    MOV      r0,#0xffffffff
        0x00010784:    9005        ..      STR      r0,[sp,#0x14]
        0x00010786:    e7ff        ..      B        0x10788 ; fram_init + 168
        0x00010788:    9805        ..      LDR      r0,[sp,#0x14]
        0x0001078a:    b006        ..      ADD      sp,sp,#0x18
        0x0001078c:    bd80        ..      POP      {r7,pc}
        0x0001078e:    0000        ..      MOVS     r0,r0
    fram_term
        0x00010790:    b580        ..      PUSH     {r7,lr}
        0x00010792:    f2410028    A.(.    MOV      r0,#0x1028
        0x00010796:    f2c10001    ....    MOVT     r0,#0x1001
        0x0001079a:    6981        .i      LDR      r1,[r0,#0x18]
        0x0001079c:    f64430ec    D..0    MOV      r0,#0x4bec
        0x000107a0:    f2c10001    ....    MOVT     r0,#0x1001
        0x000107a4:    6800        .h      LDR      r0,[r0,#0]
        0x000107a6:    4788        .G      BLX      r1
        0x000107a8:    bd80        ..      POP      {r7,pc}
        0x000107aa:    0000        ..      MOVS     r0,r0
    ftoa
        0x000107ac:    b580        ..      PUSH     {r7,lr}
        0x000107ae:    b090        ..      SUB      sp,sp,#0x40
        0x000107b0:    ed8d0a0e    ....    VSTR     s0,[sp,#0x38]
        0x000107b4:    900d        ..      STR      r0,[sp,#0x34]
        0x000107b6:    910c        ..      STR      r1,[sp,#0x30]
        0x000107b8:    980d        ..      LDR      r0,[sp,#0x34]
        0x000107ba:    6800        .h      LDR      r0,[r0,#0]
        0x000107bc:    9009        ..      STR      r0,[sp,#0x24]
        0x000107be:    9809        ..      LDR      r0,[sp,#0x24]
        0x000107c0:    2803        .(      CMP      r0,#3
        0x000107c2:    dc04        ..      BGT      0x107ce ; ftoa + 34
        0x000107c4:    e7ff        ..      B        0x107c6 ; ftoa + 26
        0x000107c6:    f06f0002    o...    MVN      r0,#2
        0x000107ca:    900f        ..      STR      r0,[sp,#0x3c]
        0x000107cc:    e103        ..      B        0x109d6 ; ftoa + 554
        0x000107ce:    ed9d0a0e    ....    VLDR     s0,[sp,#0x38]
        0x000107d2:    eeb50a40    ..@.    VCMP.F32 s0,#0.0
        0x000107d6:    eef1fa10    ....    VMRS     APSR_nzcv,FPSCR
        0x000107da:    d109        ..      BNE      0x107f0 ; ftoa + 68
        0x000107dc:    e7ff        ..      B        0x107de ; ftoa + 50
        0x000107de:    990d        ..      LDR      r1,[sp,#0x34]
        0x000107e0:    f6426030    B.0`    MOV      r0,#0x2e30
        0x000107e4:    f2c00030    ..0.    MOVT     r0,#0x30
        0x000107e8:    6008        .`      STR      r0,[r1,#0]
        0x000107ea:    2003        .       MOVS     r0,#3
        0x000107ec:    900f        ..      STR      r0,[sp,#0x3c]
        0x000107ee:    e0f2        ..      B        0x109d6 ; ftoa + 554
        0x000107f0:    980d        ..      LDR      r0,[sp,#0x34]
        0x000107f2:    9005        ..      STR      r0,[sp,#0x14]
        0x000107f4:    980e        ..      LDR      r0,[sp,#0x38]
        0x000107f6:    900b        ..      STR      r0,[sp,#0x2c]
        0x000107f8:    980b        ..      LDR      r0,[sp,#0x2c]
        0x000107fa:    0dc1        ..      LSRS     r1,r0,#23
        0x000107fc:    f06f007e    o.~.    MVN      r0,#0x7e
        0x00010800:    fa50f081    P...    UXTAB    r0,r0,r1
        0x00010804:    900a        ..      STR      r0,[sp,#0x28]
        0x00010806:    980b        ..      LDR      r0,[sp,#0x2c]
        0x00010808:    f4400000    @...    ORR      r0,r0,#0x800000
        0x0001080c:    f020407f     ..@    BIC      r0,r0,#0xff000000
        0x00010810:    9008        ..      STR      r0,[sp,#0x20]
        0x00010812:    2000        .       MOVS     r0,#0
        0x00010814:    9006        ..      STR      r0,[sp,#0x18]
        0x00010816:    9007        ..      STR      r0,[sp,#0x1c]
        0x00010818:    980a        ..      LDR      r0,[sp,#0x28]
        0x0001081a:    281f        .(      CMP      r0,#0x1f
        0x0001081c:    db04        ..      BLT      0x10828 ; ftoa + 124
        0x0001081e:    e7ff        ..      B        0x10820 ; ftoa + 116
        0x00010820:    f06f0001    o...    MVN      r0,#1
        0x00010824:    900f        ..      STR      r0,[sp,#0x3c]
        0x00010826:    e0d6        ..      B        0x109d6 ; ftoa + 554
        0x00010828:    980a        ..      LDR      r0,[sp,#0x28]
        0x0001082a:    f1100f18    ....    CMN      r0,#0x18
        0x0001082e:    dc04        ..      BGT      0x1083a ; ftoa + 142
        0x00010830:    e7ff        ..      B        0x10832 ; ftoa + 134
        0x00010832:    f04f30ff    O..0    MOV      r0,#0xffffffff
        0x00010836:    900f        ..      STR      r0,[sp,#0x3c]
        0x00010838:    e0cd        ..      B        0x109d6 ; ftoa + 554
        0x0001083a:    980a        ..      LDR      r0,[sp,#0x28]
        0x0001083c:    2817        .(      CMP      r0,#0x17
        0x0001083e:    db06        ..      BLT      0x1084e ; ftoa + 162
        0x00010840:    e7ff        ..      B        0x10842 ; ftoa + 150
        0x00010842:    9808        ..      LDR      r0,[sp,#0x20]
        0x00010844:    990a        ..      LDR      r1,[sp,#0x28]
        0x00010846:    3917        .9      SUBS     r1,r1,#0x17
        0x00010848:    4088        .@      LSLS     r0,r0,r1
        0x0001084a:    9007        ..      STR      r0,[sp,#0x1c]
        0x0001084c:    e01a        ..      B        0x10884 ; ftoa + 216
        0x0001084e:    980a        ..      LDR      r0,[sp,#0x28]
        0x00010850:    2800        .(      CMP      r0,#0
        0x00010852:    d40e        ..      BMI      0x10872 ; ftoa + 198
        0x00010854:    e7ff        ..      B        0x10856 ; ftoa + 170
        0x00010856:    9808        ..      LDR      r0,[sp,#0x20]
        0x00010858:    990a        ..      LDR      r1,[sp,#0x28]
        0x0001085a:    f1c10117    ....    RSB      r1,r1,#0x17
        0x0001085e:    4108        .A      ASRS     r0,r0,r1
        0x00010860:    9007        ..      STR      r0,[sp,#0x1c]
        0x00010862:    9808        ..      LDR      r0,[sp,#0x20]
        0x00010864:    990a        ..      LDR      r1,[sp,#0x28]
        0x00010866:    3101        .1      ADDS     r1,#1
        0x00010868:    4088        .@      LSLS     r0,r0,r1
        0x0001086a:    f020407f     ..@    BIC      r0,r0,#0xff000000
        0x0001086e:    9006        ..      STR      r0,[sp,#0x18]
        0x00010870:    e007        ..      B        0x10882 ; ftoa + 214
        0x00010872:    9808        ..      LDR      r0,[sp,#0x20]
        0x00010874:    f020407f     ..@    BIC      r0,r0,#0xff000000
        0x00010878:    990a        ..      LDR      r1,[sp,#0x28]
        0x0001087a:    43c9        .C      MVNS     r1,r1
        0x0001087c:    40c8        .@      LSRS     r0,r0,r1
        0x0001087e:    9006        ..      STR      r0,[sp,#0x18]
        0x00010880:    e7ff        ..      B        0x10882 ; ftoa + 214
        0x00010882:    e7ff        ..      B        0x10884 ; ftoa + 216
        0x00010884:    e7ff        ..      B        0x10886 ; ftoa + 218
        0x00010886:    e7ff        ..      B        0x10888 ; ftoa + 220
        0x00010888:    980b        ..      LDR      r0,[sp,#0x2c]
        0x0001088a:    f1b03fff    ...?    CMP      r0,#0xffffffff
        0x0001088e:    dc06        ..      BGT      0x1089e ; ftoa + 242
        0x00010890:    e7ff        ..      B        0x10892 ; ftoa + 230
        0x00010892:    990d        ..      LDR      r1,[sp,#0x34]
        0x00010894:    1c48        H.      ADDS     r0,r1,#1
        0x00010896:    900d        ..      STR      r0,[sp,#0x34]
        0x00010898:    202d        -       MOVS     r0,#0x2d
        0x0001089a:    7008        .p      STRB     r0,[r1,#0]
        0x0001089c:    e7ff        ..      B        0x1089e ; ftoa + 242
        0x0001089e:    9807        ..      LDR      r0,[sp,#0x1c]
        0x000108a0:    b930        0.      CBNZ     r0,0x108b0 ; ftoa + 260
        0x000108a2:    e7ff        ..      B        0x108a4 ; ftoa + 248
        0x000108a4:    990d        ..      LDR      r1,[sp,#0x34]
        0x000108a6:    1c48        H.      ADDS     r0,r1,#1
        0x000108a8:    900d        ..      STR      r0,[sp,#0x34]
        0x000108aa:    2030        0       MOVS     r0,#0x30
        0x000108ac:    7008        .p      STRB     r0,[r1,#0]
        0x000108ae:    e01f        ..      B        0x108f0 ; ftoa + 324
        0x000108b0:    9807        ..      LDR      r0,[sp,#0x1c]
        0x000108b2:    2801        .(      CMP      r0,#1
        0x000108b4:    db06        ..      BLT      0x108c4 ; ftoa + 280
        0x000108b6:    e7ff        ..      B        0x108b8 ; ftoa + 268
        0x000108b8:    9807        ..      LDR      r0,[sp,#0x1c]
        0x000108ba:    17c1        ..      ASRS     r1,r0,#31
        0x000108bc:    9a0d        ..      LDR      r2,[sp,#0x34]
        0x000108be:    f000fe2d    ..-.    BL       uint64_to_str ; 0x1151c
        0x000108c2:    e00b        ..      B        0x108dc ; ftoa + 304
        0x000108c4:    990d        ..      LDR      r1,[sp,#0x34]
        0x000108c6:    1c48        H.      ADDS     r0,r1,#1
        0x000108c8:    900d        ..      STR      r0,[sp,#0x34]
        0x000108ca:    202d        -       MOVS     r0,#0x2d
        0x000108cc:    7008        .p      STRB     r0,[r1,#0]
        0x000108ce:    9807        ..      LDR      r0,[sp,#0x1c]
        0x000108d0:    4240        @B      RSBS     r0,r0,#0
        0x000108d2:    17c1        ..      ASRS     r1,r0,#31
        0x000108d4:    9a0d        ..      LDR      r2,[sp,#0x34]
        0x000108d6:    f000fe21    ..!.    BL       uint64_to_str ; 0x1151c
        0x000108da:    e7ff        ..      B        0x108dc ; ftoa + 304
        0x000108dc:    e7ff        ..      B        0x108de ; ftoa + 306
        0x000108de:    980d        ..      LDR      r0,[sp,#0x34]
        0x000108e0:    7800        .x      LDRB     r0,[r0,#0]
        0x000108e2:    b120         .      CBZ      r0,0x108ee ; ftoa + 322
        0x000108e4:    e7ff        ..      B        0x108e6 ; ftoa + 314
        0x000108e6:    980d        ..      LDR      r0,[sp,#0x34]
        0x000108e8:    3001        .0      ADDS     r0,#1
        0x000108ea:    900d        ..      STR      r0,[sp,#0x34]
        0x000108ec:    e7f7        ..      B        0x108de ; ftoa + 306
        0x000108ee:    e7ff        ..      B        0x108f0 ; ftoa + 324
        0x000108f0:    990d        ..      LDR      r1,[sp,#0x34]
        0x000108f2:    1c48        H.      ADDS     r0,r1,#1
        0x000108f4:    900d        ..      STR      r0,[sp,#0x34]
        0x000108f6:    202e        .       MOVS     r0,#0x2e
        0x000108f8:    7008        .p      STRB     r0,[r1,#0]
        0x000108fa:    9806        ..      LDR      r0,[sp,#0x18]
        0x000108fc:    b930        0.      CBNZ     r0,0x1090c ; ftoa + 352
        0x000108fe:    e7ff        ..      B        0x10900 ; ftoa + 340
        0x00010900:    990d        ..      LDR      r1,[sp,#0x34]
        0x00010902:    1c48        H.      ADDS     r0,r1,#1
        0x00010904:    900d        ..      STR      r0,[sp,#0x34]
        0x00010906:    2030        0       MOVS     r0,#0x30
        0x00010908:    7008        .p      STRB     r0,[r1,#0]
        0x0001090a:    e05c        \.      B        0x109c6 ; ftoa + 538
        0x0001090c:    9909        ..      LDR      r1,[sp,#0x24]
        0x0001090e:    980d        ..      LDR      r0,[sp,#0x34]
        0x00010910:    9a05        ..      LDR      r2,[sp,#0x14]
        0x00010912:    1a80        ..      SUBS     r0,r0,r2
        0x00010914:    43c0        .C      MVNS     r0,r0
        0x00010916:    4408        .D      ADD      r0,r0,r1
        0x00010918:    9002        ..      STR      r0,[sp,#8]
        0x0001091a:    9802        ..      LDR      r0,[sp,#8]
        0x0001091c:    990c        ..      LDR      r1,[sp,#0x30]
        0x0001091e:    4288        .B      CMP      r0,r1
        0x00010920:    dd03        ..      BLE      0x1092a ; ftoa + 382
        0x00010922:    e7ff        ..      B        0x10924 ; ftoa + 376
        0x00010924:    980c        ..      LDR      r0,[sp,#0x30]
        0x00010926:    9001        ..      STR      r0,[sp,#4]
        0x00010928:    e002        ..      B        0x10930 ; ftoa + 388
        0x0001092a:    9802        ..      LDR      r0,[sp,#8]
        0x0001092c:    9001        ..      STR      r0,[sp,#4]
        0x0001092e:    e7ff        ..      B        0x10930 ; ftoa + 388
        0x00010930:    9801        ..      LDR      r0,[sp,#4]
        0x00010932:    9002        ..      STR      r0,[sp,#8]
        0x00010934:    2000        .       MOVS     r0,#0
        0x00010936:    9003        ..      STR      r0,[sp,#0xc]
        0x00010938:    e7ff        ..      B        0x1093a ; ftoa + 398
        0x0001093a:    9803        ..      LDR      r0,[sp,#0xc]
        0x0001093c:    9902        ..      LDR      r1,[sp,#8]
        0x0001093e:    4288        .B      CMP      r0,r1
        0x00010940:    da15        ..      BGE      0x1096e ; ftoa + 450
        0x00010942:    e7ff        ..      B        0x10944 ; ftoa + 408
        0x00010944:    9806        ..      LDR      r0,[sp,#0x18]
        0x00010946:    eb000080    ....    ADD      r0,r0,r0,LSL #2
        0x0001094a:    0040        @.      LSLS     r0,r0,#1
        0x0001094c:    9006        ..      STR      r0,[sp,#0x18]
        0x0001094e:    f89d001b    ....    LDRB     r0,[sp,#0x1b]
        0x00010952:    3030        00      ADDS     r0,r0,#0x30
        0x00010954:    990d        ..      LDR      r1,[sp,#0x34]
        0x00010956:    1c4a        J.      ADDS     r2,r1,#1
        0x00010958:    920d        ..      STR      r2,[sp,#0x34]
        0x0001095a:    7008        .p      STRB     r0,[r1,#0]
        0x0001095c:    9806        ..      LDR      r0,[sp,#0x18]
        0x0001095e:    f020407f     ..@    BIC      r0,r0,#0xff000000
        0x00010962:    9006        ..      STR      r0,[sp,#0x18]
        0x00010964:    e7ff        ..      B        0x10966 ; ftoa + 442
        0x00010966:    9803        ..      LDR      r0,[sp,#0xc]
        0x00010968:    3001        .0      ADDS     r0,#1
        0x0001096a:    9003        ..      STR      r0,[sp,#0xc]
        0x0001096c:    e7e5        ..      B        0x1093a ; ftoa + 398
        0x0001096e:    9806        ..      LDR      r0,[sp,#0x18]
        0x00010970:    eb000080    ....    ADD      r0,r0,r0,LSL #2
        0x00010974:    f34050c7    @..P    SBFX     r0,r0,#23,#8
        0x00010978:    2805        .(      CMP      r0,#5
        0x0001097a:    db23        #.      BLT      0x109c4 ; ftoa + 536
        0x0001097c:    e7ff        ..      B        0x1097e ; ftoa + 466
        0x0001097e:    980d        ..      LDR      r0,[sp,#0x34]
        0x00010980:    3801        .8      SUBS     r0,#1
        0x00010982:    9004        ..      STR      r0,[sp,#0x10]
        0x00010984:    e7ff        ..      B        0x10986 ; ftoa + 474
        0x00010986:    9804        ..      LDR      r0,[sp,#0x10]
        0x00010988:    9905        ..      LDR      r1,[sp,#0x14]
        0x0001098a:    4288        .B      CMP      r0,r1
        0x0001098c:    d319        ..      BCC      0x109c2 ; ftoa + 534
        0x0001098e:    e7ff        ..      B        0x10990 ; ftoa + 484
        0x00010990:    9804        ..      LDR      r0,[sp,#0x10]
        0x00010992:    7800        .x      LDRB     r0,[r0,#0]
        0x00010994:    282e        .(      CMP      r0,#0x2e
        0x00010996:    d101        ..      BNE      0x1099c ; ftoa + 496
        0x00010998:    e7ff        ..      B        0x1099a ; ftoa + 494
        0x0001099a:    e00e        ..      B        0x109ba ; ftoa + 526
        0x0001099c:    9804        ..      LDR      r0,[sp,#0x10]
        0x0001099e:    7800        .x      LDRB     r0,[r0,#0]
        0x000109a0:    2839        9(      CMP      r0,#0x39
        0x000109a2:    d104        ..      BNE      0x109ae ; ftoa + 514
        0x000109a4:    e7ff        ..      B        0x109a6 ; ftoa + 506
        0x000109a6:    9904        ..      LDR      r1,[sp,#0x10]
        0x000109a8:    2030        0       MOVS     r0,#0x30
        0x000109aa:    7008        .p      STRB     r0,[r1,#0]
        0x000109ac:    e004        ..      B        0x109b8 ; ftoa + 524
        0x000109ae:    9904        ..      LDR      r1,[sp,#0x10]
        0x000109b0:    7808        .x      LDRB     r0,[r1,#0]
        0x000109b2:    3001        .0      ADDS     r0,#1
        0x000109b4:    7008        .p      STRB     r0,[r1,#0]
        0x000109b6:    e004        ..      B        0x109c2 ; ftoa + 534
        0x000109b8:    e7ff        ..      B        0x109ba ; ftoa + 526
        0x000109ba:    9804        ..      LDR      r0,[sp,#0x10]
        0x000109bc:    3801        .8      SUBS     r0,#1
        0x000109be:    9004        ..      STR      r0,[sp,#0x10]
        0x000109c0:    e7e1        ..      B        0x10986 ; ftoa + 474
        0x000109c2:    e7ff        ..      B        0x109c4 ; ftoa + 536
        0x000109c4:    e7ff        ..      B        0x109c6 ; ftoa + 538
        0x000109c6:    990d        ..      LDR      r1,[sp,#0x34]
        0x000109c8:    2000        .       MOVS     r0,#0
        0x000109ca:    7008        .p      STRB     r0,[r1,#0]
        0x000109cc:    980d        ..      LDR      r0,[sp,#0x34]
        0x000109ce:    9905        ..      LDR      r1,[sp,#0x14]
        0x000109d0:    1a40        @.      SUBS     r0,r0,r1
        0x000109d2:    900f        ..      STR      r0,[sp,#0x3c]
        0x000109d4:    e7ff        ..      B        0x109d6 ; ftoa + 554
        0x000109d6:    980f        ..      LDR      r0,[sp,#0x3c]
        0x000109d8:    b010        ..      ADD      sp,sp,#0x40
        0x000109da:    bd80        ..      POP      {r7,pc}
    init_pattern
        0x000109dc:    b081        ..      SUB      sp,sp,#4
        0x000109de:    2000        .       MOVS     r0,#0
        0x000109e0:    9000        ..      STR      r0,[sp,#0]
        0x000109e2:    e7ff        ..      B        0x109e4 ; init_pattern + 8
        0x000109e4:    9800        ..      LDR      r0,[sp,#0]
        0x000109e6:    287f        .(      CMP      r0,#0x7f
        0x000109e8:    d80b        ..      BHI      0x10a02 ; init_pattern + 38
        0x000109ea:    e7ff        ..      B        0x109ec ; init_pattern + 16
        0x000109ec:    9800        ..      LDR      r0,[sp,#0]
        0x000109ee:    f2417114    A..q    MOV      r1,#0x1714
        0x000109f2:    f2c10101    ....    MOVT     r1,#0x1001
        0x000109f6:    5408        .T      STRB     r0,[r1,r0]
        0x000109f8:    e7ff        ..      B        0x109fa ; init_pattern + 30
        0x000109fa:    9800        ..      LDR      r0,[sp,#0]
        0x000109fc:    3001        .0      ADDS     r0,#1
        0x000109fe:    9000        ..      STR      r0,[sp,#0]
        0x00010a00:    e7f0        ..      B        0x109e4 ; init_pattern + 8
        0x00010a02:    b001        ..      ADD      sp,sp,#4
        0x00010a04:    4770        pG      BX       lr
        0x00010a06:    0000        ..      MOVS     r0,r0
    initiate_fram_read
        0x00010a08:    f6444175    D.uA    MOV      r1,#0x4c75
        0x00010a0c:    f2c10101    ....    MOVT     r1,#0x1001
        0x00010a10:    2001        .       MOVS     r0,#1
        0x00010a12:    7008        .p      STRB     r0,[r1,#0]
        0x00010a14:    4770        pG      BX       lr
        0x00010a16:    0000        ..      MOVS     r0,r0
    internal_iom_get_int_err
        0x00010a18:    f2442204    D.."    MOV      r2,#0x4204
        0x00010a1c:    0300        ..      LSLS     r0,r0,#12
        0x00010a1e:    f2c50200    ....    MOVT     r2,#0x5000
        0x00010a22:    5810        .X      LDR      r0,[r2,r0]
        0x00010a24:    4301        .C      ORRS     r1,r1,r0
        0x00010a26:    f0110f6c    ..l.    TST      r1,#0x6c
        0x00010a2a:    bf1c        ..      ITT      NE
        0x00010a2c:    f04f6000    O..`    MOVNE    r0,#0x8000000
        0x00010a30:    4770        pG      BXNE     lr
        0x00010a32:    0588        ..      LSLS     r0,r1,#22
        0x00010a34:    f2400001    @...    MOVW     r0,#1
        0x00010a38:    f6c00000    ....    MOVT     r0,#0x800
        0x00010a3c:    bf48        H.      IT       MI
        0x00010a3e:    4770        pG      BXMI     lr
        0x00010a40:    06ca        ..      LSLS     r2,r1,#27
        0x00010a42:    bf44        D.      ITT      MI
        0x00010a44:    3001        .0      ADDMI    r0,#1
        0x00010a46:    4770        pG      BXMI     lr
        0x00010a48:    f4114090    ...@    ANDS     r0,r1,#0x4800
        0x00010a4c:    bf18        ..      IT       NE
        0x00010a4e:    2001        .       MOVNE    r0,#1
        0x00010a50:    4770        pG      BX       lr
        0x00010a52:    0000        ..      MOVS     r0,r0
    internal_iom_reset_on_error
        0x00010a54:    b570        p.      PUSH     {r4-r6,lr}
        0x00010a56:    f8d02864    ..d(    LDR      r2,[r0,#0x864]
        0x00010a5a:    6840        @h      LDR      r0,[r0,#4]
        0x00010a5c:    f2440300    D...    MOVW     r3,#0x4000
        0x00010a60:    f2c50300    ....    MOVT     r3,#0x5000
        0x00010a64:    eb033400    ...4    ADD      r4,r3,r0,LSL #12
        0x00010a68:    f8d45200    ...R    LDR      r5,[r4,#0x200]
        0x00010a6c:    2000        .       MOVS     r0,#0
        0x00010a6e:    050b        ..      LSLS     r3,r1,#20
        0x00010a70:    f8c40200    ....    STR      r0,[r4,#0x200]
        0x00010a74:    f14080a6    @...    BPL.W    0x10bc4 ; internal_iom_reset_on_error + 368
        0x00010a78:    f8d40280    ....    LDR      r0,[r4,#0x280]
        0x00010a7c:    0780        ..      LSLS     r0,r0,#30
        0x00010a7e:    d467        g.      BMI      0x10b50 ; internal_iom_reset_on_error + 252
        0x00010a80:    f8d402b4    ....    LDR      r0,[r4,#0x2b4]
        0x00010a84:    0780        ..      LSLS     r0,r0,#30
        0x00010a86:    d521        !.      BPL      0x10acc ; internal_iom_reset_on_error + 120
        0x00010a88:    f8d40100    ....    LDR      r0,[r4,#0x100]
        0x00010a8c:    f4100f7c    ..|.    TST      r0,#0xfc0000
        0x00010a90:    d0f6        ..      BEQ      0x10a80 ; internal_iom_reset_on_error + 44
        0x00010a92:    f8d40108    ....    LDR      r0,[r4,#0x108]
        0x00010a96:    f8d40100    ....    LDR      r0,[r4,#0x100]
        0x00010a9a:    f4100f7c    ..|.    TST      r0,#0xfc0000
        0x00010a9e:    d0ef        ..      BEQ      0x10a80 ; internal_iom_reset_on_error + 44
        0x00010aa0:    f8d40108    ....    LDR      r0,[r4,#0x108]
        0x00010aa4:    f8d40100    ....    LDR      r0,[r4,#0x100]
        0x00010aa8:    f4100f7c    ..|.    TST      r0,#0xfc0000
        0x00010aac:    d0e8        ..      BEQ      0x10a80 ; internal_iom_reset_on_error + 44
        0x00010aae:    f8d40108    ....    LDR      r0,[r4,#0x108]
        0x00010ab2:    f8d40100    ....    LDR      r0,[r4,#0x100]
        0x00010ab6:    f4100f7c    ..|.    TST      r0,#0xfc0000
        0x00010aba:    d0e1        ..      BEQ      0x10a80 ; internal_iom_reset_on_error + 44
        0x00010abc:    f8d40108    ....    LDR      r0,[r4,#0x108]
        0x00010ac0:    f8d40100    ....    LDR      r0,[r4,#0x100]
        0x00010ac4:    f4100f7c    ..|.    TST      r0,#0xfc0000
        0x00010ac8:    d1e3        ..      BNE      0x10a92 ; internal_iom_reset_on_error + 62
        0x00010aca:    e7d9        ..      B        0x10a80 ; internal_iom_reset_on_error + 44
        0x00010acc:    f8d402b4    ....    LDR      r0,[r4,#0x2b4]
        0x00010ad0:    f0000006    ....    AND      r0,r0,#6
        0x00010ad4:    2804        .(      CMP      r0,#4
        0x00010ad6:    d034        4.      BEQ      0x10b42 ; internal_iom_reset_on_error + 238
        0x00010ad8:    f8d402b4    ....    LDR      r0,[r4,#0x2b4]
        0x00010adc:    f0000006    ....    AND      r0,r0,#6
        0x00010ae0:    2804        .(      CMP      r0,#4
        0x00010ae2:    d02e        ..      BEQ      0x10b42 ; internal_iom_reset_on_error + 238
        0x00010ae4:    f8d402b4    ....    LDR      r0,[r4,#0x2b4]
        0x00010ae8:    f0000006    ....    AND      r0,r0,#6
        0x00010aec:    2804        .(      CMP      r0,#4
        0x00010aee:    d028        (.      BEQ      0x10b42 ; internal_iom_reset_on_error + 238
        0x00010af0:    f8d402b4    ....    LDR      r0,[r4,#0x2b4]
        0x00010af4:    f0000006    ....    AND      r0,r0,#6
        0x00010af8:    2804        .(      CMP      r0,#4
        0x00010afa:    d1e7        ..      BNE      0x10acc ; internal_iom_reset_on_error + 120
        0x00010afc:    e021        !.      B        0x10b42 ; internal_iom_reset_on_error + 238
        0x00010afe:    bf00        ..      NOP      
        0x00010b00:    f8d40100    ....    LDR      r0,[r4,#0x100]
        0x00010b04:    f4100f7c    ..|.    TST      r0,#0xfc0000
        0x00010b08:    d01b        ..      BEQ      0x10b42 ; internal_iom_reset_on_error + 238
        0x00010b0a:    f8d40108    ....    LDR      r0,[r4,#0x108]
        0x00010b0e:    f8d40100    ....    LDR      r0,[r4,#0x100]
        0x00010b12:    f4100f7c    ..|.    TST      r0,#0xfc0000
        0x00010b16:    d014        ..      BEQ      0x10b42 ; internal_iom_reset_on_error + 238
        0x00010b18:    f8d40108    ....    LDR      r0,[r4,#0x108]
        0x00010b1c:    f8d40100    ....    LDR      r0,[r4,#0x100]
        0x00010b20:    f4100f7c    ..|.    TST      r0,#0xfc0000
        0x00010b24:    d00d        ..      BEQ      0x10b42 ; internal_iom_reset_on_error + 238
        0x00010b26:    f8d40108    ....    LDR      r0,[r4,#0x108]
        0x00010b2a:    f8d40100    ....    LDR      r0,[r4,#0x100]
        0x00010b2e:    f4100f7c    ..|.    TST      r0,#0xfc0000
        0x00010b32:    d006        ..      BEQ      0x10b42 ; internal_iom_reset_on_error + 238
        0x00010b34:    f8d40108    ....    LDR      r0,[r4,#0x108]
        0x00010b38:    f8d40100    ....    LDR      r0,[r4,#0x100]
        0x00010b3c:    f4100f7c    ..|.    TST      r0,#0xfc0000
        0x00010b40:    d1e3        ..      BNE      0x10b0a ; internal_iom_reset_on_error + 182
        0x00010b42:    f8d40100    ....    LDR      r0,[r4,#0x100]
        0x00010b46:    f4100f7f    ....    TST      r0,#0xff0000
        0x00010b4a:    d1d9        ..      BNE      0x10b00 ; internal_iom_reset_on_error + 172
        0x00010b4c:    e03a        :.      B        0x10bc4 ; internal_iom_reset_on_error + 368
        0x00010b4e:    bf00        ..      NOP      
        0x00010b50:    f8d40288    ....    LDR      r0,[r4,#0x288]
        0x00010b54:    b1f0        ..      CBZ      r0,0x10b94 ; internal_iom_reset_on_error + 320
        0x00010b56:    f64b63ef    K..c    MOV      r3,#0xbeef
        0x00010b5a:    f6cd63ad    ...c    MOVT     r3,#0xdead
        0x00010b5e:    bf00        ..      NOP      
        0x00010b60:    f8d46100    ...a    LDR      r6,[r4,#0x100]
        0x00010b64:    f4164f7c    ..|O    TST      r6,#0xfc00
        0x00010b68:    d10e        ..      BNE      0x10b88 ; internal_iom_reset_on_error + 308
        0x00010b6a:    f8d46100    ...a    LDR      r6,[r4,#0x100]
        0x00010b6e:    f4164f7c    ..|O    TST      r6,#0xfc00
        0x00010b72:    d109        ..      BNE      0x10b88 ; internal_iom_reset_on_error + 308
        0x00010b74:    f8d46100    ...a    LDR      r6,[r4,#0x100]
        0x00010b78:    f4164f7c    ..|O    TST      r6,#0xfc00
        0x00010b7c:    d104        ..      BNE      0x10b88 ; internal_iom_reset_on_error + 308
        0x00010b7e:    f8d46100    ...a    LDR      r6,[r4,#0x100]
        0x00010b82:    f4164f7c    ..|O    TST      r6,#0xfc00
        0x00010b86:    d0eb        ..      BEQ      0x10b60 ; internal_iom_reset_on_error + 268
        0x00010b88:    2805        .(      CMP      r0,#5
        0x00010b8a:    f8c4310c    ...1    STR      r3,[r4,#0x10c]
        0x00010b8e:    d301        ..      BCC      0x10b94 ; internal_iom_reset_on_error + 320
        0x00010b90:    3804        .8      SUBS     r0,#4
        0x00010b92:    e7e5        ..      B        0x10b60 ; internal_iom_reset_on_error + 268
        0x00010b94:    f8d402b4    ....    LDR      r0,[r4,#0x2b4]
        0x00010b98:    f0000006    ....    AND      r0,r0,#6
        0x00010b9c:    2804        .(      CMP      r0,#4
        0x00010b9e:    d011        ..      BEQ      0x10bc4 ; internal_iom_reset_on_error + 368
        0x00010ba0:    f8d402b4    ....    LDR      r0,[r4,#0x2b4]
        0x00010ba4:    f0000006    ....    AND      r0,r0,#6
        0x00010ba8:    2804        .(      CMP      r0,#4
        0x00010baa:    d00b        ..      BEQ      0x10bc4 ; internal_iom_reset_on_error + 368
        0x00010bac:    f8d402b4    ....    LDR      r0,[r4,#0x2b4]
        0x00010bb0:    f0000006    ....    AND      r0,r0,#6
        0x00010bb4:    2804        .(      CMP      r0,#4
        0x00010bb6:    d005        ..      BEQ      0x10bc4 ; internal_iom_reset_on_error + 368
        0x00010bb8:    f8d402b4    ....    LDR      r0,[r4,#0x2b4]
        0x00010bbc:    f0000006    ....    AND      r0,r0,#6
        0x00010bc0:    2804        .(      CMP      r0,#4
        0x00010bc2:    d1e7        ..      BNE      0x10b94 ; internal_iom_reset_on_error + 320
        0x00010bc4:    f4117f04    ....    TST      r1,#0x210
        0x00010bc8:    d03c        <.      BEQ      0x10c44 ; internal_iom_reset_on_error + 496
        0x00010bca:    f8d46410    ...d    LDR      r6,[r4,#0x410]
        0x00010bce:    0050        P.      LSLS     r0,r2,#1
        0x00010bd0:    f8d412b4    ....    LDR      r1,[r4,#0x2b4]
        0x00010bd4:    f0010106    ....    AND      r1,r1,#6
        0x00010bd8:    2904        .)      CMP      r1,#4
        0x00010bda:    d011        ..      BEQ      0x10c00 ; internal_iom_reset_on_error + 428
        0x00010bdc:    f8d412b4    ....    LDR      r1,[r4,#0x2b4]
        0x00010be0:    f0010106    ....    AND      r1,r1,#6
        0x00010be4:    2904        .)      CMP      r1,#4
        0x00010be6:    d00b        ..      BEQ      0x10c00 ; internal_iom_reset_on_error + 428
        0x00010be8:    f8d412b4    ....    LDR      r1,[r4,#0x2b4]
        0x00010bec:    f0010106    ....    AND      r1,r1,#6
        0x00010bf0:    2904        .)      CMP      r1,#4
        0x00010bf2:    d005        ..      BEQ      0x10c00 ; internal_iom_reset_on_error + 428
        0x00010bf4:    f8d412b4    ....    LDR      r1,[r4,#0x2b4]
        0x00010bf8:    f0010106    ....    AND      r1,r1,#6
        0x00010bfc:    2904        .)      CMP      r1,#4
        0x00010bfe:    d1e7        ..      BNE      0x10bd0 ; internal_iom_reset_on_error + 380
        0x00010c00:    f8d41214    ....    LDR      r1,[r4,#0x214]
        0x00010c04:    f0210110    !...    BIC      r1,r1,#0x10
        0x00010c08:    f8c41214    ....    STR      r1,[r4,#0x214]
        0x00010c0c:    f8d41110    ....    LDR      r1,[r4,#0x110]
        0x00010c10:    f0210102    !...    BIC      r1,r1,#2
        0x00010c14:    f8c41110    ....    STR      r1,[r4,#0x110]
        0x00010c18:    f8d41410    ....    LDR      r1,[r4,#0x410]
        0x00010c1c:    f0410102    A...    ORR      r1,r1,#2
        0x00010c20:    f8c41410    ....    STR      r1,[r4,#0x410]
        0x00010c24:    f7fdf946    ..F.    BL       am_hal_flash_delay ; 0xdeb4
        0x00010c28:    f8c46410    ...d    STR      r6,[r4,#0x410]
        0x00010c2c:    f8d40110    ....    LDR      r0,[r4,#0x110]
        0x00010c30:    f0400002    @...    ORR      r0,r0,#2
        0x00010c34:    f8c40110    ....    STR      r0,[r4,#0x110]
        0x00010c38:    f8d40214    ....    LDR      r0,[r4,#0x214]
        0x00010c3c:    f0400010    @...    ORR      r0,r0,#0x10
        0x00010c40:    f8c40214    ....    STR      r0,[r4,#0x214]
        0x00010c44:    f04f30ff    O..0    MOV      r0,#0xffffffff
        0x00010c48:    f8c40208    ....    STR      r0,[r4,#0x208]
        0x00010c4c:    f8c45200    ...R    STR      r5,[r4,#0x200]
        0x00010c50:    bd70        p.      POP      {r4-r6,pc}
        0x00010c52:    0000        ..      MOVS     r0,r0
    iom_dummy_callback
        0x00010c54:    4770        pG      BX       lr
        0x00010c56:    0000        ..      MOVS     r0,r0
    iom_get_interface_clock_cfg
        0x00010c58:    e92d43f0    -..C    PUSH     {r4-r9,lr}
        0x00010c5c:    2800        .(      CMP      r0,#0
        0x00010c5e:    d044        D.      BEQ      0x10cea ; iom_get_interface_clock_cfg + 146
        0x00010c60:    f6464c00    F..L    MOVW     r12,#0x6c00
        0x00010c64:    f2c02cdc    ...,    MOVT     r12,#0x2dc
        0x00010c68:    fbbcf2f0    ....    UDIV     r2,r12,r0
        0x00010c6c:    fb02f300    ....    MUL      r3,r2,r0
        0x00010c70:    4563        cE      CMP      r3,r12
        0x00010c72:    bf18        ..      IT       NE
        0x00010c74:    3201        .2      ADDNE    r2,#1
        0x00010c76:    4253        SB      RSBS     r3,r2,#0
        0x00010c78:    4013        .@      ANDS     r3,r3,r2
        0x00010c7a:    fab3f383    ....    CLZ      r3,r3
        0x00010c7e:    f1c3031f    ....    RSB      r3,r3,#0x1f
        0x00010c82:    2b06        .+      CMP      r3,#6
        0x00010c84:    bfa8        ..      IT       GE
        0x00010c86:    2306        .#      MOVGE    r3,#6
        0x00010c88:    f5b06f37    ..7o    CMP      r0,#0xb70
        0x00010c8c:    d802        ..      BHI      0x10c94 ; iom_get_interface_clock_cfg + 60
        0x00010c8e:    f04f0e01    O...    MOV      lr,#1
        0x00010c92:    e00f        ..      B        0x10cb4 ; iom_get_interface_clock_cfg + 92
        0x00010c94:    f2424700    B..G    MOVW     r7,#0x2400
        0x00010c98:    f2c007f4    ....    MOVT     r7,#0xf4
        0x00010c9c:    42b8        .B      CMP      r0,r7
        0x00010c9e:    f04f0e00    O...    MOV      lr,#0
        0x00010ca2:    d307        ..      BCC      0x10cb4 ; iom_get_interface_clock_cfg + 92
        0x00010ca4:    f2436400    C..d    MOVW     r4,#0x3600
        0x00010ca8:    f2c0146e    ..n.    MOVT     r4,#0x16e
        0x00010cac:    42a0        .B      CMP      r0,r4
        0x00010cae:    bf38        8.      IT       CC
        0x00010cb0:    f04f0e01    O...    MOVCC    lr,#1
        0x00010cb4:    ea4f044e    O.N.    LSL      r4,lr,#1
        0x00010cb8:    f1040901    ....    ADD      r9,r4,#1
        0x00010cbc:    fa09f403    ....    LSL      r4,r9,r3
        0x00010cc0:    fbb2f6f4    ....    UDIV     r6,r2,r4
        0x00010cc4:    fb062414    ...$    MLS      r4,r6,r4,r2
        0x00010cc8:    2c00        .,      CMP      r4,#0
        0x00010cca:    bf18        ..      IT       NE
        0x00010ccc:    3601        .6      ADDNE    r6,#1
        0x00010cce:    fab6f786    ....    CLZ      r7,r6
        0x00010cd2:    f0070438    ..8.    AND      r4,r7,#0x38
        0x00010cd6:    1bdd        ..      SUBS     r5,r3,r7
        0x00010cd8:    2c18        .,      CMP      r4,#0x18
        0x00010cda:    bf18        ..      IT       NE
        0x00010cdc:    f1050318    ....    ADDNE    r3,r5,#0x18
        0x00010ce0:    f1030801    ....    ADD      r8,r3,#1
        0x00010ce4:    f1b80f07    ....    CMP      r8,#7
        0x00010ce8:    d904        ..      BLS      0x10cf4 ; iom_get_interface_clock_cfg + 156
        0x00010cea:    2000        .       MOVS     r0,#0
        0x00010cec:    2100        .!      MOVS     r1,#0
        0x00010cee:    e8bd83f0    ....    POP      {r4-r9,pc}
        0x00010cf2:    bf00        ..      NOP      
        0x00010cf4:    2c18        .,      CMP      r4,#0x18
        0x00010cf6:    d00a        ..      BEQ      0x10d0e ; iom_get_interface_clock_cfg + 182
        0x00010cf8:    f1c70418    ....    RSB      r4,r7,#0x18
        0x00010cfc:    f04f35ff    O..5    MOV      r5,#0xffffffff
        0x00010d00:    40a5        .@      LSLS     r5,r5,r4
        0x00010d02:    43ed        .C      MVNS     r5,r5
        0x00010d04:    422e        .B      TST      r6,r5
        0x00010d06:    fa26f604    &...    LSR      r6,r6,r4
        0x00010d0a:    bf18        ..      IT       NE
        0x00010d0c:    3601        .6      ADDNE    r6,#1
        0x00010d0e:    f6413400    A..4    MOVW     r4,#0x1b00
        0x00010d12:    f2c004b7    ....    MOVT     r4,#0xb7
        0x00010d16:    42a0        .B      CMP      r0,r4
        0x00010d18:    f04f0001    O...    MOV      r0,#1
        0x00010d1c:    f04f0500    O...    MOV      r5,#0
        0x00010d20:    fa00f403    ....    LSL      r4,r0,r3
        0x00010d24:    bf38        8.      IT       CC
        0x00010d26:    2501        .%      MOVCC    r5,#1
        0x00010d28:    1b12        ..      SUBS     r2,r2,r4
        0x00010d2a:    bf18        ..      IT       NE
        0x00010d2c:    2201        ."      MOVNE    r2,#1
        0x00010d2e:    402a        *@      ANDS     r2,r2,r5
        0x00010d30:    1e75        u.      SUBS     r5,r6,#1
        0x00010d32:    2901        .)      CMP      r1,#1
        0x00010d34:    462f        /F      MOV      r7,r5
        0x00010d36:    bf08        ..      IT       EQ
        0x00010d38:    f50677ff    ...w    ADDEQ    r7,r6,#0x1fe
        0x00010d3c:    fa09f103    ....    LSL      r1,r9,r3
        0x00010d40:    2a00        .*      CMP      r2,#0
        0x00010d42:    bf18        ..      IT       NE
        0x00010d44:    4630        0F      MOVNE    r0,r6
        0x00010d46:    4348        HC      MULS     r0,r1,r0
        0x00010d48:    fbbcf1f0    ....    UDIV     r1,r12,r0
        0x00010d4c:    f40777ff    ...w    AND      r7,r7,#0x1fe
        0x00010d50:    fb01c410    ....    MLS      r4,r1,r0,r12
        0x00010d54:    ebb40f50    ..P.    CMP      r4,r0,LSR #1
        0x00010d58:    f64d6083    M..`    MOV      r0,#0xde83
        0x00010d5c:    f2c4301b    ...0    MOVT     r0,#0x431b
        0x00010d60:    bf88        ..      IT       HI
        0x00010d62:    3101        .1      ADDHI    r1,#1
        0x00010d64:    fba10600    ....    UMULL    r0,r6,r1,r0
        0x00010d68:    f24d048f    M...    MOV      r4,#0xd08f
        0x00010d6c:    ea4f20ce    O..     LSL      r0,lr,#11
        0x00010d70:    f2c00403    ....    MOVT     r4,#3
        0x00010d74:    f362300c    b..0    BFI      r0,r2,#12,#1
        0x00010d78:    ea4030c7    @..0    ORR      r0,r0,r7,LSL #15
        0x00010d7c:    0c37        7.      LSRS     r7,r6,#16
        0x00010d7e:    1c66        f.      ADDS     r6,r4,#1
        0x00010d80:    f44f62e0    O..b    MOV      r2,#0x700
        0x00010d84:    fb071616    ....    MLS      r6,r7,r6,r1
        0x00010d88:    ea022208    ..."    AND      r2,r2,r8,LSL #8
        0x00010d8c:    ea406005    @..`    ORR      r0,r0,r5,LSL #24
        0x00010d90:    4410        .D      ADD      r0,r0,r2
        0x00010d92:    b10e        ..      CBZ      r6,0x10d98 ; iom_get_interface_clock_cfg + 320
        0x00010d94:    e8bd83f0    ....    POP      {r4-r9,pc}
        0x00010d98:    42a1        .B      CMP      r1,r4
        0x00010d9a:    d9fb        ..      BLS      0x10d94 ; iom_get_interface_clock_cfg + 316
        0x00010d9c:    f2415655    A.UV    MOV      r6,#0x1555
        0x00010da0:    ea060657    ..W.    AND      r6,r6,r7,LSR #1
        0x00010da4:    1bbf        ..      SUBS     r7,r7,r6
        0x00010da6:    f04f3633    O.36    MOV      r6,#0x33333333
        0x00010daa:    ea060697    ....    AND      r6,r6,r7,LSR #2
        0x00010dae:    f02737cc    '..7    BIC      r7,r7,#0xcccccccc
        0x00010db2:    4437        7D      ADD      r7,r7,r6
        0x00010db4:    eb071717    ....    ADD      r7,r7,r7,LSR #4
        0x00010db8:    f02737f0    '..7    BIC      r7,r7,#0xf0f0f0f0
        0x00010dbc:    f04f3601    O..6    MOV      r6,#0x1010101
        0x00010dc0:    4377        wC      MULS     r7,r6,r7
        0x00010dc2:    0e3f        ?.      LSRS     r7,r7,#24
        0x00010dc4:    2f01        ./      CMP      r7,#1
        0x00010dc6:    bf88        ..      IT       HI
        0x00010dc8:    e8bd83f0    ....    POPHI    {r4-r9,pc}
        0x00010dcc:    2003        .       MOVS     r0,#3
        0x00010dce:    4098        .@      LSLS     r0,r0,r3
        0x00010dd0:    fbbcf1f0    ....    UDIV     r1,r12,r0
        0x00010dd4:    fb01c310    ....    MLS      r3,r1,r0,r12
        0x00010dd8:    ebb30f50    ..P.    CMP      r3,r0,LSR #1
        0x00010ddc:    f5026000    ...`    ADD      r0,r2,#0x800
        0x00010de0:    bf88        ..      IT       HI
        0x00010de2:    3101        .1      ADDHI    r1,#1
        0x00010de4:    e8bd83f0    ....    POP      {r4-r9,pc}
    main
        0x00010de8:    b580        ..      PUSH     {r7,lr}
        0x00010dea:    b08e        ..      SUB      sp,sp,#0x38
        0x00010dec:    2100        .!      MOVS     r1,#0
        0x00010dee:    9108        ..      STR      r1,[sp,#0x20]
        0x00010df0:    910d        ..      STR      r1,[sp,#0x34]
        0x00010df2:    910b        ..      STR      r1,[sp,#0x2c]
        0x00010df4:    4608        .F      MOV      r0,r1
        0x00010df6:    f7fcfa59    ..Y.    BL       am_hal_clkgen_control ; 0xd2ac
        0x00010dfa:    f24170be    A..p    MOV      r0,#0x17be
        0x00010dfe:    f2c00001    ....    MOVT     r0,#1
        0x00010e02:    f7fcf943    ..C.    BL       am_hal_cachectrl_config ; 0xd08c
        0x00010e06:    f7fcfa47    ..G.    BL       am_hal_cachectrl_enable ; 0xd298
        0x00010e0a:    f7fbfcd9    ....    BL       am_bsp_low_power_init ; 0xc7c0
        0x00010e0e:    f7fbfcb5    ....    BL       am_bsp_itm_printf_enable ; 0xc77c
        0x00010e12:    f7fff853    ..S.    BL       am_util_stdio_terminal_clear ; 0xfebc
        0x00010e16:    f64140d2    A..@    MOV      r0,#0x1cd2
        0x00010e1a:    f2c00001    ....    MOVT     r0,#1
        0x00010e1e:    f7fff815    ....    BL       am_util_stdio_printf ; 0xfe4c
        0x00010e22:    f000faf9    ....    BL       timerA0_init ; 0x11418
        0x00010e26:    2001        .       MOVS     r0,#1
        0x00010e28:    9007        ..      STR      r0,[sp,#0x1c]
        0x00010e2a:    f7fcfda1    ....    BL       am_hal_ctimer_int_enable ; 0xd970
        0x00010e2e:    200e        .       MOVS     r0,#0xe
        0x00010e30:    f7fbfa36    ..6.    BL       __NVIC_EnableIRQ ; 0xc2a0
        0x00010e34:    f7fffdd2    ....    BL       init_pattern ; 0x109dc
        0x00010e38:    9807        ..      LDR      r0,[sp,#0x1c]
        0x00010e3a:    f6402109    @..!    MOV      r1,#0xa09
        0x00010e3e:    f2c00101    ....    MOVT     r1,#1
        0x00010e42:    f7fcfda9    ....    BL       am_hal_ctimer_int_register ; 0xd998
        0x00010e46:    9808        ..      LDR      r0,[sp,#0x20]
        0x00010e48:    f64f71ff    O..q    MOV      r1,#0xffff
        0x00010e4c:    f7fdf800    ....    BL       am_hal_ctimer_start ; 0xde50
        0x00010e50:    f6415054    A.TP    MOV      r0,#0x1d54
        0x00010e54:    f2c00001    ....    MOVT     r0,#1
        0x00010e58:    2105        .!      MOVS     r1,#5
        0x00010e5a:    f7fefff7    ....    BL       am_util_stdio_printf ; 0xfe4c
        0x00010e5e:    2007        .       MOVS     r0,#7
        0x00010e60:    f88d002b    ..+.    STRB     r0,[sp,#0x2b]
        0x00010e64:    e7ff        ..      B        0x10e66 ; main + 126
        0x00010e66:    f89d002b    ..+.    LDRB     r0,[sp,#0x2b]
        0x00010e6a:    2809        .(      CMP      r0,#9
        0x00010e6c:    f30080cf    ....    BGT.W    0x1100e ; main + 550
        0x00010e70:    e7ff        ..      B        0x10e72 ; main + 138
        0x00010e72:    f89d102b    ..+.    LDRB     r1,[sp,#0x2b]
        0x00010e76:    f241008c    A...    MOV      r0,#0x108c
        0x00010e7a:    f2c10001    ....    MOVT     r0,#0x1001
        0x00010e7e:    f8501031    P.1.    LDR      r1,[r0,r1,LSL #3]
        0x00010e82:    f2450284    E...    MOV      r2,#0x5084
        0x00010e86:    f2c10201    ....    MOVT     r2,#0x1001
        0x00010e8a:    6011        .`      STR      r1,[r2,#0]
        0x00010e8c:    f89d102b    ..+.    LDRB     r1,[sp,#0x2b]
        0x00010e90:    eb0000c1    ....    ADD      r0,r0,r1,LSL #3
        0x00010e94:    6841        Ah      LDR      r1,[r0,#4]
        0x00010e96:    f64140e6    A..@    MOV      r0,#0x1ce6
        0x00010e9a:    f2c00001    ....    MOVT     r0,#1
        0x00010e9e:    f7feffd5    ....    BL       am_util_stdio_printf ; 0xfe4c
        0x00010ea2:    f7fdfa27    ..'.    BL       am_hal_interrupt_master_enable ; 0xe2f4
        0x00010ea6:    f7fffc1b    ....    BL       fram_init ; 0x106e0
        0x00010eaa:    900c        ..      STR      r0,[sp,#0x30]
        0x00010eac:    980c        ..      LDR      r0,[sp,#0x30]
        0x00010eae:    b140        @.      CBZ      r0,0x10ec2 ; main + 218
        0x00010eb0:    e7ff        ..      B        0x10eb2 ; main + 202
        0x00010eb2:    f64140ff    A..@    MOV      r0,#0x1cff
        0x00010eb6:    f2c00001    ....    MOVT     r0,#1
        0x00010eba:    f7feffc7    ....    BL       am_util_stdio_printf ; 0xfe4c
        0x00010ebe:    e7ff        ..      B        0x10ec0 ; main + 216
        0x00010ec0:    e7fe        ..      B        0x10ec0 ; main + 216
        0x00010ec2:    2009        .       MOVS     r0,#9
        0x00010ec4:    f7fbf9ec    ....    BL       __NVIC_EnableIRQ ; 0xc2a0
        0x00010ec8:    f2410158    A.X.    MOV      r1,#0x1058
        0x00010ecc:    f2c10101    ....    MOVT     r1,#0x1001
        0x00010ed0:    2001        .       MOVS     r0,#1
        0x00010ed2:    7008        .p      STRB     r0,[r1,#0]
        0x00010ed4:    f6444178    D.xA    MOV      r1,#0x4c78
        0x00010ed8:    f2c10101    ....    MOVT     r1,#0x1001
        0x00010edc:    2000        .       MOVS     r0,#0
        0x00010ede:    7008        .p      STRB     r0,[r1,#0]
        0x00010ee0:    f6444175    D.uA    MOV      r1,#0x4c75
        0x00010ee4:    f2c10101    ....    MOVT     r1,#0x1001
        0x00010ee8:    7008        .p      STRB     r0,[r1,#0]
        0x00010eea:    f6444177    D.wA    MOV      r1,#0x4c77
        0x00010eee:    f2c10101    ....    MOVT     r1,#0x1001
        0x00010ef2:    7008        .p      STRB     r0,[r1,#0]
        0x00010ef4:    900b        ..      STR      r0,[sp,#0x2c]
        0x00010ef6:    e7ff        ..      B        0x10ef8 ; main + 272
        0x00010ef8:    f7fdf9f8    ....    BL       am_hal_interrupt_master_disable ; 0xe2ec
        0x00010efc:    9009        ..      STR      r0,[sp,#0x24]
        0x00010efe:    f2410058    A.X.    MOV      r0,#0x1058
        0x00010f02:    f2c10001    ....    MOVT     r0,#0x1001
        0x00010f06:    7800        .x      LDRB     r0,[r0,#0]
        0x00010f08:    07c0        ..      LSLS     r0,r0,#31
        0x00010f0a:    b1f8        ..      CBZ      r0,0x10f4c ; main + 356
        0x00010f0c:    e7ff        ..      B        0x10f0e ; main + 294
        0x00010f0e:    9809        ..      LDR      r0,[sp,#0x24]
        0x00010f10:    f7fdf9f4    ....    BL       am_hal_interrupt_master_set ; 0xe2fc
        0x00010f14:    2000        .       MOVS     r0,#0
        0x00010f16:    9006        ..      STR      r0,[sp,#0x18]
        0x00010f18:    2101        .!      MOVS     r1,#1
        0x00010f1a:    9104        ..      STR      r1,[sp,#0x10]
        0x00010f1c:    f7fdf98c    ....    BL       am_hal_gpio_state_write ; 0xe238
        0x00010f20:    20a0        .       MOVS     r0,#0xa0
        0x00010f22:    9005        ..      STR      r0,[sp,#0x14]
        0x00010f24:    f7fcffc6    ....    BL       am_hal_flash_delay ; 0xdeb4
        0x00010f28:    9906        ..      LDR      r1,[sp,#0x18]
        0x00010f2a:    4608        .F      MOV      r0,r1
        0x00010f2c:    f7fdf984    ....    BL       am_hal_gpio_state_write ; 0xe238
        0x00010f30:    f000fb8c    ....    BL       write_fram ; 0x1164c
        0x00010f34:    9904        ..      LDR      r1,[sp,#0x10]
        0x00010f36:    9806        ..      LDR      r0,[sp,#0x18]
        0x00010f38:    f7fdf97e    ..~.    BL       am_hal_gpio_state_write ; 0xe238
        0x00010f3c:    9805        ..      LDR      r0,[sp,#0x14]
        0x00010f3e:    f7fcffb9    ....    BL       am_hal_flash_delay ; 0xdeb4
        0x00010f42:    9906        ..      LDR      r1,[sp,#0x18]
        0x00010f44:    4608        .F      MOV      r0,r1
        0x00010f46:    f7fdf977    ..w.    BL       am_hal_gpio_state_write ; 0xe238
        0x00010f4a:    e053        S.      B        0x10ff4 ; main + 524
        0x00010f4c:    f6444078    D.x@    MOV      r0,#0x4c78
        0x00010f50:    f2c10001    ....    MOVT     r0,#0x1001
        0x00010f54:    7800        .x      LDRB     r0,[r0,#0]
        0x00010f56:    07c0        ..      LSLS     r0,r0,#31
        0x00010f58:    b338        8.      CBZ      r0,0x10faa ; main + 450
        0x00010f5a:    e7ff        ..      B        0x10f5c ; main + 372
        0x00010f5c:    f6444075    D.u@    MOV      r0,#0x4c75
        0x00010f60:    f2c10001    ....    MOVT     r0,#0x1001
        0x00010f64:    7800        .x      LDRB     r0,[r0,#0]
        0x00010f66:    07c0        ..      LSLS     r0,r0,#31
        0x00010f68:    b1f8        ..      CBZ      r0,0x10faa ; main + 450
        0x00010f6a:    e7ff        ..      B        0x10f6c ; main + 388
        0x00010f6c:    9809        ..      LDR      r0,[sp,#0x24]
        0x00010f6e:    f7fdf9c5    ....    BL       am_hal_interrupt_master_set ; 0xe2fc
        0x00010f72:    2000        .       MOVS     r0,#0
        0x00010f74:    9003        ..      STR      r0,[sp,#0xc]
        0x00010f76:    2101        .!      MOVS     r1,#1
        0x00010f78:    9101        ..      STR      r1,[sp,#4]
        0x00010f7a:    f7fdf95d    ..].    BL       am_hal_gpio_state_write ; 0xe238
        0x00010f7e:    20a0        .       MOVS     r0,#0xa0
        0x00010f80:    9002        ..      STR      r0,[sp,#8]
        0x00010f82:    f7fcff97    ....    BL       am_hal_flash_delay ; 0xdeb4
        0x00010f86:    9903        ..      LDR      r1,[sp,#0xc]
        0x00010f88:    4608        .F      MOV      r0,r1
        0x00010f8a:    f7fdf955    ..U.    BL       am_hal_gpio_state_write ; 0xe238
        0x00010f8e:    f000f8eb    ....    BL       read_fram ; 0x11168
        0x00010f92:    9901        ..      LDR      r1,[sp,#4]
        0x00010f94:    9803        ..      LDR      r0,[sp,#0xc]
        0x00010f96:    f7fdf94f    ..O.    BL       am_hal_gpio_state_write ; 0xe238
        0x00010f9a:    9802        ..      LDR      r0,[sp,#8]
        0x00010f9c:    f7fcff8a    ....    BL       am_hal_flash_delay ; 0xdeb4
        0x00010fa0:    9903        ..      LDR      r1,[sp,#0xc]
        0x00010fa2:    4608        .F      MOV      r0,r1
        0x00010fa4:    f7fdf948    ..H.    BL       am_hal_gpio_state_write ; 0xe238
        0x00010fa8:    e023        #.      B        0x10ff2 ; main + 522
        0x00010faa:    f6444077    D.w@    MOV      r0,#0x4c77
        0x00010fae:    f2c10001    ....    MOVT     r0,#0x1001
        0x00010fb2:    7800        .x      LDRB     r0,[r0,#0]
        0x00010fb4:    07c0        ..      LSLS     r0,r0,#31
        0x00010fb6:    b1a0        ..      CBZ      r0,0x10fe2 ; main + 506
        0x00010fb8:    e7ff        ..      B        0x10fba ; main + 466
        0x00010fba:    9809        ..      LDR      r0,[sp,#0x24]
        0x00010fbc:    f7fdf99e    ....    BL       am_hal_interrupt_master_set ; 0xe2fc
        0x00010fc0:    f000faf0    ....    BL       verify_fram_data ; 0x115a4
        0x00010fc4:    980b        ..      LDR      r0,[sp,#0x2c]
        0x00010fc6:    3001        .0      ADDS     r0,#1
        0x00010fc8:    900b        ..      STR      r0,[sp,#0x2c]
        0x00010fca:    2805        .(      CMP      r0,#5
        0x00010fcc:    d308        ..      BCC      0x10fe0 ; main + 504
        0x00010fce:    e7ff        ..      B        0x10fd0 ; main + 488
        0x00010fd0:    f641503f    A.?P    MOV      r0,#0x1d3f
        0x00010fd4:    f2c00001    ....    MOVT     r0,#1
        0x00010fd8:    2105        .!      MOVS     r1,#5
        0x00010fda:    f7feff37    ..7.    BL       am_util_stdio_printf ; 0xfe4c
        0x00010fde:    e00a        ..      B        0x10ff6 ; main + 526
        0x00010fe0:    e006        ..      B        0x10ff0 ; main + 520
        0x00010fe2:    2001        .       MOVS     r0,#1
        0x00010fe4:    f7fefe6e    ..n.    BL       am_hal_sysctrl_sleep ; 0xfcc4
        0x00010fe8:    9809        ..      LDR      r0,[sp,#0x24]
        0x00010fea:    f7fdf987    ....    BL       am_hal_interrupt_master_set ; 0xe2fc
        0x00010fee:    e7ff        ..      B        0x10ff0 ; main + 520
        0x00010ff0:    e7ff        ..      B        0x10ff2 ; main + 522
        0x00010ff2:    e7ff        ..      B        0x10ff4 ; main + 524
        0x00010ff4:    e780        ..      B        0x10ef8 ; main + 272
        0x00010ff6:    2009        .       MOVS     r0,#9
        0x00010ff8:    f7fbf936    ..6.    BL       __NVIC_DisableIRQ ; 0xc268
        0x00010ffc:    f7fffbc8    ....    BL       fram_term ; 0x10790
        0x00011000:    e7ff        ..      B        0x11002 ; main + 538
        0x00011002:    f89d002b    ..+.    LDRB     r0,[sp,#0x2b]
        0x00011006:    3001        .0      ADDS     r0,#1
        0x00011008:    f88d002b    ..+.    STRB     r0,[sp,#0x2b]
        0x0001100c:    e72b        +.      B        0x10e66 ; main + 126
        0x0001100e:    2001        .       MOVS     r0,#1
        0x00011010:    f7fcfc9a    ....    BL       am_hal_ctimer_int_disable ; 0xd948
        0x00011014:    200e        .       MOVS     r0,#0xe
        0x00011016:    f7fbf927    ..'.    BL       __NVIC_DisableIRQ ; 0xc268
        0x0001101a:    f6415024    A.$P    MOV      r0,#0x1d24
        0x0001101e:    f2c00001    ....    MOVT     r0,#1
        0x00011022:    f7feff13    ....    BL       am_util_stdio_printf ; 0xfe4c
        0x00011026:    e7ff        ..      B        0x11028 ; main + 576
        0x00011028:    2001        .       MOVS     r0,#1
        0x0001102a:    f7fefe4b    ..K.    BL       am_hal_sysctrl_sleep ; 0xfcc4
        0x0001102e:    e7fb        ..      B        0x11028 ; main + 576
    ndigits_in_hex
        0x00011030:    b084        ..      SUB      sp,sp,#0x10
        0x00011032:    9103        ..      STR      r1,[sp,#0xc]
        0x00011034:    9002        ..      STR      r0,[sp,#8]
        0x00011036:    9802        ..      LDR      r0,[sp,#8]
        0x00011038:    9903        ..      LDR      r1,[sp,#0xc]
        0x0001103a:    4308        .C      ORRS     r0,r0,r1
        0x0001103c:    fab0f080    ....    CLZ      r0,r0
        0x00011040:    0940        @.      LSRS     r0,r0,#5
        0x00011042:    9001        ..      STR      r0,[sp,#4]
        0x00011044:    e7ff        ..      B        0x11046 ; ndigits_in_hex + 22
        0x00011046:    9802        ..      LDR      r0,[sp,#8]
        0x00011048:    9903        ..      LDR      r1,[sp,#0xc]
        0x0001104a:    4308        .C      ORRS     r0,r0,r1
        0x0001104c:    b160        `.      CBZ      r0,0x11068 ; ndigits_in_hex + 56
        0x0001104e:    e7ff        ..      B        0x11050 ; ndigits_in_hex + 32
        0x00011050:    9802        ..      LDR      r0,[sp,#8]
        0x00011052:    9903        ..      LDR      r1,[sp,#0xc]
        0x00011054:    0900        ..      LSRS     r0,r0,#4
        0x00011056:    ea407001    @..p    ORR      r0,r0,r1,LSL #28
        0x0001105a:    0909        ..      LSRS     r1,r1,#4
        0x0001105c:    9103        ..      STR      r1,[sp,#0xc]
        0x0001105e:    9002        ..      STR      r0,[sp,#8]
        0x00011060:    9801        ..      LDR      r0,[sp,#4]
        0x00011062:    3001        .0      ADDS     r0,#1
        0x00011064:    9001        ..      STR      r0,[sp,#4]
        0x00011066:    e7ee        ..      B        0x11046 ; ndigits_in_hex + 22
        0x00011068:    9801        ..      LDR      r0,[sp,#4]
        0x0001106a:    b004        ..      ADD      sp,sp,#0x10
        0x0001106c:    4770        pG      BX       lr
        0x0001106e:    0000        ..      MOVS     r0,r0
    ndigits_in_i64
        0x00011070:    b580        ..      PUSH     {r7,lr}
        0x00011072:    b082        ..      SUB      sp,sp,#8
        0x00011074:    9101        ..      STR      r1,[sp,#4]
        0x00011076:    9000        ..      STR      r0,[sp,#0]
        0x00011078:    9801        ..      LDR      r0,[sp,#4]
        0x0001107a:    f1b03fff    ...?    CMP      r0,#0xffffffff
        0x0001107e:    dc09        ..      BGT      0x11094 ; ndigits_in_i64 + 36
        0x00011080:    e7ff        ..      B        0x11082 ; ndigits_in_i64 + 18
        0x00011082:    9800        ..      LDR      r0,[sp,#0]
        0x00011084:    9a01        ..      LDR      r2,[sp,#4]
        0x00011086:    4241        AB      RSBS     r1,r0,#0
        0x00011088:    f04f0000    O...    MOV      r0,#0
        0x0001108c:    4190        .A      SBCS     r0,r0,r2
        0x0001108e:    9100        ..      STR      r1,[sp,#0]
        0x00011090:    9001        ..      STR      r0,[sp,#4]
        0x00011092:    e7ff        ..      B        0x11094 ; ndigits_in_i64 + 36
        0x00011094:    9800        ..      LDR      r0,[sp,#0]
        0x00011096:    9901        ..      LDR      r1,[sp,#4]
        0x00011098:    f000f802    ....    BL       ndigits_in_u64 ; 0x110a0
        0x0001109c:    b002        ..      ADD      sp,sp,#8
        0x0001109e:    bd80        ..      POP      {r7,pc}
    ndigits_in_u64
        0x000110a0:    b580        ..      PUSH     {r7,lr}
        0x000110a2:    b084        ..      SUB      sp,sp,#0x10
        0x000110a4:    9103        ..      STR      r1,[sp,#0xc]
        0x000110a6:    9002        ..      STR      r0,[sp,#8]
        0x000110a8:    9802        ..      LDR      r0,[sp,#8]
        0x000110aa:    9903        ..      LDR      r1,[sp,#0xc]
        0x000110ac:    4308        .C      ORRS     r0,r0,r1
        0x000110ae:    fab0f080    ....    CLZ      r0,r0
        0x000110b2:    0940        @.      LSRS     r0,r0,#5
        0x000110b4:    9001        ..      STR      r0,[sp,#4]
        0x000110b6:    e7ff        ..      B        0x110b8 ; ndigits_in_u64 + 24
        0x000110b8:    9802        ..      LDR      r0,[sp,#8]
        0x000110ba:    9903        ..      LDR      r1,[sp,#0xc]
        0x000110bc:    4308        .C      ORRS     r0,r0,r1
        0x000110be:    b150        P.      CBZ      r0,0x110d6 ; ndigits_in_u64 + 54
        0x000110c0:    e7ff        ..      B        0x110c2 ; ndigits_in_u64 + 34
        0x000110c2:    9802        ..      LDR      r0,[sp,#8]
        0x000110c4:    9903        ..      LDR      r1,[sp,#0xc]
        0x000110c6:    f7fffa7f    ....    BL       divu64_10 ; 0x105c8
        0x000110ca:    9103        ..      STR      r1,[sp,#0xc]
        0x000110cc:    9002        ..      STR      r0,[sp,#8]
        0x000110ce:    9801        ..      LDR      r0,[sp,#4]
        0x000110d0:    3001        .0      ADDS     r0,#1
        0x000110d2:    9001        ..      STR      r0,[sp,#4]
        0x000110d4:    e7f0        ..      B        0x110b8 ; ndigits_in_u64 + 24
        0x000110d6:    9801        ..      LDR      r0,[sp,#4]
        0x000110d8:    b004        ..      ADD      sp,sp,#0x10
        0x000110da:    bd80        ..      POP      {r7,pc}
    padbuffer
        0x000110dc:    b085        ..      SUB      sp,sp,#0x14
        0x000110de:    9003        ..      STR      r0,[sp,#0xc]
        0x000110e0:    f88d100b    ....    STRB     r1,[sp,#0xb]
        0x000110e4:    9201        ..      STR      r2,[sp,#4]
        0x000110e6:    2000        .       MOVS     r0,#0
        0x000110e8:    9000        ..      STR      r0,[sp,#0]
        0x000110ea:    9801        ..      LDR      r0,[sp,#4]
        0x000110ec:    2800        .(      CMP      r0,#0
        0x000110ee:    dc03        ..      BGT      0x110f8 ; padbuffer + 28
        0x000110f0:    e7ff        ..      B        0x110f2 ; padbuffer + 22
        0x000110f2:    9800        ..      LDR      r0,[sp,#0]
        0x000110f4:    9004        ..      STR      r0,[sp,#0x10]
        0x000110f6:    e016        ..      B        0x11126 ; padbuffer + 74
        0x000110f8:    e7ff        ..      B        0x110fa ; padbuffer + 30
        0x000110fa:    9801        ..      LDR      r0,[sp,#4]
        0x000110fc:    1e41        A.      SUBS     r1,r0,#1
        0x000110fe:    9101        ..      STR      r1,[sp,#4]
        0x00011100:    b170        p.      CBZ      r0,0x11120 ; padbuffer + 68
        0x00011102:    e7ff        ..      B        0x11104 ; padbuffer + 40
        0x00011104:    9803        ..      LDR      r0,[sp,#0xc]
        0x00011106:    b138        8.      CBZ      r0,0x11118 ; padbuffer + 60
        0x00011108:    e7ff        ..      B        0x1110a ; padbuffer + 46
        0x0001110a:    f89d000b    ....    LDRB     r0,[sp,#0xb]
        0x0001110e:    9903        ..      LDR      r1,[sp,#0xc]
        0x00011110:    1c4a        J.      ADDS     r2,r1,#1
        0x00011112:    9203        ..      STR      r2,[sp,#0xc]
        0x00011114:    7008        .p      STRB     r0,[r1,#0]
        0x00011116:    e7ff        ..      B        0x11118 ; padbuffer + 60
        0x00011118:    9800        ..      LDR      r0,[sp,#0]
        0x0001111a:    3001        .0      ADDS     r0,#1
        0x0001111c:    9000        ..      STR      r0,[sp,#0]
        0x0001111e:    e7ec        ..      B        0x110fa ; padbuffer + 30
        0x00011120:    9800        ..      LDR      r0,[sp,#0]
        0x00011122:    9004        ..      STR      r0,[sp,#0x10]
        0x00011124:    e7ff        ..      B        0x11126 ; padbuffer + 74
        0x00011126:    9804        ..      LDR      r0,[sp,#0x10]
        0x00011128:    b005        ..      ADD      sp,sp,#0x14
        0x0001112a:    4770        pG      BX       lr
    read_complete
        0x0001112c:    b580        ..      PUSH     {r7,lr}
        0x0001112e:    b082        ..      SUB      sp,sp,#8
        0x00011130:    9001        ..      STR      r0,[sp,#4]
        0x00011132:    9100        ..      STR      r1,[sp,#0]
        0x00011134:    9800        ..      LDR      r0,[sp,#0]
        0x00011136:    b140        @.      CBZ      r0,0x1114a ; read_complete + 30
        0x00011138:    e7ff        ..      B        0x1113a ; read_complete + 14
        0x0001113a:    9900        ..      LDR      r1,[sp,#0]
        0x0001113c:    f64150e9    A..P    MOV      r0,#0x1de9
        0x00011140:    f2c00001    ....    MOVT     r0,#1
        0x00011144:    f7fefe82    ....    BL       am_util_stdio_printf ; 0xfe4c
        0x00011148:    e00c        ..      B        0x11164 ; read_complete + 56
        0x0001114a:    f641601a    A..`    MOV      r0,#0x1e1a
        0x0001114e:    f2c00001    ....    MOVT     r0,#1
        0x00011152:    f7fefe7b    ..{.    BL       am_util_stdio_printf ; 0xfe4c
        0x00011156:    f6444177    D.wA    MOV      r1,#0x4c77
        0x0001115a:    f2c10101    ....    MOVT     r1,#0x1001
        0x0001115e:    2001        .       MOVS     r0,#1
        0x00011160:    7008        .p      STRB     r0,[r1,#0]
        0x00011162:    e7ff        ..      B        0x11164 ; read_complete + 56
        0x00011164:    b002        ..      ADD      sp,sp,#8
        0x00011166:    bd80        ..      POP      {r7,pc}
    read_fram
        0x00011168:    b580        ..      PUSH     {r7,lr}
        0x0001116a:    b084        ..      SUB      sp,sp,#0x10
        0x0001116c:    f2410028    A.(.    MOV      r0,#0x1028
        0x00011170:    f2c10001    ....    MOVT     r0,#0x1001
        0x00011174:    f8d0c02c    ..,.    LDR      r12,[r0,#0x2c]
        0x00011178:    f64430ec    D..0    MOV      r0,#0x4bec
        0x0001117c:    f2c10001    ....    MOVT     r0,#0x1001
        0x00011180:    6800        .h      LDR      r0,[r0,#0]
        0x00011182:    466b        kF      MOV      r3,sp
        0x00011184:    2200        ."      MOVS     r2,#0
        0x00011186:    605a        Z`      STR      r2,[r3,#4]
        0x00011188:    f241112d    A.-.    MOV      r1,#0x112d
        0x0001118c:    f2c00101    ....    MOVT     r1,#1
        0x00011190:    6019        .`      STR      r1,[r3,#0]
        0x00011192:    f2417194    A..q    MOV      r1,#0x1794
        0x00011196:    f2c10101    ....    MOVT     r1,#0x1001
        0x0001119a:    2380        .#      MOVS     r3,#0x80
        0x0001119c:    47e0        .G      BLX      r12
        0x0001119e:    9003        ..      STR      r0,[sp,#0xc]
        0x000111a0:    9803        ..      LDR      r0,[sp,#0xc]
        0x000111a2:    b938        8.      CBNZ     r0,0x111b4 ; read_fram + 76
        0x000111a4:    e7ff        ..      B        0x111a6 ; read_fram + 62
        0x000111a6:    f6444175    D.uA    MOV      r1,#0x4c75
        0x000111aa:    f2c10101    ....    MOVT     r1,#0x1001
        0x000111ae:    2000        .       MOVS     r0,#0
        0x000111b0:    7008        .p      STRB     r0,[r1,#0]
        0x000111b2:    e7ff        ..      B        0x111b4 ; read_fram + 76
        0x000111b4:    b004        ..      ADD      sp,sp,#0x10
        0x000111b6:    bd80        ..      POP      {r7,pc}
    set_LPMMODE
        0x000111b8:    b5f0        ..      PUSH     {r4-r7,lr}
        0x000111ba:    b081        ..      SUB      sp,sp,#4
        0x000111bc:    4604        .F      MOV      r4,r0
        0x000111be:    2803        .(      CMP      r0,#3
        0x000111c0:    d851        Q.      BHI      0x11266 ; set_LPMMODE + 174
        0x000111c2:    f0040703    ....    AND      r7,r4,#3
        0x000111c6:    f7fdf891    ....    BL       am_hal_interrupt_master_disable ; 0xe2ec
        0x000111ca:    f2481500    H...    MOVW     r5,#0x8100
        0x000111ce:    f2c40501    ....    MOVT     r5,#0x4001
        0x000111d2:    9000        ..      STR      r0,[sp,#0]
        0x000111d4:    4628        (F      MOV      r0,r5
        0x000111d6:    f7fcfedf    ....    BL       am_hal_flash_load_ui32 ; 0xdf98
        0x000111da:    f420507c     .|P    BIC      r0,r0,#0x3f00
        0x000111de:    ea403007    @..0    ORR      r0,r0,r7,LSL #12
        0x000111e2:    f50061e0    ...a    ADD      r1,r0,#0x700
        0x000111e6:    4628        (F      MOV      r0,r5
        0x000111e8:    f7fcfeda    ....    BL       am_hal_flash_store_ui32 ; 0xdfa0
        0x000111ec:    9800        ..      LDR      r0,[sp,#0]
        0x000111ee:    f7fdf885    ....    BL       am_hal_interrupt_master_set ; 0xe2fc
        0x000111f2:    f7fdf87b    ..{.    BL       am_hal_interrupt_master_disable ; 0xe2ec
        0x000111f6:    1d2e        ..      ADDS     r6,r5,#4
        0x000111f8:    9000        ..      STR      r0,[sp,#0]
        0x000111fa:    4630        0F      MOV      r0,r6
        0x000111fc:    f7fcfecc    ....    BL       am_hal_flash_load_ui32 ; 0xdf98
        0x00011200:    f420507c     .|P    BIC      r0,r0,#0x3f00
        0x00011204:    ea403007    @..0    ORR      r0,r0,r7,LSL #12
        0x00011208:    f50061e0    ...a    ADD      r1,r0,#0x700
        0x0001120c:    4630        0F      MOV      r0,r6
        0x0001120e:    f7fcfec7    ....    BL       am_hal_flash_store_ui32 ; 0xdfa0
        0x00011212:    9800        ..      LDR      r0,[sp,#0]
        0x00011214:    f7fdf872    ..r.    BL       am_hal_interrupt_master_set ; 0xe2fc
        0x00011218:    f7fdf868    ..h.    BL       am_hal_interrupt_master_disable ; 0xe2ec
        0x0001121c:    f1050608    ....    ADD      r6,r5,#8
        0x00011220:    9000        ..      STR      r0,[sp,#0]
        0x00011222:    4630        0F      MOV      r0,r6
        0x00011224:    f7fcfeb8    ....    BL       am_hal_flash_load_ui32 ; 0xdf98
        0x00011228:    f420507c     .|P    BIC      r0,r0,#0x3f00
        0x0001122c:    ea403007    @..0    ORR      r0,r0,r7,LSL #12
        0x00011230:    f50061e0    ...a    ADD      r1,r0,#0x700
        0x00011234:    4630        0F      MOV      r0,r6
        0x00011236:    f7fcfeb3    ....    BL       am_hal_flash_store_ui32 ; 0xdfa0
        0x0001123a:    9800        ..      LDR      r0,[sp,#0]
        0x0001123c:    f7fdf85e    ..^.    BL       am_hal_interrupt_master_set ; 0xe2fc
        0x00011240:    f7fdf854    ..T.    BL       am_hal_interrupt_master_disable ; 0xe2ec
        0x00011244:    350c        .5      ADDS     r5,r5,#0xc
        0x00011246:    9000        ..      STR      r0,[sp,#0]
        0x00011248:    4628        (F      MOV      r0,r5
        0x0001124a:    f7fcfea5    ....    BL       am_hal_flash_load_ui32 ; 0xdf98
        0x0001124e:    f420507c     .|P    BIC      r0,r0,#0x3f00
        0x00011252:    ea403007    @..0    ORR      r0,r0,r7,LSL #12
        0x00011256:    f50061e0    ...a    ADD      r1,r0,#0x700
        0x0001125a:    4628        (F      MOV      r0,r5
        0x0001125c:    f7fcfea0    ....    BL       am_hal_flash_store_ui32 ; 0xdfa0
        0x00011260:    9800        ..      LDR      r0,[sp,#0]
        0x00011262:    f7fdf84b    ..K.    BL       am_hal_interrupt_master_set ; 0xe2fc
        0x00011266:    2000        .       MOVS     r0,#0
        0x00011268:    2c04        .,      CMP      r4,#4
        0x0001126a:    bf38        8.      IT       CC
        0x0001126c:    2001        .       MOVCC    r0,#1
        0x0001126e:    b001        ..      ADD      sp,sp,#4
        0x00011270:    bdf0        ..      POP      {r4-r7,pc}
        0x00011272:    0000        ..      MOVS     r0,r0
    set_RDWAIT
        0x00011274:    b5f0        ..      PUSH     {r4-r7,lr}
        0x00011276:    b081        ..      SUB      sp,sp,#4
        0x00011278:    4604        .F      MOV      r4,r0
        0x0001127a:    280f        .(      CMP      r0,#0xf
        0x0001127c:    d84b        K.      BHI      0x11316 ; set_RDWAIT + 162
        0x0001127e:    f7fdf835    ..5.    BL       am_hal_interrupt_master_disable ; 0xe2ec
        0x00011282:    f2481500    H...    MOVW     r5,#0x8100
        0x00011286:    f2c40501    ....    MOVT     r5,#0x4001
        0x0001128a:    9000        ..      STR      r0,[sp,#0]
        0x0001128c:    4628        (F      MOV      r0,r5
        0x0001128e:    f7fcfe83    ....    BL       am_hal_flash_load_ui32 ; 0xdf98
        0x00011292:    f24f07f0    O...    MOV      r7,#0xf0f0
        0x00011296:    f6cf77ff    ...w    MOVT     r7,#0xffff
        0x0001129a:    4038        8@      ANDS     r0,r0,r7
        0x0001129c:    4320         C      ORRS     r0,r0,r4
        0x0001129e:    f44061e0    @..a    ORR      r1,r0,#0x700
        0x000112a2:    4628        (F      MOV      r0,r5
        0x000112a4:    f7fcfe7c    ..|.    BL       am_hal_flash_store_ui32 ; 0xdfa0
        0x000112a8:    9800        ..      LDR      r0,[sp,#0]
        0x000112aa:    f7fdf827    ..'.    BL       am_hal_interrupt_master_set ; 0xe2fc
        0x000112ae:    f7fdf81d    ....    BL       am_hal_interrupt_master_disable ; 0xe2ec
        0x000112b2:    1d2e        ..      ADDS     r6,r5,#4
        0x000112b4:    9000        ..      STR      r0,[sp,#0]
        0x000112b6:    4630        0F      MOV      r0,r6
        0x000112b8:    f7fcfe6e    ..n.    BL       am_hal_flash_load_ui32 ; 0xdf98
        0x000112bc:    4038        8@      ANDS     r0,r0,r7
        0x000112be:    4320         C      ORRS     r0,r0,r4
        0x000112c0:    f44061e0    @..a    ORR      r1,r0,#0x700
        0x000112c4:    4630        0F      MOV      r0,r6
        0x000112c6:    f7fcfe6b    ..k.    BL       am_hal_flash_store_ui32 ; 0xdfa0
        0x000112ca:    9800        ..      LDR      r0,[sp,#0]
        0x000112cc:    f7fdf816    ....    BL       am_hal_interrupt_master_set ; 0xe2fc
        0x000112d0:    f7fdf80c    ....    BL       am_hal_interrupt_master_disable ; 0xe2ec
        0x000112d4:    f1050608    ....    ADD      r6,r5,#8
        0x000112d8:    9000        ..      STR      r0,[sp,#0]
        0x000112da:    4630        0F      MOV      r0,r6
        0x000112dc:    f7fcfe5c    ..\.    BL       am_hal_flash_load_ui32 ; 0xdf98
        0x000112e0:    4038        8@      ANDS     r0,r0,r7
        0x000112e2:    4320         C      ORRS     r0,r0,r4
        0x000112e4:    f44061e0    @..a    ORR      r1,r0,#0x700
        0x000112e8:    4630        0F      MOV      r0,r6
        0x000112ea:    f7fcfe59    ..Y.    BL       am_hal_flash_store_ui32 ; 0xdfa0
        0x000112ee:    9800        ..      LDR      r0,[sp,#0]
        0x000112f0:    f7fdf804    ....    BL       am_hal_interrupt_master_set ; 0xe2fc
        0x000112f4:    f7fcfffa    ....    BL       am_hal_interrupt_master_disable ; 0xe2ec
        0x000112f8:    350c        .5      ADDS     r5,r5,#0xc
        0x000112fa:    9000        ..      STR      r0,[sp,#0]
        0x000112fc:    4628        (F      MOV      r0,r5
        0x000112fe:    f7fcfe4b    ..K.    BL       am_hal_flash_load_ui32 ; 0xdf98
        0x00011302:    4038        8@      ANDS     r0,r0,r7
        0x00011304:    4320         C      ORRS     r0,r0,r4
        0x00011306:    f44061e0    @..a    ORR      r1,r0,#0x700
        0x0001130a:    4628        (F      MOV      r0,r5
        0x0001130c:    f7fcfe48    ..H.    BL       am_hal_flash_store_ui32 ; 0xdfa0
        0x00011310:    9800        ..      LDR      r0,[sp,#0]
        0x00011312:    f7fcfff3    ....    BL       am_hal_interrupt_master_set ; 0xe2fc
        0x00011316:    2000        .       MOVS     r0,#0
        0x00011318:    2c10        .,      CMP      r4,#0x10
        0x0001131a:    bf38        8.      IT       CC
        0x0001131c:    2001        .       MOVCC    r0,#1
        0x0001131e:    b001        ..      ADD      sp,sp,#4
        0x00011320:    bdf0        ..      POP      {r4-r7,pc}
        0x00011322:    0000        ..      MOVS     r0,r0
    set_SEDELAY
        0x00011324:    b5f0        ..      PUSH     {r4-r7,lr}
        0x00011326:    b081        ..      SUB      sp,sp,#4
        0x00011328:    4604        .F      MOV      r4,r0
        0x0001132a:    2807        .(      CMP      r0,#7
        0x0001132c:    d851        Q.      BHI      0x113d2 ; set_SEDELAY + 174
        0x0001132e:    f0040707    ....    AND      r7,r4,#7
        0x00011332:    f7fcffdb    ....    BL       am_hal_interrupt_master_disable ; 0xe2ec
        0x00011336:    f2481500    H...    MOVW     r5,#0x8100
        0x0001133a:    f2c40501    ....    MOVT     r5,#0x4001
        0x0001133e:    9000        ..      STR      r0,[sp,#0]
        0x00011340:    4628        (F      MOV      r0,r5
        0x00011342:    f7fcfe29    ..).    BL       am_hal_flash_load_ui32 ; 0xdf98
        0x00011346:    f4206077     .w`    BIC      r0,r0,#0xf70
        0x0001134a:    ea401007    @...    ORR      r0,r0,r7,LSL #4
        0x0001134e:    f50061e0    ...a    ADD      r1,r0,#0x700
        0x00011352:    4628        (F      MOV      r0,r5
        0x00011354:    f7fcfe24    ..$.    BL       am_hal_flash_store_ui32 ; 0xdfa0
        0x00011358:    9800        ..      LDR      r0,[sp,#0]
        0x0001135a:    f7fcffcf    ....    BL       am_hal_interrupt_master_set ; 0xe2fc
        0x0001135e:    f7fcffc5    ....    BL       am_hal_interrupt_master_disable ; 0xe2ec
        0x00011362:    1d2e        ..      ADDS     r6,r5,#4
        0x00011364:    9000        ..      STR      r0,[sp,#0]
        0x00011366:    4630        0F      MOV      r0,r6
        0x00011368:    f7fcfe16    ....    BL       am_hal_flash_load_ui32 ; 0xdf98
        0x0001136c:    f4206077     .w`    BIC      r0,r0,#0xf70
        0x00011370:    ea401007    @...    ORR      r0,r0,r7,LSL #4
        0x00011374:    f50061e0    ...a    ADD      r1,r0,#0x700
        0x00011378:    4630        0F      MOV      r0,r6
        0x0001137a:    f7fcfe11    ....    BL       am_hal_flash_store_ui32 ; 0xdfa0
        0x0001137e:    9800        ..      LDR      r0,[sp,#0]
        0x00011380:    f7fcffbc    ....    BL       am_hal_interrupt_master_set ; 0xe2fc
        0x00011384:    f7fcffb2    ....    BL       am_hal_interrupt_master_disable ; 0xe2ec
        0x00011388:    f1050608    ....    ADD      r6,r5,#8
        0x0001138c:    9000        ..      STR      r0,[sp,#0]
        0x0001138e:    4630        0F      MOV      r0,r6
        0x00011390:    f7fcfe02    ....    BL       am_hal_flash_load_ui32 ; 0xdf98
        0x00011394:    f4206077     .w`    BIC      r0,r0,#0xf70
        0x00011398:    ea401007    @...    ORR      r0,r0,r7,LSL #4
        0x0001139c:    f50061e0    ...a    ADD      r1,r0,#0x700
        0x000113a0:    4630        0F      MOV      r0,r6
        0x000113a2:    f7fcfdfd    ....    BL       am_hal_flash_store_ui32 ; 0xdfa0
        0x000113a6:    9800        ..      LDR      r0,[sp,#0]
        0x000113a8:    f7fcffa8    ....    BL       am_hal_interrupt_master_set ; 0xe2fc
        0x000113ac:    f7fcff9e    ....    BL       am_hal_interrupt_master_disable ; 0xe2ec
        0x000113b0:    350c        .5      ADDS     r5,r5,#0xc
        0x000113b2:    9000        ..      STR      r0,[sp,#0]
        0x000113b4:    4628        (F      MOV      r0,r5
        0x000113b6:    f7fcfdef    ....    BL       am_hal_flash_load_ui32 ; 0xdf98
        0x000113ba:    f4206077     .w`    BIC      r0,r0,#0xf70
        0x000113be:    ea401007    @...    ORR      r0,r0,r7,LSL #4
        0x000113c2:    f50061e0    ...a    ADD      r1,r0,#0x700
        0x000113c6:    4628        (F      MOV      r0,r5
        0x000113c8:    f7fcfdea    ....    BL       am_hal_flash_store_ui32 ; 0xdfa0
        0x000113cc:    9800        ..      LDR      r0,[sp,#0]
        0x000113ce:    f7fcff95    ....    BL       am_hal_interrupt_master_set ; 0xe2fc
        0x000113d2:    2000        .       MOVS     r0,#0
        0x000113d4:    2c08        .,      CMP      r4,#8
        0x000113d6:    bf38        8.      IT       CC
        0x000113d8:    2001        .       MOVCC    r0,#1
        0x000113da:    b001        ..      ADD      sp,sp,#4
        0x000113dc:    bdf0        ..      POP      {r4-r7,pc}
        0x000113de:    0000        ..      MOVS     r0,r0
    simple_strlen
        0x000113e0:    b083        ..      SUB      sp,sp,#0xc
        0x000113e2:    9001        ..      STR      r0,[sp,#4]
        0x000113e4:    2000        .       MOVS     r0,#0
        0x000113e6:    9000        ..      STR      r0,[sp,#0]
        0x000113e8:    9801        ..      LDR      r0,[sp,#4]
        0x000113ea:    b918        ..      CBNZ     r0,0x113f4 ; simple_strlen + 20
        0x000113ec:    e7ff        ..      B        0x113ee ; simple_strlen + 14
        0x000113ee:    9800        ..      LDR      r0,[sp,#0]
        0x000113f0:    9002        ..      STR      r0,[sp,#8]
        0x000113f2:    e00d        ..      B        0x11410 ; simple_strlen + 48
        0x000113f4:    e7ff        ..      B        0x113f6 ; simple_strlen + 22
        0x000113f6:    9801        ..      LDR      r0,[sp,#4]
        0x000113f8:    1c41        A.      ADDS     r1,r0,#1
        0x000113fa:    9101        ..      STR      r1,[sp,#4]
        0x000113fc:    7800        .x      LDRB     r0,[r0,#0]
        0x000113fe:    b120         .      CBZ      r0,0x1140a ; simple_strlen + 42
        0x00011400:    e7ff        ..      B        0x11402 ; simple_strlen + 34
        0x00011402:    9800        ..      LDR      r0,[sp,#0]
        0x00011404:    3001        .0      ADDS     r0,#1
        0x00011406:    9000        ..      STR      r0,[sp,#0]
        0x00011408:    e7f5        ..      B        0x113f6 ; simple_strlen + 22
        0x0001140a:    9800        ..      LDR      r0,[sp,#0]
        0x0001140c:    9002        ..      STR      r0,[sp,#8]
        0x0001140e:    e7ff        ..      B        0x11410 ; simple_strlen + 48
        0x00011410:    9802        ..      LDR      r0,[sp,#8]
        0x00011412:    b003        ..      ADD      sp,sp,#0xc
        0x00011414:    4770        pG      BX       lr
        0x00011416:    0000        ..      MOVS     r0,r0
    timerA0_init
        0x00011418:    b580        ..      PUSH     {r7,lr}
        0x0001141a:    b084        ..      SUB      sp,sp,#0x10
        0x0001141c:    2002        .       MOVS     r0,#2
        0x0001141e:    2100        .!      MOVS     r1,#0
        0x00011420:    9101        ..      STR      r1,[sp,#4]
        0x00011422:    f7fbff43    ..C.    BL       am_hal_clkgen_control ; 0xd2ac
        0x00011426:    9801        ..      LDR      r0,[sp,#4]
        0x00011428:    f64f71ff    O..q    MOV      r1,#0xffff
        0x0001142c:    9102        ..      STR      r1,[sp,#8]
        0x0001142e:    f7fcfa25    ..%.    BL       am_hal_ctimer_clear ; 0xd87c
        0x00011432:    9801        ..      LDR      r0,[sp,#4]
        0x00011434:    f2410170    A.p.    MOV      r1,#0x1070
        0x00011438:    f2c10101    ....    MOVT     r1,#0x1001
        0x0001143c:    f7fcfa34    ..4.    BL       am_hal_ctimer_config ; 0xd8a8
        0x00011440:    9801        ..      LDR      r0,[sp,#4]
        0x00011442:    9902        ..      LDR      r1,[sp,#8]
        0x00011444:    2220         "      MOVS     r2,#0x20
        0x00011446:    9203        ..      STR      r2,[sp,#0xc]
        0x00011448:    9a03        ..      LDR      r2,[sp,#0xc]
        0x0001144a:    0853        S.      LSRS     r3,r2,#1
        0x0001144c:    f7fcfcc0    ....    BL       am_hal_ctimer_period_set ; 0xddd0
        0x00011450:    2001        .       MOVS     r0,#1
        0x00011452:    f7fcfa67    ..g.    BL       am_hal_ctimer_int_clear ; 0xd924
        0x00011456:    b004        ..      ADD      sp,sp,#0x10
        0x00011458:    bd80        ..      POP      {r7,pc}
        0x0001145a:    0000        ..      MOVS     r0,r0
    uint64_to_hexstr
        0x0001145c:    b08c        ..      SUB      sp,sp,#0x30
        0x0001145e:    910b        ..      STR      r1,[sp,#0x2c]
        0x00011460:    900a        ..      STR      r0,[sp,#0x28]
        0x00011462:    9209        ..      STR      r2,[sp,#0x24]
        0x00011464:    f88d3023    ..#0    STRB     r3,[sp,#0x23]
        0x00011468:    2000        .       MOVS     r0,#0
        0x0001146a:    9006        ..      STR      r0,[sp,#0x18]
        0x0001146c:    980a        ..      LDR      r0,[sp,#0x28]
        0x0001146e:    990b        ..      LDR      r1,[sp,#0x2c]
        0x00011470:    4308        .C      ORRS     r0,r0,r1
        0x00011472:    b940        @.      CBNZ     r0,0x11486 ; uint64_to_hexstr + 42
        0x00011474:    e7ff        ..      B        0x11476 ; uint64_to_hexstr + 26
        0x00011476:    9a06        ..      LDR      r2,[sp,#0x18]
        0x00011478:    1c50        P.      ADDS     r0,r2,#1
        0x0001147a:    9006        ..      STR      r0,[sp,#0x18]
        0x0001147c:    f10d0103    ....    ADD      r1,sp,#3
        0x00011480:    2030        0       MOVS     r0,#0x30
        0x00011482:    5488        .T      STRB     r0,[r1,r2]
        0x00011484:    e7ff        ..      B        0x11486 ; uint64_to_hexstr + 42
        0x00011486:    e7ff        ..      B        0x11488 ; uint64_to_hexstr + 44
        0x00011488:    980a        ..      LDR      r0,[sp,#0x28]
        0x0001148a:    990b        ..      LDR      r1,[sp,#0x2c]
        0x0001148c:    4308        .C      ORRS     r0,r0,r1
        0x0001148e:    b350        P.      CBZ      r0,0x114e6 ; uint64_to_hexstr + 138
        0x00011490:    e7ff        ..      B        0x11492 ; uint64_to_hexstr + 54
        0x00011492:    f89d0028    ..(.    LDRB     r0,[sp,#0x28]
        0x00011496:    f000000f    ....    AND      r0,r0,#0xf
        0x0001149a:    f88d0017    ....    STRB     r0,[sp,#0x17]
        0x0001149e:    f89d0017    ....    LDRB     r0,[sp,#0x17]
        0x000114a2:    280a        .(      CMP      r0,#0xa
        0x000114a4:    db0d        ..      BLT      0x114c2 ; uint64_to_hexstr + 102
        0x000114a6:    e7ff        ..      B        0x114a8 ; uint64_to_hexstr + 76
        0x000114a8:    f89d0023    ..#.    LDRB     r0,[sp,#0x23]
        0x000114ac:    07c0        ..      LSLS     r0,r0,#31
        0x000114ae:    2107        .!      MOVS     r1,#7
        0x000114b0:    2800        .(      CMP      r0,#0
        0x000114b2:    bf18        ..      IT       NE
        0x000114b4:    2127        '!      MOVNE    r1,#0x27
        0x000114b6:    f89d0017    ....    LDRB     r0,[sp,#0x17]
        0x000114ba:    4408        .D      ADD      r0,r0,r1
        0x000114bc:    f88d0017    ....    STRB     r0,[sp,#0x17]
        0x000114c0:    e7ff        ..      B        0x114c2 ; uint64_to_hexstr + 102
        0x000114c2:    f89d0017    ....    LDRB     r0,[sp,#0x17]
        0x000114c6:    3030        00      ADDS     r0,r0,#0x30
        0x000114c8:    9a06        ..      LDR      r2,[sp,#0x18]
        0x000114ca:    1c51        Q.      ADDS     r1,r2,#1
        0x000114cc:    9106        ..      STR      r1,[sp,#0x18]
        0x000114ce:    f10d0103    ....    ADD      r1,sp,#3
        0x000114d2:    5488        .T      STRB     r0,[r1,r2]
        0x000114d4:    980a        ..      LDR      r0,[sp,#0x28]
        0x000114d6:    990b        ..      LDR      r1,[sp,#0x2c]
        0x000114d8:    0900        ..      LSRS     r0,r0,#4
        0x000114da:    ea407001    @..p    ORR      r0,r0,r1,LSL #28
        0x000114de:    0909        ..      LSRS     r1,r1,#4
        0x000114e0:    910b        ..      STR      r1,[sp,#0x2c]
        0x000114e2:    900a        ..      STR      r0,[sp,#0x28]
        0x000114e4:    e7d0        ..      B        0x11488 ; uint64_to_hexstr + 44
        0x000114e6:    9806        ..      LDR      r0,[sp,#0x18]
        0x000114e8:    9007        ..      STR      r0,[sp,#0x1c]
        0x000114ea:    9809        ..      LDR      r0,[sp,#0x24]
        0x000114ec:    b198        ..      CBZ      r0,0x11516 ; uint64_to_hexstr + 186
        0x000114ee:    e7ff        ..      B        0x114f0 ; uint64_to_hexstr + 148
        0x000114f0:    e7ff        ..      B        0x114f2 ; uint64_to_hexstr + 150
        0x000114f2:    9806        ..      LDR      r0,[sp,#0x18]
        0x000114f4:    1e41        A.      SUBS     r1,r0,#1
        0x000114f6:    9106        ..      STR      r1,[sp,#0x18]
        0x000114f8:    b148        H.      CBZ      r0,0x1150e ; uint64_to_hexstr + 178
        0x000114fa:    e7ff        ..      B        0x114fc ; uint64_to_hexstr + 160
        0x000114fc:    9906        ..      LDR      r1,[sp,#0x18]
        0x000114fe:    f10d0003    ....    ADD      r0,sp,#3
        0x00011502:    5c40        @\      LDRB     r0,[r0,r1]
        0x00011504:    9909        ..      LDR      r1,[sp,#0x24]
        0x00011506:    1c4a        J.      ADDS     r2,r1,#1
        0x00011508:    9209        ..      STR      r2,[sp,#0x24]
        0x0001150a:    7008        .p      STRB     r0,[r1,#0]
        0x0001150c:    e7f1        ..      B        0x114f2 ; uint64_to_hexstr + 150
        0x0001150e:    9909        ..      LDR      r1,[sp,#0x24]
        0x00011510:    2000        .       MOVS     r0,#0
        0x00011512:    7008        .p      STRB     r0,[r1,#0]
        0x00011514:    e7ff        ..      B        0x11516 ; uint64_to_hexstr + 186
        0x00011516:    9807        ..      LDR      r0,[sp,#0x1c]
        0x00011518:    b00c        ..      ADD      sp,sp,#0x30
        0x0001151a:    4770        pG      BX       lr
    uint64_to_str
        0x0001151c:    b580        ..      PUSH     {r7,lr}
        0x0001151e:    b090        ..      SUB      sp,sp,#0x40
        0x00011520:    910f        ..      STR      r1,[sp,#0x3c]
        0x00011522:    900e        ..      STR      r0,[sp,#0x38]
        0x00011524:    920d        ..      STR      r2,[sp,#0x34]
        0x00011526:    2000        .       MOVS     r0,#0
        0x00011528:    9005        ..      STR      r0,[sp,#0x14]
        0x0001152a:    9004        ..      STR      r0,[sp,#0x10]
        0x0001152c:    e7ff        ..      B        0x1152e ; uint64_to_str + 18
        0x0001152e:    980e        ..      LDR      r0,[sp,#0x38]
        0x00011530:    990f        ..      LDR      r1,[sp,#0x3c]
        0x00011532:    f7fff849    ..I.    BL       divu64_10 ; 0x105c8
        0x00011536:    9101        ..      STR      r1,[sp,#4]
        0x00011538:    9000        ..      STR      r0,[sp,#0]
        0x0001153a:    980e        ..      LDR      r0,[sp,#0x38]
        0x0001153c:    9900        ..      LDR      r1,[sp,#0]
        0x0001153e:    eb010181    ....    ADD      r1,r1,r1,LSL #2
        0x00011542:    eba00041    ..A.    SUB      r0,r0,r1,LSL #1
        0x00011546:    9003        ..      STR      r0,[sp,#0xc]
        0x00011548:    9803        ..      LDR      r0,[sp,#0xc]
        0x0001154a:    3030        00      ADDS     r0,r0,#0x30
        0x0001154c:    9a05        ..      LDR      r2,[sp,#0x14]
        0x0001154e:    1c51        Q.      ADDS     r1,r2,#1
        0x00011550:    9105        ..      STR      r1,[sp,#0x14]
        0x00011552:    f10d011b    ....    ADD      r1,sp,#0x1b
        0x00011556:    5488        .T      STRB     r0,[r1,r2]
        0x00011558:    9800        ..      LDR      r0,[sp,#0]
        0x0001155a:    9901        ..      LDR      r1,[sp,#4]
        0x0001155c:    910f        ..      STR      r1,[sp,#0x3c]
        0x0001155e:    900e        ..      STR      r0,[sp,#0x38]
        0x00011560:    e7ff        ..      B        0x11562 ; uint64_to_str + 70
        0x00011562:    980e        ..      LDR      r0,[sp,#0x38]
        0x00011564:    990f        ..      LDR      r1,[sp,#0x3c]
        0x00011566:    4308        .C      ORRS     r0,r0,r1
        0x00011568:    2800        .(      CMP      r0,#0
        0x0001156a:    d1e0        ..      BNE      0x1152e ; uint64_to_str + 18
        0x0001156c:    e7ff        ..      B        0x1156e ; uint64_to_str + 82
        0x0001156e:    9805        ..      LDR      r0,[sp,#0x14]
        0x00011570:    9004        ..      STR      r0,[sp,#0x10]
        0x00011572:    980d        ..      LDR      r0,[sp,#0x34]
        0x00011574:    b198        ..      CBZ      r0,0x1159e ; uint64_to_str + 130
        0x00011576:    e7ff        ..      B        0x11578 ; uint64_to_str + 92
        0x00011578:    e7ff        ..      B        0x1157a ; uint64_to_str + 94
        0x0001157a:    9805        ..      LDR      r0,[sp,#0x14]
        0x0001157c:    1e41        A.      SUBS     r1,r0,#1
        0x0001157e:    9105        ..      STR      r1,[sp,#0x14]
        0x00011580:    b148        H.      CBZ      r0,0x11596 ; uint64_to_str + 122
        0x00011582:    e7ff        ..      B        0x11584 ; uint64_to_str + 104
        0x00011584:    9905        ..      LDR      r1,[sp,#0x14]
        0x00011586:    f10d001b    ....    ADD      r0,sp,#0x1b
        0x0001158a:    5c40        @\      LDRB     r0,[r0,r1]
        0x0001158c:    990d        ..      LDR      r1,[sp,#0x34]
        0x0001158e:    1c4a        J.      ADDS     r2,r1,#1
        0x00011590:    920d        ..      STR      r2,[sp,#0x34]
        0x00011592:    7008        .p      STRB     r0,[r1,#0]
        0x00011594:    e7f1        ..      B        0x1157a ; uint64_to_str + 94
        0x00011596:    990d        ..      LDR      r1,[sp,#0x34]
        0x00011598:    2000        .       MOVS     r0,#0
        0x0001159a:    7008        .p      STRB     r0,[r1,#0]
        0x0001159c:    e7ff        ..      B        0x1159e ; uint64_to_str + 130
        0x0001159e:    9804        ..      LDR      r0,[sp,#0x10]
        0x000115a0:    b010        ..      ADD      sp,sp,#0x40
        0x000115a2:    bd80        ..      POP      {r7,pc}
    verify_fram_data
        0x000115a4:    b580        ..      PUSH     {r7,lr}
        0x000115a6:    b082        ..      SUB      sp,sp,#8
        0x000115a8:    f6444177    D.wA    MOV      r1,#0x4c77
        0x000115ac:    f2c10101    ....    MOVT     r1,#0x1001
        0x000115b0:    2000        .       MOVS     r0,#0
        0x000115b2:    7008        .p      STRB     r0,[r1,#0]
        0x000115b4:    9000        ..      STR      r0,[sp,#0]
        0x000115b6:    e7ff        ..      B        0x115b8 ; verify_fram_data + 20
        0x000115b8:    9800        ..      LDR      r0,[sp,#0]
        0x000115ba:    287f        .(      CMP      r0,#0x7f
        0x000115bc:    d828        (.      BHI      0x11610 ; verify_fram_data + 108
        0x000115be:    e7ff        ..      B        0x115c0 ; verify_fram_data + 28
        0x000115c0:    9a00        ..      LDR      r2,[sp,#0]
        0x000115c2:    f2417014    A..p    MOV      r0,#0x1714
        0x000115c6:    f2c10001    ....    MOVT     r0,#0x1001
        0x000115ca:    5c80        .\      LDRB     r0,[r0,r2]
        0x000115cc:    f2417194    A..q    MOV      r1,#0x1794
        0x000115d0:    f2c10101    ....    MOVT     r1,#0x1001
        0x000115d4:    5c89        .\      LDRB     r1,[r1,r2]
        0x000115d6:    4288        .B      CMP      r0,r1
        0x000115d8:    d015        ..      BEQ      0x11606 ; verify_fram_data + 98
        0x000115da:    e7ff        ..      B        0x115dc ; verify_fram_data + 56
        0x000115dc:    9900        ..      LDR      r1,[sp,#0]
        0x000115de:    f2417014    A..p    MOV      r0,#0x1714
        0x000115e2:    f2c10001    ....    MOVT     r0,#0x1001
        0x000115e6:    5c42        B\      LDRB     r2,[r0,r1]
        0x000115e8:    f2417094    A..p    MOV      r0,#0x1794
        0x000115ec:    f2c10001    ....    MOVT     r0,#0x1001
        0x000115f0:    5c43        C\      LDRB     r3,[r0,r1]
        0x000115f2:    f641509c    A..P    MOV      r0,#0x1d9c
        0x000115f6:    f2c00001    ....    MOVT     r0,#1
        0x000115fa:    f7fefc27    ..'.    BL       am_util_stdio_printf ; 0xfe4c
        0x000115fe:    f04f30ff    O..0    MOV      r0,#0xffffffff
        0x00011602:    9001        ..      STR      r0,[sp,#4]
        0x00011604:    e007        ..      B        0x11616 ; verify_fram_data + 114
        0x00011606:    e7ff        ..      B        0x11608 ; verify_fram_data + 100
        0x00011608:    9800        ..      LDR      r0,[sp,#0]
        0x0001160a:    3001        .0      ADDS     r0,#1
        0x0001160c:    9000        ..      STR      r0,[sp,#0]
        0x0001160e:    e7d3        ..      B        0x115b8 ; verify_fram_data + 20
        0x00011610:    2000        .       MOVS     r0,#0
        0x00011612:    9001        ..      STR      r0,[sp,#4]
        0x00011614:    e7ff        ..      B        0x11616 ; verify_fram_data + 114
        0x00011616:    9801        ..      LDR      r0,[sp,#4]
        0x00011618:    b002        ..      ADD      sp,sp,#8
        0x0001161a:    bd80        ..      POP      {r7,pc}
    write_complete
        0x0001161c:    b580        ..      PUSH     {r7,lr}
        0x0001161e:    b082        ..      SUB      sp,sp,#8
        0x00011620:    9001        ..      STR      r0,[sp,#4]
        0x00011622:    9100        ..      STR      r1,[sp,#0]
        0x00011624:    9800        ..      LDR      r0,[sp,#0]
        0x00011626:    b140        @.      CBZ      r0,0x1163a ; write_complete + 30
        0x00011628:    e7ff        ..      B        0x1162a ; write_complete + 14
        0x0001162a:    9900        ..      LDR      r1,[sp,#0]
        0x0001162c:    f6416001    A..`    MOV      r0,#0x1e01
        0x00011630:    f2c00001    ....    MOVT     r0,#1
        0x00011634:    f7fefc0a    ....    BL       am_util_stdio_printf ; 0xfe4c
        0x00011638:    e006        ..      B        0x11648 ; write_complete + 44
        0x0001163a:    f6444178    D.xA    MOV      r1,#0x4c78
        0x0001163e:    f2c10101    ....    MOVT     r1,#0x1001
        0x00011642:    2001        .       MOVS     r0,#1
        0x00011644:    7008        .p      STRB     r0,[r1,#0]
        0x00011646:    e7ff        ..      B        0x11648 ; write_complete + 44
        0x00011648:    b002        ..      ADD      sp,sp,#8
        0x0001164a:    bd80        ..      POP      {r7,pc}
    write_fram
        0x0001164c:    b580        ..      PUSH     {r7,lr}
        0x0001164e:    b084        ..      SUB      sp,sp,#0x10
        0x00011650:    f2410028    A.(.    MOV      r0,#0x1028
        0x00011654:    f2c10001    ....    MOVT     r0,#0x1001
        0x00011658:    f8d0c024    ..$.    LDR      r12,[r0,#0x24]
        0x0001165c:    f64430ec    D..0    MOV      r0,#0x4bec
        0x00011660:    f2c10001    ....    MOVT     r0,#0x1001
        0x00011664:    6800        .h      LDR      r0,[r0,#0]
        0x00011666:    466b        kF      MOV      r3,sp
        0x00011668:    2200        ."      MOVS     r2,#0
        0x0001166a:    605a        Z`      STR      r2,[r3,#4]
        0x0001166c:    f241611d    A..a    MOV      r1,#0x161d
        0x00011670:    f2c00101    ....    MOVT     r1,#1
        0x00011674:    6019        .`      STR      r1,[r3,#0]
        0x00011676:    f2417114    A..q    MOV      r1,#0x1714
        0x0001167a:    f2c10101    ....    MOVT     r1,#0x1001
        0x0001167e:    2380        .#      MOVS     r3,#0x80
        0x00011680:    47e0        .G      BLX      r12
        0x00011682:    9003        ..      STR      r0,[sp,#0xc]
        0x00011684:    9803        ..      LDR      r0,[sp,#0xc]
        0x00011686:    b938        8.      CBNZ     r0,0x11698 ; write_fram + 76
        0x00011688:    e7ff        ..      B        0x1168a ; write_fram + 62
        0x0001168a:    f2410158    A.X.    MOV      r1,#0x1058
        0x0001168e:    f2c10101    ....    MOVT     r1,#0x1001
        0x00011692:    2000        .       MOVS     r0,#0
        0x00011694:    7008        .p      STRB     r0,[r1,#0]
        0x00011696:    e7ff        ..      B        0x11698 ; write_fram + 76
        0x00011698:    b004        ..      ADD      sp,sp,#0x10
        0x0001169a:    bd80        ..      POP      {r7,pc}
    $t
    x$fpl$d2f
    $v0
    __aeabi_d2f
    _d2f
        0x0001169c:    f0214200    !..B    BIC      r2,r1,#0x80000000
        0x000116a0:    f0014300    ...C    AND      r3,r1,#0x80000000
        0x000116a4:    f1a25260    ..`R    SUB      r2,r2,#0x38000000
        0x000116a8:    f5b21f80    ....    CMP      r2,#0x100000
        0x000116ac:    bf28        (.      IT       CS
        0x000116ae:    f1d26c7f    ...l    RSBSCS   r12,r2,#0xff00000
        0x000116b2:    d90b        ..      BLS      0x116cc ; __aeabi_d2f + 48
        0x000116b4:    ea5f1c00    _...    LSLS     r12,r0,#4
        0x000116b8:    ea4302c2    C...    ORR      r2,r3,r2,LSL #3
        0x000116bc:    eb427050    B.Pp    ADC      r0,r2,r0,LSR #29
        0x000116c0:    bf18        ..      IT       NE
        0x000116c2:    4770        pG      BXNE     lr
        0x000116c4:    bf28        (.      IT       CS
        0x000116c6:    f0200001     ...    BICCS    r0,r0,#1
        0x000116ca:    4770        pG      BX       lr
        0x000116cc:    f5b21f80    ....    CMP      r2,#0x100000
        0x000116d0:    bfbc        ..      ITT      LT
        0x000116d2:    4618        .F      MOVLT    r0,r3
        0x000116d4:    4770        pG      BXLT     lr
        0x000116d6:    ea4f0c41    O.A.    LSL      r12,r1,#1
        0x000116da:    f51c1f00    ....    CMN      r12,#0x200000
        0x000116de:    d202        ..      BCS      0x116e6 ; __aeabi_d2f + 74
        0x000116e0:    4608        .F      MOV      r0,r1
        0x000116e2:    f000b867    ..g.    B.W      __fpl_fretinf ; 0x117b4
        0x000116e6:    b570        p.      PUSH     {r4-r6,lr}
        0x000116e8:    f000f809    ....    BL       __fpl_dnaninf ; 0x116fe
    $d
        0x000116ec:    89000000    ....    DCD    2298478592
    $t
        0x000116f0:    f7ffbff6    ....    B.W      0x116e0 ; __aeabi_d2f + 68
        0x000116f4:    f04f4000    O..@    MOV      r0,#0x80000000
        0x000116f8:    f5a00080    ....    SUB      r0,r0,#0x400000
        0x000116fc:    4770        pG      BX       lr
    x$fpl$dnaninf
    $v0
    __fpl_dnaninf
        0x000116fe:    f10e0e02    ....    ADD      lr,lr,#2
        0x00011702:    f02e0e03    ....    BIC      lr,lr,#3
        0x00011706:    f85e6b04    ^..k    LDR      r6,[lr],#4
        0x0001170a:    4236        6B      TST      r6,r6
        0x0001170c:    d405        ..      BMI      0x1171a ; __fpl_dnaninf + 28
        0x0001170e:    2a01        .*      CMP      r2,#1
        0x00011710:    eb430503    C...    ADC      r5,r3,r3
        0x00011714:    f5151f00    ....    CMN      r5,#0x200000
        0x00011718:    d812        ..      BHI      0x11740 ; __fpl_dnaninf + 66
        0x0001171a:    2801        .(      CMP      r0,#1
        0x0001171c:    eb410c01    A...    ADC      r12,r1,r1
        0x00011720:    f51c1f00    ....    CMN      r12,#0x200000
        0x00011724:    d80c        ..      BHI      0x11740 ; __fpl_dnaninf + 66
        0x00011726:    d10e        ..      BNE      0x11746 ; __fpl_dnaninf + 72
        0x00011728:    ea4f7cd1    O..|    LSR      r12,r1,#31
        0x0001172c:    eb0c0c4c    ..L.    ADD      r12,r12,r12,LSL #1
        0x00011730:    f10c0c02    ....    ADD      r12,r12,#2
        0x00011734:    f5151f00    ....    CMN      r5,#0x200000
        0x00011738:    bf08        ..      IT       EQ
        0x0001173a:    eb4c7cd3    L..|    ADCEQ    r12,r12,r3,LSR #31
        0x0001173e:    e004        ..      B        0x1174a ; __fpl_dnaninf + 76
        0x00011740:    f04f0c08    O...    MOV      r12,#8
        0x00011744:    e001        ..      B        0x1174a ; __fpl_dnaninf + 76
        0x00011746:    ea4f7cd3    O..|    LSR      r12,r3,#31
        0x0001174a:    eb0c054c    ..L.    ADD      r5,r12,r12,LSL #1
        0x0001174e:    fa26f605    &...    LSR      r6,r6,r5
        0x00011752:    f0060607    ....    AND      r6,r6,#7
        0x00011756:    f1b60c04    ....    SUBS     r12,r6,#4
        0x0001175a:    d206        ..      BCS      0x1176a ; __fpl_dnaninf + 108
        0x0001175c:    eb0e0c86    ....    ADD      r12,lr,r6,LSL #2
        0x00011760:    e8bd4070    ..p@    POP      {r4-r6,lr}
        0x00011764:    f04c0c01    L...    ORR      r12,r12,#1
        0x00011768:    4760        `G      BX       r12
        0x0001176a:    e8dff00c    ....    TBB      [pc,r12]
    $d
        0x0001176e:    0b09        ..      DCW    2825
        0x00011770:    0202        ..      DCW    514
    $t
        0x00011772:    f04f4100    O..A    MOV      r1,#0x80000000
        0x00011776:    f5a12100    ...!    SUB      r1,r1,#0x80000
        0x0001177a:    f04f0000    O...    MOV      r0,#0
        0x0001177e:    bd70        p.      POP      {r4-r6,pc}
        0x00011780:    4619        .F      MOV      r1,r3
        0x00011782:    4610        .F      MOV      r0,r2
        0x00011784:    2801        .(      CMP      r0,#1
        0x00011786:    eb510401    Q...    ADCS     r4,r1,r1
        0x0001178a:    bf18        ..      IT       NE
        0x0001178c:    f5d41400    ....    RSBSNE   r4,r4,#0x200000
        0x00011790:    bf84        ..      ITT      HI
        0x00011792:    2000        .       MOVHI    r0,#0
        0x00011794:    f0014100    ...A    ANDHI    r1,r1,#0x80000000
        0x00011798:    bd70        p.      POP      {r4-r6,pc}
    x$fpl$fpinit
    $v0
    _fp_init
        0x0001179a:    eef10a10    ....    VMRS     r0,FPSCR
        0x0001179e:    f64f71ff    O..q    MOV      r1,#0xffff
        0x000117a2:    f2c031c0    ...1    MOVT     r1,#0x3c0
        0x000117a6:    ea200001     ...    BIC      r0,r0,r1
        0x000117aa:    f0407040    @.@p    ORR      r0,r0,#0x3000000
        0x000117ae:    eee10a10    ....    VMSR     FPSCR,r0
    __fplib_config_fpu_vfp
    __fplib_config_pureend_doubles
        0x000117b2:    4770        pG      BX       lr
    x$fpl$fretinf
    $v0
    __fpl_fretinf
        0x000117b4:    21ff        .!      MOVS     r1,#0xff
        0x000117b6:    ea4150d0    A..P    ORR      r0,r1,r0,LSR #23
        0x000117ba:    05c0        ..      LSLS     r0,r0,#23
        0x000117bc:    4770        pG      BX       lr
    $d.realdata
    x$fpl$usenofp
    __I$use$fp
    am_hal_cachectrl_defaults
        0x000117be:    0308        ..      DCW    776
        0x000117c0:    00000000    ....    DCD    0
    am_hal_pwrctrl_peripheral_control
        0x000117c4:    00000000    ....    DCD    0
        0x000117c8:    00000000    ....    DCD    0
        0x000117cc:    00000000    ....    DCD    0
        0x000117d0:    00000001    ....    DCD    1
        0x000117d4:    00000004    ....    DCD    4
        0x000117d8:    00000004    ....    DCD    4
        0x000117dc:    00000002    ....    DCD    2
        0x000117e0:    00000008    ....    DCD    8
        0x000117e4:    00000008    ....    DCD    8
        0x000117e8:    00000004    ....    DCD    4
        0x000117ec:    00000008    ....    DCD    8
        0x000117f0:    00000008    ....    DCD    8
        0x000117f4:    00000008    ....    DCD    8
        0x000117f8:    00000008    ....    DCD    8
        0x000117fc:    00000008    ....    DCD    8
        0x00011800:    00000010    ....    DCD    16
        0x00011804:    00000010    ....    DCD    16
        0x00011808:    00000010    ....    DCD    16
        0x0001180c:    00000020     ...    DCD    32
        0x00011810:    00000010    ....    DCD    16
        0x00011814:    00000010    ....    DCD    16
        0x00011818:    00000040    @...    DCD    64
        0x0001181c:    00000010    ....    DCD    16
        0x00011820:    00000010    ....    DCD    16
        0x00011824:    00000080    ....    DCD    128
        0x00011828:    00000004    ....    DCD    4
        0x0001182c:    00000004    ....    DCD    4
        0x00011830:    00000100    ....    DCD    256
        0x00011834:    00000004    ....    DCD    4
        0x00011838:    00000004    ....    DCD    4
        0x0001183c:    00000200    ....    DCD    512
        0x00011840:    00000020     ...    DCD    32
        0x00011844:    00000020     ...    DCD    32
        0x00011848:    00000400    ....    DCD    1024
        0x0001184c:    00000004    ....    DCD    4
        0x00011850:    00000004    ....    DCD    4
        0x00011854:    00000800    ....    DCD    2048
        0x00011858:    00000040    @...    DCD    64
        0x0001185c:    00000040    @...    DCD    64
        0x00011860:    00001000    ....    DCD    4096
        0x00011864:    00000040    @...    DCD    64
        0x00011868:    00000040    @...    DCD    64
        0x0001186c:    00002000    . ..    DCD    8192
        0x00011870:    00000040    @...    DCD    64
        0x00011874:    00000040    @...    DCD    64
        0x00011878:    00004000    .@..    DCD    16384
        0x0001187c:    00000080    ....    DCD    128
        0x00011880:    00000080    ....    DCD    128
        0x00011884:    00008000    ....    DCD    32768
        0x00011888:    00000100    ....    DCD    256
        0x0001188c:    00000100    ....    DCD    256
    gAmHalCmdQReg
        0x00011890:    50004294    .B.P    DCD    1342194324
        0x00011894:    50004298    .B.P    DCD    1342194328
        0x00011898:    500042ac    .B.P    DCD    1342194348
        0x0001189c:    500042b0    .B.P    DCD    1342194352
        0x000118a0:    500042a8    .B.P    DCD    1342194344
        0x000118a4:    00008000    ....    DCD    32768
        0x000118a8:    5000429c    .B.P    DCD    1342194332
        0x000118ac:    00000001    ....    DCD    1
        0x000118b0:    00000004    ....    DCD    4
        0x000118b4:    00000002    ....    DCD    2
        0x000118b8:    50005294    .R.P    DCD    1342198420
        0x000118bc:    50005298    .R.P    DCD    1342198424
        0x000118c0:    500052ac    .R.P    DCD    1342198444
        0x000118c4:    500052b0    .R.P    DCD    1342198448
        0x000118c8:    500052a8    .R.P    DCD    1342198440
        0x000118cc:    00008000    ....    DCD    32768
        0x000118d0:    5000529c    .R.P    DCD    1342198428
        0x000118d4:    00000001    ....    DCD    1
        0x000118d8:    00000004    ....    DCD    4
        0x000118dc:    00000002    ....    DCD    2
        0x000118e0:    50006294    .b.P    DCD    1342202516
        0x000118e4:    50006298    .b.P    DCD    1342202520
        0x000118e8:    500062ac    .b.P    DCD    1342202540
        0x000118ec:    500062b0    .b.P    DCD    1342202544
        0x000118f0:    500062a8    .b.P    DCD    1342202536
        0x000118f4:    00008000    ....    DCD    32768
        0x000118f8:    5000629c    .b.P    DCD    1342202524
        0x000118fc:    00000001    ....    DCD    1
        0x00011900:    00000004    ....    DCD    4
        0x00011904:    00000002    ....    DCD    2
        0x00011908:    50007294    .r.P    DCD    1342206612
        0x0001190c:    50007298    .r.P    DCD    1342206616
        0x00011910:    500072ac    .r.P    DCD    1342206636
        0x00011914:    500072b0    .r.P    DCD    1342206640
        0x00011918:    500072a8    .r.P    DCD    1342206632
        0x0001191c:    00008000    ....    DCD    32768
        0x00011920:    5000729c    .r.P    DCD    1342206620
        0x00011924:    00000001    ....    DCD    1
        0x00011928:    00000004    ....    DCD    4
        0x0001192c:    00000002    ....    DCD    2
        0x00011930:    50008294    ...P    DCD    1342210708
        0x00011934:    50008298    ...P    DCD    1342210712
        0x00011938:    500082ac    ...P    DCD    1342210732
        0x0001193c:    500082b0    ...P    DCD    1342210736
        0x00011940:    500082a8    ...P    DCD    1342210728
        0x00011944:    00008000    ....    DCD    32768
        0x00011948:    5000829c    ...P    DCD    1342210716
        0x0001194c:    00000001    ....    DCD    1
        0x00011950:    00000004    ....    DCD    4
        0x00011954:    00000002    ....    DCD    2
        0x00011958:    50009294    ...P    DCD    1342214804
        0x0001195c:    50009298    ...P    DCD    1342214808
        0x00011960:    500092ac    ...P    DCD    1342214828
        0x00011964:    500092b0    ...P    DCD    1342214832
        0x00011968:    500092a8    ...P    DCD    1342214824
        0x0001196c:    00008000    ....    DCD    32768
        0x00011970:    5000929c    ...P    DCD    1342214812
        0x00011974:    00000001    ....    DCD    1
        0x00011978:    00000004    ....    DCD    4
        0x0001197c:    00000002    ....    DCD    2
        0x00011980:    500142a0    .B.P    DCD    1342259872
        0x00011984:    500142a8    .B.P    DCD    1342259880
        0x00011988:    500142c0    .B.P    DCD    1342259904
        0x0001198c:    500142c4    .B.P    DCD    1342259908
        0x00011990:    500142b8    .B.P    DCD    1342259896
        0x00011994:    00004000    .@..    DCD    16384
        0x00011998:    500142ac    .B.P    DCD    1342259884
        0x0001199c:    00000001    ....    DCD    1
        0x000119a0:    00000004    ....    DCD    4
        0x000119a4:    00000008    ....    DCD    8
        0x000119a8:    500152a0    .R.P    DCD    1342263968
        0x000119ac:    500152a8    .R.P    DCD    1342263976
        0x000119b0:    500152c0    .R.P    DCD    1342264000
        0x000119b4:    500152c4    .R.P    DCD    1342264004
        0x000119b8:    500152b8    .R.P    DCD    1342263992
        0x000119bc:    00004000    .@..    DCD    16384
        0x000119c0:    500152ac    .R.P    DCD    1342263980
        0x000119c4:    00000001    ....    DCD    1
        0x000119c8:    00000004    ....    DCD    4
        0x000119cc:    00000008    ....    DCD    8
        0x000119d0:    500162a0    .b.P    DCD    1342268064
        0x000119d4:    500162a8    .b.P    DCD    1342268072
        0x000119d8:    500162c0    .b.P    DCD    1342268096
        0x000119dc:    500162c4    .b.P    DCD    1342268100
        0x000119e0:    500162b8    .b.P    DCD    1342268088
        0x000119e4:    00004000    .@..    DCD    16384
        0x000119e8:    500162ac    .b.P    DCD    1342268076
        0x000119ec:    00000001    ....    DCD    1
        0x000119f0:    00000004    ....    DCD    4
        0x000119f4:    00000008    ....    DCD    8
        0x000119f8:    5000c248    H..P    DCD    1342227016
        0x000119fc:    5000c24c    L..P    DCD    1342227020
        0x00011a00:    5000c260    `..P    DCD    1342227040
        0x00011a04:    5000c264    d..P    DCD    1342227044
        0x00011a08:    5000c25c    \..P    DCD    1342227036
        0x00011a0c:    00008000    ....    DCD    32768
        0x00011a10:    5000c250    P..P    DCD    1342227024
        0x00011a14:    00000001    ....    DCD    1
        0x00011a18:    00000004    ....    DCD    4
        0x00011a1c:    00000002    ....    DCD    2
    g_AM_BSP_GPIO_DSPL1_CS
        0x00011a20:    00110701    ....    DCD    1115905
    g_AM_BSP_GPIO_DSPL1_SCL
        0x00011a24:    00010b41    A...    DCD    68417
    g_AM_BSP_GPIO_DSPL1_SDI
        0x00011a28:    00010301    ....    DCD    66305
    g_AM_BSP_GPIO_DSPL1_SDO
        0x00011a2c:    00010001    ....    DCD    65537
    g_AM_BSP_GPIO_FLASH2_CS
        0x00011a30:    00210701    ..!.    DCD    2164481
    g_AM_BSP_GPIO_FLASH2_MISO
        0x00011a34:    00010001    ....    DCD    65537
    g_AM_BSP_GPIO_FLASH2_MOSI
        0x00011a38:    00010341    A...    DCD    66369
    g_AM_BSP_GPIO_FLASH2_SCK
        0x00011a3c:    00010b41    A...    DCD    68417
    g_AM_BSP_GPIO_FT_BRIDGE_MISO
        0x00011a40:    00050005    ....    DCD    327685
    g_AM_BSP_GPIO_FT_BRIDGE_MOSI
        0x00011a44:    00050305    ....    DCD    328453
    g_AM_BSP_GPIO_FT_BRIDGE_SCK
        0x00011a48:    00050b45    E...    DCD    330565
    g_AM_BSP_GPIO_FT_BRIDGE_SS
        0x00011a4c:    00350701    ..5.    DCD    3475201
    g_AM_BSP_GPIO_IOM0_SCL
        0x00011a50:    00010b40    @...    DCD    68416
    g_AM_BSP_GPIO_IOM0_SDA
        0x00011a54:    00010b40    @...    DCD    68416
    g_AM_BSP_GPIO_IOM1_CS
        0x00011a58:    00230701    ..#.    DCD    2295553
    g_AM_BSP_GPIO_IOM1_MISO
        0x00011a5c:    00030001    ....    DCD    196609
    g_AM_BSP_GPIO_IOM1_MOSI
        0x00011a60:    00030301    ....    DCD    197377
    g_AM_BSP_GPIO_IOM1_SCK
        0x00011a64:    00030301    ....    DCD    197377
    g_AM_BSP_GPIO_IOM1_SCL
        0x00011a68:    00030b40    @...    DCD    199488
    g_AM_BSP_GPIO_IOM1_SDA
        0x00011a6c:    00030b40    @...    DCD    199488
    g_AM_BSP_GPIO_IOM2_SCL
        0x00011a70:    00050b44    D...    DCD    330564
    g_AM_BSP_GPIO_IOM2_SDA
        0x00011a74:    00050b44    D...    DCD    330564
    g_AM_BSP_GPIO_IOM3_CS
        0x00011a78:    00070701    ....    DCD    460545
    g_AM_BSP_GPIO_IOM3_MISO
        0x00011a7c:    00070005    ....    DCD    458757
    g_AM_BSP_GPIO_IOM3_MOSI
        0x00011a80:    00070305    ....    DCD    459525
    g_AM_BSP_GPIO_IOM3_SCK
        0x00011a84:    00070305    ....    DCD    459525
    g_AM_BSP_GPIO_IOM4_CS
        0x00011a88:    00190701    ....    DCD    1640193
    g_AM_BSP_GPIO_IOM4_MISO
        0x00011a8c:    00090005    ....    DCD    589829
    g_AM_BSP_GPIO_IOM4_MOSI
        0x00011a90:    00090305    ....    DCD    590597
    g_AM_BSP_GPIO_IOM4_SCK
        0x00011a94:    00090305    ....    DCD    590597
    g_AM_BSP_GPIO_IOM4_SCL
        0x00011a98:    00090b44    D...    DCD    592708
    g_AM_BSP_GPIO_IOM4_SDA
        0x00011a9c:    00090b44    D...    DCD    592708
    g_AM_BSP_GPIO_IOM5_SCL
        0x00011aa0:    000b0b44    D...    DCD    723780
    g_AM_BSP_GPIO_IOM5_SDA
        0x00011aa4:    000b0b44    D...    DCD    723780
    g_AM_BSP_GPIO_ITM_SWO
        0x00011aa8:    00000002    ....    DCD    2
    g_AM_BSP_GPIO_PGA0_POT_CS
        0x00011aac:    000b0701    ....    DCD    722689
    g_AM_BSP_GPIO_PGA1_POT_CS
        0x00011ab0:    002b0701    ..+.    DCD    2819841
    g_AM_BSP_GPIO_PGA_POTS_CLK
        0x00011ab4:    000b0b45    E...    DCD    723781
    g_AM_BSP_GPIO_PGA_POTS_SDI
        0x00011ab8:    000b0305    ....    DCD    721669
    g_AM_BSP_GPIO_PS_FRAM_SCL
        0x00011abc:    00070b44    D...    DCD    461636
    g_AM_BSP_GPIO_PS_FRAM_SDA
        0x00011ac0:    00070b44    D...    DCD    461636
    g_AM_HAL_GPIO_DISABLE
        0x00011ac4:    00000003    ....    DCD    3
    g_AM_HAL_GPIO_OUTPUT
        0x00011ac8:    00000403    ....    DCD    1027
    g_ui8Bit76Capabilities
        0x00011acc:    02800101    ....    DCD    41943297
        0x00011ad0:    80010180    ....    DCD    2147549568
        0x00011ad4:    80800101    ....    DCD    2155872513
        0x00011ad8:    80808080    ....    DCD    2155905152
        0x00011adc:    80808080    ....    DCD    2155905152
        0x00011ae0:    80808008    ....    DCD    2155905032
        0x00011ae4:    01800180    ....    DCD    25166208
        0x00011ae8:    80808080    ....    DCD    2155905152
        0x00011aec:    80808080    ....    DCD    2155905152
        0x00011af0:    01800402    ....    DCD    25166850
        0x00011af4:    01010401    ....    DCD    16843777
        0x00011af8:    80808080    ....    DCD    2155905152
        0x00011afc:    80800101    ....    DCD    2155872513
        0x00011b00:    80808080    ....    DCD    2155905152
        0x00011b04:    80808080    ....    DCD    2155905152
        0x00011b08:    80808080    ....    DCD    2155905152
        0x00011b0c:    80808080    ....    DCD    2155905152
        0x00011b10:    80808080    ....    DCD    2155905152
        0x00011b14:    8080        ..      DCW    32896
    g_ui8Inpen
        0x00011b16:    2323        ##      DCW    8995
        0x00011b18:    03a16227    'b..    DCD    60908071
        0x00011b1c:    53031087    ...S    DCD    1392709767
        0x00011b20:    8151e100    ..Q.    DCD    2169626880
        0x00011b24:    c4055541    AU..    DCD    3288683841
        0x00011b28:    b1014080    .@..    DCD    2969649280
        0x00011b2c:    31144140    @A.1    DCD    823411008
        0x00011b30:    f10031a0    .1..    DCD    4043321760
        0x00011b34:    21911180    ...!    DCD    563155328
        0x00011b38:    11e511c1    ....    DCD    300224961
        0x00011b3c:    00373045    E07.    DCD    3616837
        0x00011b40:    71003130    01.q    DCD    1895838000
        0x00011b44:    31304000    .@01    DCD    825245696
        0x00011b48:    01010100    ....    DCD    16843008
        0x00011b4c:    01010101    ....    DCD    16843009
        0x00011b50:    a0010101    ....    DCD    2684420353
        0x00011b54:    0101a050    P...    DCD    16883792
        0x00011b58:    a0010101    ....    DCD    2684420353
        0x00011b5c:    50a0a0a0    ...P    DCD    1352704160
    g_ui8NCEtable
        0x00011b60:    0112a4a3    ....    DCD    17999011
        0x00011b64:    a4a2a1a0    ....    DCD    2762121632
        0x00011b68:    92b502b3    ....    DCD    2461336243
        0x00011b6c:    82858483    ....    DCD    2189788291
        0x00011b70:    91019493    ....    DCD    2432799891
        0x00011b74:    ffffffff    ....    DCD    4294967295
        0x00011b78:    ffffffff    ....    DCD    4294967295
        0x00011b7c:    00951201    ....    DCD    9769473
        0x00011b80:    80028483    ....    DCD    2147648643
        0x00011b84:    b2b5b401    ....    DCD    2998252545
        0x00011b88:    0011a4a3    ....    DCD    1156259
        0x00011b8c:    83828180    ....    DCD    2206368128
        0x00011b90:    10850283    ....    DCD    277152387
        0x00011b94:    90959493    ....    DCD    2425722003
        0x00011b98:    a4a212a0    ....    DCD    2762085024
        0x00011b9c:    00b2b101    ....    DCD    11710721
        0x00011ba0:    85b20280    ....    DCD    2243035776
        0x00011ba4:    94029190    ....    DCD    2483196304
        0x00011ba8:    a3a2a102    ....    DCD    2745344258
        0x00011bac:    00b311b0    ....    DCD    11735472
        0x00011bb0:    92950012    ....    DCD    2459238418
        0x00011bb4:    0102a4a3    ....    DCD    16950435
        0x00011bb8:    02b5b4b3    ....    DCD    45462707
        0x00011bbc:    84828180    ....    DCD    2223145344
        0x00011bc0:    95920190    ....    DCD    2509373840
        0x00011bc4:    a0a501a3    ....    DCD    2695168419
        0x00011bc8:    b1b5b4b3    ....    DCD    2981475507
        0x00011bcc:    81008402    ....    DCD    2164294658
        0x00011bd0:    00959493    ....    DCD    9802899
        0x00011bd4:    a1a512a3    ....    DCD    2711949987
        0x00011bd8:    b002b400    ....    DCD    2952967168
        0x00011bdc:    84820201    ....    DCD    2223112705
        0x00011be0:    1001b190    ....    DCD    268546448
        0x00011be4:    a59211a0    ....    DCD    2777813408
        0x00011be8:    11b202b0    ....    DCD    296878768
        0x00011bec:    02828101    ....    DCD    42107137
        0x00011bf0:    10959493    ....    DCD    278238355
        0x00011bf4:    00a5a493    ....    DCD    10855571
        0x00011bf8:    b512b1b0    ....    DCD    3037901232
        0x00011bfc:    ffffffff    ....    DCD    4294967295
        0x00011c00:    ffffffff    ....    DCD    4294967295
        0x00011c04:    10119102    ....    DCD    269586690
        0x00011c08:    85820180    ....    DCD    2239889792
        0x00011c0c:    10029190    ....    DCD    268603792
        0x00011c10:    a5a200a0    ....    DCD    2778857632
        0x00011c14:    b185b4b3    ....    DCD    2978329779
        0x00011c18:    10020183    ....    DCD    268566915
        0x00011c1c:    93928111    ....    DCD    2475852049
        0x00011c20:    12a2a101    ....    DCD    312647937
        0x00011c24:    81b211b0    ....    DCD    2175930800
        0x00011c28:    80b20201    ....    DCD    2159149569
        0x00011c2c:    809291a4    ....    DCD    2157089188
        0x00011c30:    9200a190    ....    DCD    2449514896
        0x00011c34:    8202b1a0    ....    DCD    2181214624
        0x00011c38:    83858402    ....    DCD    2206565378
        0x00011c3c:    84950083    ....    DCD    2224357507
        0x00011c40:    10a5b4a3    ....    DCD    279295139
        0x00011c44:    90b5b400    ....    DCD    2427827200
        0x00011c48:    b50081b3    ....    DCD    3036709299
        0x00011c4c:    00929111    ....    DCD    9605393
        0x00011c50:    b0a2a110    ....    DCD    2963448080
        0x00011c54:    0102b100    ....    DCD    16953600
        0x00011c58:    11858410    ....    DCD    293962768
        0x00011c5c:    00029401    ....    DCD    168961
        0x00011c60:    10a5a480    ....    DCD    279291008
        0x00011c64:    93a50090    ....    DCD    2477064336
        0x00011c68:    94828101    ....    DCD    2491580673
        0x00011c6c:    95b291b0    ....    DCD    2511507888
        0x00011c70:    a0a20083    ....    DCD    2694971523
        0x00011c74:    0100b193    ....    DCD    16822675
        0x00011c78:    118502a3    ....    DCD    293929635
        0x00011c7c:    a1b094b3    ....    DCD    2712704179
        0x00011c80:    a2010200    ....    DCD    2717975040
        0x00011c84:    02b5b401    ....    DCD    45462529
    g_ui8nCEpins
        0x00011c88:    02070707    ....    DCD    34014983
        0x00011c8c:    00080802    ....    DCD    526338
        0x00011c90:    01020202    ....    DCD    16908802
        0x00011c94:    01010101    ....    DCD    16843009
        0x00011c98:    01010101    ....    DCD    16843009
        0x00011c9c:    01010101    ....    DCD    16843009
        0x00011ca0:    01010101    ....    DCD    16843009
        0x00011ca4:    01010101    ....    DCD    16843009
        0x00011ca8:    01010101    ....    DCD    16843009
        0x00011cac:    08010101    ....    DCD    134283521
        0x00011cb0:    01010008    ....    DCD    16842760
        0x00011cb4:    01010101    ....    DCD    16843009
        0x00011cb8:    01010101    ....    DCD    16843009
        0x00011cbc:    01010101    ....    DCD    16843009
        0x00011cc0:    01010101    ....    DCD    16843009
        0x00011cc4:    01010101    ....    DCD    16843009
        0x00011cc8:    01010101    ....    DCD    16843009
        0x00011ccc:    01010101    ....    DCD    16843009
        0x00011cd0:    0101        ..      DCW    257
    .L.str.15
        0x00011cd2:    4f49        IO      DCW    20297
        0x00011cd4:    6f50204d    M Po    DCD    1867522125
        0x00011cd8:    20726577    wer     DCD    544367991
        0x00011cdc:    6d617845    Exam    DCD    1835104325
        0x00011ce0:    0a656c70    ple.    DCD    174419056
        0x00011ce4:    000a        ..      DCW    10
    .L.str.17
        0x00011ce6:    2a0a        .*      DCW    10762
        0x00011ce8:    2a2a2a2a    ****    DCD    707406378
        0x00011cec:    206d6f69    iom     DCD    544042857
        0x00011cf0:    65657073    spee    DCD    1701146739
        0x00011cf4:    73252064    d %s    DCD    1931812964
        0x00011cf8:    2a2a2a2a    ****    DCD    707406378
        0x00011cfc:    0a2a        *.      DCW    2602
        0x00011cfe:    00          .       DCB    0
    .L.str.18
        0x00011cff:    55          U       DCB    85
        0x00011d00:    6c62616e    nabl    DCD    1818386798
        0x00011d04:    6f742065    e to    DCD    1869881445
        0x00011d08:    696e6920     ini    DCD    1768843552
        0x00011d0c:    6c616974    tial    DCD    1818323316
        0x00011d10:    20657a69    ize     DCD    543521385
        0x00011d14:    4d415246    FRAM    DCD    1296126534
        0x00011d18:    000a        ..      DCW    10
    .L.str.10
        0x00011d1a:    7325        %s      DCW    29477
        0x00011d1c:    756f4620     Fou    DCD    1970226720
        0x00011d20:    000a646e    nd..    DCD    681070
    .L.str.20
        0x00011d24:    646e450a    .End    DCD    1684948234
        0x00011d28:    20666f20     of     DCD    543584032
        0x00011d2c:    204d4f49    IOM     DCD    541937481
        0x00011d30:    65776f50    Powe    DCD    1702326096
        0x00011d34:    78452072    r Ex    DCD    2017796210
        0x00011d38:    6c706d61    ampl    DCD    1819307361
        0x00011d3c:    0a65        e.      DCW    2661
        0x00011d3e:    00          .       DCB    0
    .L.str.19
        0x00011d3f:    0a          .       DCB    10
        0x00011d40:    69206425    %d i    DCD    1763730469
        0x00011d44:    61726574    tera    DCD    1634887028
        0x00011d48:    6e6f6974    tion    DCD    1852795252
        0x00011d4c:    6f642073    s do    DCD    1868832883
        0x00011d50:    000a656e    ne..    DCD    681326
    .L.str.16
        0x00011d54:    69726550    Peri    DCD    1769104720
        0x00011d58:    6369646f    odic    DCD    1667851375
        0x00011d5c:    796c6c61    ally    DCD    2037148769
        0x00011d60:    61655220     Rea    DCD    1634030112
        0x00011d64:    676e6964    ding    DCD    1735289188
        0x00011d68:    74616420     dat    DCD    1952539680
        0x00011d6c:    72662061    a fr    DCD    1919295585
        0x00011d70:    46206d6f    om F    DCD    1176530287
        0x00011d74:    204d4152    RAM     DCD    541933906
        0x00011d78:    6e697375    usin    DCD    1852404597
        0x00011d7c:    6f6e2067    g no    DCD    1869488231
        0x00011d80:    6c622d6e    n-bl    DCD    1818373486
        0x00011d84:    696b636f    ocki    DCD    1768645487
        0x00011d88:    7220676e    ng r    DCD    1914726254
        0x00011d8c:    20646165    ead     DCD    543449445
        0x00011d90:    6425202d    - %d    DCD    1680154669
        0x00011d94:    6d697420     tim    DCD    1835627552
        0x00011d98:    000a7365    es..    DCD    684901
    .L.str.14
        0x00011d9c:    65636552    Rece    DCD    1701012818
        0x00011da0:    20657669    ive     DCD    543520361
        0x00011da4:    61746144    Data    DCD    1635017028
        0x00011da8:    6d6f4320     Com    DCD    1836008224
        0x00011dac:    65726170    pare    DCD    1701994864
        0x00011db0:    69616620     fai    DCD    1767990816
        0x00011db4:    2064656c    led     DCD    543450476
        0x00011db8:    6f207461    at o    DCD    1864397921
        0x00011dbc:    65736666    ffse    DCD    1702061670
        0x00011dc0:    64252074    t %d    DCD    1680154740
        0x00011dc4:    45202d20     - E    DCD    1159736608
        0x00011dc8:    63657078    xpec    DCD    1667592312
        0x00011dcc:    20646574    ted     DCD    543450484
        0x00011dd0:    7830203d    = 0x    DCD    2016419901
        0x00011dd4:    202c7825    %x,     DCD    539785253
        0x00011dd8:    65636552    Rece    DCD    1701012818
        0x00011ddc:    64657669    ived    DCD    1684371049
        0x00011de0:    30203d20     = 0    DCD    807419168
        0x00011de4:    0a782578    x%x.    DCD    175646072
        0x00011de8:    00          .       DCB    0
    .L.str.12
        0x00011de9:    0a4652      .FR     DCB    10,70,82
        0x00011dec:    52204d41    AM R    DCD    1377848641
        0x00011df0:    20646165    ead     DCD    543449445
        0x00011df4:    6c696146    Fail    DCD    1818845510
        0x00011df8:    30206465    ed 0    DCD    807429221
        0x00011dfc:    0a782578    x%x.    DCD    175646072
        0x00011e00:    00          .       DCB    0
    .L.str.11
        0x00011e01:    0a4652      .FR     DCB    10,70,82
        0x00011e04:    57204d41    AM W    DCD    1461734721
        0x00011e08:    65746972    rite    DCD    1702127986
        0x00011e0c:    69614620     Fai    DCD    1767982624
        0x00011e10:    2064656c    led     DCD    543450476
        0x00011e14:    78257830    0x%x    DCD    2015721520
        0x00011e18:    000a        ..      DCW    10
    .L.str.13
        0x00011e1a:    002e        ..      DCW    46
        0x00011e1c:    30303120     100    DCD    808464672
        0x00011e20:    007a484b    KHz.    DCD    8013899
        0x00011e24:    30303420     400    DCD    808465440
        0x00011e28:    007a484b    KHz.    DCD    8013899
        0x00011e2c:    484d3120     1MH    DCD    1213018400
        0x00011e30:    3120007a    z. 1    DCD    824180858
        0x00011e34:    7a484d32    2MHz    DCD    2051558706
        0x00011e38:    4d342000    . 4M    DCD    1295261696
        0x00011e3c:    20007a48    Hz.     DCD    536902216
        0x00011e40:    484d3432    24MH    DCD    1213019186
        0x00011e44:    3620007a    z. 6    DCD    908066938
        0x00011e48:    007a484d    MHz.    DCD    8013901
        0x00011e4c:    4d363120     16M    DCD    1295397152
        0x00011e50:    20007a48    Hz.     DCD    536902216
        0x00011e54:    7a484d38    8MHz    DCD    2051558712
        0x00011e58:    38342000    . 48    DCD    942940160
        0x00011e5c:    007a484d    MHz.    DCD    8013901
    .L.str
        0x00011e60:    0a0a0a0a    ....    DCD    168430090
        0x00011e64:    0a0a0a0a    ....    DCD    168430090
        0x00011e68:    0a0a0a0a    ....    DCD    168430090
        0x00011e6c:    0a0a0a0a    ....    DCD    168430090
        0x00011e70:    00000a0a    ....    DCD    2570
    Region$$Table$$Base
        0x00011e74:    00011ea8    ....    DCD    73384
        0x00011e78:    10011000    ....    DCD    268505088
        0x00011e7c:    000000e0    ....    DCD    224
        0x00011e80:    0000c170    p...    DCD    49520
        0x00011e84:    00011f88    ....    DCD    73608
        0x00011e88:    100110e0    ....    DCD    268505312
        0x00011e8c:    00003fa8    .?..    DCD    16296
        0x00011e90:    0000c18c    ....    DCD    49548
        0x00011e94:    00011f88    ....    DCD    73608
        0x00011e98:    10010000    ....    DCD    268500992
        0x00011e9c:    00001000    ....    DCD    4096
        0x00011ea0:    0000c18c    ....    DCD    49548
    Region$$Table$$Limit

** Section #2 'RWMEM' (SHT_PROGBITS) [SHF_ALLOC + SHF_WRITE]
    Size   : 224 bytes (alignment 8)
    Address: 0x10011000

    0x10011000:   0a 00 00 00 03 00 00 00 1e 00 00 00 03 00 00 00    ................
    0x10011010:   0f 00 00 00 03 00 00 00 0e 00 00 00 03 00 00 00    ................
    0x10011020:   11 00 00 00 03 00 00 00 49 32 43 20 46 52 41 4d    ........I2C FRAM
    0x10011030:   20 4d 42 38 35 52 43 36 34 54 41 00 0d ca 00 00     MB85RC64TA.....
    0x10011040:   5d cc 00 00 19 cc 00 00 c1 c9 00 00 ad cb 00 00    ]...............
    0x10011050:   75 c9 00 00 41 cb 00 00 01 00 00 00 01 00 00 00    u...A...........
    0x10011060:   40 42 0f 00 00 00 00 00 00 00 00 00 00 00 00 00    @B..............
    0x10011070:   00 00 00 00 56 02 00 00 00 00 00 00 ff ff ff ff    ....V...........
    0x10011080:   ff ff ff ff ff ff ff ff ff ff ff ff 00 6c dc 02    .............l..
    0x10011090:   59 1e 01 00 00 36 6e 01 3f 1e 01 00 00 24 f4 00    Y....6n.?....$..
    0x100110a0:   4c 1e 01 00 00 1b b7 00 32 1e 01 00 00 12 7a 00    L.......2.....z.
    0x100110b0:   53 1e 01 00 80 8d 5b 00 46 1e 01 00 00 09 3d 00    S.....[.F.....=.
    0x100110c0:   39 1e 01 00 40 42 0f 00 2c 1e 01 00 80 1a 06 00    9...@B..,.......
    0x100110d0:   24 1e 01 00 a0 86 01 00 1c 1e 01 00 00 00 00 00    $...............


** Section #3 'RWMEM' (SHT_NOBITS) [SHF_ALLOC + SHF_WRITE]
    Size   : 16296 bytes (alignment 8)
    Address: 0x100110e0


** Section #4 'STACKMEM' (SHT_NOBITS) [SHF_ALLOC + SHF_WRITE]
    Size   : 4096 bytes (alignment 8)
    Address: 0x10010000


** Section #5 '.debug_abbrev' (SHT_PROGBITS)
    Size   : 1267 bytes


** Section #6 '.debug_frame' (SHT_PROGBITS)
    Size   : 7404 bytes


** Section #7 '.debug_info' (SHT_PROGBITS)
    Size   : 7659 bytes


** Section #8 '.debug_line' (SHT_PROGBITS)
    Size   : 6755 bytes


** Section #9 '.debug_ranges' (SHT_PROGBITS)
    Size   : 376 bytes


** Section #10 '.debug_str' (SHT_PROGBITS)
    Size   : 5856 bytes


** Section #11 '.symtab' (SHT_SYMTAB)
    Size   : 8464 bytes (alignment 4)
    String table #12 '.strtab'
    Last local symbol no. 248

    Symbol table .symtab (528 symbols, 248 local)

      #  Symbol Name                Value      Bind  Sec  Type  Vis  Size
    ========================================================================

      1  $d                         0x0000c000   Lc    1   --   De 
      2  $t                         0x0000c100   Lc    1   --   De 
      3  $d                         0x0000c130   Lc    1   --   De 
      4  $t                         0x0000c134   Lc    1   --   De 
      5  $d                         0x0000c168   Lc    1   --   De 
      6  $t                         0x0000c170   Lc    1   --   De 
      7  $d                         0x0000c1de   Lc    1   --   De 
      8  $t                         0x0000c1ec   Lc    1   --   De 
      9  $d                         0x0000c254   Lc    1   --   De 
     10  $t                         0x0000c258   Lc    1   --   De 
     11  $d                         0x0000c260   Lc    1   --   De 
     12  $t                         0x0000c264   Lc    1   --   De 
     13  $t.14                      0x0000c268   Lc    1   --   De 
     14  $d.12                      0x0000c2e6   Lc    1   --   De 
     15  $t.13                      0x0000c314   Lc    1   --   De 
     16  $d.9                       0x0000c532   Lc    1   --   De 
     17  $t.10                      0x0000c560   Lc    1   --   De 
     18  $d.4                       0x0000d0e4   Lc    1   --   De 
     19  $t.5                       0x0000d0f8   Lc    1   --   De 
     20  $d.1                       0x0000d2d0   Lc    1   --   De 
     21  $t.2                       0x0000d2dc   Lc    1   --   De 
     22  $d.2                       0x0000d9b8   Lc    1   --   De 
     23  $t.3                       0x0000da38   Lc    1   --   De 
     24  $d.4                       0x0000dd38   Lc    1   --   De 
     25  $t.0                       0x0000dd70   Lc    1   --   De 
     26  $d.2                       0x0000e126   Lc    1   --   De 
     27  $t.3                       0x0000e12c   Lc    1   --   De 
     28  $d.7                       0x0000e278   Lc    1   --   De 
     29  $t.8                       0x0000e280   Lc    1   --   De 
     30  $d.1                       0x0000f69a   Lc    1   --   De 
     31  $t.2                       0x0000f6a0   Lc    1   --   De 
     32  $d.3                       0x0000f76c   Lc    1   --   De 
     33  $t.4                       0x0000f77c   Lc    1   --   De 
     34  $d.5                       0x0000f7c8   Lc    1   --   De 
     35  $t.6                       0x0000f7d8   Lc    1   --   De 
     36  $d.4                       0x00010006   Lc    1   --   De 
     37  $t.5                       0x0001006c   Lc    1   --   De 
     38  $t                         0x0001169c   Lc    1   --   De 
     39  $d                         0x000116ec   Lc    1   --   De 
     40  $t                         0x000116f0   Lc    1   --   De 
     41  $d                         0x0001176e   Lc    1   --   De 
     42  $t                         0x00011772   Lc    1   --   De 
     43  $d.realdata                0x000117be   Lc    1   --   De 
     44  $d.realdata                0x10011000   Lc    2   --   De 
     45  $d.realdata                0x10010000   Lc    4   --   De 
     46  iom_power_example.c        0x00000000   Lc  Abs  File  De 
     47  __NVIC_EnableIRQ           0x0000c2a1   Lc    1  Code  De   0x30
     48  __NVIC_DisableIRQ          0x0000c269   Lc    1  Code  De   0x38
     49  .L.str.15                  0x00011cd2   Lc    1  Data  De   0x14
     50  .L.str.17                  0x00011ce6   Lc    1  Data  De   0x19
     51  .L.str.18                  0x00011cff   Lc    1  Data  De   0x1b
     52  .L.str.10                  0x00011d1a   Lc    1  Data  De   0xa
     53  .L.str.20                  0x00011d24   Lc    1  Data  De   0x1b
     54  .L.str.19                  0x00011d3f   Lc    1  Data  De   0x15
     55  .L.str.16                  0x00011d54   Lc    1  Data  De   0x48
     56  .L.str.14                  0x00011d9c   Lc    1  Data  De   0x4d
     57  .L.str.12                  0x00011de9   Lc    1  Data  De   0x18
     58  .L.str.11                  0x00011e01   Lc    1  Data  De   0x19
     59  .L.str.13                  0x00011e1a   Lc    1  Data  De   0x2
     60  am_util_delay.c            0x00000000   Lc  Abs  File  De 
     61  am_util_stdio.c            0x00000000   Lc  Abs  File  De 
     62  decstr_to_int              0x00010521   Lc    1  Code  De   0xa6
     63  simple_strlen              0x000113e1   Lc    1  Code  De   0x36
     64  padbuffer                  0x000110dd   Lc    1  Code  De   0x50
     65  ndigits_in_hex             0x00011031   Lc    1  Code  De   0x3e
     66  uint64_to_hexstr           0x0001145d   Lc    1  Code  De   0xc0
     67  ndigits_in_u64             0x000110a1   Lc    1  Code  De   0x3c
     68  uint64_to_str              0x0001151d   Lc    1  Code  De   0x88
     69  ndigits_in_i64             0x00011071   Lc    1  Code  De   0x30
     70  ftoa                       0x000107ad   Lc    1  Code  De   0x230
     71  divu64_10                  0x000105c9   Lc    1  Code  De   0x118
     72  g_bTxtXlate                0x10014c76   Lc    3  Data  De   0x1
     73  g_prfbuf                   0x10014c84   Lc    3  Data  De   0x400
     74  .L.str                     0x00011e60   Lc    1  Data  De   0x13
     75  am_devices_mb85rc256v.c    0x00000000   Lc  Abs  File  De 
     76  am_device_command_read     0x0000c889   Lc    1  Code  De   0x76
     77  am_device_command_write    0x0000c901   Lc    1  Code  De   0x74
     78  ../keil6/startup_keil6.s   0x00000000   Lc  Abs  File  De 
     79  STACK                      0x10010000   Lc    4  Sect  De   0x1000
     80  StackMem                   0x10010000   Lc    4  Data  De 
     81  HEAP                       0x10015088   Lc    3  Sect  De 
     82  HeapMem                    0x10015088   Lc    3  Data  De 
     83  RESET                      0x0000c000   Lc    1  Sect  De   0x134
     84  $v0                        0x0000c100   Lc    1   --   De 
     85  .text                      0x0000c1d4   Lc    1  Sect  De   0x18
     86  $v0                        0x0000c1d4   Lc    1   --   De 
     87  am_hal_cachectrl.c         0x00000000   Lc  Abs  File  De 
     88  set_LPMMODE                0x000111b9   Lc    1  Code  De   0xba
     89  set_SEDELAY                0x00011325   Lc    1  Code  De   0xba
     90  set_RDWAIT                 0x00011275   Lc    1  Code  De   0xae
     91  am_hal_clkgen.c            0x00000000   Lc  Abs  File  De 
     92  am_hal_ctimer.c            0x00000000   Lc  Abs  File  De 
     93  g_am_hal_ctimer_ppfnHandlers
                                    0x10014bf0   Lc    3  Data  De   0x80
     94  g_ui8ClkSrc                0x1001107c   Lc    2  Data  De   0x10
     95  am_hal_flash.c             0x00000000   Lc  Abs  File  De 
     96  am_hal_gpio.c              0x00000000   Lc  Abs  File  De 
     97  g_ui8Bit76Capabilities     0x00011acc   Lc    1  Data  De   0x4a
     98  g_ui8Inpen                 0x00011b16   Lc    1  Data  De   0x4a
     99  g_ui8nCEpins               0x00011c88   Lc    1  Data  De   0x4a
    100  g_ui8NCEtable              0x00011b60   Lc    1  Data  De   0x128
    101  am_hal_interrupt.c         0x00000000   Lc  Abs  File  De 
    102  am_hal_iom.c               0x00000000   Lc  Abs  File  De 
    103  internal_iom_reset_on_error
                                    0x00010a55   Lc    1  Code  De   0x1fe
    104  iom_get_interface_clock_cfg
                                    0x00010c59   Lc    1  Code  De   0x190
    105  iom_dummy_callback         0x00010c55   Lc    1  Code  De   0x2
    106  am_hal_mcuctrl.c           0x00000000   Lc  Abs  File  De 
    107  am_hal_sysctrl.c           0x00000000   Lc  Abs  File  De 
    108  am_bsp.c                   0x00000000   Lc  Abs  File  De 
    109  .L_MergedGlobals           0x10011140   Lc    3  Data  De   0x8
    110  g_ui32PrintInterface       0x10011140   Lc    3  Data  De   0x4
    111  g_sCOMUART                 0x10011144   Lc    3  Data  De   0x4
    112  am_hal_burst.c             0x00000000   Lc  Abs  File  De 
    113  g_bDisFromManual           0x10014c74   Lc    3  Data  De   0x1
    114  .L_MergedGlobals           0x10011148   Lc    3  Data  De   0x2
    115  g_bEnFromManual            0x10011149   Lc    3  Data  De   0x1
    116  am_hal_cmdq.c              0x00000000   Lc  Abs  File  De 
    117  gAmHalCmdq                 0x1001154c   Lc    3  Data  De   0x1b8
    118  gAmHalCmdQReg              0x00011890   Lc    1  Data  De   0x190
    119  am_hal_debug.c             0x00000000   Lc  Abs  File  De 
    120  am_hal_global.c            0x00000000   Lc  Abs  File  De 
    121  am_hal_itm.c               0x00000000   Lc  Abs  File  De 
    122  am_hal_pwrctrl.c           0x00000000   Lc  Abs  File  De 
    123  .L_MergedGlobals           0x1001114a   Lc    3  Data  De   0x2
    124  am_hal_reset.c             0x00000000   Lc  Abs  File  De 
    125  am_hal_rtc.c               0x00000000   Lc  Abs  File  De 
    126  am_hal_tpiu.c              0x00000000   Lc  Abs  File  De 
    127  am_hal_uart.c              0x00000000   Lc  Abs  File  De 
    128  am_bsp_pins.c              0x00000000   Lc  Abs  File  De 
    129  am_hal_queue.c             0x00000000   Lc  Abs  File  De 
    130  dc.s                       0x00000000   Lc  Abs  File  De 
    131  ../clib/heapaux.c          0x00000000   Lc  Abs  File  De 
    132  .text                      0x0000c1ec   Lc    1  Sect  De 
    133  ../clib/angel/startup.s    0x00000000   Lc  Abs  File  De 
    134  !!!main                    0x0000c134   Lc    1  Sect  De   0x8
    135  ../clib/angel/handlers.s   0x00000000   Lc  Abs  File  De 
    136  !!handler_copy             0x0000c170   Lc    1  Sect  De   0x1a
    137  ../fplib/d2f.s             0x00000000   Lc  Abs  File  De 
    138  x$fpl$d2f                  0x0001169c   Lc    1  Sect  De   0x62
    139  $v0                        0x0001169c   Lc    1   --   De 
    140  ../clib/angel/kernel.s     0x00000000   Lc  Abs  File  De 
    141  .ARM.Collect$$rtentry$$00000000
                                    0x0000c1b4   Lc    1  Sect  De 
    142  ../fplib/dnaninf.s         0x00000000   Lc  Abs  File  De 
    143  x$fpl$dnaninf              0x000116fe   Lc    1  Sect  De   0x9c
    144  $v0                        0x000116fe   Lc    1   --   De 
    145  ../fplib/fretinf.s         0x00000000   Lc  Abs  File  De 
    146  x$fpl$fretinf              0x000117b4   Lc    1  Sect  De   0xa
    147  $v0                        0x000117b4   Lc    1   --   De 
    148  ../fplib/usenofp.s         0x00000000   Lc  Abs  File  De 
    149  x$fpl$usenofp              0x000117be   Lc    1  Sect  De 
    150  ../clib/angel/kernel.s     0x00000000   Lc  Abs  File  De 
    151  .ARM.Collect$$rtentry$$00000002
                                    0x0000c1b4   Lc    1  Sect  De 
    152  .ARM.Collect$$rtentry$$00000009
                                    0x0000c1ba   Lc    1  Sect  De 
    153  .ARM.Collect$$rtentry$$0000000A
                                    0x0000c1ba   Lc    1  Sect  De   0x4
    154  .ARM.Collect$$rtentry$$0000000C
                                    0x0000c1be   Lc    1  Sect  De 
    155  .ARM.Collect$$rtentry$$0000000D
                                    0x0000c1be   Lc    1  Sect  De   0x8
    156  ../clib/angel/kernel.s     0x00000000   Lc  Abs  File  De 
    157  .ARM.Collect$$rtentry$$00000004
                                    0x0000c1b4   Lc    1  Sect  De   0x6
    158  ../clib/angel/sys.s        0x00000000   Lc  Abs  File  De 
    159  .text                      0x0000c1f2   Lc    1  Sect  De   0x4a
    160  ../clib/stdlib.c           0x00000000   Lc  Abs  File  De 
    161  .text                      0x0000c23c   Lc    1  Sect  De 
    162  ../clib/angel/boardlib.s   0x00000000   Lc  Abs  File  De 
    163  ../clib/angel/boardlib.s   0x00000000   Lc  Abs  File  De 
    164  ../clib/angel/boardlib.s   0x00000000   Lc  Abs  File  De 
    165  ../clib/libinit.s          0x00000000   Lc  Abs  File  De 
    166  .ARM.Collect$$libinit$$00000000
                                    0x0000c1a8   Lc    1  Sect  De   0x2
    167  ../clib/angel/sys.s        0x00000000   Lc  Abs  File  De 
    168  .text                      0x0000c250   Lc    1  Sect  De   0x8
    169  .bss                       0x100110e0   Lc    3  Sect  De   0x60
    170  ../clib/angel/kernel.s     0x00000000   Lc  Abs  File  De 
    171  .ARM.Collect$$rtexit$$00000000
                                    0x0000c1c6   Lc    1  Sect  De   0x2
    172  ../clib/libinit.s          0x00000000   Lc  Abs  File  De 
    173  .ARM.Collect$$libinit$$00000001
                                    0x0000c1aa   Lc    1  Sect  De   0x4
    174  .ARM.Collect$$libinit$$00000004
                                    0x0000c1ae   Lc    1  Sect  De 
    175  .ARM.Collect$$libinit$$00000006
                                    0x0000c1ae   Lc    1  Sect  De 
    176  .ARM.Collect$$libinit$$0000000C
                                    0x0000c1ae   Lc    1  Sect  De 
    177  .ARM.Collect$$libinit$$0000000E
                                    0x0000c1ae   Lc    1  Sect  De 
    178  .ARM.Collect$$libinit$$00000010
                                    0x0000c1ae   Lc    1  Sect  De 
    179  .ARM.Collect$$libinit$$00000013
                                    0x0000c1ae   Lc    1  Sect  De 
    180  .ARM.Collect$$libinit$$00000015
                                    0x0000c1ae   Lc    1  Sect  De 
    181  .ARM.Collect$$libinit$$00000017
                                    0x0000c1ae   Lc    1  Sect  De 
    182  .ARM.Collect$$libinit$$00000019
                                    0x0000c1ae   Lc    1  Sect  De 
    183  .ARM.Collect$$libinit$$0000001B
                                    0x0000c1ae   Lc    1  Sect  De 
    184  .ARM.Collect$$libinit$$0000001D
                                    0x0000c1ae   Lc    1  Sect  De 
    185  .ARM.Collect$$libinit$$0000001F
                                    0x0000c1ae   Lc    1  Sect  De 
    186  .ARM.Collect$$libinit$$00000021
                                    0x0000c1ae   Lc    1  Sect  De 
    187  .ARM.Collect$$libinit$$00000023
                                    0x0000c1ae   Lc    1  Sect  De 
    188  .ARM.Collect$$libinit$$00000025
                                    0x0000c1ae   Lc    1  Sect  De 
    189  .ARM.Collect$$libinit$$00000027
                                    0x0000c1ae   Lc    1  Sect  De 
    190  .ARM.Collect$$libinit$$0000002E
                                    0x0000c1ae   Lc    1  Sect  De 
    191  .ARM.Collect$$libinit$$00000030
                                    0x0000c1ae   Lc    1  Sect  De 
    192  .ARM.Collect$$libinit$$00000032
                                    0x0000c1ae   Lc    1  Sect  De 
    193  .ARM.Collect$$libinit$$00000034
                                    0x0000c1ae   Lc    1  Sect  De 
    194  .ARM.Collect$$libinit$$00000035
                                    0x0000c1ae   Lc    1  Sect  De   0x2
    195  ../clib/angel/kernel.s     0x00000000   Lc  Abs  File  De 
    196  .ARM.Collect$$rtexit$$00000002
                                    0x0000c1c8   Lc    1  Sect  De 
    197  .ARM.Collect$$rtexit$$00000003
                                    0x0000c1c8   Lc    1  Sect  De   0x4
    198  .ARM.Collect$$rtexit$$00000004
                                    0x0000c1cc   Lc    1  Sect  De   0x6
    199  ../clib/armsys.c           0x00000000   Lc  Abs  File  De 
    200  ../clib/armsys.c           0x00000000   Lc  Abs  File  De 
    201  ../fplib/fpinit.s          0x00000000   Lc  Abs  File  De 
    202  x$fpl$fpinit               0x0001179a   Lc    1  Sect  De   0x1a
    203  $v0                        0x0001179a   Lc    1   --   De 
    204  ../clib/angel/sysapp.c     0x00000000   Lc  Abs  File  De 
    205  .text                      0x0000c258   Lc    1  Sect  De 
    206  ../clib/angel/sysapp.c     0x00000000   Lc  Abs  File  De 
    207  ../clib/angel/boardlib.s   0x00000000   Lc  Abs  File  De 
    208  ../clib/armsys.c           0x00000000   Lc  Abs  File  De 
    209  ../clib/armsys.c           0x00000000   Lc  Abs  File  De 
    210  ../clib/libinit.s          0x00000000   Lc  Abs  File  De 
    211  .ARM.Collect$$libshutdown$$00000000
                                    0x0000c1b0   Lc    1  Sect  De   0x2
    212  ../clib/angel/sysapp.c     0x00000000   Lc  Abs  File  De 
    213  ../clib/angel/sysapp.c     0x00000000   Lc  Abs  File  De 
    214  ../clib/angel/sys.s        0x00000000   Lc  Abs  File  De 
    215  .text                      0x0000c264   Lc    1  Sect  De   0x2
    216  ../clib/angel/sys.s        0x00000000   Lc  Abs  File  De 
    217  .text                      0x0000c266   Lc    1  Sect  De 
    218  ../clib/heapalloc.c        0x00000000   Lc  Abs  File  De 
    219  ../clib/signal.c           0x00000000   Lc  Abs  File  De 
    220  ../clib/signal.c           0x00000000   Lc  Abs  File  De 
    221  ../clib/libinit.s          0x00000000   Lc  Abs  File  De 
    222  .ARM.Collect$$libshutdown$$00000002
                                    0x0000c1b2   Lc    1  Sect  De 
    223  .ARM.Collect$$libshutdown$$00000004
                                    0x0000c1b2   Lc    1  Sect  De 
    224  .ARM.Collect$$libshutdown$$00000007
                                    0x0000c1b2   Lc    1  Sect  De 
    225  .ARM.Collect$$libshutdown$$0000000A
                                    0x0000c1b2   Lc    1  Sect  De 
    226  .ARM.Collect$$libshutdown$$0000000C
                                    0x0000c1b2   Lc    1  Sect  De 
    227  .ARM.Collect$$libshutdown$$0000000F
                                    0x0000c1b2   Lc    1  Sect  De 
    228  .ARM.Collect$$libshutdown$$00000010
                                    0x0000c1b2   Lc    1  Sect  De   0x2
    229  ../clib/angel/rt.s         0x00000000   Lc  Abs  File  De 
    230  ../clib/signal.c           0x00000000   Lc  Abs  File  De 
    231  ../clib/signal.c           0x00000000   Lc  Abs  File  De 
    232  ../clib/signal.c           0x00000000   Lc  Abs  File  De 
    233  ../clib/signal.c           0x00000000   Lc  Abs  File  De 
    234  ../clib/angel/sysapp.c     0x00000000   Lc  Abs  File  De 
    235  ../clib/angel/sysapp.c     0x00000000   Lc  Abs  File  De 
    236  ../clib/signal.s           0x00000000   Lc  Abs  File  De 
    237  ../clib/signal.c           0x00000000   Lc  Abs  File  De 
    238  ../clib/signal.c           0x00000000   Lc  Abs  File  De 
    239  ../clib/signal.c           0x00000000   Lc  Abs  File  De 
    240  ../clib/signal.c           0x00000000   Lc  Abs  File  De 
    241  ../clib/signal.c           0x00000000   Lc  Abs  File  De 
    242  ../clib/signal.c           0x00000000   Lc  Abs  File  De 
    243  ../clib/signal.c           0x00000000   Lc  Abs  File  De 
    244  ../clib/signal.c           0x00000000   Lc  Abs  File  De 
    245  ../clib/angel/scatter.s    0x00000000   Lc  Abs  File  De 
    246  !!!scatter                 0x0000c13c   Lc    1  Sect  De   0x34
    247  ../clib/angel/handlers.s   0x00000000   Lc  Abs  File  De 
    248  !!handler_zi               0x0000c18c   Lc    1  Sect  De   0x1c
    249  BuildAttributes$$THM_ISAv4$E$P$D$K$B$S$7EM$VFPi3$EXTD16$VFPS$VFMA$PE$A:L22UL41UL21$X:L11$S22US41US21$IEEE1$IW$~IW$USESV6$~STKCKD$USESV7$~SHL$OTIME$ROPI$EBA8$UX$STANDARDLIB$REQ8$PRES8$EABIv2
                                    0x00000000   Gb  Abs   --   Hi 
    250  __Vectors                  0x0000c000   Gb    1  Data  Hi 
    251  __Patchable                0x0000c0c8   Gb    1  Data  Hi 
    252  Reset_Handler              0x0000c101   Wk    1  Code  Hi   0x1c
    253  HardFault_Handler          0x0000c11d   Wk    1  Code  Hi   0x2
    254  NMI_Handler                0x0000c11f   Wk    1  Code  Hi   0x2
    255  MemManage_Handler          0x0000c121   Wk    1  Code  Hi   0x2
    256  BusFault_Handler           0x0000c123   Wk    1  Code  Hi   0x2
    257  UsageFault_Handler         0x0000c125   Wk    1  Code  Hi   0x2
    258  SVC_Handler                0x0000c127   Wk    1  Code  Hi   0x2
    259  DebugMon_Handler           0x0000c129   Wk    1  Code  Hi   0x2
    260  PendSV_Handler             0x0000c12b   Wk    1  Code  Hi   0x2
    261  SysTick_Handler            0x0000c12d   Wk    1  Code  Hi   0x2
    262  am_adc_isr                 0x0000c12f   Wk    1  Code  Hi 
    263  am_ble_isr                 0x0000c12f   Wk    1  Code  Hi 
    264  am_brownout_isr            0x0000c12f   Wk    1  Code  Hi 
    265  am_clkgen_isr              0x0000c12f   Wk    1  Code  Hi 
    266  am_gpio_isr                0x0000c12f   Wk    1  Code  Hi 
    267  am_iomaster0_isr           0x0000c12f   Wk    1  Code  Hi 
    268  am_iomaster1_isr           0x0000c12f   Wk    1  Code  Hi 
    269  am_iomaster2_isr           0x0000c12f   Wk    1  Code  Hi 
    270  am_iomaster4_isr           0x0000c12f   Wk    1  Code  Hi 
    271  am_iomaster5_isr           0x0000c12f   Wk    1  Code  Hi 
    272  am_ioslave_acc_isr         0x0000c12f   Wk    1  Code  Hi 
    273  am_ioslave_ios_isr         0x0000c12f   Wk    1  Code  Hi 
    274  am_mspi0_isr               0x0000c12f   Wk    1  Code  Hi 
    275  am_mspi1_isr               0x0000c12f   Wk    1  Code  Hi 
    276  am_mspi2_isr               0x0000c12f   Wk    1  Code  Hi 
    277  am_pdm0_isr                0x0000c12f   Wk    1  Code  Hi 
    278  am_rtc_isr                 0x0000c12f   Wk    1  Code  Hi 
    279  am_scard_isr               0x0000c12f   Wk    1  Code  Hi 
    280  am_software0_isr           0x0000c12f   Wk    1  Code  Hi 
    281  am_stimer_cmpr0_isr        0x0000c12f   Wk    1  Code  Hi 
    282  am_stimer_cmpr1_isr        0x0000c12f   Wk    1  Code  Hi 
    283  am_stimer_cmpr2_isr        0x0000c12f   Wk    1  Code  Hi 
    284  am_stimer_cmpr3_isr        0x0000c12f   Wk    1  Code  Hi 
    285  am_stimer_cmpr4_isr        0x0000c12f   Wk    1  Code  Hi 
    286  am_stimer_cmpr5_isr        0x0000c12f   Wk    1  Code  Hi 
    287  am_stimer_cmpr6_isr        0x0000c12f   Wk    1  Code  Hi 
    288  am_stimer_cmpr7_isr        0x0000c12f   Wk    1  Code  Hi 
    289  am_stimer_isr              0x0000c12f   Wk    1  Code  Hi 
    290  am_uart0_isr               0x0000c12f   Wk    1  Code  Hi 
    291  am_uart1_isr               0x0000c12f   Wk    1  Code  Hi 
    292  am_uart_isr                0x0000c12f   Wk    1  Code  Hi 
    293  am_vcomp_isr               0x0000c12f   Wk    1  Code  Hi 
    294  am_watchdog_isr            0x0000c12f   Wk    1  Code  Hi 
    295  __main                     0x0000c135   Gb    1  Code  Hi   0x8
    296  __scatterload              0x0000c13d   Gb    1  Code  Hi 
    297  __scatterload_rt2          0x0000c13d   Gb    1  Code  Hi   0x2c
    298  __scatterload_rt2_thumb_only
                                    0x0000c13d   Gb    1  Code  Hi 
    299  __scatterload_null         0x0000c14b   Gb    1  Code  Hi 
    300  __scatterload_copy         0x0000c171   Gb    1  Code  Hi   0x1a
    301  __scatterload_zeroinit     0x0000c18d   Gb    1  Code  Hi   0x1c
    302  __rt_lib_init              0x0000c1a9   Gb    1  Code  De 
    303  __rt_lib_init_fp_1         0x0000c1ab   Gb    1  Code  Hi 
    304  __rt_lib_init_alloca_1     0x0000c1af   Gb    1  Code  Hi 
    305  __rt_lib_init_argv_1       0x0000c1af   Gb    1  Code  Hi 
    306  __rt_lib_init_atexit_1     0x0000c1af   Gb    1  Code  Hi 
    307  __rt_lib_init_clock_1      0x0000c1af   Gb    1  Code  Hi 
    308  __rt_lib_init_cpp_1        0x0000c1af   Gb    1  Code  Hi 
    309  __rt_lib_init_exceptions_1 0x0000c1af   Gb    1  Code  Hi 
    310  __rt_lib_init_fp_trap_1    0x0000c1af   Gb    1  Code  Hi 
    311  __rt_lib_init_getenv_1     0x0000c1af   Gb    1  Code  Hi 
    312  __rt_lib_init_heap_1       0x0000c1af   Gb    1  Code  Hi 
    313  __rt_lib_init_lc_collate_1 0x0000c1af   Gb    1  Code  Hi 
    314  __rt_lib_init_lc_ctype_1   0x0000c1af   Gb    1  Code  Hi 
    315  __rt_lib_init_lc_monetary_1
                                    0x0000c1af   Gb    1  Code  Hi 
    316  __rt_lib_init_lc_numeric_1 0x0000c1af   Gb    1  Code  Hi 
    317  __rt_lib_init_lc_time_1    0x0000c1af   Gb    1  Code  Hi 
    318  __rt_lib_init_preinit_1    0x0000c1af   Gb    1  Code  Hi 
    319  __rt_lib_init_rand_1       0x0000c1af   Gb    1  Code  Hi 
    320  __rt_lib_init_relocate_pie_1
                                    0x0000c1af   Gb    1  Code  Hi 
    321  __rt_lib_init_return       0x0000c1af   Gb    1  Code  Hi 
    322  __rt_lib_init_signal_1     0x0000c1af   Gb    1  Code  Hi 
    323  __rt_lib_init_stdio_1      0x0000c1af   Gb    1  Code  Hi 
    324  __rt_lib_init_user_alloc_1 0x0000c1af   Gb    1  Code  Hi 
    325  __rt_lib_shutdown          0x0000c1b1   Gb    1  Code  De 
    326  __rt_lib_shutdown_cpp_1    0x0000c1b3   Gb    1  Code  Hi 
    327  __rt_lib_shutdown_fp_trap_1
                                    0x0000c1b3   Gb    1  Code  Hi 
    328  __rt_lib_shutdown_heap_1   0x0000c1b3   Gb    1  Code  Hi 
    329  __rt_lib_shutdown_return   0x0000c1b3   Gb    1  Code  Hi 
    330  __rt_lib_shutdown_signal_1 0x0000c1b3   Gb    1  Code  Hi 
    331  __rt_lib_shutdown_stdio_1  0x0000c1b3   Gb    1  Code  Hi 
    332  __rt_lib_shutdown_user_alloc_1
                                    0x0000c1b3   Gb    1  Code  Hi 
    333  __rt_entry                 0x0000c1b5   Gb    1  Code  Hi 
    334  __rt_entry_presh_1         0x0000c1b5   Gb    1  Code  Hi 
    335  __rt_entry_sh              0x0000c1b5   Gb    1  Code  Hi 
    336  __rt_entry_li              0x0000c1bb   Gb    1  Code  Hi 
    337  __rt_entry_postsh_1        0x0000c1bb   Gb    1  Code  Hi 
    338  __rt_entry_main            0x0000c1bf   Gb    1  Code  Hi 
    339  __rt_entry_postli_1        0x0000c1bf   Gb    1  Code  Hi 
    340  __rt_exit                  0x0000c1c7   Gb    1  Code  De 
    341  __rt_exit_ls               0x0000c1c9   Gb    1  Code  Hi 
    342  __rt_exit_prels_1          0x0000c1c9   Gb    1  Code  Hi 
    343  __rt_exit_exit             0x0000c1cd   Gb    1  Code  Hi 
    344  __user_initial_stackheap   0x0000c1d5   Gb    1  Code  Hi   0xa
    345  __use_two_region_memory    0x0000c1ed   Gb    1  Code  Hi   0x2
    346  __rt_heap_escrow$2region   0x0000c1ef   Gb    1  Code  De   0x2
    347  __rt_heap_expand$2region   0x0000c1f1   Gb    1  Code  De   0x2
    348  __user_setup_stackheap     0x0000c1f3   Gb    1  Code  De   0x4a
    349  exit                       0x0000c23d   Gb    1  Code  De   0x12
    350  __user_libspace            0x0000c251   Wk    1  Code  De   0x8
    351  __user_perproc_libspace    0x0000c251   Wk    1  Code  De 
    352  __user_perthread_libspace  0x0000c251   Wk    1  Code  De 
    353  _sys_exit                  0x0000c259   Gb    1  Code  De   0x8
    354  __I$use$semihosting        0x0000c265   Gb    1  Code  Hi 
    355  __use_no_semihosting_swi   0x0000c265   Gb    1  Code  Hi   0x2
    356  __semihosting_library_function
                                    0x0000c267   Gb    1  Code  Hi 
    357  am_bsp_iom_pins_disable    0x0000c2d1   Gb    1  Code  Hi   0x236
    358  am_bsp_iom_pins_enable     0x0000c509   Gb    1  Code  Hi   0x274
    359  am_bsp_itm_printf_enable   0x0000c77d   Gb    1  Code  Hi   0x44
    360  am_bsp_low_power_init      0x0000c7c1   Gb    1  Code  Hi   0xa2
    361  am_ctimer_isr              0x0000c865   Gb    1  Code  Hi   0x24
    362  am_devices_mb85rc256v_blocking_read
                                    0x0000c975   Gb    1  Code  Hi   0x4c
    363  am_devices_mb85rc256v_blocking_write
                                    0x0000c9c1   Gb    1  Code  Hi   0x4c
    364  am_devices_mb85rc256v_init 0x0000ca0d   Gb    1  Code  Hi   0x132
    365  am_devices_mb85rc256v_nonblocking_read
                                    0x0000cb41   Gb    1  Code  Hi   0x6a
    366  am_devices_mb85rc256v_nonblocking_write
                                    0x0000cbad   Gb    1  Code  Hi   0x6a
    367  am_devices_mb85rc256v_read_id
                                    0x0000cc19   Gb    1  Code  Hi   0x42
    368  am_devices_mb85rc256v_term 0x0000cc5d   Gb    1  Code  Hi   0x54
    369  am_hal_burst_ldo_charge    0x0000ccb1   Gb    1  Code  Hi   0xc4
    370  am_hal_burst_ldo_patch_check
                                    0x0000cd75   Gb    1  Code  Hi   0x16
    371  am_hal_burst_mode_disable  0x0000cd8d   Gb    1  Code  Hi   0xb2
    372  am_hal_burst_mode_enable   0x0000ce41   Gb    1  Code  Hi   0x78
    373  am_hal_burst_mode_enable_w_manual_sequence
                                    0x0000ceb9   Gb    1  Code  Hi   0x1d2
    374  am_hal_cachectrl_config    0x0000d08d   Gb    1  Code  Hi   0x48
    375  am_hal_cachectrl_control   0x0000d0d5   Gb    1  Code  Hi   0x1c4
    376  am_hal_cachectrl_enable    0x0000d299   Gb    1  Code  Hi   0x14
    377  am_hal_clkgen_control      0x0000d2ad   Gb    1  Code  Hi   0x15a
    378  am_hal_clkgen_status_get   0x0000d409   Gb    1  Code  Hi   0x3a
    379  am_hal_cmdq_alloc_block    0x0000d445   Gb    1  Code  Hi   0xce
    380  am_hal_cmdq_disable        0x0000d515   Gb    1  Code  Hi   0x38
    381  am_hal_cmdq_enable         0x0000d54d   Gb    1  Code  Hi   0x38
    382  am_hal_cmdq_error_resume   0x0000d585   Gb    1  Code  Hi   0x9c
    383  am_hal_cmdq_get_status     0x0000d621   Gb    1  Code  Hi   0x9a
    384  am_hal_cmdq_init           0x0000d6bd   Gb    1  Code  Hi   0xbe
    385  am_hal_cmdq_post_block     0x0000d77d   Gb    1  Code  Hi   0x48
    386  am_hal_cmdq_release_block  0x0000d7c5   Gb    1  Code  Hi   0x30
    387  am_hal_cmdq_term           0x0000d7f5   Gb    1  Code  Hi   0x86
    388  am_hal_ctimer_clear        0x0000d87d   Gb    1  Code  Hi   0x2c
    389  am_hal_ctimer_config       0x0000d8a9   Gb    1  Code  Hi   0x7a
    390  am_hal_ctimer_int_clear    0x0000d925   Gb    1  Code  Hi   0x22
    391  am_hal_ctimer_int_disable  0x0000d949   Gb    1  Code  Hi   0x26
    392  am_hal_ctimer_int_enable   0x0000d971   Gb    1  Code  Hi   0x26
    393  am_hal_ctimer_int_register 0x0000d999   Gb    1  Code  Hi   0x3a0
    394  am_hal_ctimer_int_service  0x0000dd71   Gb    1  Code  Hi   0x34
    395  am_hal_ctimer_int_status_get
                                    0x0000dda5   Gb    1  Code  Hi   0x2a
    396  am_hal_ctimer_period_set   0x0000ddd1   Gb    1  Code  Hi   0x7e
    397  am_hal_ctimer_start        0x0000de51   Gb    1  Code  Hi   0x60
    398  am_hal_debug_error         0x0000deb1   Wk    1  Code  Hi   0x2
    399  am_hal_flash_delay         0x0000deb5   Gb    1  Code  Hi   0x2a
    400  am_hal_flash_delay_status_check
                                    0x0000dee1   Gb    1  Code  Hi   0xb6
    401  am_hal_flash_load_ui32     0x0000df99   Gb    1  Code  Hi   0x8
    402  am_hal_flash_store_ui32    0x0000dfa1   Gb    1  Code  Hi   0x2c
    403  am_hal_gpio_pinconfig      0x0000dfcd   Gb    1  Code  Hi   0x26a
    404  am_hal_gpio_state_write    0x0000e239   Gb    1  Code  Hi   0xb4
    405  am_hal_interrupt_master_disable
                                    0x0000e2ed   Gb    1  Code  Hi   0x8
    406  am_hal_interrupt_master_enable
                                    0x0000e2f5   Gb    1  Code  Hi   0x8
    407  am_hal_interrupt_master_set
                                    0x0000e2fd   Gb    1  Code  Hi   0x6
    408  am_hal_iom_CQAddTransaction
                                    0x0000e305   Gb    1  Code  Hi   0x156
    409  am_hal_iom_CQEnable        0x0000e45d   Gb    1  Code  Hi   0x2a
    410  am_hal_iom_blocking_transfer
                                    0x0000e489   Gb    1  Code  Hi   0x5e6
    411  am_hal_iom_configure       0x0000ea71   Gb    1  Code  Hi   0x162
    412  am_hal_iom_disable         0x0000ebd5   Gb    1  Code  Hi   0x78
    413  am_hal_iom_enable          0x0000ec4d   Gb    1  Code  Hi   0xe4
    414  am_hal_iom_initialize      0x0000ed31   Gb    1  Code  Hi   0x48
    415  am_hal_iom_interrupt_clear 0x0000ed79   Gb    1  Code  Hi   0x2c
    416  am_hal_iom_interrupt_service
                                    0x0000eda5   Gb    1  Code  Hi   0x2b2
    417  am_hal_iom_interrupt_status_get
                                    0x0000f059   Gb    1  Code  Hi   0x44
    418  am_hal_iom_nonblocking_transfer
                                    0x0000f09d   Gb    1  Code  Hi   0x1d4
    419  am_hal_iom_power_ctrl      0x0000f271   Gb    1  Code  Hi   0x204
    420  am_hal_iom_uninitialize    0x0000f475   Gb    1  Code  Hi   0x86
    421  am_hal_itm_enable          0x0000f4fd   Gb    1  Code  Hi   0x56
    422  am_hal_itm_print           0x0000f555   Gb    1  Code  Hi   0x136
    423  am_hal_mcuctrl_control     0x0000f68d   Gb    1  Code  Hi   0x182
    424  am_hal_pwrctrl_low_power_init
                                    0x0000f811   Gb    1  Code  Hi   0x1fe
    425  am_hal_pwrctrl_periph_disable
                                    0x0000fa11   Gb    1  Code  Hi   0xa8
    426  am_hal_pwrctrl_periph_enable
                                    0x0000fab9   Gb    1  Code  Hi   0x76
    427  am_hal_pwrctrl_wa_vddf_boost
                                    0x0000fb31   Gb    1  Code  Hi   0xc8
    428  am_hal_pwrctrl_wa_vddf_restore
                                    0x0000fbf9   Gb    1  Code  Hi   0xb8
    429  am_hal_rtc_osc_disable     0x0000fcb1   Gb    1  Code  Hi   0x12
    430  am_hal_sysctrl_sleep       0x0000fcc5   Gb    1  Code  Hi   0xaa
    431  am_hal_tpiu_enable         0x0000fd71   Gb    1  Code  Hi   0x98
    432  am_iomaster3_isr           0x0000fe09   Gb    1  Code  Hi   0x44
    433  am_util_stdio_printf       0x0000fe4d   Gb    1  Code  Hi   0x5c
    434  am_util_stdio_printf_init  0x0000fea9   Gb    1  Code  Hi   0x14
    435  am_util_stdio_terminal_clear
                                    0x0000febd   Gb    1  Code  Hi   0x10
    436  am_util_stdio_vsprintf     0x0000fecd   Gb    1  Code  Hi   0x654
    437  fram_init                  0x000106e1   Gb    1  Code  Hi   0xae
    438  fram_term                  0x00010791   Gb    1  Code  Hi   0x1a
    439  init_pattern               0x000109dd   Gb    1  Code  Hi   0x2a
    440  initiate_fram_read         0x00010a09   Gb    1  Code  Hi   0xe
    441  internal_iom_get_int_err   0x00010a19   Gb    1  Code  Hi   0x3a
    442  main                       0x00010de9   Gb    1  Code  Hi   0x248
    443  read_complete              0x0001112d   Gb    1  Code  Hi   0x3c
    444  read_fram                  0x00011169   Gb    1  Code  Hi   0x50
    445  timerA0_init               0x00011419   Gb    1  Code  Hi   0x42
    446  verify_fram_data           0x000115a5   Gb    1  Code  Hi   0x78
    447  write_complete             0x0001161d   Gb    1  Code  Hi   0x30
    448  write_fram                 0x0001164d   Gb    1  Code  Hi   0x50
    449  __aeabi_d2f                0x0001169d   Gb    1  Code  De 
    450  _d2f                       0x0001169d   Gb    1  Code  De   0x62
    451  __fpl_dnaninf              0x000116ff   Gb    1  Code  De   0x9c
    452  _fp_init                   0x0001179b   Gb    1  Code  De   0x1a
    453  __fplib_config_fpu_vfp     0x000117b3   Gb    1  Code  De 
    454  __fplib_config_pureend_doubles
                                    0x000117b3   Gb    1  Code  De 
    455  __fpl_fretinf              0x000117b5   Gb    1  Code  De   0xa
    456  __I$use$fp                 0x000117be   Gb    1   --   De 
    457  am_hal_cachectrl_defaults  0x000117be   Gb    1  Data  Hi   0x3
    458  am_hal_pwrctrl_peripheral_control
                                    0x000117c4   Gb    1  Data  Hi   0xcc
    459  g_AM_BSP_GPIO_DSPL1_CS     0x00011a20   Gb    1  Data  Hi   0x4
    460  g_AM_BSP_GPIO_DSPL1_SCL    0x00011a24   Gb    1  Data  Hi   0x4
    461  g_AM_BSP_GPIO_DSPL1_SDI    0x00011a28   Gb    1  Data  Hi   0x4
    462  g_AM_BSP_GPIO_DSPL1_SDO    0x00011a2c   Gb    1  Data  Hi   0x4
    463  g_AM_BSP_GPIO_FLASH2_CS    0x00011a30   Gb    1  Data  Hi   0x4
    464  g_AM_BSP_GPIO_FLASH2_MISO  0x00011a34   Gb    1  Data  Hi   0x4
    465  g_AM_BSP_GPIO_FLASH2_MOSI  0x00011a38   Gb    1  Data  Hi   0x4
    466  g_AM_BSP_GPIO_FLASH2_SCK   0x00011a3c   Gb    1  Data  Hi   0x4
    467  g_AM_BSP_GPIO_FT_BRIDGE_MISO
                                    0x00011a40   Gb    1  Data  Hi   0x4
    468  g_AM_BSP_GPIO_FT_BRIDGE_MOSI
                                    0x00011a44   Gb    1  Data  Hi   0x4
    469  g_AM_BSP_GPIO_FT_BRIDGE_SCK
                                    0x00011a48   Gb    1  Data  Hi   0x4
    470  g_AM_BSP_GPIO_FT_BRIDGE_SS 0x00011a4c   Gb    1  Data  Hi   0x4
    471  g_AM_BSP_GPIO_IOM0_SCL     0x00011a50   Gb    1  Data  Hi   0x4
    472  g_AM_BSP_GPIO_IOM0_SDA     0x00011a54   Gb    1  Data  Hi   0x4
    473  g_AM_BSP_GPIO_IOM1_CS      0x00011a58   Gb    1  Data  Hi   0x4
    474  g_AM_BSP_GPIO_IOM1_MISO    0x00011a5c   Gb    1  Data  Hi   0x4
    475  g_AM_BSP_GPIO_IOM1_MOSI    0x00011a60   Gb    1  Data  Hi   0x4
    476  g_AM_BSP_GPIO_IOM1_SCK     0x00011a64   Gb    1  Data  Hi   0x4
    477  g_AM_BSP_GPIO_IOM1_SCL     0x00011a68   Gb    1  Data  Hi   0x4
    478  g_AM_BSP_GPIO_IOM1_SDA     0x00011a6c   Gb    1  Data  Hi   0x4
    479  g_AM_BSP_GPIO_IOM2_SCL     0x00011a70   Gb    1  Data  Hi   0x4
    480  g_AM_BSP_GPIO_IOM2_SDA     0x00011a74   Gb    1  Data  Hi   0x4
    481  g_AM_BSP_GPIO_IOM3_CS      0x00011a78   Gb    1  Data  Hi   0x4
    482  g_AM_BSP_GPIO_IOM3_MISO    0x00011a7c   Gb    1  Data  Hi   0x4
    483  g_AM_BSP_GPIO_IOM3_MOSI    0x00011a80   Gb    1  Data  Hi   0x4
    484  g_AM_BSP_GPIO_IOM3_SCK     0x00011a84   Gb    1  Data  Hi   0x4
    485  g_AM_BSP_GPIO_IOM4_CS      0x00011a88   Gb    1  Data  Hi   0x4
    486  g_AM_BSP_GPIO_IOM4_MISO    0x00011a8c   Gb    1  Data  Hi   0x4
    487  g_AM_BSP_GPIO_IOM4_MOSI    0x00011a90   Gb    1  Data  Hi   0x4
    488  g_AM_BSP_GPIO_IOM4_SCK     0x00011a94   Gb    1  Data  Hi   0x4
    489  g_AM_BSP_GPIO_IOM4_SCL     0x00011a98   Gb    1  Data  Hi   0x4
    490  g_AM_BSP_GPIO_IOM4_SDA     0x00011a9c   Gb    1  Data  Hi   0x4
    491  g_AM_BSP_GPIO_IOM5_SCL     0x00011aa0   Gb    1  Data  Hi   0x4
    492  g_AM_BSP_GPIO_IOM5_SDA     0x00011aa4   Gb    1  Data  Hi   0x4
    493  g_AM_BSP_GPIO_ITM_SWO      0x00011aa8   Gb    1  Data  Hi   0x4
    494  g_AM_BSP_GPIO_PGA0_POT_CS  0x00011aac   Gb    1  Data  Hi   0x4
    495  g_AM_BSP_GPIO_PGA1_POT_CS  0x00011ab0   Gb    1  Data  Hi   0x4
    496  g_AM_BSP_GPIO_PGA_POTS_CLK 0x00011ab4   Gb    1  Data  Hi   0x4
    497  g_AM_BSP_GPIO_PGA_POTS_SDI 0x00011ab8   Gb    1  Data  Hi   0x4
    498  g_AM_BSP_GPIO_PS_FRAM_SCL  0x00011abc   Gb    1  Data  Hi   0x4
    499  g_AM_BSP_GPIO_PS_FRAM_SDA  0x00011ac0   Gb    1  Data  Hi   0x4
    500  g_AM_HAL_GPIO_DISABLE      0x00011ac4   Gb    1  Data  Hi   0x4
    501  g_AM_HAL_GPIO_OUTPUT       0x00011ac8   Gb    1  Data  Hi   0x4
    502  Region$$Table$$Base        0x00011e74   Gb    1   --   Hi 
    503  Region$$Table$$Limit       0x00011ea4   Gb    1   --   Hi 
    504  am_bsp_psLEDs              0x10011000   Gb    2  Data  Hi   0x28
    505  device_func                0x10011028   Gb    2  Data  Hi   0x30
    506  g_bWriteFram               0x10011058   Gb    2  Data  Hi   0x1
    507  g_sIomMb85rc256vCfg        0x1001105c   Gb    2  Data  Hi   0x14
    508  g_sTimer0                  0x10011070   Gb    2  Data  Hi   0xc
    509  iom_test_speeds            0x1001108c   Gb    2  Data  Hi   0x50
    510  __libspace_start           0x100110e0   Gb    3  Data  De   0x60
    511  __temporary_stack_top$libspace
                                    0x10011140   Gb    3  Data  De 
    512  g_am_hal_burst_mode_available
                                    0x10011148   Gb    3  Data  Hi   0x1
    513  g_bSimobuckTrimsDone       0x1001114a   Gb    3  Data  Hi   0x1
    514  g_bVddfTrimsDone           0x1001114b   Gb    3  Data  Hi   0x1
    515  DMATCBBuffer               0x1001114c   Gb    3  Data  Hi   0x400
    516  gAmHalResetStatus          0x10011704   Gb    3  Data  Hi   0x4
    517  gAmMb85rc256v              0x10011708   Gb    3  Data  Hi   0xc
    518  gPatternBuf                0x10011714   Gb    3  Data  Hi   0x80
    519  gRxBuf                     0x10011794   Gb    3  Data  Hi   0x80
    520  g_IOMhandles               0x10011814   Gb    3  Data  Hi   0x33d8
    521  g_IomDevHdl                0x10014bec   Gb    3  Data  Hi   0x4
    522  g_am_hal_sysctrl_sleep_count
                                    0x10014c70   Gb    3  Data  Hi   0x4
    523  g_bReadFram                0x10014c75   Gb    3  Data  Hi   0x1
    524  g_bVerifyReadData          0x10014c77   Gb    3  Data  Hi   0x1
    525  g_bWriteComplete           0x10014c78   Gb    3  Data  Hi   0x1
    526  g_pIOMHandle               0x10014c7c   Gb    3  Data  Hi   0x4
    527  g_pfnCharPrint             0x10014c80   Gb    3  Data  Hi   0x4
    528  g_ui32ClockFreq            0x10015084   Gb    3  Data  Hi   0x4


** Section #12 '.strtab' (SHT_STRTAB)
    Size   : 9200 bytes

            #  Offset String
        ====================================

            1      1: $d
            2      4: $t
            3      7: $t.14
            4     13: $d.12
            5     19: $t.13
            6     25: $d.9
            7     30: $t.10
            8     36: $d.4
            9     41: $t.5
           10     46: $d.1
           11     51: $t.2
           12     56: $d.2
           13     61: $t.3
           14     66: $t.0
           15     71: $d.7
           16     76: $t.8
           17     81: $d.3
           18     86: $t.4
           19     91: $d.5
           20     96: $t.6
           21    101: $d.realdata
           22    113: iom_power_example.c
           23    133: __NVIC_EnableIRQ
           24    150: __NVIC_DisableIRQ
           25    168: .L.str.15
           26    178: .L.str.17
           27    188: .L.str.18
           28    198: .L.str.10
           29    208: .L.str.20
           30    218: .L.str.19
           31    228: .L.str.16
           32    238: .L.str.14
           33    248: .L.str.12
           34    258: .L.str.11
           35    268: .L.str.13
           36    278: am_util_delay.c
           37    294: am_util_stdio.c
           38    310: decstr_to_int
           39    324: simple_strlen
           40    338: padbuffer
           41    348: ndigits_in_hex
           42    363: uint64_to_hexstr
           43    380: ndigits_in_u64
           44    395: uint64_to_str
           45    409: ndigits_in_i64
           46    424: ftoa
           47    429: divu64_10
           48    439: g_bTxtXlate
           49    451: g_prfbuf
           50    460: .L.str
           51    467: am_devices_mb85rc256v.c
           52    491: am_device_command_read
           53    514: am_device_command_write
           54    538: ../keil6/startup_keil6.s
           55    563: STACK
           56    569: StackMem
           57    578: HEAP
           58    583: HeapMem
           59    591: RESET
           60    597: $v0
           61    601: .text
           62    607: am_hal_cachectrl.c
           63    626: set_LPMMODE
           64    638: set_SEDELAY
           65    650: set_RDWAIT
           66    661: am_hal_clkgen.c
           67    677: am_hal_ctimer.c
           68    693: g_am_hal_ctimer_ppfnHandlers
           69    722: g_ui8ClkSrc
           70    734: am_hal_flash.c
           71    749: am_hal_gpio.c
           72    763: g_ui8Bit76Capabilities
           73    786: g_ui8Inpen
           74    797: g_ui8nCEpins
           75    810: g_ui8NCEtable
           76    824: am_hal_interrupt.c
           77    843: am_hal_iom.c
           78    856: internal_iom_reset_on_error
           79    884: iom_get_interface_clock_cfg
           80    912: iom_dummy_callback
           81    931: am_hal_mcuctrl.c
           82    948: am_hal_sysctrl.c
           83    965: am_bsp.c
           84    974: .L_MergedGlobals
           85    991: g_ui32PrintInterface
           86   1012: g_sCOMUART
           87   1023: am_hal_burst.c
           88   1038: g_bDisFromManual
           89   1055: g_bEnFromManual
           90   1071: am_hal_cmdq.c
           91   1085: gAmHalCmdq
           92   1096: gAmHalCmdQReg
           93   1110: am_hal_debug.c
           94   1125: am_hal_global.c
           95   1141: am_hal_itm.c
           96   1154: am_hal_pwrctrl.c
           97   1171: am_hal_reset.c
           98   1186: am_hal_rtc.c
           99   1199: am_hal_tpiu.c
          100   1213: am_hal_uart.c
          101   1227: am_bsp_pins.c
          102   1241: am_hal_queue.c
          103   1256: dc.s
          104   1261: ../clib/heapaux.c
          105   1279: ../clib/angel/startup.s
          106   1303: !!!main
          107   1311: ../clib/angel/handlers.s
          108   1336: !!handler_copy
          109   1351: ../fplib/d2f.s
          110   1366: x$fpl$d2f
          111   1376: ../clib/angel/kernel.s
          112   1399: .ARM.Collect$$rtentry$$00000000
          113   1431: ../fplib/dnaninf.s
          114   1450: x$fpl$dnaninf
          115   1464: ../fplib/fretinf.s
          116   1483: x$fpl$fretinf
          117   1497: ../fplib/usenofp.s
          118   1516: x$fpl$usenofp
          119   1530: .ARM.Collect$$rtentry$$00000002
          120   1562: .ARM.Collect$$rtentry$$00000009
          121   1594: .ARM.Collect$$rtentry$$0000000A
          122   1626: .ARM.Collect$$rtentry$$0000000C
          123   1658: .ARM.Collect$$rtentry$$0000000D
          124   1690: .ARM.Collect$$rtentry$$00000004
          125   1722: ../clib/angel/sys.s
          126   1742: ../clib/stdlib.c
          127   1759: ../clib/angel/boardlib.s
          128   1784: ../clib/libinit.s
          129   1802: .ARM.Collect$$libinit$$00000000
          130   1834: .bss
          131   1839: .ARM.Collect$$rtexit$$00000000
          132   1870: .ARM.Collect$$libinit$$00000001
          133   1902: .ARM.Collect$$libinit$$00000004
          134   1934: .ARM.Collect$$libinit$$00000006
          135   1966: .ARM.Collect$$libinit$$0000000C
          136   1998: .ARM.Collect$$libinit$$0000000E
          137   2030: .ARM.Collect$$libinit$$00000010
          138   2062: .ARM.Collect$$libinit$$00000013
          139   2094: .ARM.Collect$$libinit$$00000015
          140   2126: .ARM.Collect$$libinit$$00000017
          141   2158: .ARM.Collect$$libinit$$00000019
          142   2190: .ARM.Collect$$libinit$$0000001B
          143   2222: .ARM.Collect$$libinit$$0000001D
          144   2254: .ARM.Collect$$libinit$$0000001F
          145   2286: .ARM.Collect$$libinit$$00000021
          146   2318: .ARM.Collect$$libinit$$00000023
          147   2350: .ARM.Collect$$libinit$$00000025
          148   2382: .ARM.Collect$$libinit$$00000027
          149   2414: .ARM.Collect$$libinit$$0000002E
          150   2446: .ARM.Collect$$libinit$$00000030
          151   2478: .ARM.Collect$$libinit$$00000032
          152   2510: .ARM.Collect$$libinit$$00000034
          153   2542: .ARM.Collect$$libinit$$00000035
          154   2574: .ARM.Collect$$rtexit$$00000002
          155   2605: .ARM.Collect$$rtexit$$00000003
          156   2636: .ARM.Collect$$rtexit$$00000004
          157   2667: ../clib/armsys.c
          158   2684: ../fplib/fpinit.s
          159   2702: x$fpl$fpinit
          160   2715: ../clib/angel/sysapp.c
          161   2738: .ARM.Collect$$libshutdown$$00000000
          162   2774: ../clib/heapalloc.c
          163   2794: ../clib/signal.c
          164   2811: .ARM.Collect$$libshutdown$$00000002
          165   2847: .ARM.Collect$$libshutdown$$00000004
          166   2883: .ARM.Collect$$libshutdown$$00000007
          167   2919: .ARM.Collect$$libshutdown$$0000000A
          168   2955: .ARM.Collect$$libshutdown$$0000000C
          169   2991: .ARM.Collect$$libshutdown$$0000000F
          170   3027: .ARM.Collect$$libshutdown$$00000010
          171   3063: ../clib/angel/rt.s
          172   3082: ../clib/signal.s
          173   3099: ../clib/angel/scatter.s
          174   3123: !!!scatter
          175   3134: !!handler_zi
          176   3147: BuildAttributes$$THM_ISAv4$E$P$D$K$B$S$7EM$VFPi3$EXTD16$VFPS$VFMA$PE$A:L22UL41UL21$X:L11$S22US41US21$IEEE1$IW$~IW$USESV6$~STKCKD$USESV7$~SHL$OTIME$ROPI$EBA8$UX$STANDARDLIB$REQ8$PRES8$EABIv2
          177   3337: __Vectors
          178   3347: __Patchable
          179   3359: Reset_Handler
          180   3373: HardFault_Handler
          181   3391: NMI_Handler
          182   3403: MemManage_Handler
          183   3421: BusFault_Handler
          184   3438: UsageFault_Handler
          185   3457: SVC_Handler
          186   3469: DebugMon_Handler
          187   3486: PendSV_Handler
          188   3501: SysTick_Handler
          189   3517: am_adc_isr
          190   3528: am_ble_isr
          191   3539: am_brownout_isr
          192   3555: am_clkgen_isr
          193   3569: am_gpio_isr
          194   3581: am_iomaster0_isr
          195   3598: am_iomaster1_isr
          196   3615: am_iomaster2_isr
          197   3632: am_iomaster4_isr
          198   3649: am_iomaster5_isr
          199   3666: am_ioslave_acc_isr
          200   3685: am_ioslave_ios_isr
          201   3704: am_mspi0_isr
          202   3717: am_mspi1_isr
          203   3730: am_mspi2_isr
          204   3743: am_pdm0_isr
          205   3755: am_rtc_isr
          206   3766: am_scard_isr
          207   3779: am_software0_isr
          208   3796: am_stimer_cmpr0_isr
          209   3816: am_stimer_cmpr1_isr
          210   3836: am_stimer_cmpr2_isr
          211   3856: am_stimer_cmpr3_isr
          212   3876: am_stimer_cmpr4_isr
          213   3896: am_stimer_cmpr5_isr
          214   3916: am_stimer_cmpr6_isr
          215   3936: am_stimer_cmpr7_isr
          216   3956: am_stimer_isr
          217   3970: am_uart0_isr
          218   3983: am_uart1_isr
          219   3996: am_uart_isr
          220   4008: am_vcomp_isr
          221   4021: am_watchdog_isr
          222   4037: __main
          223   4044: __scatterload
          224   4058: __scatterload_rt2
          225   4076: __scatterload_rt2_thumb_only
          226   4105: __scatterload_null
          227   4124: __scatterload_copy
          228   4143: __scatterload_zeroinit
          229   4166: __rt_lib_init
          230   4180: __rt_lib_init_fp_1
          231   4199: __rt_lib_init_alloca_1
          232   4222: __rt_lib_init_argv_1
          233   4243: __rt_lib_init_atexit_1
          234   4266: __rt_lib_init_clock_1
          235   4288: __rt_lib_init_cpp_1
          236   4308: __rt_lib_init_exceptions_1
          237   4335: __rt_lib_init_fp_trap_1
          238   4359: __rt_lib_init_getenv_1
          239   4382: __rt_lib_init_heap_1
          240   4403: __rt_lib_init_lc_collate_1
          241   4430: __rt_lib_init_lc_ctype_1
          242   4455: __rt_lib_init_lc_monetary_1
          243   4483: __rt_lib_init_lc_numeric_1
          244   4510: __rt_lib_init_lc_time_1
          245   4534: __rt_lib_init_preinit_1
          246   4558: __rt_lib_init_rand_1
          247   4579: __rt_lib_init_relocate_pie_1
          248   4608: __rt_lib_init_return
          249   4629: __rt_lib_init_signal_1
          250   4652: __rt_lib_init_stdio_1
          251   4674: __rt_lib_init_user_alloc_1
          252   4701: __rt_lib_shutdown
          253   4719: __rt_lib_shutdown_cpp_1
          254   4743: __rt_lib_shutdown_fp_trap_1
          255   4771: __rt_lib_shutdown_heap_1
          256   4796: __rt_lib_shutdown_return
          257   4821: __rt_lib_shutdown_signal_1
          258   4848: __rt_lib_shutdown_stdio_1
          259   4874: __rt_lib_shutdown_user_alloc_1
          260   4905: __rt_entry
          261   4916: __rt_entry_presh_1
          262   4935: __rt_entry_sh
          263   4949: __rt_entry_li
          264   4963: __rt_entry_postsh_1
          265   4983: __rt_entry_main
          266   4999: __rt_entry_postli_1
          267   5019: __rt_exit
          268   5029: __rt_exit_ls
          269   5042: __rt_exit_prels_1
          270   5060: __rt_exit_exit
          271   5075: __user_initial_stackheap
          272   5100: __use_two_region_memory
          273   5124: __rt_heap_escrow$2region
          274   5149: __rt_heap_expand$2region
          275   5174: __user_setup_stackheap
          276   5197: exit
          277   5202: __user_libspace
          278   5218: __user_perproc_libspace
          279   5242: __user_perthread_libspace
          280   5268: _sys_exit
          281   5278: __I$use$semihosting
          282   5298: __use_no_semihosting_swi
          283   5323: __semihosting_library_function
          284   5354: am_bsp_iom_pins_disable
          285   5378: am_bsp_iom_pins_enable
          286   5401: am_bsp_itm_printf_enable
          287   5426: am_bsp_low_power_init
          288   5448: am_ctimer_isr
          289   5462: am_devices_mb85rc256v_blocking_read
          290   5498: am_devices_mb85rc256v_blocking_write
          291   5535: am_devices_mb85rc256v_init
          292   5562: am_devices_mb85rc256v_nonblocking_read
          293   5601: am_devices_mb85rc256v_nonblocking_write
          294   5641: am_devices_mb85rc256v_read_id
          295   5671: am_devices_mb85rc256v_term
          296   5698: am_hal_burst_ldo_charge
          297   5722: am_hal_burst_ldo_patch_check
          298   5751: am_hal_burst_mode_disable
          299   5777: am_hal_burst_mode_enable
          300   5802: am_hal_burst_mode_enable_w_manual_sequence
          301   5845: am_hal_cachectrl_config
          302   5869: am_hal_cachectrl_control
          303   5894: am_hal_cachectrl_enable
          304   5918: am_hal_clkgen_control
          305   5940: am_hal_clkgen_status_get
          306   5965: am_hal_cmdq_alloc_block
          307   5989: am_hal_cmdq_disable
          308   6009: am_hal_cmdq_enable
          309   6028: am_hal_cmdq_error_resume
          310   6053: am_hal_cmdq_get_status
          311   6076: am_hal_cmdq_init
          312   6093: am_hal_cmdq_post_block
          313   6116: am_hal_cmdq_release_block
          314   6142: am_hal_cmdq_term
          315   6159: am_hal_ctimer_clear
          316   6179: am_hal_ctimer_config
          317   6200: am_hal_ctimer_int_clear
          318   6224: am_hal_ctimer_int_disable
          319   6250: am_hal_ctimer_int_enable
          320   6275: am_hal_ctimer_int_register
          321   6302: am_hal_ctimer_int_service
          322   6328: am_hal_ctimer_int_status_get
          323   6357: am_hal_ctimer_period_set
          324   6382: am_hal_ctimer_start
          325   6402: am_hal_debug_error
          326   6421: am_hal_flash_delay
          327   6440: am_hal_flash_delay_status_check
          328   6472: am_hal_flash_load_ui32
          329   6495: am_hal_flash_store_ui32
          330   6519: am_hal_gpio_pinconfig
          331   6541: am_hal_gpio_state_write
          332   6565: am_hal_interrupt_master_disable
          333   6597: am_hal_interrupt_master_enable
          334   6628: am_hal_interrupt_master_set
          335   6656: am_hal_iom_CQAddTransaction
          336   6684: am_hal_iom_CQEnable
          337   6704: am_hal_iom_blocking_transfer
          338   6733: am_hal_iom_configure
          339   6754: am_hal_iom_disable
          340   6773: am_hal_iom_enable
          341   6791: am_hal_iom_initialize
          342   6813: am_hal_iom_interrupt_clear
          343   6840: am_hal_iom_interrupt_service
          344   6869: am_hal_iom_interrupt_status_get
          345   6901: am_hal_iom_nonblocking_transfer
          346   6933: am_hal_iom_power_ctrl
          347   6955: am_hal_iom_uninitialize
          348   6979: am_hal_itm_enable
          349   6997: am_hal_itm_print
          350   7014: am_hal_mcuctrl_control
          351   7037: am_hal_pwrctrl_low_power_init
          352   7067: am_hal_pwrctrl_periph_disable
          353   7097: am_hal_pwrctrl_periph_enable
          354   7126: am_hal_pwrctrl_wa_vddf_boost
          355   7155: am_hal_pwrctrl_wa_vddf_restore
          356   7186: am_hal_rtc_osc_disable
          357   7209: am_hal_sysctrl_sleep
          358   7230: am_hal_tpiu_enable
          359   7249: am_iomaster3_isr
          360   7266: am_util_stdio_printf
          361   7287: am_util_stdio_printf_init
          362   7313: am_util_stdio_terminal_clear
          363   7342: am_util_stdio_vsprintf
          364   7365: fram_init
          365   7375: fram_term
          366   7385: init_pattern
          367   7398: initiate_fram_read
          368   7417: internal_iom_get_int_err
          369   7442: main
          370   7447: read_complete
          371   7461: read_fram
          372   7471: timerA0_init
          373   7484: verify_fram_data
          374   7501: write_complete
          375   7516: write_fram
          376   7527: __aeabi_d2f
          377   7539: _d2f
          378   7544: __fpl_dnaninf
          379   7558: _fp_init
          380   7567: __fplib_config_fpu_vfp
          381   7590: __fplib_config_pureend_doubles
          382   7621: __fpl_fretinf
          383   7635: __I$use$fp
          384   7646: am_hal_cachectrl_defaults
          385   7672: am_hal_pwrctrl_peripheral_control
          386   7706: g_AM_BSP_GPIO_DSPL1_CS
          387   7729: g_AM_BSP_GPIO_DSPL1_SCL
          388   7753: g_AM_BSP_GPIO_DSPL1_SDI
          389   7777: g_AM_BSP_GPIO_DSPL1_SDO
          390   7801: g_AM_BSP_GPIO_FLASH2_CS
          391   7825: g_AM_BSP_GPIO_FLASH2_MISO
          392   7851: g_AM_BSP_GPIO_FLASH2_MOSI
          393   7877: g_AM_BSP_GPIO_FLASH2_SCK
          394   7902: g_AM_BSP_GPIO_FT_BRIDGE_MISO
          395   7931: g_AM_BSP_GPIO_FT_BRIDGE_MOSI
          396   7960: g_AM_BSP_GPIO_FT_BRIDGE_SCK
          397   7988: g_AM_BSP_GPIO_FT_BRIDGE_SS
          398   8015: g_AM_BSP_GPIO_IOM0_SCL
          399   8038: g_AM_BSP_GPIO_IOM0_SDA
          400   8061: g_AM_BSP_GPIO_IOM1_CS
          401   8083: g_AM_BSP_GPIO_IOM1_MISO
          402   8107: g_AM_BSP_GPIO_IOM1_MOSI
          403   8131: g_AM_BSP_GPIO_IOM1_SCK
          404   8154: g_AM_BSP_GPIO_IOM1_SCL
          405   8177: g_AM_BSP_GPIO_IOM1_SDA
          406   8200: g_AM_BSP_GPIO_IOM2_SCL
          407   8223: g_AM_BSP_GPIO_IOM2_SDA
          408   8246: g_AM_BSP_GPIO_IOM3_CS
          409   8268: g_AM_BSP_GPIO_IOM3_MISO
          410   8292: g_AM_BSP_GPIO_IOM3_MOSI
          411   8316: g_AM_BSP_GPIO_IOM3_SCK
          412   8339: g_AM_BSP_GPIO_IOM4_CS
          413   8361: g_AM_BSP_GPIO_IOM4_MISO
          414   8385: g_AM_BSP_GPIO_IOM4_MOSI
          415   8409: g_AM_BSP_GPIO_IOM4_SCK
          416   8432: g_AM_BSP_GPIO_IOM4_SCL
          417   8455: g_AM_BSP_GPIO_IOM4_SDA
          418   8478: g_AM_BSP_GPIO_IOM5_SCL
          419   8501: g_AM_BSP_GPIO_IOM5_SDA
          420   8524: g_AM_BSP_GPIO_ITM_SWO
          421   8546: g_AM_BSP_GPIO_PGA0_POT_CS
          422   8572: g_AM_BSP_GPIO_PGA1_POT_CS
          423   8598: g_AM_BSP_GPIO_PGA_POTS_CLK
          424   8625: g_AM_BSP_GPIO_PGA_POTS_SDI
          425   8652: g_AM_BSP_GPIO_PS_FRAM_SCL
          426   8678: g_AM_BSP_GPIO_PS_FRAM_SDA
          427   8704: g_AM_HAL_GPIO_DISABLE
          428   8726: g_AM_HAL_GPIO_OUTPUT
          429   8747: Region$$Table$$Base
          430   8767: Region$$Table$$Limit
          431   8788: am_bsp_psLEDs
          432   8802: device_func
          433   8814: g_bWriteFram
          434   8827: g_sIomMb85rc256vCfg
          435   8847: g_sTimer0
          436   8857: iom_test_speeds
          437   8873: __libspace_start
          438   8890: __temporary_stack_top$libspace
          439   8921: g_am_hal_burst_mode_available
          440   8951: g_bSimobuckTrimsDone
          441   8972: g_bVddfTrimsDone
          442   8989: DMATCBBuffer
          443   9002: gAmHalResetStatus
          444   9020: gAmMb85rc256v
          445   9034: gPatternBuf
          446   9046: gRxBuf
          447   9053: g_IOMhandles
          448   9066: g_IomDevHdl
          449   9078: g_am_hal_sysctrl_sleep_count
          450   9107: g_bReadFram
          451   9119: g_bVerifyReadData
          452   9137: g_bWriteComplete
          453   9154: g_pIOMHandle
          454   9167: g_pfnCharPrint
          455   9182: g_ui32ClockFreq
          456   9198: 
          457   9199: 


** Section #13 '.note' (SHT_NOTE)
    Size   : 32 bytes (alignment 4)


** Section #14 '.comment' (SHT_PROGBITS)
    Size   : 1612 bytes


** Section #15 '.shstrtab' (SHT_STRTAB)
    Size   : 144 bytes

            #  Offset String
        ====================================

            1      1: ROMEM
            2      7: RWMEM
            3     13: TCM
            4     17: STACKMEM
            5     26: .debug_abbrev
            6     40: .debug_frame
            7     53: .debug_info
            8     65: .debug_line
            9     77: .debug_ranges
           10     91: .debug_str
           11    102: .symtab
           12    110: .strtab
           13    118: .note
           14    124: .comment
           15    133: .shstrtab
           16    143: 


