
========================================================================

** ELF Header Information

    File Name: bin\mspi_flash_loader.axf

    Machine class: ELFCLASS32 (32-bit)
    Data encoding: ELFDATA2LSB (Little endian)
    Header version: EV_CURRENT (Current version)
    Operating System ABI: none
    ABI Version: 0
    File Type: ET_EXEC (Executable) (2)
    Machine: EM_ARM (ARM)

    Image Entry point: 0x0000c135
    Flags: EF_ARM_HASENTRY + EF_ARM_ABI_FLOAT_HARD (0x05000402)

    ARM ELF revision: 5 (ABI version 2)

    Conforms to Hard float procedure-call standard

    Built with
    Component: Arm Compiler for Embedded 6.19 Tool: armasm [5e73cb00]
    Component: Arm Compiler for Embedded 6.19 Tool: armlink [5e73cb00]

    Header size: 52 bytes (0x34)
    Program header entry size: 32 bytes (0x20)
    Section header entry size: 40 bytes (0x28)

    Program header entries: 1
    Section header entries: 16

    Program header offset: 97224 (0x00017bc8)
    Section header offset: 97256 (0x00017be8)

    Section header string table index: 15

========================================================================

** Program header #0 (PT_LOAD) [PF_X + PF_W + PF_R + PF_ARM_ENTRY]
    Size : 55416 bytes (30008 bytes in file)
    Virtual address: 0x0000c000 (Alignment 8)


========================================================================

** Section #1 'ROMEM' (SHT_PROGBITS) [SHF_ALLOC + SHF_EXECINSTR]
    Size   : 29860 bytes (alignment 4)
    Address: 0x0000c000

    $d
    RESET
    __Vectors
        0x0000c000:    10011000    ....    DCD    268505088
        0x0000c004:    0000c101    ....    DCD    49409
        0x0000c008:    0000c11f    ....    DCD    49439
        0x0000c00c:    0000c401    ....    DCD    50177
        0x0000c010:    0000c121    !...    DCD    49441
        0x0000c014:    0000c123    #...    DCD    49443
        0x0000c018:    0000c125    %...    DCD    49445
        0x0000c01c:    00000000    ....    DCD    0
        0x0000c020:    00000000    ....    DCD    0
        0x0000c024:    00000000    ....    DCD    0
        0x0000c028:    00000000    ....    DCD    0
        0x0000c02c:    0000c127    '...    DCD    49447
        0x0000c030:    0000c129    )...    DCD    49449
        0x0000c034:    00000000    ....    DCD    0
        0x0000c038:    0000c12b    +...    DCD    49451
        0x0000c03c:    0000c12d    -...    DCD    49453
        0x0000c040:    0000c12f    /...    DCD    49455
        0x0000c044:    0000c12f    /...    DCD    49455
        0x0000c048:    0000c12f    /...    DCD    49455
        0x0000c04c:    0000c12f    /...    DCD    49455
        0x0000c050:    0000c12f    /...    DCD    49455
        0x0000c054:    0000c12f    /...    DCD    49455
        0x0000c058:    0000c12f    /...    DCD    49455
        0x0000c05c:    0000c12f    /...    DCD    49455
        0x0000c060:    0000c12f    /...    DCD    49455
        0x0000c064:    0000c12f    /...    DCD    49455
        0x0000c068:    0000c12f    /...    DCD    49455
        0x0000c06c:    0000c12f    /...    DCD    49455
        0x0000c070:    0000c12f    /...    DCD    49455
        0x0000c074:    0000c12f    /...    DCD    49455
        0x0000c078:    0000c12f    /...    DCD    49455
        0x0000c07c:    0000c12f    /...    DCD    49455
        0x0000c080:    0000c12f    /...    DCD    49455
        0x0000c084:    0000c12f    /...    DCD    49455
        0x0000c088:    0000c12f    /...    DCD    49455
        0x0000c08c:    0000c12f    /...    DCD    49455
        0x0000c090:    0000c12f    /...    DCD    49455
        0x0000c094:    0000c12f    /...    DCD    49455
        0x0000c098:    0000c12f    /...    DCD    49455
        0x0000c09c:    0000c12f    /...    DCD    49455
        0x0000c0a0:    0000c12f    /...    DCD    49455
        0x0000c0a4:    0000c12f    /...    DCD    49455
        0x0000c0a8:    0000c12f    /...    DCD    49455
        0x0000c0ac:    0000c12f    /...    DCD    49455
        0x0000c0b0:    0000c12f    /...    DCD    49455
        0x0000c0b4:    0000c12f    /...    DCD    49455
        0x0000c0b8:    0000c12f    /...    DCD    49455
        0x0000c0bc:    0000c12f    /...    DCD    49455
        0x0000c0c0:    00010671    q...    DCD    67185
        0x0000c0c4:    0000c12f    /...    DCD    49455
    __Patchable
        0x0000c0c8:    00000000    ....    DCD    0
        0x0000c0cc:    00000000    ....    DCD    0
        0x0000c0d0:    00000000    ....    DCD    0
        0x0000c0d4:    00000000    ....    DCD    0
        0x0000c0d8:    00000000    ....    DCD    0
        0x0000c0dc:    00000000    ....    DCD    0
        0x0000c0e0:    00000000    ....    DCD    0
        0x0000c0e4:    00000000    ....    DCD    0
        0x0000c0e8:    00000000    ....    DCD    0
        0x0000c0ec:    00000000    ....    DCD    0
        0x0000c0f0:    00000000    ....    DCD    0
        0x0000c0f4:    00000000    ....    DCD    0
        0x0000c0f8:    00000000    ....    DCD    0
        0x0000c0fc:    00000000    ....    DCD    0
    $t
    $v0
    Reset_Handler
        0x0000c100:    f64e5088    N..P    MOV      r0,#0xed88
        0x0000c104:    f2ce0000    ....    MOVT     r0,#0xe000
        0x0000c108:    6801        .h      LDR      r1,[r0,#0]
        0x0000c10a:    f4410170    A.p.    ORR      r1,r1,#0xf00000
        0x0000c10e:    6001        .`      STR      r1,[r0,#0]
        0x0000c110:    f3bf8f4f    ..O.    DSB      
        0x0000c114:    f3bf8f6f    ..o.    ISB      
        0x0000c118:    4805        .H      LDR      r0,[pc,#20] ; [0xc130] = 0xc135
        0x0000c11a:    4700        .G      BX       r0
        0x0000c11c:    e7fe        ..      B        0xc11c ; Reset_Handler + 28
    NMI_Handler
        0x0000c11e:    e7fe        ..      B        NMI_Handler ; 0xc11e
    MemManage_Handler
        0x0000c120:    e7fe        ..      B        MemManage_Handler ; 0xc120
    BusFault_Handler
        0x0000c122:    e7fe        ..      B        BusFault_Handler ; 0xc122
    UsageFault_Handler
        0x0000c124:    e7fe        ..      B        UsageFault_Handler ; 0xc124
    SVC_Handler
        0x0000c126:    e7fe        ..      B        SVC_Handler ; 0xc126
    DebugMon_Handler
        0x0000c128:    e7fe        ..      B        DebugMon_Handler ; 0xc128
    PendSV_Handler
        0x0000c12a:    e7fe        ..      B        PendSV_Handler ; 0xc12a
    SysTick_Handler
        0x0000c12c:    e7fe        ..      B        SysTick_Handler ; 0xc12c
    am_adc_isr
    am_ble_isr
    am_brownout_isr
    am_clkgen_isr
    am_ctimer_isr
    am_gpio_isr
    am_iomaster0_isr
    am_iomaster1_isr
    am_iomaster2_isr
    am_iomaster3_isr
    am_iomaster4_isr
    am_iomaster5_isr
    am_ioslave_acc_isr
    am_ioslave_ios_isr
    am_mspi0_isr
    am_mspi2_isr
    am_pdm0_isr
    am_rtc_isr
    am_scard_isr
    am_software0_isr
    am_stimer_cmpr0_isr
    am_stimer_cmpr1_isr
    am_stimer_cmpr2_isr
    am_stimer_cmpr3_isr
    am_stimer_cmpr4_isr
    am_stimer_cmpr5_isr
    am_stimer_cmpr6_isr
    am_stimer_cmpr7_isr
    am_stimer_isr
    am_uart0_isr
    am_uart1_isr
    am_uart_isr
    am_vcomp_isr
    am_watchdog_isr
        0x0000c12e:    e7fe        ..      B        am_adc_isr ; 0xc12e
    $d
        0x0000c130:    0000c135    5...    DCD    49461
    $t
    !!!main
    __main
        0x0000c134:    f000f802    ....    BL       __scatterload ; 0xc13c
        0x0000c138:    f000f86a    ..j.    BL       __rt_entry ; 0xc210
    !!!scatter
    __scatterload
    __scatterload_rt2
    __scatterload_rt2_thumb_only
        0x0000c13c:    a00a        ..      ADR      r0,{pc}+0x2c ; 0xc168
        0x0000c13e:    e8900c00    ....    LDM      r0,{r10,r11}
        0x0000c142:    4482        .D      ADD      r10,r10,r0
        0x0000c144:    4483        .D      ADD      r11,r11,r0
        0x0000c146:    f1aa0701    ....    SUB      r7,r10,#1
    __scatterload_null
        0x0000c14a:    45da        .E      CMP      r10,r11
        0x0000c14c:    d101        ..      BNE      0xc152 ; __scatterload_null + 8
        0x0000c14e:    f000f85f    .._.    BL       __rt_entry ; 0xc210
        0x0000c152:    f2af0e09    ....    ADR      lr,{pc}-7 ; 0xc14b
        0x0000c156:    e8ba000f    ....    LDM      r10!,{r0-r3}
        0x0000c15a:    f0130f01    ....    TST      r3,#1
        0x0000c15e:    bf18        ..      IT       NE
        0x0000c160:    1afb        ..      SUBNE    r3,r7,r3
        0x0000c162:    f0430301    C...    ORR      r3,r3,#1
        0x0000c166:    4718        .G      BX       r3
    $d
        0x0000c168:    0000730c    .s..    DCD    29452
        0x0000c16c:    0000733c    <s..    DCD    29500
    $t
    !!dczerorl2
    __decompress
    __decompress1
        0x0000c170:    440a        .D      ADD      r2,r2,r1
        0x0000c172:    f04f0c00    O...    MOV      r12,#0
        0x0000c176:    f8103b01    ...;    LDRB     r3,[r0],#1
        0x0000c17a:    f0130407    ....    ANDS     r4,r3,#7
        0x0000c17e:    bf08        ..      IT       EQ
        0x0000c180:    f8104b01    ...K    LDRBEQ   r4,[r0],#1
        0x0000c184:    111d        ..      ASRS     r5,r3,#4
        0x0000c186:    bf08        ..      IT       EQ
        0x0000c188:    f8105b01    ...[    LDRBEQ   r5,[r0],#1
        0x0000c18c:    1e64        d.      SUBS     r4,r4,#1
        0x0000c18e:    d005        ..      BEQ      0xc19c ; __decompress + 44
        0x0000c190:    f8106b01    ...k    LDRB     r6,[r0],#1
        0x0000c194:    1e64        d.      SUBS     r4,r4,#1
        0x0000c196:    f8016b01    ...k    STRB     r6,[r1],#1
        0x0000c19a:    d1f9        ..      BNE      0xc190 ; __decompress + 32
        0x0000c19c:    f0130f08    ....    TST      r3,#8
        0x0000c1a0:    bf1e        ..      ITTT     NE
        0x0000c1a2:    f8104b01    ...K    LDRBNE   r4,[r0],#1
        0x0000c1a6:    1cad        ..      ADDNE    r5,r5,#2
        0x0000c1a8:    1b0c        ..      SUBNE    r4,r1,r4
        0x0000c1aa:    d109        ..      BNE      0xc1c0 ; __decompress + 80
        0x0000c1ac:    1e6d        m.      SUBS     r5,r5,#1
        0x0000c1ae:    bf58        X.      IT       PL
        0x0000c1b0:    f801cb01    ....    STRBPL   r12,[r1],#1
        0x0000c1b4:    d5fa        ..      BPL      0xc1ac ; __decompress + 60
        0x0000c1b6:    e005        ..      B        0xc1c4 ; __decompress + 84
        0x0000c1b8:    f8146b01    ...k    LDRB     r6,[r4],#1
        0x0000c1bc:    f8016b01    ...k    STRB     r6,[r1],#1
        0x0000c1c0:    1e6d        m.      SUBS     r5,r5,#1
        0x0000c1c2:    d5f9        ..      BPL      0xc1b8 ; __decompress + 72
        0x0000c1c4:    4291        .B      CMP      r1,r2
        0x0000c1c6:    d3d6        ..      BCC      0xc176 ; __decompress + 6
        0x0000c1c8:    4770        pG      BX       lr
        0x0000c1ca:    0000        ..      MOVS     r0,r0
    !!handler_copy
    __scatterload_copy
        0x0000c1cc:    3a10        .:      SUBS     r2,r2,#0x10
        0x0000c1ce:    bf24        $.      ITT      CS
        0x0000c1d0:    c878        x.      LDMCS    r0!,{r3-r6}
        0x0000c1d2:    c178        x.      STMCS    r1!,{r3-r6}
        0x0000c1d4:    d8fa        ..      BHI      __scatterload_copy ; 0xc1cc
        0x0000c1d6:    0752        R.      LSLS     r2,r2,#29
        0x0000c1d8:    bf24        $.      ITT      CS
        0x0000c1da:    c830        0.      LDMCS    r0!,{r4,r5}
        0x0000c1dc:    c130        0.      STMCS    r1!,{r4,r5}
        0x0000c1de:    bf44        D.      ITT      MI
        0x0000c1e0:    6804        .h      LDRMI    r4,[r0,#0]
        0x0000c1e2:    600c        .`      STRMI    r4,[r1,#0]
        0x0000c1e4:    4770        pG      BX       lr
        0x0000c1e6:    0000        ..      MOVS     r0,r0
    !!handler_zi
    __scatterload_zeroinit
        0x0000c1e8:    2300        .#      MOVS     r3,#0
        0x0000c1ea:    2400        .$      MOVS     r4,#0
        0x0000c1ec:    2500        .%      MOVS     r5,#0
        0x0000c1ee:    2600        .&      MOVS     r6,#0
        0x0000c1f0:    3a10        .:      SUBS     r2,r2,#0x10
        0x0000c1f2:    bf28        (.      IT       CS
        0x0000c1f4:    c178        x.      STMCS    r1!,{r3-r6}
        0x0000c1f6:    d8fb        ..      BHI      0xc1f0 ; __scatterload_zeroinit + 8
        0x0000c1f8:    0752        R.      LSLS     r2,r2,#29
        0x0000c1fa:    bf28        (.      IT       CS
        0x0000c1fc:    c130        0.      STMCS    r1!,{r4,r5}
        0x0000c1fe:    bf48        H.      IT       MI
        0x0000c200:    600b        .`      STRMI    r3,[r1,#0]
        0x0000c202:    4770        pG      BX       lr
    .ARM.Collect$$libinit$$00000000
    __rt_lib_init
        0x0000c204:    b51f        ..      PUSH     {r0-r4,lr}
    .ARM.Collect$$libinit$$00000001
    __rt_lib_init_fp_1
        0x0000c206:    f006fa98    ....    BL       _fp_init ; 0x1273a
    .ARM.Collect$$libinit$$00000004
    .ARM.Collect$$libinit$$00000006
    .ARM.Collect$$libinit$$0000000C
    .ARM.Collect$$libinit$$0000000E
    .ARM.Collect$$libinit$$00000010
    .ARM.Collect$$libinit$$00000013
    .ARM.Collect$$libinit$$00000015
    .ARM.Collect$$libinit$$00000017
    .ARM.Collect$$libinit$$00000019
    .ARM.Collect$$libinit$$0000001B
    .ARM.Collect$$libinit$$0000001D
    .ARM.Collect$$libinit$$0000001F
    .ARM.Collect$$libinit$$00000021
    .ARM.Collect$$libinit$$00000023
    .ARM.Collect$$libinit$$00000025
    .ARM.Collect$$libinit$$00000027
    .ARM.Collect$$libinit$$0000002E
    .ARM.Collect$$libinit$$00000030
    .ARM.Collect$$libinit$$00000032
    .ARM.Collect$$libinit$$00000034
    .ARM.Collect$$libinit$$00000035
    __rt_lib_init_alloca_1
    __rt_lib_init_argv_1
    __rt_lib_init_atexit_1
    __rt_lib_init_clock_1
    __rt_lib_init_cpp_1
    __rt_lib_init_exceptions_1
    __rt_lib_init_fp_trap_1
    __rt_lib_init_getenv_1
    __rt_lib_init_heap_1
    __rt_lib_init_lc_collate_1
    __rt_lib_init_lc_ctype_1
    __rt_lib_init_lc_monetary_1
    __rt_lib_init_lc_numeric_1
    __rt_lib_init_lc_time_1
    __rt_lib_init_preinit_1
    __rt_lib_init_rand_1
    __rt_lib_init_relocate_pie_1
    __rt_lib_init_return
    __rt_lib_init_signal_1
    __rt_lib_init_stdio_1
    __rt_lib_init_user_alloc_1
        0x0000c20a:    bd1f        ..      POP      {r0-r4,pc}
    .ARM.Collect$$libshutdown$$00000000
    __rt_lib_shutdown
        0x0000c20c:    b510        ..      PUSH     {r4,lr}
    .ARM.Collect$$libshutdown$$00000002
    .ARM.Collect$$libshutdown$$00000004
    .ARM.Collect$$libshutdown$$00000007
    .ARM.Collect$$libshutdown$$0000000A
    .ARM.Collect$$libshutdown$$0000000C
    .ARM.Collect$$libshutdown$$0000000F
    .ARM.Collect$$libshutdown$$00000010
    __rt_lib_shutdown_cpp_1
    __rt_lib_shutdown_fp_trap_1
    __rt_lib_shutdown_heap_1
    __rt_lib_shutdown_return
    __rt_lib_shutdown_signal_1
    __rt_lib_shutdown_stdio_1
    __rt_lib_shutdown_user_alloc_1
        0x0000c20e:    bd10        ..      POP      {r4,pc}
    .ARM.Collect$$rtentry$$00000000
    .ARM.Collect$$rtentry$$00000002
    .ARM.Collect$$rtentry$$00000004
    __rt_entry
    __rt_entry_presh_1
    __rt_entry_sh
        0x0000c210:    f000f8bb    ....    BL       __user_setup_stackheap ; 0xc38a
        0x0000c214:    4611        .F      MOV      r1,r2
    .ARM.Collect$$rtentry$$00000009
    .ARM.Collect$$rtentry$$0000000A
    __rt_entry_li
    __rt_entry_postsh_1
        0x0000c216:    f7fffff5    ....    BL       __rt_lib_init ; 0xc204
    .ARM.Collect$$rtentry$$0000000C
    .ARM.Collect$$rtentry$$0000000D
    __rt_entry_main
    __rt_entry_postli_1
        0x0000c21a:    f005fa33    ..3.    BL       main ; 0x11684
        0x0000c21e:    f000f8d9    ....    BL       exit ; 0xc3d4
    .ARM.Collect$$rtexit$$00000000
    __rt_exit
        0x0000c222:    b403        ..      PUSH     {r0,r1}
    .ARM.Collect$$rtexit$$00000002
    .ARM.Collect$$rtexit$$00000003
    __rt_exit_ls
    __rt_exit_prels_1
        0x0000c224:    f7fffff2    ....    BL       __rt_lib_shutdown ; 0xc20c
    .ARM.Collect$$rtexit$$00000004
    __rt_exit_exit
        0x0000c228:    bc03        ..      POP      {r0,r1}
        0x0000c22a:    f000f8e1    ....    BL       _sys_exit ; 0xc3f0
        0x0000c22e:    0000        ..      MOVS     r0,r0
    .text
    $v0
    __user_initial_stackheap
        0x0000c230:    4802        .H      LDR      r0,[pc,#8] ; [0xc23c] = 0x100163d0
        0x0000c232:    4903        .I      LDR      r1,[pc,#12] ; [0xc240] = 0x10011000
        0x0000c234:    4a01        .J      LDR      r2,[pc,#4] ; [0xc23c] = 0x100163d0
        0x0000c236:    4b03        .K      LDR      r3,[pc,#12] ; [0xc244] = 0x10010000
        0x0000c238:    4770        pG      BX       lr
    $d
        0x0000c23a:    0000        ..      DCW    0
        0x0000c23c:    100163d0    .c..    DCD    268526544
        0x0000c240:    10011000    ....    DCD    268505088
        0x0000c244:    10010000    ....    DCD    268500992
    $t
    .text
    __aeabi_memcpy
    __rt_memcpy
        0x0000c248:    2a03        .*      CMP      r2,#3
        0x0000c24a:    f2408030    @.0.    BLS.W    _memcpy_lastbytes ; 0xc2ae
        0x0000c24e:    f0100c03    ....    ANDS     r12,r0,#3
        0x0000c252:    f0008015    ....    BEQ.W    0xc280 ; __aeabi_memcpy + 56
        0x0000c256:    f8113b01    ...;    LDRB     r3,[r1],#1
        0x0000c25a:    f1bc0f02    ....    CMP      r12,#2
        0x0000c25e:    4462        bD      ADD      r2,r2,r12
        0x0000c260:    bf98        ..      IT       LS
        0x0000c262:    f811cb01    ....    LDRBLS   r12,[r1],#1
        0x0000c266:    f8003b01    ...;    STRB     r3,[r0],#1
        0x0000c26a:    bf38        8.      IT       CC
        0x0000c26c:    f8113b01    ...;    LDRBCC   r3,[r1],#1
        0x0000c270:    f1a20204    ....    SUB      r2,r2,#4
        0x0000c274:    bf98        ..      IT       LS
        0x0000c276:    f800cb01    ....    STRBLS   r12,[r0],#1
        0x0000c27a:    bf38        8.      IT       CC
        0x0000c27c:    f8003b01    ...;    STRBCC   r3,[r0],#1
        0x0000c280:    f0110303    ....    ANDS     r3,r1,#3
        0x0000c284:    f000804f    ..O.    BEQ.W    __aeabi_memcpy4 ; 0xc326
        0x0000c288:    3a08        .:      SUBS     r2,r2,#8
        0x0000c28a:    f0c08008    ....    BCC.W    0xc29e ; __aeabi_memcpy + 86
        0x0000c28e:    f8513b04    Q..;    LDR      r3,[r1],#4
        0x0000c292:    3a08        .:      SUBS     r2,r2,#8
        0x0000c294:    f851cb04    Q...    LDR      r12,[r1],#4
        0x0000c298:    e8a01008    ....    STM      r0!,{r3,r12}
        0x0000c29c:    e7f5        ..      B        0xc28a ; __aeabi_memcpy + 66
        0x0000c29e:    1d12        ..      ADDS     r2,r2,#4
        0x0000c2a0:    bf5c        \.      ITT      PL
        0x0000c2a2:    f8513b04    Q..;    LDRPL    r3,[r1],#4
        0x0000c2a6:    f8403b04    @..;    STRPL    r3,[r0],#4
        0x0000c2aa:    f3af8000    ....    NOP.W    
    _memcpy_lastbytes
        0x0000c2ae:    07d2        ..      LSLS     r2,r2,#31
        0x0000c2b0:    bf24        $.      ITT      CS
        0x0000c2b2:    f8113b01    ...;    LDRBCS   r3,[r1],#1
        0x0000c2b6:    f811cb01    ....    LDRBCS   r12,[r1],#1
        0x0000c2ba:    bf48        H.      IT       MI
        0x0000c2bc:    f8112b01    ...+    LDRBMI   r2,[r1],#1
        0x0000c2c0:    bf24        $.      ITT      CS
        0x0000c2c2:    f8003b01    ...;    STRBCS   r3,[r0],#1
        0x0000c2c6:    f800cb01    ....    STRBCS   r12,[r0],#1
        0x0000c2ca:    bf48        H.      IT       MI
        0x0000c2cc:    f8002b01    ...+    STRBMI   r2,[r0],#1
        0x0000c2d0:    4770        pG      BX       lr
    .text
    __aeabi_memclr4
    __aeabi_memclr8
    __rt_memclr_w
        0x0000c2d2:    f04f0200    O...    MOV      r2,#0
    _memset_w
        0x0000c2d6:    b500        ..      PUSH     {lr}
        0x0000c2d8:    4613        .F      MOV      r3,r2
        0x0000c2da:    4694        .F      MOV      r12,r2
        0x0000c2dc:    4696        .F      MOV      lr,r2
        0x0000c2de:    3920         9      SUBS     r1,r1,#0x20
        0x0000c2e0:    bf22        ".      ITTT     CS
        0x0000c2e2:    e8a0500c    ...P    STMCS    r0!,{r2,r3,r12,lr}
        0x0000c2e6:    e8a0500c    ...P    STMCS    r0!,{r2,r3,r12,lr}
        0x0000c2ea:    f1b10120    .. .    SUBSCS   r1,r1,#0x20
        0x0000c2ee:    f4bfaff7    ....    BCS.W    0xc2e0 ; _memset_w + 10
        0x0000c2f2:    0709        ..      LSLS     r1,r1,#28
        0x0000c2f4:    bf28        (.      IT       CS
        0x0000c2f6:    e8a0500c    ...P    STMCS    r0!,{r2,r3,r12,lr}
        0x0000c2fa:    bf48        H.      IT       MI
        0x0000c2fc:    c00c        ..      STMMI    r0!,{r2,r3}
        0x0000c2fe:    f85deb04    ]...    POP      {lr}
        0x0000c302:    0089        ..      LSLS     r1,r1,#2
        0x0000c304:    bf28        (.      IT       CS
        0x0000c306:    f8402b04    @..+    STRCS    r2,[r0],#4
        0x0000c30a:    bf08        ..      IT       EQ
        0x0000c30c:    4770        pG      BXEQ     lr
        0x0000c30e:    bf48        H.      IT       MI
        0x0000c310:    f8202b02     ..+    STRHMI   r2,[r0],#2
        0x0000c314:    f0114f80    ...O    TST      r1,#0x40000000
        0x0000c318:    bf18        ..      IT       NE
        0x0000c31a:    f8002b01    ...+    STRBNE   r2,[r0],#1
        0x0000c31e:    4770        pG      BX       lr
    .text
    __use_two_region_memory
        0x0000c320:    4770        pG      BX       lr
    __rt_heap_escrow$2region
        0x0000c322:    4770        pG      BX       lr
    __rt_heap_expand$2region
        0x0000c324:    4770        pG      BX       lr
    .text
    __aeabi_memcpy4
    __aeabi_memcpy8
    __rt_memcpy_w
        0x0000c326:    b510        ..      PUSH     {r4,lr}
        0x0000c328:    3a20         :      SUBS     r2,r2,#0x20
        0x0000c32a:    f0c0800b    ....    BCC.W    0xc344 ; __aeabi_memcpy4 + 30
        0x0000c32e:    e8b15018    ...P    LDM      r1!,{r3,r4,r12,lr}
        0x0000c332:    e8a05018    ...P    STM      r0!,{r3,r4,r12,lr}
        0x0000c336:    e8b15018    ...P    LDM      r1!,{r3,r4,r12,lr}
        0x0000c33a:    e8a05018    ...P    STM      r0!,{r3,r4,r12,lr}
        0x0000c33e:    3a20         :      SUBS     r2,r2,#0x20
        0x0000c340:    f4bfaff5    ....    BCS.W    0xc32e ; __aeabi_memcpy4 + 8
        0x0000c344:    ea5f7c02    _..|    LSLS     r12,r2,#28
        0x0000c348:    bf24        $.      ITT      CS
        0x0000c34a:    e8b15018    ...P    LDMCS    r1!,{r3,r4,r12,lr}
        0x0000c34e:    e8a05018    ...P    STMCS    r0!,{r3,r4,r12,lr}
        0x0000c352:    bf44        D.      ITT      MI
        0x0000c354:    c918        ..      LDMMI    r1!,{r3,r4}
        0x0000c356:    c018        ..      STMMI    r0!,{r3,r4}
        0x0000c358:    e8bd4010    ...@    POP      {r4,lr}
        0x0000c35c:    ea5f7c82    _..|    LSLS     r12,r2,#30
        0x0000c360:    bf24        $.      ITT      CS
        0x0000c362:    f8513b04    Q..;    LDRCS    r3,[r1],#4
        0x0000c366:    f8403b04    @..;    STRCS    r3,[r0],#4
        0x0000c36a:    bf08        ..      IT       EQ
        0x0000c36c:    4770        pG      BXEQ     lr
    _memcpy_lastbytes_aligned
        0x0000c36e:    07d2        ..      LSLS     r2,r2,#31
        0x0000c370:    bf28        (.      IT       CS
        0x0000c372:    f8313b02    1..;    LDRHCS   r3,[r1],#2
        0x0000c376:    bf48        H.      IT       MI
        0x0000c378:    f8112b01    ...+    LDRBMI   r2,[r1],#1
        0x0000c37c:    bf28        (.      IT       CS
        0x0000c37e:    f8203b02     ..;    STRHCS   r3,[r0],#2
        0x0000c382:    bf48        H.      IT       MI
        0x0000c384:    f8002b01    ...+    STRBMI   r2,[r0],#1
        0x0000c388:    4770        pG      BX       lr
    .text
    __user_setup_stackheap
        0x0000c38a:    4675        uF      MOV      r5,lr
        0x0000c38c:    f000f82c    ..,.    BL       __user_libspace ; 0xc3e8
        0x0000c390:    46ae        .F      MOV      lr,r5
        0x0000c392:    0005        ..      MOVS     r5,r0
        0x0000c394:    4669        iF      MOV      r1,sp
        0x0000c396:    4653        SF      MOV      r3,r10
        0x0000c398:    f0200007     ...    BIC      r0,r0,#7
        0x0000c39c:    4685        .F      MOV      sp,r0
        0x0000c39e:    b018        ..      ADD      sp,sp,#0x60
        0x0000c3a0:    b520         .      PUSH     {r5,lr}
        0x0000c3a2:    f7ffff45    ..E.    BL       __user_initial_stackheap ; 0xc230
        0x0000c3a6:    e8bd4020    .. @    POP      {r5,lr}
        0x0000c3aa:    f04f0600    O...    MOV      r6,#0
        0x0000c3ae:    f04f0700    O...    MOV      r7,#0
        0x0000c3b2:    f04f0800    O...    MOV      r8,#0
        0x0000c3b6:    f04f0b00    O...    MOV      r11,#0
        0x0000c3ba:    46ac        .F      MOV      r12,r5
        0x0000c3bc:    e8ac09c0    ....    STM      r12!,{r6-r8,r11}
        0x0000c3c0:    e8ac09c0    ....    STM      r12!,{r6-r8,r11}
        0x0000c3c4:    e8ac09c0    ....    STM      r12!,{r6-r8,r11}
        0x0000c3c8:    e8ac09c0    ....    STM      r12!,{r6-r8,r11}
        0x0000c3cc:    f0210107    !...    BIC      r1,r1,#7
        0x0000c3d0:    468d        .F      MOV      sp,r1
        0x0000c3d2:    4770        pG      BX       lr
    .text
    exit
        0x0000c3d4:    b510        ..      PUSH     {r4,lr}
        0x0000c3d6:    4604        .F      MOV      r4,r0
        0x0000c3d8:    f3af8000    ....    NOP.W    
        0x0000c3dc:    4620         F      MOV      r0,r4
        0x0000c3de:    e8bd4010    ...@    POP      {r4,lr}
        0x0000c3e2:    f7ffbf1e    ....    B.W      __rt_exit ; 0xc222
        0x0000c3e6:    0000        ..      MOVS     r0,r0
    .text
    __user_libspace
    __user_perproc_libspace
    __user_perthread_libspace
        0x0000c3e8:    4800        .H      LDR      r0,[pc,#0] ; [0xc3ec] = 0x10011170
        0x0000c3ea:    4770        pG      BX       lr
    $d
        0x0000c3ec:    10011170    p...    DCD    268505456
    $t
    .text
    _sys_exit
        0x0000c3f0:    4901        .I      LDR      r1,[pc,#4] ; [0xc3f8] = 0x20026
        0x0000c3f2:    2018        .       MOVS     r0,#0x18
        0x0000c3f4:    beab        ..      BKPT     #0xab
        0x0000c3f6:    e7fe        ..      B        0xc3f6 ; _sys_exit + 6
    $d
        0x0000c3f8:    00020026    &...    DCD    131110
    $t
    .text
    __I$use$semihosting
    __use_no_semihosting_swi
        0x0000c3fc:    4770        pG      BX       lr
    .text
    __semihosting_library_function
        0x0000c3fe:    0000        ..      MOVS     r0,r0
    $t.0
    HardFault_Handler
        0x0000c400:    f01e0f04    ....    TST      lr,#4
        0x0000c404:    bf0c        ..      ITE      EQ
        0x0000c406:    f3ef8008    ....    MRSEQ    r0,MSP
        0x0000c40a:    f3ef8009    ....    MRSNE    r0,PSP
        0x0000c40e:    4904        .I      LDR      r1,[pc,#16] ; [0xc420] = 0x10013bc8
        0x0000c410:    f5017100    ...q    ADD      r1,r1,#0x200
        0x0000c414:    f0210103    !...    BIC      r1,r1,#3
        0x0000c418:    468d        .F      MOV      sp,r1
        0x0000c41a:    f004b971    ..q.    B.W      am_util_faultisr_collect_data ; 0x10700
        0x0000c41e:    0000        ..      MOVS     r0,r0
    $d.4
        0x0000c420:    10013bc8    .;..    DCD    268516296
    $t.2
    __NVIC_EnableIRQ
        0x0000c424:    b081        ..      SUB      sp,sp,#4
        0x0000c426:    f88d0003    ....    STRB     r0,[sp,#3]
        0x0000c42a:    f99d0003    ....    LDRSB    r0,[sp,#3]
        0x0000c42e:    2800        .(      CMP      r0,#0
        0x0000c430:    d40e        ..      BMI      0xc450 ; __NVIC_EnableIRQ + 44
        0x0000c432:    e7ff        ..      B        0xc434 ; __NVIC_EnableIRQ + 16
        0x0000c434:    f99d1003    ....    LDRSB    r1,[sp,#3]
        0x0000c438:    f001021f    ....    AND      r2,r1,#0x1f
        0x0000c43c:    2001        .       MOVS     r0,#1
        0x0000c43e:    4090        .@      LSLS     r0,r0,r2
        0x0000c440:    094a        J.      LSRS     r2,r1,#5
        0x0000c442:    f24e1100    N...    MOVW     r1,#0xe100
        0x0000c446:    f2ce0100    ....    MOVT     r1,#0xe000
        0x0000c44a:    f8410022    A.".    STR      r0,[r1,r2,LSL #2]
        0x0000c44e:    e7ff        ..      B        0xc450 ; __NVIC_EnableIRQ + 44
        0x0000c450:    b001        ..      ADD      sp,sp,#4
        0x0000c452:    4770        pG      BX       lr
    am_bsp_itm_printf_enable
        0x0000c454:    b580        ..      PUSH     {r7,lr}
        0x0000c456:    b086        ..      SUB      sp,sp,#0x18
        0x0000c458:    f24110d0    A...    MOV      r0,#0x11d0
        0x0000c45c:    f2c10001    ....    MOVT     r0,#0x1001
        0x0000c460:    2101        .!      MOVS     r1,#1
        0x0000c462:    6001        .`      STR      r1,[r0,#0]
        0x0000c464:    f002f9a0    ....    BL       am_hal_itm_enable ; 0xe7a8
        0x0000c468:    f2442040    D.@     MOV      r0,#0x4240
        0x0000c46c:    f2c0000f    ....    MOVT     r0,#0xf
        0x0000c470:    9001        ..      STR      r0,[sp,#4]
        0x0000c472:    a801        ..      ADD      r0,sp,#4
        0x0000c474:    f004f8b0    ....    BL       am_hal_tpiu_enable ; 0x105d8
        0x0000c478:    f6422030    B.0     MOV      r0,#0x2a30
        0x0000c47c:    f2c00001    ....    MOVT     r0,#1
        0x0000c480:    6801        .h      LDR      r1,[r0,#0]
        0x0000c482:    2029        )       MOVS     r0,#0x29
        0x0000c484:    f001fff4    ....    BL       am_hal_gpio_pinconfig ; 0xe470
        0x0000c488:    f64e0001    N...    MOV      r0,#0xe801
        0x0000c48c:    f2c00000    ....    MOVT     r0,#0
        0x0000c490:    f004fafa    ....    BL       am_util_stdio_printf_init ; 0x10a88
        0x0000c494:    b006        ..      ADD      sp,sp,#0x18
        0x0000c496:    bd80        ..      POP      {r7,pc}
    am_bsp_low_power_init
        0x0000c498:    b570        p.      PUSH     {r4-r6,lr}
        0x0000c49a:    f003ff03    ....    BL       am_hal_pwrctrl_low_power_init ; 0x102a4
        0x0000c49e:    f004f891    ....    BL       am_hal_rtc_osc_disable ; 0x105c4
        0x0000c4a2:    f64220b4    B..     MOV      r0,#0x2ab4
        0x0000c4a6:    f24106d8    A...    MOV      r6,#0x10d8
        0x0000c4aa:    f2c00001    ....    MOVT     r0,#1
        0x0000c4ae:    f2c10601    ....    MOVT     r6,#0x1001
        0x0000c4b2:    6804        .h      LDR      r4,[r0,#0]
        0x0000c4b4:    6835        5h      LDR      r5,[r6,#0]
        0x0000c4b6:    4621        !F      MOV      r1,r4
        0x0000c4b8:    4628        (F      MOV      r0,r5
        0x0000c4ba:    f001ffd9    ....    BL       am_hal_gpio_pinconfig ; 0xe470
        0x0000c4be:    4628        (F      MOV      r0,r5
        0x0000c4c0:    2103        .!      MOVS     r1,#3
        0x0000c4c2:    f002f90b    ....    BL       am_hal_gpio_state_write ; 0xe6dc
        0x0000c4c6:    4628        (F      MOV      r0,r5
        0x0000c4c8:    2100        .!      MOVS     r1,#0
        0x0000c4ca:    f002f907    ....    BL       am_hal_gpio_state_write ; 0xe6dc
        0x0000c4ce:    68b5        .h      LDR      r5,[r6,#8]
        0x0000c4d0:    4621        !F      MOV      r1,r4
        0x0000c4d2:    4628        (F      MOV      r0,r5
        0x0000c4d4:    f001ffcc    ....    BL       am_hal_gpio_pinconfig ; 0xe470
        0x0000c4d8:    4628        (F      MOV      r0,r5
        0x0000c4da:    2103        .!      MOVS     r1,#3
        0x0000c4dc:    f002f8fe    ....    BL       am_hal_gpio_state_write ; 0xe6dc
        0x0000c4e0:    4628        (F      MOV      r0,r5
        0x0000c4e2:    2100        .!      MOVS     r1,#0
        0x0000c4e4:    f002f8fa    ....    BL       am_hal_gpio_state_write ; 0xe6dc
        0x0000c4e8:    6935        5i      LDR      r5,[r6,#0x10]
        0x0000c4ea:    4621        !F      MOV      r1,r4
        0x0000c4ec:    4628        (F      MOV      r0,r5
        0x0000c4ee:    f001ffbf    ....    BL       am_hal_gpio_pinconfig ; 0xe470
        0x0000c4f2:    4628        (F      MOV      r0,r5
        0x0000c4f4:    2103        .!      MOVS     r1,#3
        0x0000c4f6:    f002f8f1    ....    BL       am_hal_gpio_state_write ; 0xe6dc
        0x0000c4fa:    4628        (F      MOV      r0,r5
        0x0000c4fc:    2100        .!      MOVS     r1,#0
        0x0000c4fe:    f002f8ed    ....    BL       am_hal_gpio_state_write ; 0xe6dc
        0x0000c502:    69b5        .i      LDR      r5,[r6,#0x18]
        0x0000c504:    4621        !F      MOV      r1,r4
        0x0000c506:    4628        (F      MOV      r0,r5
        0x0000c508:    f001ffb2    ....    BL       am_hal_gpio_pinconfig ; 0xe470
        0x0000c50c:    4628        (F      MOV      r0,r5
        0x0000c50e:    2103        .!      MOVS     r1,#3
        0x0000c510:    f002f8e4    ....    BL       am_hal_gpio_state_write ; 0xe6dc
        0x0000c514:    4628        (F      MOV      r0,r5
        0x0000c516:    2100        .!      MOVS     r1,#0
        0x0000c518:    f002f8e0    ....    BL       am_hal_gpio_state_write ; 0xe6dc
        0x0000c51c:    6a35        5j      LDR      r5,[r6,#0x20]
        0x0000c51e:    4621        !F      MOV      r1,r4
        0x0000c520:    4628        (F      MOV      r0,r5
        0x0000c522:    f001ffa5    ....    BL       am_hal_gpio_pinconfig ; 0xe470
        0x0000c526:    4628        (F      MOV      r0,r5
        0x0000c528:    2103        .!      MOVS     r1,#3
        0x0000c52a:    f002f8d7    ....    BL       am_hal_gpio_state_write ; 0xe6dc
        0x0000c52e:    4628        (F      MOV      r0,r5
        0x0000c530:    2100        .!      MOVS     r1,#0
        0x0000c532:    e8bd4070    ..p@    POP      {r4-r6,lr}
        0x0000c536:    f002b8d1    ....    B.W      am_hal_gpio_state_write ; 0xe6dc
        0x0000c53a:    0000        ..      MOVS     r0,r0
    am_bsp_mspi_pins_enable
        0x0000c53c:    e92d43f0    -..C    PUSH     {r4-r9,lr}
        0x0000c540:    b081        ..      SUB      sp,sp,#4
        0x0000c542:    2802        .(      CMP      r0,#2
        0x0000c544:    d04a        J.      BEQ      0xc5dc ; am_bsp_mspi_pins_enable + 160
        0x0000c546:    2801        .(      CMP      r0,#1
        0x0000c548:    f000808c    ....    BEQ.W    0xc664 ; am_bsp_mspi_pins_enable + 296
        0x0000c54c:    2800        .(      CMP      r0,#0
        0x0000c54e:    f04080cd    @...    BNE.W    0xc6ec ; am_bsp_mspi_pins_enable + 432
        0x0000c552:    2913        .)      CMP      r1,#0x13
        0x0000c554:    f20080ca    ....    BHI.W    0xc6ec ; am_bsp_mspi_pins_enable + 432
        0x0000c558:    f642294c    B.L)    MOV      r9,#0x2a4c
        0x0000c55c:    f6422440    B.@$    MOVW     r4,#0x2a40
        0x0000c560:    f642273c    B.<'    MOV      r7,#0x2a3c
        0x0000c564:    f6422234    B.4"    MOV      r2,#0x2a34
        0x0000c568:    f04f0818    O...    MOV      r8,#0x18
        0x0000c56c:    f2c00901    ....    MOVT     r9,#1
        0x0000c570:    251a        .%      MOVS     r5,#0x1a
        0x0000c572:    f2c00401    ....    MOVT     r4,#1
        0x0000c576:    2616        .&      MOVS     r6,#0x16
        0x0000c578:    f2c00701    ....    MOVT     r7,#1
        0x0000c57c:    2025        %       MOVS     r0,#0x25
        0x0000c57e:    f2c00201    ....    MOVT     r2,#1
        0x0000c582:    e8dff011    ....    TBH      [pc,r1,LSL #1]
    $d.15
        0x0000c586:    0268        h.      DCW    616
        0x0000c588:    02680193    ..h.    DCD    40370579
        0x0000c58c:    00b70015    ....    DCD    11993109
        0x0000c590:    00b300dd    ....    DCD    11731165
        0x0000c594:    00b300b3    ....    DCD    11731123
        0x0000c598:    026800b3    ..h.    DCD    40370355
        0x0000c59c:    02680015    ..h.    DCD    40370197
        0x0000c5a0:    00b70015    ....    DCD    11993109
        0x0000c5a4:    00b700dd    ....    DCD    11993309
        0x0000c5a8:    026800dd    ..h.    DCD    40370397
        0x0000c5ac:    bf000193    ....    DCD    3204448659
    $t.16
        0x0000c5b0:    f642294c    B.L)    MOV      r9,#0x2a4c
        0x0000c5b4:    f6422440    B.@$    MOVW     r4,#0x2a40
        0x0000c5b8:    f642273c    B.<'    MOV      r7,#0x2a3c
        0x0000c5bc:    f6422238    B.8"    MOV      r2,#0x2a38
        0x0000c5c0:    f04f0818    O...    MOV      r8,#0x18
        0x0000c5c4:    f2c00901    ....    MOVT     r9,#1
        0x0000c5c8:    251a        .%      MOVS     r5,#0x1a
        0x0000c5ca:    f2c00401    ....    MOVT     r4,#1
        0x0000c5ce:    2616        .&      MOVS     r6,#0x16
        0x0000c5d0:    f2c00701    ....    MOVT     r7,#1
        0x0000c5d4:    200c        .       MOVS     r0,#0xc
        0x0000c5d6:    f2c00201    ....    MOVT     r2,#1
        0x0000c5da:    e23c        <.      B        0xca56 ; am_bsp_mspi_pins_enable + 1306
        0x0000c5dc:    2913        .)      CMP      r1,#0x13
        0x0000c5de:    f2008085    ....    BHI.W    0xc6ec ; am_bsp_mspi_pins_enable + 432
        0x0000c5e2:    f6422998    B..)    MOV      r9,#0x2a98
        0x0000c5e6:    f642248c    B..$    MOV      r4,#0x2a8c
        0x0000c5ea:    f6422788    B..'    MOV      r7,#0x2a88
        0x0000c5ee:    f6422280    B.."    MOVW     r2,#0x2a80
        0x0000c5f2:    f04f0844    O.D.    MOV      r8,#0x44
        0x0000c5f6:    f2c00901    ....    MOVT     r9,#1
        0x0000c5fa:    2541        A%      MOVS     r5,#0x41
        0x0000c5fc:    f2c00401    ....    MOVT     r4,#1
        0x0000c600:    2640        @&      MOVS     r6,#0x40
        0x0000c602:    f2c00701    ....    MOVT     r7,#1
        0x0000c606:    203f        ?       MOVS     r0,#0x3f
        0x0000c608:    f2c00201    ....    MOVT     r2,#1
        0x0000c60c:    e8dff011    ....    TBH      [pc,r1,LSL #1]
    $d.17
        0x0000c610:    01640223    #.d.    DCD    23331363
        0x0000c614:    00140223    #...    DCD    1311267
        0x0000c618:    00e000ba    ....    DCD    14680250
        0x0000c61c:    006e006e    n.n.    DCD    7209070
        0x0000c620:    006e006e    n.n.    DCD    7209070
        0x0000c624:    00140223    #...    DCD    1311267
        0x0000c628:    00140223    #...    DCD    1311267
        0x0000c62c:    00e000ba    ....    DCD    14680250
        0x0000c630:    00e000ba    ....    DCD    14680250
        0x0000c634:    01640223    #.d.    DCD    23331363
    $t.18
        0x0000c638:    f6422998    B..)    MOV      r9,#0x2a98
        0x0000c63c:    f642248c    B..$    MOV      r4,#0x2a8c
        0x0000c640:    f6422788    B..'    MOV      r7,#0x2a88
        0x0000c644:    f6422284    B.."    MOV      r2,#0x2a84
        0x0000c648:    f04f0844    O.D.    MOV      r8,#0x44
        0x0000c64c:    f2c00901    ....    MOVT     r9,#1
        0x0000c650:    2541        A%      MOVS     r5,#0x41
        0x0000c652:    f2c00401    ....    MOVT     r4,#1
        0x0000c656:    2640        @&      MOVS     r6,#0x40
        0x0000c658:    f2c00701    ....    MOVT     r7,#1
        0x0000c65c:    203d        =       MOVS     r0,#0x3d
        0x0000c65e:    f2c00201    ....    MOVT     r2,#1
        0x0000c662:    e1f8        ..      B        0xca56 ; am_bsp_mspi_pins_enable + 1306
        0x0000c664:    2913        .)      CMP      r1,#0x13
        0x0000c666:    d841        A.      BHI      0xc6ec ; am_bsp_mspi_pins_enable + 432
        0x0000c668:    f642297c    B.|)    MOV      r9,#0x2a7c
        0x0000c66c:    f642245c    B.\$    MOV      r4,#0x2a5c
        0x0000c670:    f6422758    B.X'    MOV      r7,#0x2a58
        0x0000c674:    f6422250    B.P"    MOV      r2,#0x2a50
        0x0000c678:    f04f083b    O.;.    MOV      r8,#0x3b
        0x0000c67c:    f2c00901    ....    MOVT     r9,#1
        0x0000c680:    2534        4%      MOVS     r5,#0x34
        0x0000c682:    f2c00401    ....    MOVT     r4,#1
        0x0000c686:    2633        3&      MOVS     r6,#0x33
        0x0000c688:    f2c00701    ....    MOVT     r7,#1
        0x0000c68c:    2032        2       MOVS     r0,#0x32
        0x0000c68e:    f2c00201    ....    MOVT     r2,#1
        0x0000c692:    e8dff011    ....    TBH      [pc,r1,LSL #1]
    $d.19
        0x0000c696:    01e0        ..      DCW    480
        0x0000c698:    01e00137    7...    DCD    31457591
        0x0000c69c:    00bf0015    ....    DCD    12517397
        0x0000c6a0:    014d00e5    ..M.    DCD    21823717
        0x0000c6a4:    002b019b    ..+.    DCD    2818459
        0x0000c6a8:    01e0002b    +...    DCD    31457323
        0x0000c6ac:    01e00015    ....    DCD    31457301
        0x0000c6b0:    00bf0015    ....    DCD    12517397
        0x0000c6b4:    00bf00e5    ....    DCD    12517605
        0x0000c6b8:    01e000e5    ....    DCD    31457509
        0x0000c6bc:    bf000137    7...    DCD    3204448567
    $t.20
        0x0000c6c0:    f642297c    B.|)    MOV      r9,#0x2a7c
        0x0000c6c4:    f642246c    B.l$    MOV      r4,#0x2a6c
        0x0000c6c8:    f6422768    B.h'    MOV      r7,#0x2a68
        0x0000c6cc:    f6422254    B.T"    MOV      r2,#0x2a54
        0x0000c6d0:    f04f083b    O.;.    MOV      r8,#0x3b
        0x0000c6d4:    f2c00901    ....    MOVT     r9,#1
        0x0000c6d8:    2538        8%      MOVS     r5,#0x38
        0x0000c6da:    f2c00401    ....    MOVT     r4,#1
        0x0000c6de:    2637        7&      MOVS     r6,#0x37
        0x0000c6e0:    f2c00701    ....    MOVT     r7,#1
        0x0000c6e4:    203e        >       MOVS     r0,#0x3e
        0x0000c6e6:    f2c00201    ....    MOVT     r2,#1
        0x0000c6ea:    e1b4        ..      B        0xca56 ; am_bsp_mspi_pins_enable + 1306
        0x0000c6ec:    b001        ..      ADD      sp,sp,#4
        0x0000c6ee:    e8bd83f0    ....    POP      {r4-r9,pc}
        0x0000c6f2:    bf00        ..      NOP      
        0x0000c6f4:    f64210d4    B...    MOV      r0,#0x29d4
        0x0000c6f8:    f2c00001    ....    MOVT     r0,#1
        0x0000c6fc:    6801        .h      LDR      r1,[r0,#0]
        0x0000c6fe:    201c        .       MOVS     r0,#0x1c
        0x0000c700:    f001feb6    ....    BL       am_hal_gpio_pinconfig ; 0xe470
        0x0000c704:    f64210d8    B...    MOV      r0,#0x29d8
        0x0000c708:    f2c00001    ....    MOVT     r0,#1
        0x0000c70c:    6801        .h      LDR      r1,[r0,#0]
        0x0000c70e:    2016        .       MOVS     r0,#0x16
        0x0000c710:    f001feae    ....    BL       am_hal_gpio_pinconfig ; 0xe470
        0x0000c714:    f64219e8    B...    MOV      r9,#0x29e8
        0x0000c718:    f64214e4    B...    MOV      r4,#0x29e4
        0x0000c71c:    f64217e0    B...    MOV      r7,#0x29e0
        0x0000c720:    f64212dc    B...    MOV      r2,#0x29dc
        0x0000c724:    f04f0818    O...    MOV      r8,#0x18
        0x0000c728:    f2c00901    ....    MOVT     r9,#1
        0x0000c72c:    2517        .%      MOVS     r5,#0x17
        0x0000c72e:    f2c00401    ....    MOVT     r4,#1
        0x0000c732:    2604        .&      MOVS     r6,#4
        0x0000c734:    f2c00701    ....    MOVT     r7,#1
        0x0000c738:    201a        .       MOVS     r0,#0x1a
        0x0000c73a:    f2c00201    ....    MOVT     r2,#1
        0x0000c73e:    e18a        ..      B        0xca56 ; am_bsp_mspi_pins_enable + 1306
        0x0000c740:    f6422038    B.8     MOV      r0,#0x2a38
        0x0000c744:    f2c00001    ....    MOVT     r0,#1
        0x0000c748:    6801        .h      LDR      r1,[r0,#0]
        0x0000c74a:    200c        .       MOVS     r0,#0xc
        0x0000c74c:    f001fe90    ....    BL       am_hal_gpio_pinconfig ; 0xe470
        0x0000c750:    6839        9h      LDR      r1,[r7,#0]
        0x0000c752:    2016        .       MOVS     r0,#0x16
        0x0000c754:    f001fe8c    ....    BL       am_hal_gpio_pinconfig ; 0xe470
        0x0000c758:    f642294c    B.L)    MOV      r9,#0x2a4c
        0x0000c75c:    f6422448    B.H$    MOV      r4,#0x2a48
        0x0000c760:    f6422744    B.D'    MOV      r7,#0x2a44
        0x0000c764:    f6422240    B.@"    MOVW     r2,#0x2a40
        0x0000c768:    f04f0818    O...    MOV      r8,#0x18
        0x0000c76c:    f2c00901    ....    MOVT     r9,#1
        0x0000c770:    2517        .%      MOVS     r5,#0x17
        0x0000c772:    f2c00401    ....    MOVT     r4,#1
        0x0000c776:    2604        .&      MOVS     r6,#4
        0x0000c778:    f2c00701    ....    MOVT     r7,#1
        0x0000c77c:    201a        .       MOVS     r0,#0x1a
        0x0000c77e:    f2c00201    ....    MOVT     r2,#1
        0x0000c782:    e168        h.      B        0xca56 ; am_bsp_mspi_pins_enable + 1306
        0x0000c784:    f64210ec    B...    MOV      r0,#0x29ec
        0x0000c788:    f2c00001    ....    MOVT     r0,#1
        0x0000c78c:    6801        .h      LDR      r1,[r0,#0]
        0x0000c78e:    203f        ?       MOVS     r0,#0x3f
        0x0000c790:    f001fe6e    ..n.    BL       am_hal_gpio_pinconfig ; 0xe470
        0x0000c794:    f64210f0    B...    MOV      r0,#0x29f0
        0x0000c798:    f2c00001    ....    MOVT     r0,#1
        0x0000c79c:    6801        .h      LDR      r1,[r0,#0]
        0x0000c79e:    2040        @       MOVS     r0,#0x40
        0x0000c7a0:    f001fe66    ..f.    BL       am_hal_gpio_pinconfig ; 0xe470
        0x0000c7a4:    f6422900    B..)    MOVW     r9,#0x2a00
        0x0000c7a8:    f64214fc    B...    MOV      r4,#0x29fc
        0x0000c7ac:    f64217f8    B...    MOV      r7,#0x29f8
        0x0000c7b0:    f64212f4    B...    MOV      r2,#0x29f4
        0x0000c7b4:    f04f0844    O.D.    MOV      r8,#0x44
        0x0000c7b8:    f2c00901    ....    MOVT     r9,#1
        0x0000c7bc:    2543        C%      MOVS     r5,#0x43
        0x0000c7be:    f2c00401    ....    MOVT     r4,#1
        0x0000c7c2:    2642        B&      MOVS     r6,#0x42
        0x0000c7c4:    f2c00701    ....    MOVT     r7,#1
        0x0000c7c8:    2041        A       MOVS     r0,#0x41
        0x0000c7ca:    f2c00201    ....    MOVT     r2,#1
        0x0000c7ce:    e142        B.      B        0xca56 ; am_bsp_mspi_pins_enable + 1306
        0x0000c7d0:    f6422084    B..     MOV      r0,#0x2a84
        0x0000c7d4:    f2c00001    ....    MOVT     r0,#1
        0x0000c7d8:    6801        .h      LDR      r1,[r0,#0]
        0x0000c7da:    203d        =       MOVS     r0,#0x3d
        0x0000c7dc:    f001fe48    ..H.    BL       am_hal_gpio_pinconfig ; 0xe470
        0x0000c7e0:    6839        9h      LDR      r1,[r7,#0]
        0x0000c7e2:    2040        @       MOVS     r0,#0x40
        0x0000c7e4:    f001fe44    ..D.    BL       am_hal_gpio_pinconfig ; 0xe470
        0x0000c7e8:    f6422998    B..)    MOV      r9,#0x2a98
        0x0000c7ec:    f6422494    B..$    MOV      r4,#0x2a94
        0x0000c7f0:    f6422790    B..'    MOV      r7,#0x2a90
        0x0000c7f4:    f642228c    B.."    MOV      r2,#0x2a8c
        0x0000c7f8:    f04f0844    O.D.    MOV      r8,#0x44
        0x0000c7fc:    f2c00901    ....    MOVT     r9,#1
        0x0000c800:    2543        C%      MOVS     r5,#0x43
        0x0000c802:    f2c00401    ....    MOVT     r4,#1
        0x0000c806:    2642        B&      MOVS     r6,#0x42
        0x0000c808:    f2c00701    ....    MOVT     r7,#1
        0x0000c80c:    2041        A       MOVS     r0,#0x41
        0x0000c80e:    f2c00201    ....    MOVT     r2,#1
        0x0000c812:    e120         .      B        0xca56 ; am_bsp_mspi_pins_enable + 1306
        0x0000c814:    f642209c    B..     MOV      r0,#0x2a9c
        0x0000c818:    f2c00001    ....    MOVT     r0,#1
        0x0000c81c:    6801        .h      LDR      r1,[r0,#0]
        0x0000c81e:    2045        E       MOVS     r0,#0x45
        0x0000c820:    f001fe26    ..&.    BL       am_hal_gpio_pinconfig ; 0xe470
        0x0000c824:    f64220a0    B..     MOV      r0,#0x2aa0
        0x0000c828:    f2c00001    ....    MOVT     r0,#1
        0x0000c82c:    6801        .h      LDR      r1,[r0,#0]
        0x0000c82e:    2033        3       MOVS     r0,#0x33
        0x0000c830:    f001fe1e    ....    BL       am_hal_gpio_pinconfig ; 0xe470
        0x0000c834:    f64229b0    B..)    MOV      r9,#0x2ab0
        0x0000c838:    f64224ac    B..$    MOV      r4,#0x2aac
        0x0000c83c:    f64227a8    B..'    MOV      r7,#0x2aa8
        0x0000c840:    f64222a4    B.."    MOV      r2,#0x2aa4
        0x0000c844:    f04f083b    O.;.    MOV      r8,#0x3b
        0x0000c848:    f2c00901    ....    MOVT     r9,#1
        0x0000c84c:    2536        6%      MOVS     r5,#0x36
        0x0000c84e:    f2c00401    ....    MOVT     r4,#1
        0x0000c852:    2635        5&      MOVS     r6,#0x35
        0x0000c854:    f2c00701    ....    MOVT     r7,#1
        0x0000c858:    2034        4       MOVS     r0,#0x34
        0x0000c85a:    f2c00201    ....    MOVT     r2,#1
        0x0000c85e:    e0fa        ..      B        0xca56 ; am_bsp_mspi_pins_enable + 1306
        0x0000c860:    f6422054    B.T     MOV      r0,#0x2a54
        0x0000c864:    f2c00001    ....    MOVT     r0,#1
        0x0000c868:    6801        .h      LDR      r1,[r0,#0]
        0x0000c86a:    203e        >       MOVS     r0,#0x3e
        0x0000c86c:    f001fe00    ....    BL       am_hal_gpio_pinconfig ; 0xe470
        0x0000c870:    f6422068    B.h     MOV      r0,#0x2a68
        0x0000c874:    f2c00001    ....    MOVT     r0,#1
        0x0000c878:    6801        .h      LDR      r1,[r0,#0]
        0x0000c87a:    2037        7       MOVS     r0,#0x37
        0x0000c87c:    f001fdf8    ....    BL       am_hal_gpio_pinconfig ; 0xe470
        0x0000c880:    f642297c    B.|)    MOV      r9,#0x2a7c
        0x0000c884:    f6422474    B.t$    MOV      r4,#0x2a74
        0x0000c888:    f6422770    B.p'    MOV      r7,#0x2a70
        0x0000c88c:    f642226c    B.l"    MOV      r2,#0x2a6c
        0x0000c890:    f04f083b    O.;.    MOV      r8,#0x3b
        0x0000c894:    f2c00901    ....    MOVT     r9,#1
        0x0000c898:    253a        :%      MOVS     r5,#0x3a
        0x0000c89a:    f2c00401    ....    MOVT     r4,#1
        0x0000c89e:    2639        9&      MOVS     r6,#0x39
        0x0000c8a0:    f2c00701    ....    MOVT     r7,#1
        0x0000c8a4:    2038        8       MOVS     r0,#0x38
        0x0000c8a6:    f2c00201    ....    MOVT     r2,#1
        0x0000c8aa:    e0d4        ..      B        0xca56 ; am_bsp_mspi_pins_enable + 1306
        0x0000c8ac:    f642294c    B.L)    MOV      r9,#0x2a4c
        0x0000c8b0:    f6422440    B.@$    MOVW     r4,#0x2a40
        0x0000c8b4:    f642273c    B.<'    MOV      r7,#0x2a3c
        0x0000c8b8:    f6422238    B.8"    MOV      r2,#0x2a38
        0x0000c8bc:    f04f0818    O...    MOV      r8,#0x18
        0x0000c8c0:    f2c00901    ....    MOVT     r9,#1
        0x0000c8c4:    251a        .%      MOVS     r5,#0x1a
        0x0000c8c6:    f2c00401    ....    MOVT     r4,#1
        0x0000c8ca:    2616        .&      MOVS     r6,#0x16
        0x0000c8cc:    f2c00701    ....    MOVT     r7,#1
        0x0000c8d0:    200c        .       MOVS     r0,#0xc
        0x0000c8d2:    f2c00201    ....    MOVT     r2,#1
        0x0000c8d6:    e0be        ..      B        0xca56 ; am_bsp_mspi_pins_enable + 1306
        0x0000c8d8:    f6422998    B..)    MOV      r9,#0x2a98
        0x0000c8dc:    f642248c    B..$    MOV      r4,#0x2a8c
        0x0000c8e0:    f6422788    B..'    MOV      r7,#0x2a88
        0x0000c8e4:    f6422284    B.."    MOV      r2,#0x2a84
        0x0000c8e8:    f04f0844    O.D.    MOV      r8,#0x44
        0x0000c8ec:    f2c00901    ....    MOVT     r9,#1
        0x0000c8f0:    2541        A%      MOVS     r5,#0x41
        0x0000c8f2:    f2c00401    ....    MOVT     r4,#1
        0x0000c8f6:    2640        @&      MOVS     r6,#0x40
        0x0000c8f8:    f2c00701    ....    MOVT     r7,#1
        0x0000c8fc:    203d        =       MOVS     r0,#0x3d
        0x0000c8fe:    f2c00201    ....    MOVT     r2,#1
        0x0000c902:    e0a8        ..      B        0xca56 ; am_bsp_mspi_pins_enable + 1306
        0x0000c904:    f642297c    B.|)    MOV      r9,#0x2a7c
        0x0000c908:    f642246c    B.l$    MOV      r4,#0x2a6c
        0x0000c90c:    f6422768    B.h'    MOV      r7,#0x2a68
        0x0000c910:    f6422254    B.T"    MOV      r2,#0x2a54
        0x0000c914:    f04f083b    O.;.    MOV      r8,#0x3b
        0x0000c918:    f2c00901    ....    MOVT     r9,#1
        0x0000c91c:    2538        8%      MOVS     r5,#0x38
        0x0000c91e:    f2c00401    ....    MOVT     r4,#1
        0x0000c922:    2637        7&      MOVS     r6,#0x37
        0x0000c924:    f2c00701    ....    MOVT     r7,#1
        0x0000c928:    203e        >       MOVS     r0,#0x3e
        0x0000c92a:    f2c00201    ....    MOVT     r2,#1
        0x0000c92e:    e092        ..      B        0xca56 ; am_bsp_mspi_pins_enable + 1306
        0x0000c930:    f6422004    B..     MOV      r0,#0x2a04
        0x0000c934:    f2c00001    ....    MOVT     r0,#1
        0x0000c938:    6801        .h      LDR      r1,[r0,#0]
        0x0000c93a:    2032        2       MOVS     r0,#0x32
        0x0000c93c:    f001fd98    ....    BL       am_hal_gpio_pinconfig ; 0xe470
        0x0000c940:    f6422008    B..     MOV      r0,#0x2a08
        0x0000c944:    f2c00001    ....    MOVT     r0,#1
        0x0000c948:    6801        .h      LDR      r1,[r0,#0]
        0x0000c94a:    2033        3       MOVS     r0,#0x33
        0x0000c94c:    f001fd90    ....    BL       am_hal_gpio_pinconfig ; 0xe470
        0x0000c950:    f642200c    B..     MOV      r0,#0x2a0c
        0x0000c954:    f2c00001    ....    MOVT     r0,#1
        0x0000c958:    6801        .h      LDR      r1,[r0,#0]
        0x0000c95a:    2034        4       MOVS     r0,#0x34
        0x0000c95c:    f001fd88    ....    BL       am_hal_gpio_pinconfig ; 0xe470
        0x0000c960:    f6422010    B..     MOV      r0,#0x2a10
        0x0000c964:    f2c00001    ....    MOVT     r0,#1
        0x0000c968:    6801        .h      LDR      r1,[r0,#0]
        0x0000c96a:    2035        5       MOVS     r0,#0x35
        0x0000c96c:    f001fd80    ....    BL       am_hal_gpio_pinconfig ; 0xe470
        0x0000c970:    f6422014    B..     MOV      r0,#0x2a14
        0x0000c974:    f2c00001    ....    MOVT     r0,#1
        0x0000c978:    6801        .h      LDR      r1,[r0,#0]
        0x0000c97a:    2036        6       MOVS     r0,#0x36
        0x0000c97c:    f001fd78    ..x.    BL       am_hal_gpio_pinconfig ; 0xe470
        0x0000c980:    f6422018    B..     MOV      r0,#0x2a18
        0x0000c984:    f2c00001    ....    MOVT     r0,#1
        0x0000c988:    6801        .h      LDR      r1,[r0,#0]
        0x0000c98a:    2037        7       MOVS     r0,#0x37
        0x0000c98c:    f001fd70    ..p.    BL       am_hal_gpio_pinconfig ; 0xe470
        0x0000c990:    f642201c    B..     MOV      r0,#0x2a1c
        0x0000c994:    f2c00001    ....    MOVT     r0,#1
        0x0000c998:    6801        .h      LDR      r1,[r0,#0]
        0x0000c99a:    2038        8       MOVS     r0,#0x38
        0x0000c99c:    f001fd68    ..h.    BL       am_hal_gpio_pinconfig ; 0xe470
        0x0000c9a0:    f6422928    B.()    MOV      r9,#0x2a28
        0x0000c9a4:    f642242c    B.,$    MOV      r4,#0x2a2c
        0x0000c9a8:    f6422724    B.$'    MOV      r7,#0x2a24
        0x0000c9ac:    f6422220    B. "    MOV      r2,#0x2a20
        0x0000c9b0:    f04f083c    O.<.    MOV      r8,#0x3c
        0x0000c9b4:    f2c00901    ....    MOVT     r9,#1
        0x0000c9b8:    253b        ;%      MOVS     r5,#0x3b
        0x0000c9ba:    f2c00401    ....    MOVT     r4,#1
        0x0000c9be:    263a        :&      MOVS     r6,#0x3a
        0x0000c9c0:    f2c00701    ....    MOVT     r7,#1
        0x0000c9c4:    2039        9       MOVS     r0,#0x39
        0x0000c9c6:    f2c00201    ....    MOVT     r2,#1
        0x0000c9ca:    e044        D.      B        0xca56 ; am_bsp_mspi_pins_enable + 1306
        0x0000c9cc:    f6422054    B.T     MOV      r0,#0x2a54
        0x0000c9d0:    f2c00001    ....    MOVT     r0,#1
        0x0000c9d4:    6801        .h      LDR      r1,[r0,#0]
        0x0000c9d6:    203e        >       MOVS     r0,#0x3e
        0x0000c9d8:    f001fd4a    ..J.    BL       am_hal_gpio_pinconfig ; 0xe470
        0x0000c9dc:    6839        9h      LDR      r1,[r7,#0]
        0x0000c9de:    2033        3       MOVS     r0,#0x33
        0x0000c9e0:    f001fd46    ..F.    BL       am_hal_gpio_pinconfig ; 0xe470
        0x0000c9e4:    6821        !h      LDR      r1,[r4,#0]
        0x0000c9e6:    2034        4       MOVS     r0,#0x34
        0x0000c9e8:    f001fd42    ..B.    BL       am_hal_gpio_pinconfig ; 0xe470
        0x0000c9ec:    f6422060    B.`     MOV      r0,#0x2a60
        0x0000c9f0:    f2c00001    ....    MOVT     r0,#1
        0x0000c9f4:    6801        .h      LDR      r1,[r0,#0]
        0x0000c9f6:    2035        5       MOVS     r0,#0x35
        0x0000c9f8:    f001fd3a    ..:.    BL       am_hal_gpio_pinconfig ; 0xe470
        0x0000c9fc:    f6422064    B.d     MOV      r0,#0x2a64
        0x0000ca00:    f2c00001    ....    MOVT     r0,#1
        0x0000ca04:    6801        .h      LDR      r1,[r0,#0]
        0x0000ca06:    2036        6       MOVS     r0,#0x36
        0x0000ca08:    f001fd32    ..2.    BL       am_hal_gpio_pinconfig ; 0xe470
        0x0000ca0c:    f6422068    B.h     MOV      r0,#0x2a68
        0x0000ca10:    f2c00001    ....    MOVT     r0,#1
        0x0000ca14:    6801        .h      LDR      r1,[r0,#0]
        0x0000ca16:    2037        7       MOVS     r0,#0x37
        0x0000ca18:    f001fd2a    ..*.    BL       am_hal_gpio_pinconfig ; 0xe470
        0x0000ca1c:    f642206c    B.l     MOV      r0,#0x2a6c
        0x0000ca20:    f2c00001    ....    MOVT     r0,#1
        0x0000ca24:    6801        .h      LDR      r1,[r0,#0]
        0x0000ca26:    2038        8       MOVS     r0,#0x38
        0x0000ca28:    f001fd22    ..".    BL       am_hal_gpio_pinconfig ; 0xe470
        0x0000ca2c:    f6422978    B.x)    MOV      r9,#0x2a78
        0x0000ca30:    f642247c    B.|$    MOV      r4,#0x2a7c
        0x0000ca34:    f6422774    B.t'    MOV      r7,#0x2a74
        0x0000ca38:    f6422270    B.p"    MOV      r2,#0x2a70
        0x0000ca3c:    f04f083c    O.<.    MOV      r8,#0x3c
        0x0000ca40:    f2c00901    ....    MOVT     r9,#1
        0x0000ca44:    253b        ;%      MOVS     r5,#0x3b
        0x0000ca46:    f2c00401    ....    MOVT     r4,#1
        0x0000ca4a:    263a        :&      MOVS     r6,#0x3a
        0x0000ca4c:    f2c00701    ....    MOVT     r7,#1
        0x0000ca50:    2039        9       MOVS     r0,#0x39
        0x0000ca52:    f2c00201    ....    MOVT     r2,#1
        0x0000ca56:    6811        .h      LDR      r1,[r2,#0]
        0x0000ca58:    f001fd0a    ....    BL       am_hal_gpio_pinconfig ; 0xe470
        0x0000ca5c:    6839        9h      LDR      r1,[r7,#0]
        0x0000ca5e:    4630        0F      MOV      r0,r6
        0x0000ca60:    f001fd06    ....    BL       am_hal_gpio_pinconfig ; 0xe470
        0x0000ca64:    6821        !h      LDR      r1,[r4,#0]
        0x0000ca66:    4628        (F      MOV      r0,r5
        0x0000ca68:    f001fd02    ....    BL       am_hal_gpio_pinconfig ; 0xe470
        0x0000ca6c:    f8d91000    ....    LDR      r1,[r9,#0]
        0x0000ca70:    4640        @F      MOV      r0,r8
        0x0000ca72:    b001        ..      ADD      sp,sp,#4
        0x0000ca74:    e8bd43f0    ...C    POP      {r4-r9,lr}
        0x0000ca78:    f001bcfa    ....    B.W      am_hal_gpio_pinconfig ; 0xe470
    am_device_deinit_flash
        0x0000ca7c:    b580        ..      PUSH     {r7,lr}
        0x0000ca7e:    b0a8        ..      SUB      sp,sp,#0xa0
        0x0000ca80:    9026        &.      STR      r0,[sp,#0x98]
        0x0000ca82:    9826        &.      LDR      r0,[sp,#0x98]
        0x0000ca84:    9024        $.      STR      r0,[sp,#0x90]
        0x0000ca86:    a804        ..      ADD      r0,sp,#0x10
        0x0000ca88:    9003        ..      STR      r0,[sp,#0xc]
        0x0000ca8a:    2180        .!      MOVS     r1,#0x80
        0x0000ca8c:    f7fffc21    ..!.    BL       __aeabi_memclr4 ; 0xc2d2
        0x0000ca90:    9903        ..      LDR      r1,[sp,#0xc]
        0x0000ca92:    9826        &.      LDR      r0,[sp,#0x98]
        0x0000ca94:    466a        jF      MOV      r2,sp
        0x0000ca96:    2300        .#      MOVS     r3,#0
        0x0000ca98:    6053        S`      STR      r3,[r2,#4]
        0x0000ca9a:    6011        .`      STR      r1,[r2,#0]
        0x0000ca9c:    2106        .!      MOVS     r1,#6
        0x0000ca9e:    461a        .F      MOV      r2,r3
        0x0000caa0:    f000f8fe    ....    BL       am_devices_mspi_atxp032_command_write ; 0xcca0
        0x0000caa4:    9025        %.      STR      r0,[sp,#0x94]
        0x0000caa6:    9825        %.      LDR      r0,[sp,#0x94]
        0x0000caa8:    b118        ..      CBZ      r0,0xcab2 ; am_device_deinit_flash + 54
        0x0000caaa:    e7ff        ..      B        0xcaac ; am_device_deinit_flash + 48
        0x0000caac:    2001        .       MOVS     r0,#1
        0x0000caae:    9027        '.      STR      r0,[sp,#0x9c]
        0x0000cab0:    e035        5.      B        0xcb1e ; am_device_deinit_flash + 162
        0x0000cab2:    9824        $.      LDR      r0,[sp,#0x90]
        0x0000cab4:    7b40        @{      LDRB     r0,[r0,#0xd]
        0x0000cab6:    4601        .F      MOV      r1,r0
        0x0000cab8:    9102        ..      STR      r1,[sp,#8]
        0x0000caba:    2802        .(      CMP      r0,#2
        0x0000cabc:    d305        ..      BCC      0xcaca ; am_device_deinit_flash + 78
        0x0000cabe:    e7ff        ..      B        0xcac0 ; am_device_deinit_flash + 68
        0x0000cac0:    9802        ..      LDR      r0,[sp,#8]
        0x0000cac2:    3804        .8      SUBS     r0,#4
        0x0000cac4:    2804        .(      CMP      r0,#4
        0x0000cac6:    d301        ..      BCC      0xcacc ; am_device_deinit_flash + 80
        0x0000cac8:    e012        ..      B        0xcaf0 ; am_device_deinit_flash + 116
        0x0000caca:    e014        ..      B        0xcaf6 ; am_device_deinit_flash + 122
        0x0000cacc:    9826        &.      LDR      r0,[sp,#0x98]
        0x0000cace:    466a        jF      MOV      r2,sp
        0x0000cad0:    2300        .#      MOVS     r3,#0
        0x0000cad2:    6053        S`      STR      r3,[r2,#4]
        0x0000cad4:    a904        ..      ADD      r1,sp,#0x10
        0x0000cad6:    6011        .`      STR      r1,[r2,#0]
        0x0000cad8:    21ff        .!      MOVS     r1,#0xff
        0x0000cada:    461a        .F      MOV      r2,r3
        0x0000cadc:    f000f8e0    ....    BL       am_devices_mspi_atxp032_command_write ; 0xcca0
        0x0000cae0:    9025        %.      STR      r0,[sp,#0x94]
        0x0000cae2:    9825        %.      LDR      r0,[sp,#0x94]
        0x0000cae4:    b118        ..      CBZ      r0,0xcaee ; am_device_deinit_flash + 114
        0x0000cae6:    e7ff        ..      B        0xcae8 ; am_device_deinit_flash + 108
        0x0000cae8:    2001        .       MOVS     r0,#1
        0x0000caea:    9027        '.      STR      r0,[sp,#0x9c]
        0x0000caec:    e017        ..      B        0xcb1e ; am_device_deinit_flash + 162
        0x0000caee:    e002        ..      B        0xcaf6 ; am_device_deinit_flash + 122
        0x0000caf0:    2001        .       MOVS     r0,#1
        0x0000caf2:    9027        '.      STR      r0,[sp,#0x9c]
        0x0000caf4:    e013        ..      B        0xcb1e ; am_device_deinit_flash + 162
        0x0000caf6:    9826        &.      LDR      r0,[sp,#0x98]
        0x0000caf8:    466a        jF      MOV      r2,sp
        0x0000cafa:    2300        .#      MOVS     r3,#0
        0x0000cafc:    6053        S`      STR      r3,[r2,#4]
        0x0000cafe:    a904        ..      ADD      r1,sp,#0x10
        0x0000cb00:    6011        .`      STR      r1,[r2,#0]
        0x0000cb02:    2104        .!      MOVS     r1,#4
        0x0000cb04:    461a        .F      MOV      r2,r3
        0x0000cb06:    f000f8cb    ....    BL       am_devices_mspi_atxp032_command_write ; 0xcca0
        0x0000cb0a:    9025        %.      STR      r0,[sp,#0x94]
        0x0000cb0c:    9825        %.      LDR      r0,[sp,#0x94]
        0x0000cb0e:    b118        ..      CBZ      r0,0xcb18 ; am_device_deinit_flash + 156
        0x0000cb10:    e7ff        ..      B        0xcb12 ; am_device_deinit_flash + 150
        0x0000cb12:    2001        .       MOVS     r0,#1
        0x0000cb14:    9027        '.      STR      r0,[sp,#0x9c]
        0x0000cb16:    e002        ..      B        0xcb1e ; am_device_deinit_flash + 162
        0x0000cb18:    2000        .       MOVS     r0,#0
        0x0000cb1a:    9027        '.      STR      r0,[sp,#0x9c]
        0x0000cb1c:    e7ff        ..      B        0xcb1e ; am_device_deinit_flash + 162
        0x0000cb1e:    9827        '.      LDR      r0,[sp,#0x9c]
        0x0000cb20:    b028        (.      ADD      sp,sp,#0xa0
        0x0000cb22:    bd80        ..      POP      {r7,pc}
    am_device_init_flash
        0x0000cb24:    b580        ..      PUSH     {r7,lr}
        0x0000cb26:    b0aa        ..      SUB      sp,sp,#0xa8
        0x0000cb28:    9028        (.      STR      r0,[sp,#0xa0]
        0x0000cb2a:    a808        ..      ADD      r0,sp,#0x20
        0x0000cb2c:    9003        ..      STR      r0,[sp,#0xc]
        0x0000cb2e:    2180        .!      MOVS     r1,#0x80
        0x0000cb30:    f7fffbcf    ....    BL       __aeabi_memclr4 ; 0xc2d2
        0x0000cb34:    9903        ..      LDR      r1,[sp,#0xc]
        0x0000cb36:    9828        (.      LDR      r0,[sp,#0xa0]
        0x0000cb38:    9007        ..      STR      r0,[sp,#0x1c]
        0x0000cb3a:    9828        (.      LDR      r0,[sp,#0xa0]
        0x0000cb3c:    466a        jF      MOV      r2,sp
        0x0000cb3e:    2300        .#      MOVS     r3,#0
        0x0000cb40:    9305        ..      STR      r3,[sp,#0x14]
        0x0000cb42:    6053        S`      STR      r3,[r2,#4]
        0x0000cb44:    6011        .`      STR      r1,[r2,#0]
        0x0000cb46:    2106        .!      MOVS     r1,#6
        0x0000cb48:    9104        ..      STR      r1,[sp,#0x10]
        0x0000cb4a:    461a        .F      MOV      r2,r3
        0x0000cb4c:    f000f8a8    ....    BL       am_devices_mspi_atxp032_command_write ; 0xcca0
        0x0000cb50:    9903        ..      LDR      r1,[sp,#0xc]
        0x0000cb52:    9b05        ..      LDR      r3,[sp,#0x14]
        0x0000cb54:    2003        .       MOVS     r0,#3
        0x0000cb56:    9008        ..      STR      r0,[sp,#0x20]
        0x0000cb58:    9828        (.      LDR      r0,[sp,#0xa0]
        0x0000cb5a:    466a        jF      MOV      r2,sp
        0x0000cb5c:    f04f0c02    O...    MOV      r12,#2
        0x0000cb60:    f8c2c004    ....    STR      r12,[r2,#4]
        0x0000cb64:    6011        .`      STR      r1,[r2,#0]
        0x0000cb66:    2171        q!      MOVS     r1,#0x71
        0x0000cb68:    461a        .F      MOV      r2,r3
        0x0000cb6a:    f000f899    ....    BL       am_devices_mspi_atxp032_command_write ; 0xcca0
        0x0000cb6e:    9a03        ..      LDR      r2,[sp,#0xc]
        0x0000cb70:    9904        ..      LDR      r1,[sp,#0x10]
        0x0000cb72:    9b05        ..      LDR      r3,[sp,#0x14]
        0x0000cb74:    9828        (.      LDR      r0,[sp,#0xa0]
        0x0000cb76:    46ec        .F      MOV      r12,sp
        0x0000cb78:    f8cc3004    ...0    STR      r3,[r12,#4]
        0x0000cb7c:    f8cc2000    ...     STR      r2,[r12,#0]
        0x0000cb80:    461a        .F      MOV      r2,r3
        0x0000cb82:    f000f88d    ....    BL       am_devices_mspi_atxp032_command_write ; 0xcca0
        0x0000cb86:    9807        ..      LDR      r0,[sp,#0x1c]
        0x0000cb88:    7b40        @{      LDRB     r0,[r0,#0xd]
        0x0000cb8a:    4601        .F      MOV      r1,r0
        0x0000cb8c:    9106        ..      STR      r1,[sp,#0x18]
        0x0000cb8e:    2802        .(      CMP      r0,#2
        0x0000cb90:    d30a        ..      BCC      0xcba8 ; am_device_init_flash + 132
        0x0000cb92:    e7ff        ..      B        0xcb94 ; am_device_init_flash + 112
        0x0000cb94:    9806        ..      LDR      r0,[sp,#0x18]
        0x0000cb96:    3804        .8      SUBS     r0,#4
        0x0000cb98:    2802        .(      CMP      r0,#2
        0x0000cb9a:    d310        ..      BCC      0xcbbe ; am_device_init_flash + 154
        0x0000cb9c:    e7ff        ..      B        0xcb9e ; am_device_init_flash + 122
        0x0000cb9e:    9806        ..      LDR      r0,[sp,#0x18]
        0x0000cba0:    3806        .8      SUBS     r0,#6
        0x0000cba2:    2802        .(      CMP      r0,#2
        0x0000cba4:    d316        ..      BCC      0xcbd4 ; am_device_init_flash + 176
        0x0000cba6:    e020         .      B        0xcbea ; am_device_init_flash + 198
        0x0000cba8:    9828        (.      LDR      r0,[sp,#0xa0]
        0x0000cbaa:    466a        jF      MOV      r2,sp
        0x0000cbac:    2300        .#      MOVS     r3,#0
        0x0000cbae:    6053        S`      STR      r3,[r2,#4]
        0x0000cbb0:    a908        ..      ADD      r1,sp,#0x20
        0x0000cbb2:    6011        .`      STR      r1,[r2,#0]
        0x0000cbb4:    21ff        .!      MOVS     r1,#0xff
        0x0000cbb6:    461a        .F      MOV      r2,r3
        0x0000cbb8:    f000f872    ..r.    BL       am_devices_mspi_atxp032_command_write ; 0xcca0
        0x0000cbbc:    e018        ..      B        0xcbf0 ; am_device_init_flash + 204
        0x0000cbbe:    9828        (.      LDR      r0,[sp,#0xa0]
        0x0000cbc0:    466a        jF      MOV      r2,sp
        0x0000cbc2:    2300        .#      MOVS     r3,#0
        0x0000cbc4:    6053        S`      STR      r3,[r2,#4]
        0x0000cbc6:    a908        ..      ADD      r1,sp,#0x20
        0x0000cbc8:    6011        .`      STR      r1,[r2,#0]
        0x0000cbca:    2138        8!      MOVS     r1,#0x38
        0x0000cbcc:    461a        .F      MOV      r2,r3
        0x0000cbce:    f000f867    ..g.    BL       am_devices_mspi_atxp032_command_write ; 0xcca0
        0x0000cbd2:    e00d        ..      B        0xcbf0 ; am_device_init_flash + 204
        0x0000cbd4:    9828        (.      LDR      r0,[sp,#0xa0]
        0x0000cbd6:    466a        jF      MOV      r2,sp
        0x0000cbd8:    2300        .#      MOVS     r3,#0
        0x0000cbda:    6053        S`      STR      r3,[r2,#4]
        0x0000cbdc:    a908        ..      ADD      r1,sp,#0x20
        0x0000cbde:    6011        .`      STR      r1,[r2,#0]
        0x0000cbe0:    21e8        .!      MOVS     r1,#0xe8
        0x0000cbe2:    461a        .F      MOV      r2,r3
        0x0000cbe4:    f000f85c    ..\.    BL       am_devices_mspi_atxp032_command_write ; 0xcca0
        0x0000cbe8:    e002        ..      B        0xcbf0 ; am_device_init_flash + 204
        0x0000cbea:    2001        .       MOVS     r0,#1
        0x0000cbec:    9029        ).      STR      r0,[sp,#0xa4]
        0x0000cbee:    e002        ..      B        0xcbf6 ; am_device_init_flash + 210
        0x0000cbf0:    2000        .       MOVS     r0,#0
        0x0000cbf2:    9029        ).      STR      r0,[sp,#0xa4]
        0x0000cbf4:    e7ff        ..      B        0xcbf6 ; am_device_init_flash + 210
        0x0000cbf6:    9829        ).      LDR      r0,[sp,#0xa4]
        0x0000cbf8:    b02a        *.      ADD      sp,sp,#0xa8
        0x0000cbfa:    bd80        ..      POP      {r7,pc}
    am_devices_mspi_atxp032_command_read
        0x0000cbfc:    b580        ..      PUSH     {r7,lr}
        0x0000cbfe:    b08c        ..      SUB      sp,sp,#0x30
        0x0000cc00:    f8ddc03c    ..<.    LDR      r12,[sp,#0x3c]
        0x0000cc04:    f8ddc038    ..8.    LDR      r12,[sp,#0x38]
        0x0000cc08:    900a        ..      STR      r0,[sp,#0x28]
        0x0000cc0a:    f88d1027    ..'.    STRB     r1,[sp,#0x27]
        0x0000cc0e:    f88d2026    ..&     STRB     r2,[sp,#0x26]
        0x0000cc12:    9308        ..      STR      r3,[sp,#0x20]
        0x0000cc14:    980a        ..      LDR      r0,[sp,#0x28]
        0x0000cc16:    9006        ..      STR      r0,[sp,#0x18]
        0x0000cc18:    2000        .       MOVS     r0,#0
        0x0000cc1a:    9005        ..      STR      r0,[sp,#0x14]
        0x0000cc1c:    9004        ..      STR      r0,[sp,#0x10]
        0x0000cc1e:    9003        ..      STR      r0,[sp,#0xc]
        0x0000cc20:    9002        ..      STR      r0,[sp,#8]
        0x0000cc22:    9001        ..      STR      r0,[sp,#4]
        0x0000cc24:    9000        ..      STR      r0,[sp,#0]
        0x0000cc26:    f88d0006    ....    STRB     r0,[sp,#6]
        0x0000cc2a:    f89d0026    ..&.    LDRB     r0,[sp,#0x26]
        0x0000cc2e:    f0000001    ....    AND      r0,r0,#1
        0x0000cc32:    f88d0007    ....    STRB     r0,[sp,#7]
        0x0000cc36:    9808        ..      LDR      r0,[sp,#0x20]
        0x0000cc38:    9002        ..      STR      r0,[sp,#8]
        0x0000cc3a:    2001        .       MOVS     r0,#1
        0x0000cc3c:    f88d000c    ....    STRB     r0,[sp,#0xc]
        0x0000cc40:    f89d0027    ..'.    LDRB     r0,[sp,#0x27]
        0x0000cc44:    f8ad000e    ....    STRH     r0,[sp,#0xe]
        0x0000cc48:    9806        ..      LDR      r0,[sp,#0x18]
        0x0000cc4a:    7b40        @{      LDRB     r0,[r0,#0xd]
        0x0000cc4c:    2806        .(      CMP      r0,#6
        0x0000cc4e:    d005        ..      BEQ      0xcc5c ; am_devices_mspi_atxp032_command_read + 96
        0x0000cc50:    e7ff        ..      B        0xcc52 ; am_devices_mspi_atxp032_command_read + 86
        0x0000cc52:    9806        ..      LDR      r0,[sp,#0x18]
        0x0000cc54:    7b40        @{      LDRB     r0,[r0,#0xd]
        0x0000cc56:    2807        .(      CMP      r0,#7
        0x0000cc58:    d104        ..      BNE      0xcc64 ; am_devices_mspi_atxp032_command_read + 104
        0x0000cc5a:    e7ff        ..      B        0xcc5c ; am_devices_mspi_atxp032_command_read + 96
        0x0000cc5c:    2001        .       MOVS     r0,#1
        0x0000cc5e:    f88d0010    ....    STRB     r0,[sp,#0x10]
        0x0000cc62:    e003        ..      B        0xcc6c ; am_devices_mspi_atxp032_command_read + 112
        0x0000cc64:    2000        .       MOVS     r0,#0
        0x0000cc66:    f88d0010    ....    STRB     r0,[sp,#0x10]
        0x0000cc6a:    e7ff        ..      B        0xcc6c ; am_devices_mspi_atxp032_command_read + 112
        0x0000cc6c:    980f        ..      LDR      r0,[sp,#0x3c]
        0x0000cc6e:    9000        ..      STR      r0,[sp,#0]
        0x0000cc70:    980e        ..      LDR      r0,[sp,#0x38]
        0x0000cc72:    9005        ..      STR      r0,[sp,#0x14]
        0x0000cc74:    9806        ..      LDR      r0,[sp,#0x18]
        0x0000cc76:    6840        @h      LDR      r0,[r0,#4]
        0x0000cc78:    4669        iF      MOV      r1,sp
        0x0000cc7a:    f2442240    D.@"    MOV      r2,#0x4240
        0x0000cc7e:    f2c0020f    ....    MOVT     r2,#0xf
        0x0000cc82:    f001ffaf    ....    BL       am_hal_mspi_blocking_transfer ; 0xebe4
        0x0000cc86:    9007        ..      STR      r0,[sp,#0x1c]
        0x0000cc88:    9807        ..      LDR      r0,[sp,#0x1c]
        0x0000cc8a:    b118        ..      CBZ      r0,0xcc94 ; am_devices_mspi_atxp032_command_read + 152
        0x0000cc8c:    e7ff        ..      B        0xcc8e ; am_devices_mspi_atxp032_command_read + 146
        0x0000cc8e:    9807        ..      LDR      r0,[sp,#0x1c]
        0x0000cc90:    900b        ..      STR      r0,[sp,#0x2c]
        0x0000cc92:    e002        ..      B        0xcc9a ; am_devices_mspi_atxp032_command_read + 158
        0x0000cc94:    9807        ..      LDR      r0,[sp,#0x1c]
        0x0000cc96:    900b        ..      STR      r0,[sp,#0x2c]
        0x0000cc98:    e7ff        ..      B        0xcc9a ; am_devices_mspi_atxp032_command_read + 158
        0x0000cc9a:    980b        ..      LDR      r0,[sp,#0x2c]
        0x0000cc9c:    b00c        ..      ADD      sp,sp,#0x30
        0x0000cc9e:    bd80        ..      POP      {r7,pc}
    am_devices_mspi_atxp032_command_write
        0x0000cca0:    b580        ..      PUSH     {r7,lr}
        0x0000cca2:    b08c        ..      SUB      sp,sp,#0x30
        0x0000cca4:    f8ddc03c    ..<.    LDR      r12,[sp,#0x3c]
        0x0000cca8:    f8ddc038    ..8.    LDR      r12,[sp,#0x38]
        0x0000ccac:    900a        ..      STR      r0,[sp,#0x28]
        0x0000ccae:    f88d1027    ..'.    STRB     r1,[sp,#0x27]
        0x0000ccb2:    f88d2026    ..&     STRB     r2,[sp,#0x26]
        0x0000ccb6:    9308        ..      STR      r3,[sp,#0x20]
        0x0000ccb8:    980a        ..      LDR      r0,[sp,#0x28]
        0x0000ccba:    9006        ..      STR      r0,[sp,#0x18]
        0x0000ccbc:    2000        .       MOVS     r0,#0
        0x0000ccbe:    9005        ..      STR      r0,[sp,#0x14]
        0x0000ccc0:    9004        ..      STR      r0,[sp,#0x10]
        0x0000ccc2:    9003        ..      STR      r0,[sp,#0xc]
        0x0000ccc4:    9002        ..      STR      r0,[sp,#8]
        0x0000ccc6:    9001        ..      STR      r0,[sp,#4]
        0x0000ccc8:    9000        ..      STR      r0,[sp,#0]
        0x0000ccca:    990f        ..      LDR      r1,[sp,#0x3c]
        0x0000cccc:    9100        ..      STR      r1,[sp,#0]
        0x0000ccce:    2101        .!      MOVS     r1,#1
        0x0000ccd0:    f88d1006    ....    STRB     r1,[sp,#6]
        0x0000ccd4:    f89d2026    ..&     LDRB     r2,[sp,#0x26]
        0x0000ccd8:    f0020201    ....    AND      r2,r2,#1
        0x0000ccdc:    f88d2007    ...     STRB     r2,[sp,#7]
        0x0000cce0:    9a08        ..      LDR      r2,[sp,#0x20]
        0x0000cce2:    9202        ..      STR      r2,[sp,#8]
        0x0000cce4:    f88d100c    ....    STRB     r1,[sp,#0xc]
        0x0000cce8:    f89d1027    ..'.    LDRB     r1,[sp,#0x27]
        0x0000ccec:    f8ad100e    ....    STRH     r1,[sp,#0xe]
        0x0000ccf0:    f88d0010    ....    STRB     r0,[sp,#0x10]
        0x0000ccf4:    980e        ..      LDR      r0,[sp,#0x38]
        0x0000ccf6:    9005        ..      STR      r0,[sp,#0x14]
        0x0000ccf8:    9806        ..      LDR      r0,[sp,#0x18]
        0x0000ccfa:    6840        @h      LDR      r0,[r0,#4]
        0x0000ccfc:    4669        iF      MOV      r1,sp
        0x0000ccfe:    f2442240    D.@"    MOV      r2,#0x4240
        0x0000cd02:    f2c0020f    ....    MOVT     r2,#0xf
        0x0000cd06:    f001ff6d    ..m.    BL       am_hal_mspi_blocking_transfer ; 0xebe4
        0x0000cd0a:    9007        ..      STR      r0,[sp,#0x1c]
        0x0000cd0c:    9807        ..      LDR      r0,[sp,#0x1c]
        0x0000cd0e:    b118        ..      CBZ      r0,0xcd18 ; am_devices_mspi_atxp032_command_write + 120
        0x0000cd10:    e7ff        ..      B        0xcd12 ; am_devices_mspi_atxp032_command_write + 114
        0x0000cd12:    9807        ..      LDR      r0,[sp,#0x1c]
        0x0000cd14:    900b        ..      STR      r0,[sp,#0x2c]
        0x0000cd16:    e002        ..      B        0xcd1e ; am_devices_mspi_atxp032_command_write + 126
        0x0000cd18:    9807        ..      LDR      r0,[sp,#0x1c]
        0x0000cd1a:    900b        ..      STR      r0,[sp,#0x2c]
        0x0000cd1c:    e7ff        ..      B        0xcd1e ; am_devices_mspi_atxp032_command_write + 126
        0x0000cd1e:    980b        ..      LDR      r0,[sp,#0x2c]
        0x0000cd20:    b00c        ..      ADD      sp,sp,#0x30
        0x0000cd22:    bd80        ..      POP      {r7,pc}
    am_devices_mspi_atxp032_deinit
        0x0000cd24:    b580        ..      PUSH     {r7,lr}
        0x0000cd26:    b084        ..      SUB      sp,sp,#0x10
        0x0000cd28:    9002        ..      STR      r0,[sp,#8]
        0x0000cd2a:    9802        ..      LDR      r0,[sp,#8]
        0x0000cd2c:    9000        ..      STR      r0,[sp,#0]
        0x0000cd2e:    9802        ..      LDR      r0,[sp,#8]
        0x0000cd30:    f7fffea4    ....    BL       am_device_deinit_flash ; 0xca7c
        0x0000cd34:    9001        ..      STR      r0,[sp,#4]
        0x0000cd36:    9801        ..      LDR      r0,[sp,#4]
        0x0000cd38:    b118        ..      CBZ      r0,0xcd42 ; am_devices_mspi_atxp032_deinit + 30
        0x0000cd3a:    e7ff        ..      B        0xcd3c ; am_devices_mspi_atxp032_deinit + 24
        0x0000cd3c:    2001        .       MOVS     r0,#1
        0x0000cd3e:    9003        ..      STR      r0,[sp,#0xc]
        0x0000cd40:    e04d        M.      B        0xcdde ; am_devices_mspi_atxp032_deinit + 186
        0x0000cd42:    9802        ..      LDR      r0,[sp,#8]
        0x0000cd44:    f000fc06    ....    BL       am_devices_mspi_atxp032_reset ; 0xd554
        0x0000cd48:    b118        ..      CBZ      r0,0xcd52 ; am_devices_mspi_atxp032_deinit + 46
        0x0000cd4a:    e7ff        ..      B        0xcd4c ; am_devices_mspi_atxp032_deinit + 40
        0x0000cd4c:    2001        .       MOVS     r0,#1
        0x0000cd4e:    9003        ..      STR      r0,[sp,#0xc]
        0x0000cd50:    e045        E.      B        0xcdde ; am_devices_mspi_atxp032_deinit + 186
        0x0000cd52:    9800        ..      LDR      r0,[sp,#0]
        0x0000cd54:    6840        @h      LDR      r0,[r0,#4]
        0x0000cd56:    f04f31ff    O..1    MOV      r1,#0xffffffff
        0x0000cd5a:    f002fefd    ....    BL       am_hal_mspi_interrupt_disable ; 0xfb58
        0x0000cd5e:    9001        ..      STR      r0,[sp,#4]
        0x0000cd60:    9801        ..      LDR      r0,[sp,#4]
        0x0000cd62:    b118        ..      CBZ      r0,0xcd6c ; am_devices_mspi_atxp032_deinit + 72
        0x0000cd64:    e7ff        ..      B        0xcd66 ; am_devices_mspi_atxp032_deinit + 66
        0x0000cd66:    2001        .       MOVS     r0,#1
        0x0000cd68:    9003        ..      STR      r0,[sp,#0xc]
        0x0000cd6a:    e038        8.      B        0xcdde ; am_devices_mspi_atxp032_deinit + 186
        0x0000cd6c:    9800        ..      LDR      r0,[sp,#0]
        0x0000cd6e:    6840        @h      LDR      r0,[r0,#4]
        0x0000cd70:    f04f31ff    O..1    MOV      r1,#0xffffffff
        0x0000cd74:    f002feda    ....    BL       am_hal_mspi_interrupt_clear ; 0xfb2c
        0x0000cd78:    9001        ..      STR      r0,[sp,#4]
        0x0000cd7a:    9801        ..      LDR      r0,[sp,#4]
        0x0000cd7c:    b118        ..      CBZ      r0,0xcd86 ; am_devices_mspi_atxp032_deinit + 98
        0x0000cd7e:    e7ff        ..      B        0xcd80 ; am_devices_mspi_atxp032_deinit + 92
        0x0000cd80:    2001        .       MOVS     r0,#1
        0x0000cd82:    9003        ..      STR      r0,[sp,#0xc]
        0x0000cd84:    e02b        +.      B        0xcdde ; am_devices_mspi_atxp032_deinit + 186
        0x0000cd86:    9800        ..      LDR      r0,[sp,#0]
        0x0000cd88:    6840        @h      LDR      r0,[r0,#4]
        0x0000cd8a:    f002fe25    ..%.    BL       am_hal_mspi_disable ; 0xf9d8
        0x0000cd8e:    9001        ..      STR      r0,[sp,#4]
        0x0000cd90:    9801        ..      LDR      r0,[sp,#4]
        0x0000cd92:    b118        ..      CBZ      r0,0xcd9c ; am_devices_mspi_atxp032_deinit + 120
        0x0000cd94:    e7ff        ..      B        0xcd96 ; am_devices_mspi_atxp032_deinit + 114
        0x0000cd96:    2001        .       MOVS     r0,#1
        0x0000cd98:    9003        ..      STR      r0,[sp,#0xc]
        0x0000cd9a:    e020         .      B        0xcdde ; am_devices_mspi_atxp032_deinit + 186
        0x0000cd9c:    9800        ..      LDR      r0,[sp,#0]
        0x0000cd9e:    6840        @h      LDR      r0,[r0,#4]
        0x0000cda0:    2102        .!      MOVS     r1,#2
        0x0000cda2:    2200        ."      MOVS     r2,#0
        0x0000cda4:    f003f94c    ..L.    BL       am_hal_mspi_power_control ; 0x10040
        0x0000cda8:    b118        ..      CBZ      r0,0xcdb2 ; am_devices_mspi_atxp032_deinit + 142
        0x0000cdaa:    e7ff        ..      B        0xcdac ; am_devices_mspi_atxp032_deinit + 136
        0x0000cdac:    2001        .       MOVS     r0,#1
        0x0000cdae:    9003        ..      STR      r0,[sp,#0xc]
        0x0000cdb0:    e015        ..      B        0xcdde ; am_devices_mspi_atxp032_deinit + 186
        0x0000cdb2:    9800        ..      LDR      r0,[sp,#0]
        0x0000cdb4:    6840        @h      LDR      r0,[r0,#4]
        0x0000cdb6:    f002fcd1    ....    BL       am_hal_mspi_deinitialize ; 0xf75c
        0x0000cdba:    9001        ..      STR      r0,[sp,#4]
        0x0000cdbc:    9801        ..      LDR      r0,[sp,#4]
        0x0000cdbe:    b118        ..      CBZ      r0,0xcdc8 ; am_devices_mspi_atxp032_deinit + 164
        0x0000cdc0:    e7ff        ..      B        0xcdc2 ; am_devices_mspi_atxp032_deinit + 158
        0x0000cdc2:    2001        .       MOVS     r0,#1
        0x0000cdc4:    9003        ..      STR      r0,[sp,#0xc]
        0x0000cdc6:    e00a        ..      B        0xcdde ; am_devices_mspi_atxp032_deinit + 186
        0x0000cdc8:    9900        ..      LDR      r1,[sp,#0]
        0x0000cdca:    2000        .       MOVS     r0,#0
        0x0000cdcc:    f881002c    ..,.    STRB     r0,[r1,#0x2c]
        0x0000cdd0:    f2480100    H...    MOVW     r1,#0x8000
        0x0000cdd4:    f2c40101    ....    MOVT     r1,#0x4001
        0x0000cdd8:    6008        .`      STR      r0,[r1,#0]
        0x0000cdda:    9003        ..      STR      r0,[sp,#0xc]
        0x0000cddc:    e7ff        ..      B        0xcdde ; am_devices_mspi_atxp032_deinit + 186
        0x0000cdde:    9803        ..      LDR      r0,[sp,#0xc]
        0x0000cde0:    b004        ..      ADD      sp,sp,#0x10
        0x0000cde2:    bd80        ..      POP      {r7,pc}
    am_devices_mspi_atxp032_disable_scrambling
        0x0000cde4:    b580        ..      PUSH     {r7,lr}
        0x0000cde6:    b0a8        ..      SUB      sp,sp,#0xa0
        0x0000cde8:    9026        &.      STR      r0,[sp,#0x98]
        0x0000cdea:    9826        &.      LDR      r0,[sp,#0x98]
        0x0000cdec:    9024        $.      STR      r0,[sp,#0x90]
        0x0000cdee:    a804        ..      ADD      r0,sp,#0x10
        0x0000cdf0:    9003        ..      STR      r0,[sp,#0xc]
        0x0000cdf2:    2180        .!      MOVS     r1,#0x80
        0x0000cdf4:    f7fffa6d    ..m.    BL       __aeabi_memclr4 ; 0xc2d2
        0x0000cdf8:    9903        ..      LDR      r1,[sp,#0xc]
        0x0000cdfa:    9826        &.      LDR      r0,[sp,#0x98]
        0x0000cdfc:    466a        jF      MOV      r2,sp
        0x0000cdfe:    2300        .#      MOVS     r3,#0
        0x0000ce00:    6053        S`      STR      r3,[r2,#4]
        0x0000ce02:    6011        .`      STR      r1,[r2,#0]
        0x0000ce04:    2106        .!      MOVS     r1,#6
        0x0000ce06:    461a        .F      MOV      r2,r3
        0x0000ce08:    f7ffff4a    ..J.    BL       am_devices_mspi_atxp032_command_write ; 0xcca0
        0x0000ce0c:    9025        %.      STR      r0,[sp,#0x94]
        0x0000ce0e:    9825        %.      LDR      r0,[sp,#0x94]
        0x0000ce10:    b118        ..      CBZ      r0,0xce1a ; am_devices_mspi_atxp032_disable_scrambling + 54
        0x0000ce12:    e7ff        ..      B        0xce14 ; am_devices_mspi_atxp032_disable_scrambling + 48
        0x0000ce14:    2001        .       MOVS     r0,#1
        0x0000ce16:    9027        '.      STR      r0,[sp,#0x9c]
        0x0000ce18:    e00f        ..      B        0xce3a ; am_devices_mspi_atxp032_disable_scrambling + 86
        0x0000ce1a:    9824        $.      LDR      r0,[sp,#0x90]
        0x0000ce1c:    6840        @h      LDR      r0,[r0,#4]
        0x0000ce1e:    2106        .!      MOVS     r1,#6
        0x0000ce20:    2200        ."      MOVS     r2,#0
        0x0000ce22:    f001ff73    ..s.    BL       am_hal_mspi_control ; 0xed0c
        0x0000ce26:    9025        %.      STR      r0,[sp,#0x94]
        0x0000ce28:    9825        %.      LDR      r0,[sp,#0x94]
        0x0000ce2a:    b118        ..      CBZ      r0,0xce34 ; am_devices_mspi_atxp032_disable_scrambling + 80
        0x0000ce2c:    e7ff        ..      B        0xce2e ; am_devices_mspi_atxp032_disable_scrambling + 74
        0x0000ce2e:    2001        .       MOVS     r0,#1
        0x0000ce30:    9027        '.      STR      r0,[sp,#0x9c]
        0x0000ce32:    e002        ..      B        0xce3a ; am_devices_mspi_atxp032_disable_scrambling + 86
        0x0000ce34:    2000        .       MOVS     r0,#0
        0x0000ce36:    9027        '.      STR      r0,[sp,#0x9c]
        0x0000ce38:    e7ff        ..      B        0xce3a ; am_devices_mspi_atxp032_disable_scrambling + 86
        0x0000ce3a:    9827        '.      LDR      r0,[sp,#0x9c]
        0x0000ce3c:    b028        (.      ADD      sp,sp,#0xa0
        0x0000ce3e:    bd80        ..      POP      {r7,pc}
    am_devices_mspi_atxp032_disable_xip
        0x0000ce40:    b580        ..      PUSH     {r7,lr}
        0x0000ce42:    b0a8        ..      SUB      sp,sp,#0xa0
        0x0000ce44:    9026        &.      STR      r0,[sp,#0x98]
        0x0000ce46:    9826        &.      LDR      r0,[sp,#0x98]
        0x0000ce48:    9024        $.      STR      r0,[sp,#0x90]
        0x0000ce4a:    a804        ..      ADD      r0,sp,#0x10
        0x0000ce4c:    9003        ..      STR      r0,[sp,#0xc]
        0x0000ce4e:    2180        .!      MOVS     r1,#0x80
        0x0000ce50:    f7fffa3f    ..?.    BL       __aeabi_memclr4 ; 0xc2d2
        0x0000ce54:    9903        ..      LDR      r1,[sp,#0xc]
        0x0000ce56:    9826        &.      LDR      r0,[sp,#0x98]
        0x0000ce58:    466a        jF      MOV      r2,sp
        0x0000ce5a:    2300        .#      MOVS     r3,#0
        0x0000ce5c:    6053        S`      STR      r3,[r2,#4]
        0x0000ce5e:    6011        .`      STR      r1,[r2,#0]
        0x0000ce60:    2106        .!      MOVS     r1,#6
        0x0000ce62:    461a        .F      MOV      r2,r3
        0x0000ce64:    f7ffff1c    ....    BL       am_devices_mspi_atxp032_command_write ; 0xcca0
        0x0000ce68:    9025        %.      STR      r0,[sp,#0x94]
        0x0000ce6a:    9825        %.      LDR      r0,[sp,#0x94]
        0x0000ce6c:    b118        ..      CBZ      r0,0xce76 ; am_devices_mspi_atxp032_disable_xip + 54
        0x0000ce6e:    e7ff        ..      B        0xce70 ; am_devices_mspi_atxp032_disable_xip + 48
        0x0000ce70:    2001        .       MOVS     r0,#1
        0x0000ce72:    9027        '.      STR      r0,[sp,#0x9c]
        0x0000ce74:    e00f        ..      B        0xce96 ; am_devices_mspi_atxp032_disable_xip + 86
        0x0000ce76:    9824        $.      LDR      r0,[sp,#0x90]
        0x0000ce78:    6840        @h      LDR      r0,[r0,#4]
        0x0000ce7a:    210c        .!      MOVS     r1,#0xc
        0x0000ce7c:    2200        ."      MOVS     r2,#0
        0x0000ce7e:    f001ff45    ..E.    BL       am_hal_mspi_control ; 0xed0c
        0x0000ce82:    9025        %.      STR      r0,[sp,#0x94]
        0x0000ce84:    9825        %.      LDR      r0,[sp,#0x94]
        0x0000ce86:    b118        ..      CBZ      r0,0xce90 ; am_devices_mspi_atxp032_disable_xip + 80
        0x0000ce88:    e7ff        ..      B        0xce8a ; am_devices_mspi_atxp032_disable_xip + 74
        0x0000ce8a:    2001        .       MOVS     r0,#1
        0x0000ce8c:    9027        '.      STR      r0,[sp,#0x9c]
        0x0000ce8e:    e002        ..      B        0xce96 ; am_devices_mspi_atxp032_disable_xip + 86
        0x0000ce90:    2000        .       MOVS     r0,#0
        0x0000ce92:    9027        '.      STR      r0,[sp,#0x9c]
        0x0000ce94:    e7ff        ..      B        0xce96 ; am_devices_mspi_atxp032_disable_xip + 86
        0x0000ce96:    9827        '.      LDR      r0,[sp,#0x9c]
        0x0000ce98:    b028        (.      ADD      sp,sp,#0xa0
        0x0000ce9a:    bd80        ..      POP      {r7,pc}
    am_devices_mspi_atxp032_enable_scrambling
        0x0000ce9c:    b580        ..      PUSH     {r7,lr}
        0x0000ce9e:    b084        ..      SUB      sp,sp,#0x10
        0x0000cea0:    9002        ..      STR      r0,[sp,#8]
        0x0000cea2:    9802        ..      LDR      r0,[sp,#8]
        0x0000cea4:    9000        ..      STR      r0,[sp,#0]
        0x0000cea6:    9800        ..      LDR      r0,[sp,#0]
        0x0000cea8:    6840        @h      LDR      r0,[r0,#4]
        0x0000ceaa:    2107        .!      MOVS     r1,#7
        0x0000ceac:    2200        ."      MOVS     r2,#0
        0x0000ceae:    f001ff2d    ..-.    BL       am_hal_mspi_control ; 0xed0c
        0x0000ceb2:    9001        ..      STR      r0,[sp,#4]
        0x0000ceb4:    9801        ..      LDR      r0,[sp,#4]
        0x0000ceb6:    b118        ..      CBZ      r0,0xcec0 ; am_devices_mspi_atxp032_enable_scrambling + 36
        0x0000ceb8:    e7ff        ..      B        0xceba ; am_devices_mspi_atxp032_enable_scrambling + 30
        0x0000ceba:    2001        .       MOVS     r0,#1
        0x0000cebc:    9003        ..      STR      r0,[sp,#0xc]
        0x0000cebe:    e002        ..      B        0xcec6 ; am_devices_mspi_atxp032_enable_scrambling + 42
        0x0000cec0:    2000        .       MOVS     r0,#0
        0x0000cec2:    9003        ..      STR      r0,[sp,#0xc]
        0x0000cec4:    e7ff        ..      B        0xcec6 ; am_devices_mspi_atxp032_enable_scrambling + 42
        0x0000cec6:    9803        ..      LDR      r0,[sp,#0xc]
        0x0000cec8:    b004        ..      ADD      sp,sp,#0x10
        0x0000ceca:    bd80        ..      POP      {r7,pc}
    am_devices_mspi_atxp032_enable_xip
        0x0000cecc:    b580        ..      PUSH     {r7,lr}
        0x0000cece:    b084        ..      SUB      sp,sp,#0x10
        0x0000ced0:    9002        ..      STR      r0,[sp,#8]
        0x0000ced2:    9802        ..      LDR      r0,[sp,#8]
        0x0000ced4:    9000        ..      STR      r0,[sp,#0]
        0x0000ced6:    9800        ..      LDR      r0,[sp,#0]
        0x0000ced8:    6840        @h      LDR      r0,[r0,#4]
        0x0000ceda:    210d        .!      MOVS     r1,#0xd
        0x0000cedc:    2200        ."      MOVS     r2,#0
        0x0000cede:    f001ff15    ....    BL       am_hal_mspi_control ; 0xed0c
        0x0000cee2:    9001        ..      STR      r0,[sp,#4]
        0x0000cee4:    9801        ..      LDR      r0,[sp,#4]
        0x0000cee6:    b118        ..      CBZ      r0,0xcef0 ; am_devices_mspi_atxp032_enable_xip + 36
        0x0000cee8:    e7ff        ..      B        0xceea ; am_devices_mspi_atxp032_enable_xip + 30
        0x0000ceea:    2001        .       MOVS     r0,#1
        0x0000ceec:    9003        ..      STR      r0,[sp,#0xc]
        0x0000ceee:    e00e        ..      B        0xcf0e ; am_devices_mspi_atxp032_enable_xip + 66
        0x0000cef0:    9800        ..      LDR      r0,[sp,#0]
        0x0000cef2:    6840        @h      LDR      r0,[r0,#4]
        0x0000cef4:    21c0        .!      MOVS     r1,#0xc0
        0x0000cef6:    f002fe2f    ../.    BL       am_hal_mspi_interrupt_disable ; 0xfb58
        0x0000cefa:    9001        ..      STR      r0,[sp,#4]
        0x0000cefc:    9801        ..      LDR      r0,[sp,#4]
        0x0000cefe:    b118        ..      CBZ      r0,0xcf08 ; am_devices_mspi_atxp032_enable_xip + 60
        0x0000cf00:    e7ff        ..      B        0xcf02 ; am_devices_mspi_atxp032_enable_xip + 54
        0x0000cf02:    2001        .       MOVS     r0,#1
        0x0000cf04:    9003        ..      STR      r0,[sp,#0xc]
        0x0000cf06:    e002        ..      B        0xcf0e ; am_devices_mspi_atxp032_enable_xip + 66
        0x0000cf08:    2000        .       MOVS     r0,#0
        0x0000cf0a:    9003        ..      STR      r0,[sp,#0xc]
        0x0000cf0c:    e7ff        ..      B        0xcf0e ; am_devices_mspi_atxp032_enable_xip + 66
        0x0000cf0e:    9803        ..      LDR      r0,[sp,#0xc]
        0x0000cf10:    b004        ..      ADD      sp,sp,#0x10
        0x0000cf12:    bd80        ..      POP      {r7,pc}
    am_devices_mspi_atxp032_id
        0x0000cf14:    b580        ..      PUSH     {r7,lr}
        0x0000cf16:    b08a        ..      SUB      sp,sp,#0x28
        0x0000cf18:    9008        ..      STR      r0,[sp,#0x20]
        0x0000cf1a:    9808        ..      LDR      r0,[sp,#0x20]
        0x0000cf1c:    466a        jF      MOV      r2,sp
        0x0000cf1e:    210b        .!      MOVS     r1,#0xb
        0x0000cf20:    6051        Q`      STR      r1,[r2,#4]
        0x0000cf22:    f10d010d    ....    ADD      r1,sp,#0xd
        0x0000cf26:    6011        .`      STR      r1,[r2,#0]
        0x0000cf28:    219f        .!      MOVS     r1,#0x9f
        0x0000cf2a:    2300        .#      MOVS     r3,#0
        0x0000cf2c:    461a        .F      MOV      r2,r3
        0x0000cf2e:    f7fffe65    ..e.    BL       am_devices_mspi_atxp032_command_read ; 0xcbfc
        0x0000cf32:    9007        ..      STR      r0,[sp,#0x1c]
        0x0000cf34:    f89d0014    ....    LDRB     r0,[sp,#0x14]
        0x0000cf38:    f89d2015    ...     LDRB     r2,[sp,#0x15]
        0x0000cf3c:    f89d1016    ....    LDRB     r1,[sp,#0x16]
        0x0000cf40:    0400        ..      LSLS     r0,r0,#16
        0x0000cf42:    ea402002    @..     ORR      r0,r0,r2,LSL #8
        0x0000cf46:    4408        .D      ADD      r0,r0,r1
        0x0000cf48:    9006        ..      STR      r0,[sp,#0x18]
        0x0000cf4a:    9806        ..      LDR      r0,[sp,#0x18]
        0x0000cf4c:    f020407f     ..@    BIC      r0,r0,#0xff000000
        0x0000cf50:    f24a7100    J..q    MOVW     r1,#0xa700
        0x0000cf54:    f2c00143    ..C.    MOVT     r1,#0x43
        0x0000cf58:    4288        .B      CMP      r0,r1
        0x0000cf5a:    d106        ..      BNE      0xcf6a ; am_devices_mspi_atxp032_id + 86
        0x0000cf5c:    e7ff        ..      B        0xcf5e ; am_devices_mspi_atxp032_id + 74
        0x0000cf5e:    9807        ..      LDR      r0,[sp,#0x1c]
        0x0000cf60:    b918        ..      CBNZ     r0,0xcf6a ; am_devices_mspi_atxp032_id + 86
        0x0000cf62:    e7ff        ..      B        0xcf64 ; am_devices_mspi_atxp032_id + 80
        0x0000cf64:    2000        .       MOVS     r0,#0
        0x0000cf66:    9009        ..      STR      r0,[sp,#0x24]
        0x0000cf68:    e002        ..      B        0xcf70 ; am_devices_mspi_atxp032_id + 92
        0x0000cf6a:    2001        .       MOVS     r0,#1
        0x0000cf6c:    9009        ..      STR      r0,[sp,#0x24]
        0x0000cf6e:    e7ff        ..      B        0xcf70 ; am_devices_mspi_atxp032_id + 92
        0x0000cf70:    9809        ..      LDR      r0,[sp,#0x24]
        0x0000cf72:    b00a        ..      ADD      sp,sp,#0x28
        0x0000cf74:    bd80        ..      POP      {r7,pc}
        0x0000cf76:    0000        ..      MOVS     r0,r0
    am_devices_mspi_atxp032_init
        0x0000cf78:    b570        p.      PUSH     {r4-r6,lr}
        0x0000cf7a:    b0a6        ..      SUB      sp,sp,#0x98
        0x0000cf7c:    9024        $.      STR      r0,[sp,#0x90]
        0x0000cf7e:    9123        #.      STR      r1,[sp,#0x8c]
        0x0000cf80:    9222        ".      STR      r2,[sp,#0x88]
        0x0000cf82:    9321        !.      STR      r3,[sp,#0x84]
        0x0000cf84:    f2411040    A.@.    MOVW     r0,#0x1140
        0x0000cf88:    f2c10001    ....    MOVT     r0,#0x1001
        0x0000cf8c:    6840        @h      LDR      r0,[r0,#4]
        0x0000cf8e:    901f        ..      STR      r0,[sp,#0x7c]
        0x0000cf90:    2000        .       MOVS     r0,#0
        0x0000cf92:    9014        ..      STR      r0,[sp,#0x50]
        0x0000cf94:    9824        $.      LDR      r0,[sp,#0x90]
        0x0000cf96:    2803        .(      CMP      r0,#3
        0x0000cf98:    d803        ..      BHI      0xcfa2 ; am_devices_mspi_atxp032_init + 42
        0x0000cf9a:    e7ff        ..      B        0xcf9c ; am_devices_mspi_atxp032_init + 36
        0x0000cf9c:    9823        #.      LDR      r0,[sp,#0x8c]
        0x0000cf9e:    b918        ..      CBNZ     r0,0xcfa8 ; am_devices_mspi_atxp032_init + 48
        0x0000cfa0:    e7ff        ..      B        0xcfa2 ; am_devices_mspi_atxp032_init + 42
        0x0000cfa2:    2001        .       MOVS     r0,#1
        0x0000cfa4:    9025        %.      STR      r0,[sp,#0x94]
        0x0000cfa6:    e1ec        ..      B        0xd382 ; am_devices_mspi_atxp032_init + 1034
        0x0000cfa8:    2000        .       MOVS     r0,#0
        0x0000cfaa:    9014        ..      STR      r0,[sp,#0x50]
        0x0000cfac:    e7ff        ..      B        0xcfae ; am_devices_mspi_atxp032_init + 54
        0x0000cfae:    9814        ..      LDR      r0,[sp,#0x50]
        0x0000cfb0:    b9a0        ..      CBNZ     r0,0xcfdc ; am_devices_mspi_atxp032_init + 100
        0x0000cfb2:    e7ff        ..      B        0xcfb4 ; am_devices_mspi_atxp032_init + 60
        0x0000cfb4:    9814        ..      LDR      r0,[sp,#0x50]
        0x0000cfb6:    eb000140    ..@.    ADD      r1,r0,r0,LSL #1
        0x0000cfba:    f64310dc    C...    MOV      r0,#0x39dc
        0x0000cfbe:    f2c10001    ....    MOVT     r0,#0x1001
        0x0000cfc2:    eb001001    ....    ADD      r0,r0,r1,LSL #4
        0x0000cfc6:    f890002c    ..,.    LDRB     r0,[r0,#0x2c]
        0x0000cfca:    07c0        ..      LSLS     r0,r0,#31
        0x0000cfcc:    b908        ..      CBNZ     r0,0xcfd2 ; am_devices_mspi_atxp032_init + 90
        0x0000cfce:    e7ff        ..      B        0xcfd0 ; am_devices_mspi_atxp032_init + 88
        0x0000cfd0:    e004        ..      B        0xcfdc ; am_devices_mspi_atxp032_init + 100
        0x0000cfd2:    e7ff        ..      B        0xcfd4 ; am_devices_mspi_atxp032_init + 92
        0x0000cfd4:    9814        ..      LDR      r0,[sp,#0x50]
        0x0000cfd6:    3001        .0      ADDS     r0,#1
        0x0000cfd8:    9014        ..      STR      r0,[sp,#0x50]
        0x0000cfda:    e7e8        ..      B        0xcfae ; am_devices_mspi_atxp032_init + 54
        0x0000cfdc:    9814        ..      LDR      r0,[sp,#0x50]
        0x0000cfde:    2801        .(      CMP      r0,#1
        0x0000cfe0:    d103        ..      BNE      0xcfea ; am_devices_mspi_atxp032_init + 114
        0x0000cfe2:    e7ff        ..      B        0xcfe4 ; am_devices_mspi_atxp032_init + 108
        0x0000cfe4:    2001        .       MOVS     r0,#1
        0x0000cfe6:    9025        %.      STR      r0,[sp,#0x94]
        0x0000cfe8:    e1cb        ..      B        0xd382 ; am_devices_mspi_atxp032_init + 1034
        0x0000cfea:    2000        .       MOVS     r0,#0
        0x0000cfec:    f88d004f    ..O.    STRB     r0,[sp,#0x4f]
        0x0000cff0:    9012        ..      STR      r0,[sp,#0x48]
        0x0000cff2:    e7ff        ..      B        0xcff4 ; am_devices_mspi_atxp032_init + 124
        0x0000cff4:    9812        ..      LDR      r0,[sp,#0x48]
        0x0000cff6:    2805        .(      CMP      r0,#5
        0x0000cff8:    d832        2.      BHI      0xd060 ; am_devices_mspi_atxp032_init + 232
        0x0000cffa:    e7ff        ..      B        0xcffc ; am_devices_mspi_atxp032_init + 132
        0x0000cffc:    9823        #.      LDR      r0,[sp,#0x8c]
        0x0000cffe:    7800        .x      LDRB     r0,[r0,#0]
        0x0000d000:    9a12        ..      LDR      r2,[sp,#0x48]
        0x0000d002:    f2411140    A.@.    MOVW     r1,#0x1140
        0x0000d006:    f2c10101    ....    MOVT     r1,#0x1001
        0x0000d00a:    f8111032    ..2.    LDRB     r1,[r1,r2,LSL #3]
        0x0000d00e:    4288        .B      CMP      r0,r1
        0x0000d010:    d121        !.      BNE      0xd056 ; am_devices_mspi_atxp032_init + 222
        0x0000d012:    e7ff        ..      B        0xd014 ; am_devices_mspi_atxp032_init + 156
        0x0000d014:    9912        ..      LDR      r1,[sp,#0x48]
        0x0000d016:    f2411040    A.@.    MOVW     r0,#0x1140
        0x0000d01a:    f2c10001    ....    MOVT     r0,#0x1001
        0x0000d01e:    eb0000c1    ....    ADD      r0,r0,r1,LSL #3
        0x0000d022:    6840        @h      LDR      r0,[r0,#4]
        0x0000d024:    901f        ..      STR      r0,[sp,#0x7c]
        0x0000d026:    9823        #.      LDR      r0,[sp,#0x8c]
        0x0000d028:    7840        @x      LDRB     r0,[r0,#1]
        0x0000d02a:    991f        ..      LDR      r1,[sp,#0x7c]
        0x0000d02c:    7208        .r      STRB     r0,[r1,#8]
        0x0000d02e:    9823        #.      LDR      r0,[sp,#0x8c]
        0x0000d030:    6840        @h      LDR      r0,[r0,#4]
        0x0000d032:    991f        ..      LDR      r1,[sp,#0x7c]
        0x0000d034:    6188        .a      STR      r0,[r1,#0x18]
        0x0000d036:    9823        #.      LDR      r0,[sp,#0x8c]
        0x0000d038:    6880        .h      LDR      r0,[r0,#8]
        0x0000d03a:    991f        ..      LDR      r1,[sp,#0x7c]
        0x0000d03c:    6148        Ha      STR      r0,[r1,#0x14]
        0x0000d03e:    9823        #.      LDR      r0,[sp,#0x8c]
        0x0000d040:    68c0        .h      LDR      r0,[r0,#0xc]
        0x0000d042:    991f        ..      LDR      r1,[sp,#0x7c]
        0x0000d044:    61c8        .a      STR      r0,[r1,#0x1c]
        0x0000d046:    9823        #.      LDR      r0,[sp,#0x8c]
        0x0000d048:    6900        .i      LDR      r0,[r0,#0x10]
        0x0000d04a:    991f        ..      LDR      r1,[sp,#0x7c]
        0x0000d04c:    6208        .b      STR      r0,[r1,#0x20]
        0x0000d04e:    2001        .       MOVS     r0,#1
        0x0000d050:    f88d004f    ..O.    STRB     r0,[sp,#0x4f]
        0x0000d054:    e004        ..      B        0xd060 ; am_devices_mspi_atxp032_init + 232
        0x0000d056:    e7ff        ..      B        0xd058 ; am_devices_mspi_atxp032_init + 224
        0x0000d058:    9812        ..      LDR      r0,[sp,#0x48]
        0x0000d05a:    3001        .0      ADDS     r0,#1
        0x0000d05c:    9012        ..      STR      r0,[sp,#0x48]
        0x0000d05e:    e7c9        ..      B        0xcff4 ; am_devices_mspi_atxp032_init + 124
        0x0000d060:    f89d004f    ..O.    LDRB     r0,[sp,#0x4f]
        0x0000d064:    07c0        ..      LSLS     r0,r0,#31
        0x0000d066:    b918        ..      CBNZ     r0,0xd070 ; am_devices_mspi_atxp032_init + 248
        0x0000d068:    e7ff        ..      B        0xd06a ; am_devices_mspi_atxp032_init + 242
        0x0000d06a:    2001        .       MOVS     r0,#1
        0x0000d06c:    9025        %.      STR      r0,[sp,#0x94]
        0x0000d06e:    e188        ..      B        0xd382 ; am_devices_mspi_atxp032_init + 1034
        0x0000d070:    2100        .!      MOVS     r1,#0
        0x0000d072:    4608        .F      MOV      r0,r1
        0x0000d074:    f001fc60    ..`.    BL       am_hal_mcuctrl_control ; 0xe938
        0x0000d078:    9824        $.      LDR      r0,[sp,#0x90]
        0x0000d07a:    a915        ..      ADD      r1,sp,#0x54
        0x0000d07c:    f002fd32    ..2.    BL       am_hal_mspi_initialize ; 0xfae4
        0x0000d080:    b118        ..      CBZ      r0,0xd08a ; am_devices_mspi_atxp032_init + 274
        0x0000d082:    e7ff        ..      B        0xd084 ; am_devices_mspi_atxp032_init + 268
        0x0000d084:    2001        .       MOVS     r0,#1
        0x0000d086:    9025        %.      STR      r0,[sp,#0x94]
        0x0000d088:    e17b        {.      B        0xd382 ; am_devices_mspi_atxp032_init + 1034
        0x0000d08a:    9815        ..      LDR      r0,[sp,#0x54]
        0x0000d08c:    2200        ."      MOVS     r2,#0
        0x0000d08e:    4611        .F      MOV      r1,r2
        0x0000d090:    f002ffd6    ....    BL       am_hal_mspi_power_control ; 0x10040
        0x0000d094:    b118        ..      CBZ      r0,0xd09e ; am_devices_mspi_atxp032_init + 294
        0x0000d096:    e7ff        ..      B        0xd098 ; am_devices_mspi_atxp032_init + 288
        0x0000d098:    2001        .       MOVS     r0,#1
        0x0000d09a:    9025        %.      STR      r0,[sp,#0x94]
        0x0000d09c:    e171        q.      B        0xd382 ; am_devices_mspi_atxp032_init + 1034
        0x0000d09e:    981f        ..      LDR      r0,[sp,#0x7c]
        0x0000d0a0:    7940        @y      LDRB     r0,[r0,#5]
        0x0000d0a2:    4601        .F      MOV      r1,r0
        0x0000d0a4:    9108        ..      STR      r1,[sp,#0x20]
        0x0000d0a6:    b1a0        ..      CBZ      r0,0xd0d2 ; am_devices_mspi_atxp032_init + 346
        0x0000d0a8:    e7ff        ..      B        0xd0aa ; am_devices_mspi_atxp032_init + 306
        0x0000d0aa:    9808        ..      LDR      r0,[sp,#0x20]
        0x0000d0ac:    2801        .(      CMP      r0,#1
        0x0000d0ae:    d04e        N.      BEQ      0xd14e ; am_devices_mspi_atxp032_init + 470
        0x0000d0b0:    e7ff        ..      B        0xd0b2 ; am_devices_mspi_atxp032_init + 314
        0x0000d0b2:    9808        ..      LDR      r0,[sp,#0x20]
        0x0000d0b4:    2804        .(      CMP      r0,#4
        0x0000d0b6:    d00c        ..      BEQ      0xd0d2 ; am_devices_mspi_atxp032_init + 346
        0x0000d0b8:    e7ff        ..      B        0xd0ba ; am_devices_mspi_atxp032_init + 322
        0x0000d0ba:    9808        ..      LDR      r0,[sp,#0x20]
        0x0000d0bc:    2805        .(      CMP      r0,#5
        0x0000d0be:    d046        F.      BEQ      0xd14e ; am_devices_mspi_atxp032_init + 470
        0x0000d0c0:    e7ff        ..      B        0xd0c2 ; am_devices_mspi_atxp032_init + 330
        0x0000d0c2:    9808        ..      LDR      r0,[sp,#0x20]
        0x0000d0c4:    2806        .(      CMP      r0,#6
        0x0000d0c6:    d004        ..      BEQ      0xd0d2 ; am_devices_mspi_atxp032_init + 346
        0x0000d0c8:    e7ff        ..      B        0xd0ca ; am_devices_mspi_atxp032_init + 338
        0x0000d0ca:    9808        ..      LDR      r0,[sp,#0x20]
        0x0000d0cc:    2807        .(      CMP      r0,#7
        0x0000d0ce:    d03e        >.      BEQ      0xd14e ; am_devices_mspi_atxp032_init + 470
        0x0000d0d0:    e07b        {.      B        0xd1ca ; am_devices_mspi_atxp032_init + 594
        0x0000d0d2:    9814        ..      LDR      r0,[sp,#0x50]
        0x0000d0d4:    eb000140    ..@.    ADD      r1,r0,r0,LSL #1
        0x0000d0d8:    f64310dc    C...    MOV      r0,#0x39dc
        0x0000d0dc:    f2c10001    ....    MOVT     r0,#0x1001
        0x0000d0e0:    eb001101    ....    ADD      r1,r0,r1,LSL #4
        0x0000d0e4:    9106        ..      STR      r1,[sp,#0x18]
        0x0000d0e6:    f2410290    A...    MOV      r2,#0x1090
        0x0000d0ea:    f2c10201    ....    MOVT     r2,#0x1001
        0x0000d0ee:    9207        ..      STR      r2,[sp,#0x1c]
        0x0000d0f0:    6810        .h      LDR      r0,[r2,#0]
        0x0000d0f2:    6853        Sh      LDR      r3,[r2,#4]
        0x0000d0f4:    f8d2c008    ....    LDR      r12,[r2,#8]
        0x0000d0f8:    f8d2e00c    ....    LDR      lr,[r2,#0xc]
        0x0000d0fc:    6914        .i      LDR      r4,[r2,#0x10]
        0x0000d0fe:    6955        Ui      LDR      r5,[r2,#0x14]
        0x0000d100:    61cd        .a      STR      r5,[r1,#0x1c]
        0x0000d102:    618c        .a      STR      r4,[r1,#0x18]
        0x0000d104:    f8c1e014    ....    STR      lr,[r1,#0x14]
        0x0000d108:    f8c1c010    ....    STR      r12,[r1,#0x10]
        0x0000d10c:    60cb        .`      STR      r3,[r1,#0xc]
        0x0000d10e:    6088        .`      STR      r0,[r1,#8]
        0x0000d110:    6990        .i      LDR      r0,[r2,#0x18]
        0x0000d112:    69d3        .i      LDR      r3,[r2,#0x1c]
        0x0000d114:    f8d2c020    .. .    LDR      r12,[r2,#0x20]
        0x0000d118:    f8c1c028    ..(.    STR      r12,[r1,#0x28]
        0x0000d11c:    624b        Kb      STR      r3,[r1,#0x24]
        0x0000d11e:    6208        .b      STR      r0,[r1,#0x20]
        0x0000d120:    6810        .h      LDR      r0,[r2,#0]
        0x0000d122:    6851        Qh      LDR      r1,[r2,#4]
        0x0000d124:    6893        .h      LDR      r3,[r2,#8]
        0x0000d126:    f8d2c00c    ....    LDR      r12,[r2,#0xc]
        0x0000d12a:    f8d2e010    ....    LDR      lr,[r2,#0x10]
        0x0000d12e:    6954        Ti      LDR      r4,[r2,#0x14]
        0x0000d130:    941b        ..      STR      r4,[sp,#0x6c]
        0x0000d132:    f8cde068    ..h.    STR      lr,[sp,#0x68]
        0x0000d136:    f8cdc064    ..d.    STR      r12,[sp,#0x64]
        0x0000d13a:    9318        ..      STR      r3,[sp,#0x60]
        0x0000d13c:    9117        ..      STR      r1,[sp,#0x5c]
        0x0000d13e:    9016        ..      STR      r0,[sp,#0x58]
        0x0000d140:    6990        .i      LDR      r0,[r2,#0x18]
        0x0000d142:    69d1        .i      LDR      r1,[r2,#0x1c]
        0x0000d144:    6a12        .j      LDR      r2,[r2,#0x20]
        0x0000d146:    921e        ..      STR      r2,[sp,#0x78]
        0x0000d148:    911d        ..      STR      r1,[sp,#0x74]
        0x0000d14a:    901c        ..      STR      r0,[sp,#0x70]
        0x0000d14c:    e040        @.      B        0xd1d0 ; am_devices_mspi_atxp032_init + 600
        0x0000d14e:    9814        ..      LDR      r0,[sp,#0x50]
        0x0000d150:    eb000140    ..@.    ADD      r1,r0,r0,LSL #1
        0x0000d154:    f64310dc    C...    MOV      r0,#0x39dc
        0x0000d158:    f2c10001    ....    MOVT     r0,#0x1001
        0x0000d15c:    eb001101    ....    ADD      r1,r0,r1,LSL #4
        0x0000d160:    9104        ..      STR      r1,[sp,#0x10]
        0x0000d162:    f24102b4    A...    MOV      r2,#0x10b4
        0x0000d166:    f2c10201    ....    MOVT     r2,#0x1001
        0x0000d16a:    9205        ..      STR      r2,[sp,#0x14]
        0x0000d16c:    6810        .h      LDR      r0,[r2,#0]
        0x0000d16e:    6853        Sh      LDR      r3,[r2,#4]
        0x0000d170:    f8d2c008    ....    LDR      r12,[r2,#8]
        0x0000d174:    f8d2e00c    ....    LDR      lr,[r2,#0xc]
        0x0000d178:    6914        .i      LDR      r4,[r2,#0x10]
        0x0000d17a:    6955        Ui      LDR      r5,[r2,#0x14]
        0x0000d17c:    61cd        .a      STR      r5,[r1,#0x1c]
        0x0000d17e:    618c        .a      STR      r4,[r1,#0x18]
        0x0000d180:    f8c1e014    ....    STR      lr,[r1,#0x14]
        0x0000d184:    f8c1c010    ....    STR      r12,[r1,#0x10]
        0x0000d188:    60cb        .`      STR      r3,[r1,#0xc]
        0x0000d18a:    6088        .`      STR      r0,[r1,#8]
        0x0000d18c:    6990        .i      LDR      r0,[r2,#0x18]
        0x0000d18e:    69d3        .i      LDR      r3,[r2,#0x1c]
        0x0000d190:    f8d2c020    .. .    LDR      r12,[r2,#0x20]
        0x0000d194:    f8c1c028    ..(.    STR      r12,[r1,#0x28]
        0x0000d198:    624b        Kb      STR      r3,[r1,#0x24]
        0x0000d19a:    6208        .b      STR      r0,[r1,#0x20]
        0x0000d19c:    6810        .h      LDR      r0,[r2,#0]
        0x0000d19e:    6851        Qh      LDR      r1,[r2,#4]
        0x0000d1a0:    6893        .h      LDR      r3,[r2,#8]
        0x0000d1a2:    f8d2c00c    ....    LDR      r12,[r2,#0xc]
        0x0000d1a6:    f8d2e010    ....    LDR      lr,[r2,#0x10]
        0x0000d1aa:    6954        Ti      LDR      r4,[r2,#0x14]
        0x0000d1ac:    941b        ..      STR      r4,[sp,#0x6c]
        0x0000d1ae:    f8cde068    ..h.    STR      lr,[sp,#0x68]
        0x0000d1b2:    f8cdc064    ..d.    STR      r12,[sp,#0x64]
        0x0000d1b6:    9318        ..      STR      r3,[sp,#0x60]
        0x0000d1b8:    9117        ..      STR      r1,[sp,#0x5c]
        0x0000d1ba:    9016        ..      STR      r0,[sp,#0x58]
        0x0000d1bc:    6990        .i      LDR      r0,[r2,#0x18]
        0x0000d1be:    69d1        .i      LDR      r1,[r2,#0x1c]
        0x0000d1c0:    6a12        .j      LDR      r2,[r2,#0x20]
        0x0000d1c2:    921e        ..      STR      r2,[sp,#0x78]
        0x0000d1c4:    911d        ..      STR      r1,[sp,#0x74]
        0x0000d1c6:    901c        ..      STR      r0,[sp,#0x70]
        0x0000d1c8:    e002        ..      B        0xd1d0 ; am_devices_mspi_atxp032_init + 600
        0x0000d1ca:    2001        .       MOVS     r0,#1
        0x0000d1cc:    9025        %.      STR      r0,[sp,#0x94]
        0x0000d1ce:    e0d8        ..      B        0xd382 ; am_devices_mspi_atxp032_init + 1034
        0x0000d1d0:    9815        ..      LDR      r0,[sp,#0x54]
        0x0000d1d2:    a916        ..      ADD      r1,sp,#0x58
        0x0000d1d4:    f002fafe    ....    BL       am_hal_mspi_device_configure ; 0xf7d4
        0x0000d1d8:    b118        ..      CBZ      r0,0xd1e2 ; am_devices_mspi_atxp032_init + 618
        0x0000d1da:    e7ff        ..      B        0xd1dc ; am_devices_mspi_atxp032_init + 612
        0x0000d1dc:    2001        .       MOVS     r0,#1
        0x0000d1de:    9025        %.      STR      r0,[sp,#0x94]
        0x0000d1e0:    e0cf        ..      B        0xd382 ; am_devices_mspi_atxp032_init + 1034
        0x0000d1e2:    9815        ..      LDR      r0,[sp,#0x54]
        0x0000d1e4:    f002fc2c    ..,.    BL       am_hal_mspi_enable ; 0xfa40
        0x0000d1e8:    b118        ..      CBZ      r0,0xd1f2 ; am_devices_mspi_atxp032_init + 634
        0x0000d1ea:    e7ff        ..      B        0xd1ec ; am_devices_mspi_atxp032_init + 628
        0x0000d1ec:    2001        .       MOVS     r0,#1
        0x0000d1ee:    9025        %.      STR      r0,[sp,#0x94]
        0x0000d1f0:    e0c7        ..      B        0xd382 ; am_devices_mspi_atxp032_init + 1034
        0x0000d1f2:    9824        $.      LDR      r0,[sp,#0x90]
        0x0000d1f4:    f89d105d    ..].    LDRB     r1,[sp,#0x5d]
        0x0000d1f8:    f7fff9a0    ....    BL       am_bsp_mspi_pins_enable ; 0xc53c
        0x0000d1fc:    9915        ..      LDR      r1,[sp,#0x54]
        0x0000d1fe:    9814        ..      LDR      r0,[sp,#0x50]
        0x0000d200:    eb000240    ..@.    ADD      r2,r0,r0,LSL #1
        0x0000d204:    f64310dc    C...    MOV      r0,#0x39dc
        0x0000d208:    f2c10001    ....    MOVT     r0,#0x1001
        0x0000d20c:    eb001202    ....    ADD      r2,r0,r2,LSL #4
        0x0000d210:    6051        Q`      STR      r1,[r2,#4]
        0x0000d212:    9924        $.      LDR      r1,[sp,#0x90]
        0x0000d214:    9a14        ..      LDR      r2,[sp,#0x50]
        0x0000d216:    eb020242    ..B.    ADD      r2,r2,r2,LSL #1
        0x0000d21a:    0112        ..      LSLS     r2,r2,#4
        0x0000d21c:    5081        .P      STR      r1,[r0,r2]
        0x0000d21e:    9914        ..      LDR      r1,[sp,#0x50]
        0x0000d220:    eb010141    ..A.    ADD      r1,r1,r1,LSL #1
        0x0000d224:    eb001001    ....    ADD      r0,r0,r1,LSL #4
        0x0000d228:    f000f994    ....    BL       am_devices_mspi_atxp032_reset ; 0xd554
        0x0000d22c:    b118        ..      CBZ      r0,0xd236 ; am_devices_mspi_atxp032_init + 702
        0x0000d22e:    e7ff        ..      B        0xd230 ; am_devices_mspi_atxp032_init + 696
        0x0000d230:    2001        .       MOVS     r0,#1
        0x0000d232:    9025        %.      STR      r0,[sp,#0x94]
        0x0000d234:    e0a5        ..      B        0xd382 ; am_devices_mspi_atxp032_init + 1034
        0x0000d236:    9814        ..      LDR      r0,[sp,#0x50]
        0x0000d238:    eb000140    ..@.    ADD      r1,r0,r0,LSL #1
        0x0000d23c:    f64310dc    C...    MOV      r0,#0x39dc
        0x0000d240:    f2c10001    ....    MOVT     r0,#0x1001
        0x0000d244:    eb001201    ....    ADD      r2,r0,r1,LSL #4
        0x0000d248:    9202        ..      STR      r2,[sp,#8]
        0x0000d24a:    f8ddc07c    ..|.    LDR      r12,[sp,#0x7c]
        0x0000d24e:    f8cdc00c    ....    STR      r12,[sp,#0xc]
        0x0000d252:    f8dc1000    ....    LDR      r1,[r12,#0]
        0x0000d256:    f8dc3004    ...0    LDR      r3,[r12,#4]
        0x0000d25a:    f8dce008    ....    LDR      lr,[r12,#8]
        0x0000d25e:    f8dc400c    ...@    LDR      r4,[r12,#0xc]
        0x0000d262:    f8dc5010    ...P    LDR      r5,[r12,#0x10]
        0x0000d266:    f8dc6014    ...`    LDR      r6,[r12,#0x14]
        0x0000d26a:    61d6        .a      STR      r6,[r2,#0x1c]
        0x0000d26c:    6195        .a      STR      r5,[r2,#0x18]
        0x0000d26e:    6154        Ta      STR      r4,[r2,#0x14]
        0x0000d270:    f8c2e010    ....    STR      lr,[r2,#0x10]
        0x0000d274:    60d3        .`      STR      r3,[r2,#0xc]
        0x0000d276:    6091        .`      STR      r1,[r2,#8]
        0x0000d278:    f8dc1018    ....    LDR      r1,[r12,#0x18]
        0x0000d27c:    f8dc301c    ...0    LDR      r3,[r12,#0x1c]
        0x0000d280:    f8dcc020    .. .    LDR      r12,[r12,#0x20]
        0x0000d284:    f8c2c028    ..(.    STR      r12,[r2,#0x28]
        0x0000d288:    6253        Sb      STR      r3,[r2,#0x24]
        0x0000d28a:    6211        .b      STR      r1,[r2,#0x20]
        0x0000d28c:    9914        ..      LDR      r1,[sp,#0x50]
        0x0000d28e:    eb010141    ..A.    ADD      r1,r1,r1,LSL #1
        0x0000d292:    eb001001    ....    ADD      r0,r0,r1,LSL #4
        0x0000d296:    f7fffc45    ..E.    BL       am_device_init_flash ; 0xcb24
        0x0000d29a:    9020         .      STR      r0,[sp,#0x80]
        0x0000d29c:    9820         .      LDR      r0,[sp,#0x80]
        0x0000d29e:    b118        ..      CBZ      r0,0xd2a8 ; am_devices_mspi_atxp032_init + 816
        0x0000d2a0:    e7ff        ..      B        0xd2a2 ; am_devices_mspi_atxp032_init + 810
        0x0000d2a2:    2001        .       MOVS     r0,#1
        0x0000d2a4:    9025        %.      STR      r0,[sp,#0x94]
        0x0000d2a6:    e06c        l.      B        0xd382 ; am_devices_mspi_atxp032_init + 1034
        0x0000d2a8:    9815        ..      LDR      r0,[sp,#0x54]
        0x0000d2aa:    f002fb95    ....    BL       am_hal_mspi_disable ; 0xf9d8
        0x0000d2ae:    9020         .      STR      r0,[sp,#0x80]
        0x0000d2b0:    9820         .      LDR      r0,[sp,#0x80]
        0x0000d2b2:    b118        ..      CBZ      r0,0xd2bc ; am_devices_mspi_atxp032_init + 836
        0x0000d2b4:    e7ff        ..      B        0xd2b6 ; am_devices_mspi_atxp032_init + 830
        0x0000d2b6:    2001        .       MOVS     r0,#1
        0x0000d2b8:    9025        %.      STR      r0,[sp,#0x94]
        0x0000d2ba:    e062        b.      B        0xd382 ; am_devices_mspi_atxp032_init + 1034
        0x0000d2bc:    9a1f        ..      LDR      r2,[sp,#0x7c]
        0x0000d2be:    9201        ..      STR      r2,[sp,#4]
        0x0000d2c0:    6810        .h      LDR      r0,[r2,#0]
        0x0000d2c2:    6851        Qh      LDR      r1,[r2,#4]
        0x0000d2c4:    6893        .h      LDR      r3,[r2,#8]
        0x0000d2c6:    f8d2c00c    ....    LDR      r12,[r2,#0xc]
        0x0000d2ca:    f8d2e010    ....    LDR      lr,[r2,#0x10]
        0x0000d2ce:    6954        Ti      LDR      r4,[r2,#0x14]
        0x0000d2d0:    940e        ..      STR      r4,[sp,#0x38]
        0x0000d2d2:    f8cde034    ..4.    STR      lr,[sp,#0x34]
        0x0000d2d6:    f8cdc030    ..0.    STR      r12,[sp,#0x30]
        0x0000d2da:    930b        ..      STR      r3,[sp,#0x2c]
        0x0000d2dc:    910a        ..      STR      r1,[sp,#0x28]
        0x0000d2de:    9009        ..      STR      r0,[sp,#0x24]
        0x0000d2e0:    6990        .i      LDR      r0,[r2,#0x18]
        0x0000d2e2:    69d1        .i      LDR      r1,[r2,#0x1c]
        0x0000d2e4:    6a12        .j      LDR      r2,[r2,#0x20]
        0x0000d2e6:    9211        ..      STR      r2,[sp,#0x44]
        0x0000d2e8:    9110        ..      STR      r1,[sp,#0x40]
        0x0000d2ea:    900f        ..      STR      r0,[sp,#0x3c]
        0x0000d2ec:    9815        ..      LDR      r0,[sp,#0x54]
        0x0000d2ee:    a909        ..      ADD      r1,sp,#0x24
        0x0000d2f0:    f002fa70    ..p.    BL       am_hal_mspi_device_configure ; 0xf7d4
        0x0000d2f4:    9020         .      STR      r0,[sp,#0x80]
        0x0000d2f6:    9820         .      LDR      r0,[sp,#0x80]
        0x0000d2f8:    b118        ..      CBZ      r0,0xd302 ; am_devices_mspi_atxp032_init + 906
        0x0000d2fa:    e7ff        ..      B        0xd2fc ; am_devices_mspi_atxp032_init + 900
        0x0000d2fc:    2001        .       MOVS     r0,#1
        0x0000d2fe:    9025        %.      STR      r0,[sp,#0x94]
        0x0000d300:    e03f        ?.      B        0xd382 ; am_devices_mspi_atxp032_init + 1034
        0x0000d302:    9815        ..      LDR      r0,[sp,#0x54]
        0x0000d304:    f002fb9c    ....    BL       am_hal_mspi_enable ; 0xfa40
        0x0000d308:    9020         .      STR      r0,[sp,#0x80]
        0x0000d30a:    9820         .      LDR      r0,[sp,#0x80]
        0x0000d30c:    b118        ..      CBZ      r0,0xd316 ; am_devices_mspi_atxp032_init + 926
        0x0000d30e:    e7ff        ..      B        0xd310 ; am_devices_mspi_atxp032_init + 920
        0x0000d310:    2001        .       MOVS     r0,#1
        0x0000d312:    9025        %.      STR      r0,[sp,#0x94]
        0x0000d314:    e035        5.      B        0xd382 ; am_devices_mspi_atxp032_init + 1034
        0x0000d316:    9824        $.      LDR      r0,[sp,#0x90]
        0x0000d318:    991f        ..      LDR      r1,[sp,#0x7c]
        0x0000d31a:    7949        Iy      LDRB     r1,[r1,#5]
        0x0000d31c:    f7fff90e    ....    BL       am_bsp_mspi_pins_enable ; 0xc53c
        0x0000d320:    9815        ..      LDR      r0,[sp,#0x54]
        0x0000d322:    f44f51d4    O..Q    MOV      r1,#0x1a80
        0x0000d326:    f002fc01    ....    BL       am_hal_mspi_interrupt_clear ; 0xfb2c
        0x0000d32a:    9020         .      STR      r0,[sp,#0x80]
        0x0000d32c:    9820         .      LDR      r0,[sp,#0x80]
        0x0000d32e:    b118        ..      CBZ      r0,0xd338 ; am_devices_mspi_atxp032_init + 960
        0x0000d330:    e7ff        ..      B        0xd332 ; am_devices_mspi_atxp032_init + 954
        0x0000d332:    2001        .       MOVS     r0,#1
        0x0000d334:    9025        %.      STR      r0,[sp,#0x94]
        0x0000d336:    e024        $.      B        0xd382 ; am_devices_mspi_atxp032_init + 1034
        0x0000d338:    9815        ..      LDR      r0,[sp,#0x54]
        0x0000d33a:    f44f51d4    O..Q    MOV      r1,#0x1a80
        0x0000d33e:    f002fc23    ..#.    BL       am_hal_mspi_interrupt_enable ; 0xfb88
        0x0000d342:    9020         .      STR      r0,[sp,#0x80]
        0x0000d344:    9820         .      LDR      r0,[sp,#0x80]
        0x0000d346:    b118        ..      CBZ      r0,0xd350 ; am_devices_mspi_atxp032_init + 984
        0x0000d348:    e7ff        ..      B        0xd34a ; am_devices_mspi_atxp032_init + 978
        0x0000d34a:    2001        .       MOVS     r0,#1
        0x0000d34c:    9025        %.      STR      r0,[sp,#0x94]
        0x0000d34e:    e018        ..      B        0xd382 ; am_devices_mspi_atxp032_init + 1034
        0x0000d350:    9814        ..      LDR      r0,[sp,#0x50]
        0x0000d352:    eb000140    ..@.    ADD      r1,r0,r0,LSL #1
        0x0000d356:    f64310dc    C...    MOV      r0,#0x39dc
        0x0000d35a:    f2c10001    ....    MOVT     r0,#0x1001
        0x0000d35e:    eb001201    ....    ADD      r2,r0,r1,LSL #4
        0x0000d362:    2101        .!      MOVS     r1,#1
        0x0000d364:    f882102c    ..,.    STRB     r1,[r2,#0x2c]
        0x0000d368:    9915        ..      LDR      r1,[sp,#0x54]
        0x0000d36a:    9a21        !.      LDR      r2,[sp,#0x84]
        0x0000d36c:    6011        .`      STR      r1,[r2,#0]
        0x0000d36e:    9914        ..      LDR      r1,[sp,#0x50]
        0x0000d370:    eb010141    ..A.    ADD      r1,r1,r1,LSL #1
        0x0000d374:    eb001001    ....    ADD      r0,r0,r1,LSL #4
        0x0000d378:    9922        ".      LDR      r1,[sp,#0x88]
        0x0000d37a:    6008        .`      STR      r0,[r1,#0]
        0x0000d37c:    2000        .       MOVS     r0,#0
        0x0000d37e:    9025        %.      STR      r0,[sp,#0x94]
        0x0000d380:    e7ff        ..      B        0xd382 ; am_devices_mspi_atxp032_init + 1034
        0x0000d382:    9825        %.      LDR      r0,[sp,#0x94]
        0x0000d384:    b026        &.      ADD      sp,sp,#0x98
        0x0000d386:    bd70        p.      POP      {r4-r6,pc}
    am_devices_mspi_atxp032_mass_erase
        0x0000d388:    b580        ..      PUSH     {r7,lr}
        0x0000d38a:    b0aa        ..      SUB      sp,sp,#0xa8
        0x0000d38c:    9028        (.      STR      r0,[sp,#0xa0]
        0x0000d38e:    2000        .       MOVS     r0,#0
        0x0000d390:    9004        ..      STR      r0,[sp,#0x10]
        0x0000d392:    f88d009f    ....    STRB     r0,[sp,#0x9f]
        0x0000d396:    a806        ..      ADD      r0,sp,#0x18
        0x0000d398:    9003        ..      STR      r0,[sp,#0xc]
        0x0000d39a:    2180        .!      MOVS     r1,#0x80
        0x0000d39c:    f7feff99    ....    BL       __aeabi_memclr4 ; 0xc2d2
        0x0000d3a0:    9903        ..      LDR      r1,[sp,#0xc]
        0x0000d3a2:    9b04        ..      LDR      r3,[sp,#0x10]
        0x0000d3a4:    9828        (.      LDR      r0,[sp,#0xa0]
        0x0000d3a6:    466a        jF      MOV      r2,sp
        0x0000d3a8:    6053        S`      STR      r3,[r2,#4]
        0x0000d3aa:    6011        .`      STR      r1,[r2,#0]
        0x0000d3ac:    2106        .!      MOVS     r1,#6
        0x0000d3ae:    461a        .F      MOV      r2,r3
        0x0000d3b0:    f7fffc76    ..v.    BL       am_devices_mspi_atxp032_command_write ; 0xcca0
        0x0000d3b4:    9026        &.      STR      r0,[sp,#0x98]
        0x0000d3b6:    9826        &.      LDR      r0,[sp,#0x98]
        0x0000d3b8:    b118        ..      CBZ      r0,0xd3c2 ; am_devices_mspi_atxp032_mass_erase + 58
        0x0000d3ba:    e7ff        ..      B        0xd3bc ; am_devices_mspi_atxp032_mass_erase + 52
        0x0000d3bc:    2001        .       MOVS     r0,#1
        0x0000d3be:    9029        ).      STR      r0,[sp,#0xa4]
        0x0000d3c0:    e057        W.      B        0xd472 ; am_devices_mspi_atxp032_mass_erase + 234
        0x0000d3c2:    9828        (.      LDR      r0,[sp,#0xa0]
        0x0000d3c4:    466a        jF      MOV      r2,sp
        0x0000d3c6:    2300        .#      MOVS     r3,#0
        0x0000d3c8:    6053        S`      STR      r3,[r2,#4]
        0x0000d3ca:    a906        ..      ADD      r1,sp,#0x18
        0x0000d3cc:    6011        .`      STR      r1,[r2,#0]
        0x0000d3ce:    21c7        .!      MOVS     r1,#0xc7
        0x0000d3d0:    461a        .F      MOV      r2,r3
        0x0000d3d2:    f7fffc65    ..e.    BL       am_devices_mspi_atxp032_command_write ; 0xcca0
        0x0000d3d6:    9026        &.      STR      r0,[sp,#0x98]
        0x0000d3d8:    9826        &.      LDR      r0,[sp,#0x98]
        0x0000d3da:    b118        ..      CBZ      r0,0xd3e4 ; am_devices_mspi_atxp032_mass_erase + 92
        0x0000d3dc:    e7ff        ..      B        0xd3de ; am_devices_mspi_atxp032_mass_erase + 86
        0x0000d3de:    2001        .       MOVS     r0,#1
        0x0000d3e0:    9029        ).      STR      r0,[sp,#0xa4]
        0x0000d3e2:    e046        F.      B        0xd472 ; am_devices_mspi_atxp032_mass_erase + 234
        0x0000d3e4:    2000        .       MOVS     r0,#0
        0x0000d3e6:    9005        ..      STR      r0,[sp,#0x14]
        0x0000d3e8:    e7ff        ..      B        0xd3ea ; am_devices_mspi_atxp032_mass_erase + 98
        0x0000d3ea:    9805        ..      LDR      r0,[sp,#0x14]
        0x0000d3ec:    f244213f    D.?!    MOV      r1,#0x423f
        0x0000d3f0:    f2c0010f    ....    MOVT     r1,#0xf
        0x0000d3f4:    4288        .B      CMP      r0,r1
        0x0000d3f6:    d820         .      BHI      0xd43a ; am_devices_mspi_atxp032_mass_erase + 178
        0x0000d3f8:    e7ff        ..      B        0xd3fa ; am_devices_mspi_atxp032_mass_erase + 114
        0x0000d3fa:    2300        .#      MOVS     r3,#0
        0x0000d3fc:    9306        ..      STR      r3,[sp,#0x18]
        0x0000d3fe:    9828        (.      LDR      r0,[sp,#0xa0]
        0x0000d400:    466a        jF      MOV      r2,sp
        0x0000d402:    2101        .!      MOVS     r1,#1
        0x0000d404:    9102        ..      STR      r1,[sp,#8]
        0x0000d406:    6051        Q`      STR      r1,[r2,#4]
        0x0000d408:    a906        ..      ADD      r1,sp,#0x18
        0x0000d40a:    6011        .`      STR      r1,[r2,#0]
        0x0000d40c:    2105        .!      MOVS     r1,#5
        0x0000d40e:    461a        .F      MOV      r2,r3
        0x0000d410:    f7fffbf4    ....    BL       am_devices_mspi_atxp032_command_read ; 0xcbfc
        0x0000d414:    9802        ..      LDR      r0,[sp,#8]
        0x0000d416:    9906        ..      LDR      r1,[sp,#0x18]
        0x0000d418:    4388        .C      BICS     r0,r0,r1
        0x0000d41a:    f88d009f    ....    STRB     r0,[sp,#0x9f]
        0x0000d41e:    f89d009f    ....    LDRB     r0,[sp,#0x9f]
        0x0000d422:    07c0        ..      LSLS     r0,r0,#31
        0x0000d424:    b108        ..      CBZ      r0,0xd42a ; am_devices_mspi_atxp032_mass_erase + 162
        0x0000d426:    e7ff        ..      B        0xd428 ; am_devices_mspi_atxp032_mass_erase + 160
        0x0000d428:    e007        ..      B        0xd43a ; am_devices_mspi_atxp032_mass_erase + 178
        0x0000d42a:    200a        .       MOVS     r0,#0xa
        0x0000d42c:    f003f938    ..8.    BL       am_util_delay_ms ; 0x106a0
        0x0000d430:    e7ff        ..      B        0xd432 ; am_devices_mspi_atxp032_mass_erase + 170
        0x0000d432:    9805        ..      LDR      r0,[sp,#0x14]
        0x0000d434:    3001        .0      ADDS     r0,#1
        0x0000d436:    9005        ..      STR      r0,[sp,#0x14]
        0x0000d438:    e7d7        ..      B        0xd3ea ; am_devices_mspi_atxp032_mass_erase + 98
        0x0000d43a:    f89d009f    ....    LDRB     r0,[sp,#0x9f]
        0x0000d43e:    07c0        ..      LSLS     r0,r0,#31
        0x0000d440:    b918        ..      CBNZ     r0,0xd44a ; am_devices_mspi_atxp032_mass_erase + 194
        0x0000d442:    e7ff        ..      B        0xd444 ; am_devices_mspi_atxp032_mass_erase + 188
        0x0000d444:    2001        .       MOVS     r0,#1
        0x0000d446:    9029        ).      STR      r0,[sp,#0xa4]
        0x0000d448:    e013        ..      B        0xd472 ; am_devices_mspi_atxp032_mass_erase + 234
        0x0000d44a:    9828        (.      LDR      r0,[sp,#0xa0]
        0x0000d44c:    466a        jF      MOV      r2,sp
        0x0000d44e:    2300        .#      MOVS     r3,#0
        0x0000d450:    6053        S`      STR      r3,[r2,#4]
        0x0000d452:    a906        ..      ADD      r1,sp,#0x18
        0x0000d454:    6011        .`      STR      r1,[r2,#0]
        0x0000d456:    2104        .!      MOVS     r1,#4
        0x0000d458:    461a        .F      MOV      r2,r3
        0x0000d45a:    f7fffc21    ..!.    BL       am_devices_mspi_atxp032_command_write ; 0xcca0
        0x0000d45e:    9026        &.      STR      r0,[sp,#0x98]
        0x0000d460:    9826        &.      LDR      r0,[sp,#0x98]
        0x0000d462:    b118        ..      CBZ      r0,0xd46c ; am_devices_mspi_atxp032_mass_erase + 228
        0x0000d464:    e7ff        ..      B        0xd466 ; am_devices_mspi_atxp032_mass_erase + 222
        0x0000d466:    2001        .       MOVS     r0,#1
        0x0000d468:    9029        ).      STR      r0,[sp,#0xa4]
        0x0000d46a:    e002        ..      B        0xd472 ; am_devices_mspi_atxp032_mass_erase + 234
        0x0000d46c:    2000        .       MOVS     r0,#0
        0x0000d46e:    9029        ).      STR      r0,[sp,#0xa4]
        0x0000d470:    e7ff        ..      B        0xd472 ; am_devices_mspi_atxp032_mass_erase + 234
        0x0000d472:    9829        ).      LDR      r0,[sp,#0xa4]
        0x0000d474:    b02a        *.      ADD      sp,sp,#0xa8
        0x0000d476:    bd80        ..      POP      {r7,pc}
    am_devices_mspi_atxp032_read
        0x0000d478:    b580        ..      PUSH     {r7,lr}
        0x0000d47a:    b092        ..      SUB      sp,sp,#0x48
        0x0000d47c:    4684        .F      MOV      r12,r0
        0x0000d47e:    9814        ..      LDR      r0,[sp,#0x50]
        0x0000d480:    f8cdc040    ..@.    STR      r12,[sp,#0x40]
        0x0000d484:    910f        ..      STR      r1,[sp,#0x3c]
        0x0000d486:    920e        ..      STR      r2,[sp,#0x38]
        0x0000d488:    930d        ..      STR      r3,[sp,#0x34]
        0x0000d48a:    f88d0033    ..3.    STRB     r0,[sp,#0x33]
        0x0000d48e:    9810        ..      LDR      r0,[sp,#0x40]
        0x0000d490:    9004        ..      STR      r0,[sp,#0x10]
        0x0000d492:    2001        .       MOVS     r0,#1
        0x0000d494:    f88d0018    ....    STRB     r0,[sp,#0x18]
        0x0000d498:    2000        .       MOVS     r0,#0
        0x0000d49a:    f88d0019    ....    STRB     r0,[sp,#0x19]
        0x0000d49e:    990d        ..      LDR      r1,[sp,#0x34]
        0x0000d4a0:    9107        ..      STR      r1,[sp,#0x1c]
        0x0000d4a2:    990e        ..      LDR      r1,[sp,#0x38]
        0x0000d4a4:    9108        ..      STR      r1,[sp,#0x20]
        0x0000d4a6:    990f        ..      LDR      r1,[sp,#0x3c]
        0x0000d4a8:    9109        ..      STR      r1,[sp,#0x24]
        0x0000d4aa:    900a        ..      STR      r0,[sp,#0x28]
        0x0000d4ac:    900b        ..      STR      r0,[sp,#0x2c]
        0x0000d4ae:    f89d0033    ..3.    LDRB     r0,[sp,#0x33]
        0x0000d4b2:    07c0        ..      LSLS     r0,r0,#31
        0x0000d4b4:    b3b8        ..      CBZ      r0,0xd526 ; am_devices_mspi_atxp032_read + 174
        0x0000d4b6:    e7ff        ..      B        0xd4b8 ; am_devices_mspi_atxp032_read + 64
        0x0000d4b8:    f04f30ff    O..0    MOV      r0,#0xffffffff
        0x0000d4bc:    9003        ..      STR      r0,[sp,#0xc]
        0x0000d4be:    9804        ..      LDR      r0,[sp,#0x10]
        0x0000d4c0:    6840        @h      LDR      r0,[r0,#4]
        0x0000d4c2:    466a        jF      MOV      r2,sp
        0x0000d4c4:    a903        ..      ADD      r1,sp,#0xc
        0x0000d4c6:    6011        .`      STR      r1,[r2,#0]
        0x0000d4c8:    f242135d    B.].    MOV      r3,#0x215d
        0x0000d4cc:    f2c00301    ....    MOVT     r3,#1
        0x0000d4d0:    a906        ..      ADD      r1,sp,#0x18
        0x0000d4d2:    2201        ."      MOVS     r2,#1
        0x0000d4d4:    f002fcec    ....    BL       am_hal_mspi_nonblocking_transfer ; 0xfeb0
        0x0000d4d8:    9005        ..      STR      r0,[sp,#0x14]
        0x0000d4da:    9805        ..      LDR      r0,[sp,#0x14]
        0x0000d4dc:    b118        ..      CBZ      r0,0xd4e6 ; am_devices_mspi_atxp032_read + 110
        0x0000d4de:    e7ff        ..      B        0xd4e0 ; am_devices_mspi_atxp032_read + 104
        0x0000d4e0:    2001        .       MOVS     r0,#1
        0x0000d4e2:    9011        ..      STR      r0,[sp,#0x44]
        0x0000d4e4:    e033        3.      B        0xd54e ; am_devices_mspi_atxp032_read + 214
        0x0000d4e6:    2000        .       MOVS     r0,#0
        0x0000d4e8:    9002        ..      STR      r0,[sp,#8]
        0x0000d4ea:    e7ff        ..      B        0xd4ec ; am_devices_mspi_atxp032_read + 116
        0x0000d4ec:    9802        ..      LDR      r0,[sp,#8]
        0x0000d4ee:    f244213f    D.?!    MOV      r1,#0x423f
        0x0000d4f2:    f2c0010f    ....    MOVT     r1,#0xf
        0x0000d4f6:    4288        .B      CMP      r0,r1
        0x0000d4f8:    d80c        ..      BHI      0xd514 ; am_devices_mspi_atxp032_read + 156
        0x0000d4fa:    e7ff        ..      B        0xd4fc ; am_devices_mspi_atxp032_read + 132
        0x0000d4fc:    9803        ..      LDR      r0,[sp,#0xc]
        0x0000d4fe:    b908        ..      CBNZ     r0,0xd504 ; am_devices_mspi_atxp032_read + 140
        0x0000d500:    e7ff        ..      B        0xd502 ; am_devices_mspi_atxp032_read + 138
        0x0000d502:    e007        ..      B        0xd514 ; am_devices_mspi_atxp032_read + 156
        0x0000d504:    2001        .       MOVS     r0,#1
        0x0000d506:    f003f8e3    ....    BL       am_util_delay_us ; 0x106d0
        0x0000d50a:    e7ff        ..      B        0xd50c ; am_devices_mspi_atxp032_read + 148
        0x0000d50c:    9802        ..      LDR      r0,[sp,#8]
        0x0000d50e:    3001        .0      ADDS     r0,#1
        0x0000d510:    9002        ..      STR      r0,[sp,#8]
        0x0000d512:    e7eb        ..      B        0xd4ec ; am_devices_mspi_atxp032_read + 116
        0x0000d514:    9803        ..      LDR      r0,[sp,#0xc]
        0x0000d516:    b918        ..      CBNZ     r0,0xd520 ; am_devices_mspi_atxp032_read + 168
        0x0000d518:    e7ff        ..      B        0xd51a ; am_devices_mspi_atxp032_read + 162
        0x0000d51a:    2000        .       MOVS     r0,#0
        0x0000d51c:    9011        ..      STR      r0,[sp,#0x44]
        0x0000d51e:    e016        ..      B        0xd54e ; am_devices_mspi_atxp032_read + 214
        0x0000d520:    2001        .       MOVS     r0,#1
        0x0000d522:    9011        ..      STR      r0,[sp,#0x44]
        0x0000d524:    e013        ..      B        0xd54e ; am_devices_mspi_atxp032_read + 214
        0x0000d526:    9804        ..      LDR      r0,[sp,#0x10]
        0x0000d528:    6840        @h      LDR      r0,[r0,#4]
        0x0000d52a:    4669        iF      MOV      r1,sp
        0x0000d52c:    2300        .#      MOVS     r3,#0
        0x0000d52e:    600b        .`      STR      r3,[r1,#0]
        0x0000d530:    a906        ..      ADD      r1,sp,#0x18
        0x0000d532:    2201        ."      MOVS     r2,#1
        0x0000d534:    f002fcbc    ....    BL       am_hal_mspi_nonblocking_transfer ; 0xfeb0
        0x0000d538:    9005        ..      STR      r0,[sp,#0x14]
        0x0000d53a:    9805        ..      LDR      r0,[sp,#0x14]
        0x0000d53c:    b118        ..      CBZ      r0,0xd546 ; am_devices_mspi_atxp032_read + 206
        0x0000d53e:    e7ff        ..      B        0xd540 ; am_devices_mspi_atxp032_read + 200
        0x0000d540:    2001        .       MOVS     r0,#1
        0x0000d542:    9011        ..      STR      r0,[sp,#0x44]
        0x0000d544:    e003        ..      B        0xd54e ; am_devices_mspi_atxp032_read + 214
        0x0000d546:    e7ff        ..      B        0xd548 ; am_devices_mspi_atxp032_read + 208
        0x0000d548:    2000        .       MOVS     r0,#0
        0x0000d54a:    9011        ..      STR      r0,[sp,#0x44]
        0x0000d54c:    e7ff        ..      B        0xd54e ; am_devices_mspi_atxp032_read + 214
        0x0000d54e:    9811        ..      LDR      r0,[sp,#0x44]
        0x0000d550:    b012        ..      ADD      sp,sp,#0x48
        0x0000d552:    bd80        ..      POP      {r7,pc}
    am_devices_mspi_atxp032_reset
        0x0000d554:    b580        ..      PUSH     {r7,lr}
        0x0000d556:    b0a6        ..      SUB      sp,sp,#0x98
        0x0000d558:    9024        $.      STR      r0,[sp,#0x90]
        0x0000d55a:    a803        ..      ADD      r0,sp,#0xc
        0x0000d55c:    9002        ..      STR      r0,[sp,#8]
        0x0000d55e:    2180        .!      MOVS     r1,#0x80
        0x0000d560:    f7fefeb7    ....    BL       __aeabi_memclr4 ; 0xc2d2
        0x0000d564:    9902        ..      LDR      r1,[sp,#8]
        0x0000d566:    9824        $.      LDR      r0,[sp,#0x90]
        0x0000d568:    466a        jF      MOV      r2,sp
        0x0000d56a:    2300        .#      MOVS     r3,#0
        0x0000d56c:    6053        S`      STR      r3,[r2,#4]
        0x0000d56e:    6011        .`      STR      r1,[r2,#0]
        0x0000d570:    2106        .!      MOVS     r1,#6
        0x0000d572:    461a        .F      MOV      r2,r3
        0x0000d574:    f7fffb94    ....    BL       am_devices_mspi_atxp032_command_write ; 0xcca0
        0x0000d578:    9023        #.      STR      r0,[sp,#0x8c]
        0x0000d57a:    9823        #.      LDR      r0,[sp,#0x8c]
        0x0000d57c:    b118        ..      CBZ      r0,0xd586 ; am_devices_mspi_atxp032_reset + 50
        0x0000d57e:    e7ff        ..      B        0xd580 ; am_devices_mspi_atxp032_reset + 44
        0x0000d580:    2001        .       MOVS     r0,#1
        0x0000d582:    9025        %.      STR      r0,[sp,#0x94]
        0x0000d584:    e024        $.      B        0xd5d0 ; am_devices_mspi_atxp032_reset + 124
        0x0000d586:    9824        $.      LDR      r0,[sp,#0x90]
        0x0000d588:    466a        jF      MOV      r2,sp
        0x0000d58a:    2300        .#      MOVS     r3,#0
        0x0000d58c:    6053        S`      STR      r3,[r2,#4]
        0x0000d58e:    a903        ..      ADD      r1,sp,#0xc
        0x0000d590:    6011        .`      STR      r1,[r2,#0]
        0x0000d592:    21ff        .!      MOVS     r1,#0xff
        0x0000d594:    461a        .F      MOV      r2,r3
        0x0000d596:    f7fffb83    ....    BL       am_devices_mspi_atxp032_command_write ; 0xcca0
        0x0000d59a:    9023        #.      STR      r0,[sp,#0x8c]
        0x0000d59c:    9823        #.      LDR      r0,[sp,#0x8c]
        0x0000d59e:    b118        ..      CBZ      r0,0xd5a8 ; am_devices_mspi_atxp032_reset + 84
        0x0000d5a0:    e7ff        ..      B        0xd5a2 ; am_devices_mspi_atxp032_reset + 78
        0x0000d5a2:    2001        .       MOVS     r0,#1
        0x0000d5a4:    9025        %.      STR      r0,[sp,#0x94]
        0x0000d5a6:    e013        ..      B        0xd5d0 ; am_devices_mspi_atxp032_reset + 124
        0x0000d5a8:    9824        $.      LDR      r0,[sp,#0x90]
        0x0000d5aa:    466a        jF      MOV      r2,sp
        0x0000d5ac:    2300        .#      MOVS     r3,#0
        0x0000d5ae:    6053        S`      STR      r3,[r2,#4]
        0x0000d5b0:    a903        ..      ADD      r1,sp,#0xc
        0x0000d5b2:    6011        .`      STR      r1,[r2,#0]
        0x0000d5b4:    2104        .!      MOVS     r1,#4
        0x0000d5b6:    461a        .F      MOV      r2,r3
        0x0000d5b8:    f7fffb72    ..r.    BL       am_devices_mspi_atxp032_command_write ; 0xcca0
        0x0000d5bc:    9023        #.      STR      r0,[sp,#0x8c]
        0x0000d5be:    9823        #.      LDR      r0,[sp,#0x8c]
        0x0000d5c0:    b118        ..      CBZ      r0,0xd5ca ; am_devices_mspi_atxp032_reset + 118
        0x0000d5c2:    e7ff        ..      B        0xd5c4 ; am_devices_mspi_atxp032_reset + 112
        0x0000d5c4:    2001        .       MOVS     r0,#1
        0x0000d5c6:    9025        %.      STR      r0,[sp,#0x94]
        0x0000d5c8:    e002        ..      B        0xd5d0 ; am_devices_mspi_atxp032_reset + 124
        0x0000d5ca:    2000        .       MOVS     r0,#0
        0x0000d5cc:    9025        %.      STR      r0,[sp,#0x94]
        0x0000d5ce:    e7ff        ..      B        0xd5d0 ; am_devices_mspi_atxp032_reset + 124
        0x0000d5d0:    9825        %.      LDR      r0,[sp,#0x94]
        0x0000d5d2:    b026        &.      ADD      sp,sp,#0x98
        0x0000d5d4:    bd80        ..      POP      {r7,pc}
        0x0000d5d6:    0000        ..      MOVS     r0,r0
    am_devices_mspi_atxp032_sector_erase
        0x0000d5d8:    b580        ..      PUSH     {r7,lr}
        0x0000d5da:    b0ac        ..      SUB      sp,sp,#0xb0
        0x0000d5dc:    902a        *.      STR      r0,[sp,#0xa8]
        0x0000d5de:    9129        ).      STR      r1,[sp,#0xa4]
        0x0000d5e0:    2000        .       MOVS     r0,#0
        0x0000d5e2:    9004        ..      STR      r0,[sp,#0x10]
        0x0000d5e4:    f88d00a3    ....    STRB     r0,[sp,#0xa3]
        0x0000d5e8:    982a        *.      LDR      r0,[sp,#0xa8]
        0x0000d5ea:    9026        &.      STR      r0,[sp,#0x98]
        0x0000d5ec:    a806        ..      ADD      r0,sp,#0x18
        0x0000d5ee:    9003        ..      STR      r0,[sp,#0xc]
        0x0000d5f0:    2180        .!      MOVS     r1,#0x80
        0x0000d5f2:    f7fefe6e    ..n.    BL       __aeabi_memclr4 ; 0xc2d2
        0x0000d5f6:    9903        ..      LDR      r1,[sp,#0xc]
        0x0000d5f8:    9b04        ..      LDR      r3,[sp,#0x10]
        0x0000d5fa:    982a        *.      LDR      r0,[sp,#0xa8]
        0x0000d5fc:    466a        jF      MOV      r2,sp
        0x0000d5fe:    6053        S`      STR      r3,[r2,#4]
        0x0000d600:    6011        .`      STR      r1,[r2,#0]
        0x0000d602:    2106        .!      MOVS     r1,#6
        0x0000d604:    461a        .F      MOV      r2,r3
        0x0000d606:    f7fffb4b    ..K.    BL       am_devices_mspi_atxp032_command_write ; 0xcca0
        0x0000d60a:    9027        '.      STR      r0,[sp,#0x9c]
        0x0000d60c:    9827        '.      LDR      r0,[sp,#0x9c]
        0x0000d60e:    b118        ..      CBZ      r0,0xd618 ; am_devices_mspi_atxp032_sector_erase + 64
        0x0000d610:    e7ff        ..      B        0xd612 ; am_devices_mspi_atxp032_sector_erase + 58
        0x0000d612:    2001        .       MOVS     r0,#1
        0x0000d614:    902b        +.      STR      r0,[sp,#0xac]
        0x0000d616:    e0c6        ..      B        0xd7a6 ; am_devices_mspi_atxp032_sector_erase + 462
        0x0000d618:    982a        *.      LDR      r0,[sp,#0xa8]
        0x0000d61a:    9b29        ).      LDR      r3,[sp,#0xa4]
        0x0000d61c:    466a        jF      MOV      r2,sp
        0x0000d61e:    2100        .!      MOVS     r1,#0
        0x0000d620:    6051        Q`      STR      r1,[r2,#4]
        0x0000d622:    a906        ..      ADD      r1,sp,#0x18
        0x0000d624:    6011        .`      STR      r1,[r2,#0]
        0x0000d626:    2139        9!      MOVS     r1,#0x39
        0x0000d628:    2201        ."      MOVS     r2,#1
        0x0000d62a:    f7fffb39    ..9.    BL       am_devices_mspi_atxp032_command_write ; 0xcca0
        0x0000d62e:    9027        '.      STR      r0,[sp,#0x9c]
        0x0000d630:    9827        '.      LDR      r0,[sp,#0x9c]
        0x0000d632:    b118        ..      CBZ      r0,0xd63c ; am_devices_mspi_atxp032_sector_erase + 100
        0x0000d634:    e7ff        ..      B        0xd636 ; am_devices_mspi_atxp032_sector_erase + 94
        0x0000d636:    2001        .       MOVS     r0,#1
        0x0000d638:    902b        +.      STR      r0,[sp,#0xac]
        0x0000d63a:    e0b4        ..      B        0xd7a6 ; am_devices_mspi_atxp032_sector_erase + 462
        0x0000d63c:    982a        *.      LDR      r0,[sp,#0xa8]
        0x0000d63e:    466a        jF      MOV      r2,sp
        0x0000d640:    2300        .#      MOVS     r3,#0
        0x0000d642:    6053        S`      STR      r3,[r2,#4]
        0x0000d644:    a906        ..      ADD      r1,sp,#0x18
        0x0000d646:    6011        .`      STR      r1,[r2,#0]
        0x0000d648:    2106        .!      MOVS     r1,#6
        0x0000d64a:    461a        .F      MOV      r2,r3
        0x0000d64c:    f7fffb28    ..(.    BL       am_devices_mspi_atxp032_command_write ; 0xcca0
        0x0000d650:    9027        '.      STR      r0,[sp,#0x9c]
        0x0000d652:    9827        '.      LDR      r0,[sp,#0x9c]
        0x0000d654:    b118        ..      CBZ      r0,0xd65e ; am_devices_mspi_atxp032_sector_erase + 134
        0x0000d656:    e7ff        ..      B        0xd658 ; am_devices_mspi_atxp032_sector_erase + 128
        0x0000d658:    2001        .       MOVS     r0,#1
        0x0000d65a:    902b        +.      STR      r0,[sp,#0xac]
        0x0000d65c:    e0a3        ..      B        0xd7a6 ; am_devices_mspi_atxp032_sector_erase + 462
        0x0000d65e:    982a        *.      LDR      r0,[sp,#0xa8]
        0x0000d660:    9b29        ).      LDR      r3,[sp,#0xa4]
        0x0000d662:    466a        jF      MOV      r2,sp
        0x0000d664:    2100        .!      MOVS     r1,#0
        0x0000d666:    6051        Q`      STR      r1,[r2,#4]
        0x0000d668:    a906        ..      ADD      r1,sp,#0x18
        0x0000d66a:    6011        .`      STR      r1,[r2,#0]
        0x0000d66c:    21d8        .!      MOVS     r1,#0xd8
        0x0000d66e:    2201        ."      MOVS     r2,#1
        0x0000d670:    f7fffb16    ....    BL       am_devices_mspi_atxp032_command_write ; 0xcca0
        0x0000d674:    9027        '.      STR      r0,[sp,#0x9c]
        0x0000d676:    9827        '.      LDR      r0,[sp,#0x9c]
        0x0000d678:    b118        ..      CBZ      r0,0xd682 ; am_devices_mspi_atxp032_sector_erase + 170
        0x0000d67a:    e7ff        ..      B        0xd67c ; am_devices_mspi_atxp032_sector_erase + 164
        0x0000d67c:    2001        .       MOVS     r0,#1
        0x0000d67e:    902b        +.      STR      r0,[sp,#0xac]
        0x0000d680:    e091        ..      B        0xd7a6 ; am_devices_mspi_atxp032_sector_erase + 462
        0x0000d682:    2000        .       MOVS     r0,#0
        0x0000d684:    9005        ..      STR      r0,[sp,#0x14]
        0x0000d686:    e7ff        ..      B        0xd688 ; am_devices_mspi_atxp032_sector_erase + 176
        0x0000d688:    9805        ..      LDR      r0,[sp,#0x14]
        0x0000d68a:    f244213f    D.?!    MOV      r1,#0x423f
        0x0000d68e:    f2c0010f    ....    MOVT     r1,#0xf
        0x0000d692:    4288        .B      CMP      r0,r1
        0x0000d694:    d86b        k.      BHI      0xd76e ; am_devices_mspi_atxp032_sector_erase + 406
        0x0000d696:    e7ff        ..      B        0xd698 ; am_devices_mspi_atxp032_sector_erase + 192
        0x0000d698:    9826        &.      LDR      r0,[sp,#0x98]
        0x0000d69a:    7b40        @{      LDRB     r0,[r0,#0xd]
        0x0000d69c:    4601        .F      MOV      r1,r0
        0x0000d69e:    9102        ..      STR      r1,[sp,#8]
        0x0000d6a0:    2802        .(      CMP      r0,#2
        0x0000d6a2:    d30a        ..      BCC      0xd6ba ; am_devices_mspi_atxp032_sector_erase + 226
        0x0000d6a4:    e7ff        ..      B        0xd6a6 ; am_devices_mspi_atxp032_sector_erase + 206
        0x0000d6a6:    9802        ..      LDR      r0,[sp,#8]
        0x0000d6a8:    3804        .8      SUBS     r0,#4
        0x0000d6aa:    2802        .(      CMP      r0,#2
        0x0000d6ac:    d31d        ..      BCC      0xd6ea ; am_devices_mspi_atxp032_sector_erase + 274
        0x0000d6ae:    e7ff        ..      B        0xd6b0 ; am_devices_mspi_atxp032_sector_erase + 216
        0x0000d6b0:    9802        ..      LDR      r0,[sp,#8]
        0x0000d6b2:    3806        .8      SUBS     r0,#6
        0x0000d6b4:    2802        .(      CMP      r0,#2
        0x0000d6b6:    d331        1.      BCC      0xd71c ; am_devices_mspi_atxp032_sector_erase + 324
        0x0000d6b8:    e048        H.      B        0xd74c ; am_devices_mspi_atxp032_sector_erase + 372
        0x0000d6ba:    982a        *.      LDR      r0,[sp,#0xa8]
        0x0000d6bc:    466a        jF      MOV      r2,sp
        0x0000d6be:    2102        .!      MOVS     r1,#2
        0x0000d6c0:    6051        Q`      STR      r1,[r2,#4]
        0x0000d6c2:    a906        ..      ADD      r1,sp,#0x18
        0x0000d6c4:    6011        .`      STR      r1,[r2,#0]
        0x0000d6c6:    2105        .!      MOVS     r1,#5
        0x0000d6c8:    2300        .#      MOVS     r3,#0
        0x0000d6ca:    461a        .F      MOV      r2,r3
        0x0000d6cc:    f7fffa96    ....    BL       am_devices_mspi_atxp032_command_read ; 0xcbfc
        0x0000d6d0:    9027        '.      STR      r0,[sp,#0x9c]
        0x0000d6d2:    9827        '.      LDR      r0,[sp,#0x9c]
        0x0000d6d4:    b118        ..      CBZ      r0,0xd6de ; am_devices_mspi_atxp032_sector_erase + 262
        0x0000d6d6:    e7ff        ..      B        0xd6d8 ; am_devices_mspi_atxp032_sector_erase + 256
        0x0000d6d8:    2001        .       MOVS     r0,#1
        0x0000d6da:    902b        +.      STR      r0,[sp,#0xac]
        0x0000d6dc:    e063        c.      B        0xd7a6 ; am_devices_mspi_atxp032_sector_erase + 462
        0x0000d6de:    9906        ..      LDR      r1,[sp,#0x18]
        0x0000d6e0:    2001        .       MOVS     r0,#1
        0x0000d6e2:    4388        .C      BICS     r0,r0,r1
        0x0000d6e4:    f88d00a3    ....    STRB     r0,[sp,#0xa3]
        0x0000d6e8:    e033        3.      B        0xd752 ; am_devices_mspi_atxp032_sector_erase + 378
        0x0000d6ea:    982a        *.      LDR      r0,[sp,#0xa8]
        0x0000d6ec:    466a        jF      MOV      r2,sp
        0x0000d6ee:    2104        .!      MOVS     r1,#4
        0x0000d6f0:    6051        Q`      STR      r1,[r2,#4]
        0x0000d6f2:    a906        ..      ADD      r1,sp,#0x18
        0x0000d6f4:    6011        .`      STR      r1,[r2,#0]
        0x0000d6f6:    2105        .!      MOVS     r1,#5
        0x0000d6f8:    2300        .#      MOVS     r3,#0
        0x0000d6fa:    461a        .F      MOV      r2,r3
        0x0000d6fc:    f7fffa7e    ..~.    BL       am_devices_mspi_atxp032_command_read ; 0xcbfc
        0x0000d700:    9027        '.      STR      r0,[sp,#0x9c]
        0x0000d702:    9827        '.      LDR      r0,[sp,#0x9c]
        0x0000d704:    b118        ..      CBZ      r0,0xd70e ; am_devices_mspi_atxp032_sector_erase + 310
        0x0000d706:    e7ff        ..      B        0xd708 ; am_devices_mspi_atxp032_sector_erase + 304
        0x0000d708:    2001        .       MOVS     r0,#1
        0x0000d70a:    902b        +.      STR      r0,[sp,#0xac]
        0x0000d70c:    e04b        K.      B        0xd7a6 ; am_devices_mspi_atxp032_sector_erase + 462
        0x0000d70e:    f8bd101a    ....    LDRH     r1,[sp,#0x1a]
        0x0000d712:    2001        .       MOVS     r0,#1
        0x0000d714:    4388        .C      BICS     r0,r0,r1
        0x0000d716:    f88d00a3    ....    STRB     r0,[sp,#0xa3]
        0x0000d71a:    e01a        ..      B        0xd752 ; am_devices_mspi_atxp032_sector_erase + 378
        0x0000d71c:    982a        *.      LDR      r0,[sp,#0xa8]
        0x0000d71e:    466a        jF      MOV      r2,sp
        0x0000d720:    2106        .!      MOVS     r1,#6
        0x0000d722:    6051        Q`      STR      r1,[r2,#4]
        0x0000d724:    a906        ..      ADD      r1,sp,#0x18
        0x0000d726:    6011        .`      STR      r1,[r2,#0]
        0x0000d728:    2105        .!      MOVS     r1,#5
        0x0000d72a:    2300        .#      MOVS     r3,#0
        0x0000d72c:    461a        .F      MOV      r2,r3
        0x0000d72e:    f7fffa65    ..e.    BL       am_devices_mspi_atxp032_command_read ; 0xcbfc
        0x0000d732:    9027        '.      STR      r0,[sp,#0x9c]
        0x0000d734:    9827        '.      LDR      r0,[sp,#0x9c]
        0x0000d736:    b118        ..      CBZ      r0,0xd740 ; am_devices_mspi_atxp032_sector_erase + 360
        0x0000d738:    e7ff        ..      B        0xd73a ; am_devices_mspi_atxp032_sector_erase + 354
        0x0000d73a:    2001        .       MOVS     r0,#1
        0x0000d73c:    902b        +.      STR      r0,[sp,#0xac]
        0x0000d73e:    e032        2.      B        0xd7a6 ; am_devices_mspi_atxp032_sector_erase + 462
        0x0000d740:    9907        ..      LDR      r1,[sp,#0x1c]
        0x0000d742:    2001        .       MOVS     r0,#1
        0x0000d744:    4388        .C      BICS     r0,r0,r1
        0x0000d746:    f88d00a3    ....    STRB     r0,[sp,#0xa3]
        0x0000d74a:    e002        ..      B        0xd752 ; am_devices_mspi_atxp032_sector_erase + 378
        0x0000d74c:    2001        .       MOVS     r0,#1
        0x0000d74e:    902b        +.      STR      r0,[sp,#0xac]
        0x0000d750:    e029        ).      B        0xd7a6 ; am_devices_mspi_atxp032_sector_erase + 462
        0x0000d752:    f89d00a3    ....    LDRB     r0,[sp,#0xa3]
        0x0000d756:    07c0        ..      LSLS     r0,r0,#31
        0x0000d758:    b108        ..      CBZ      r0,0xd75e ; am_devices_mspi_atxp032_sector_erase + 390
        0x0000d75a:    e7ff        ..      B        0xd75c ; am_devices_mspi_atxp032_sector_erase + 388
        0x0000d75c:    e007        ..      B        0xd76e ; am_devices_mspi_atxp032_sector_erase + 406
        0x0000d75e:    200a        .       MOVS     r0,#0xa
        0x0000d760:    f002ff9e    ....    BL       am_util_delay_ms ; 0x106a0
        0x0000d764:    e7ff        ..      B        0xd766 ; am_devices_mspi_atxp032_sector_erase + 398
        0x0000d766:    9805        ..      LDR      r0,[sp,#0x14]
        0x0000d768:    3001        .0      ADDS     r0,#1
        0x0000d76a:    9005        ..      STR      r0,[sp,#0x14]
        0x0000d76c:    e78c        ..      B        0xd688 ; am_devices_mspi_atxp032_sector_erase + 176
        0x0000d76e:    f89d00a3    ....    LDRB     r0,[sp,#0xa3]
        0x0000d772:    07c0        ..      LSLS     r0,r0,#31
        0x0000d774:    b918        ..      CBNZ     r0,0xd77e ; am_devices_mspi_atxp032_sector_erase + 422
        0x0000d776:    e7ff        ..      B        0xd778 ; am_devices_mspi_atxp032_sector_erase + 416
        0x0000d778:    2001        .       MOVS     r0,#1
        0x0000d77a:    902b        +.      STR      r0,[sp,#0xac]
        0x0000d77c:    e013        ..      B        0xd7a6 ; am_devices_mspi_atxp032_sector_erase + 462
        0x0000d77e:    982a        *.      LDR      r0,[sp,#0xa8]
        0x0000d780:    466a        jF      MOV      r2,sp
        0x0000d782:    2300        .#      MOVS     r3,#0
        0x0000d784:    6053        S`      STR      r3,[r2,#4]
        0x0000d786:    a906        ..      ADD      r1,sp,#0x18
        0x0000d788:    6011        .`      STR      r1,[r2,#0]
        0x0000d78a:    2104        .!      MOVS     r1,#4
        0x0000d78c:    461a        .F      MOV      r2,r3
        0x0000d78e:    f7fffa87    ....    BL       am_devices_mspi_atxp032_command_write ; 0xcca0
        0x0000d792:    9027        '.      STR      r0,[sp,#0x9c]
        0x0000d794:    9827        '.      LDR      r0,[sp,#0x9c]
        0x0000d796:    b118        ..      CBZ      r0,0xd7a0 ; am_devices_mspi_atxp032_sector_erase + 456
        0x0000d798:    e7ff        ..      B        0xd79a ; am_devices_mspi_atxp032_sector_erase + 450
        0x0000d79a:    2001        .       MOVS     r0,#1
        0x0000d79c:    902b        +.      STR      r0,[sp,#0xac]
        0x0000d79e:    e002        ..      B        0xd7a6 ; am_devices_mspi_atxp032_sector_erase + 462
        0x0000d7a0:    2000        .       MOVS     r0,#0
        0x0000d7a2:    902b        +.      STR      r0,[sp,#0xac]
        0x0000d7a4:    e7ff        ..      B        0xd7a6 ; am_devices_mspi_atxp032_sector_erase + 462
        0x0000d7a6:    982b        +.      LDR      r0,[sp,#0xac]
        0x0000d7a8:    b02c        ,.      ADD      sp,sp,#0xb0
        0x0000d7aa:    bd80        ..      POP      {r7,pc}
    am_devices_mspi_atxp032_write
        0x0000d7ac:    b580        ..      PUSH     {r7,lr}
        0x0000d7ae:    b0b8        ..      SUB      sp,sp,#0xe0
        0x0000d7b0:    4684        .F      MOV      r12,r0
        0x0000d7b2:    983a        :.      LDR      r0,[sp,#0xe8]
        0x0000d7b4:    f8cdc0d8    ....    STR      r12,[sp,#0xd8]
        0x0000d7b8:    9135        5.      STR      r1,[sp,#0xd4]
        0x0000d7ba:    9234        4.      STR      r2,[sp,#0xd0]
        0x0000d7bc:    9333        3.      STR      r3,[sp,#0xcc]
        0x0000d7be:    f88d00cb    ....    STRB     r0,[sp,#0xcb]
        0x0000d7c2:    2000        .       MOVS     r0,#0
        0x0000d7c4:    f88d00af    ....    STRB     r0,[sp,#0xaf]
        0x0000d7c8:    9833        3.      LDR      r0,[sp,#0xcc]
        0x0000d7ca:    902a        *.      STR      r0,[sp,#0xa8]
        0x0000d7cc:    9834        4.      LDR      r0,[sp,#0xd0]
        0x0000d7ce:    9029        ).      STR      r0,[sp,#0xa4]
        0x0000d7d0:    9835        5.      LDR      r0,[sp,#0xd4]
        0x0000d7d2:    9028        (.      STR      r0,[sp,#0xa0]
        0x0000d7d4:    9836        6.      LDR      r0,[sp,#0xd8]
        0x0000d7d6:    9026        &.      STR      r0,[sp,#0x98]
        0x0000d7d8:    a806        ..      ADD      r0,sp,#0x18
        0x0000d7da:    2180        .!      MOVS     r1,#0x80
        0x0000d7dc:    f7fefd79    ..y.    BL       __aeabi_memclr4 ; 0xc2d2
        0x0000d7e0:    e7ff        ..      B        0xd7e2 ; am_devices_mspi_atxp032_write + 54
        0x0000d7e2:    982a        *.      LDR      r0,[sp,#0xa8]
        0x0000d7e4:    2800        .(      CMP      r0,#0
        0x0000d7e6:    f00080f4    ....    BEQ.W    0xd9d2 ; am_devices_mspi_atxp032_write + 550
        0x0000d7ea:    e7ff        ..      B        0xd7ec ; am_devices_mspi_atxp032_write + 64
        0x0000d7ec:    9836        6.      LDR      r0,[sp,#0xd8]
        0x0000d7ee:    466a        jF      MOV      r2,sp
        0x0000d7f0:    2300        .#      MOVS     r3,#0
        0x0000d7f2:    6053        S`      STR      r3,[r2,#4]
        0x0000d7f4:    a906        ..      ADD      r1,sp,#0x18
        0x0000d7f6:    6011        .`      STR      r1,[r2,#0]
        0x0000d7f8:    2106        .!      MOVS     r1,#6
        0x0000d7fa:    461a        .F      MOV      r2,r3
        0x0000d7fc:    f7fffa50    ..P.    BL       am_devices_mspi_atxp032_command_write ; 0xcca0
        0x0000d800:    9027        '.      STR      r0,[sp,#0x9c]
        0x0000d802:    9827        '.      LDR      r0,[sp,#0x9c]
        0x0000d804:    b118        ..      CBZ      r0,0xd80e ; am_devices_mspi_atxp032_write + 98
        0x0000d806:    e7ff        ..      B        0xd808 ; am_devices_mspi_atxp032_write + 92
        0x0000d808:    2001        .       MOVS     r0,#1
        0x0000d80a:    9037        7.      STR      r0,[sp,#0xdc]
        0x0000d80c:    e0e4        ..      B        0xd9d8 ; am_devices_mspi_atxp032_write + 556
        0x0000d80e:    2001        .       MOVS     r0,#1
        0x0000d810:    f88d00b0    ....    STRB     r0,[sp,#0xb0]
        0x0000d814:    f88d00b1    ....    STRB     r0,[sp,#0xb1]
        0x0000d818:    982a        *.      LDR      r0,[sp,#0xa8]
        0x0000d81a:    f5b07f80    ....    CMP      r0,#0x100
        0x0000d81e:    d908        ..      BLS      0xd832 ; am_devices_mspi_atxp032_write + 134
        0x0000d820:    e7ff        ..      B        0xd822 ; am_devices_mspi_atxp032_write + 118
        0x0000d822:    f44f7080    O..p    MOV      r0,#0x100
        0x0000d826:    902d        -.      STR      r0,[sp,#0xb4]
        0x0000d828:    982a        *.      LDR      r0,[sp,#0xa8]
        0x0000d82a:    f5a07080    ...p    SUB      r0,r0,#0x100
        0x0000d82e:    902a        *.      STR      r0,[sp,#0xa8]
        0x0000d830:    e004        ..      B        0xd83c ; am_devices_mspi_atxp032_write + 144
        0x0000d832:    982a        *.      LDR      r0,[sp,#0xa8]
        0x0000d834:    902d        -.      STR      r0,[sp,#0xb4]
        0x0000d836:    2000        .       MOVS     r0,#0
        0x0000d838:    902a        *.      STR      r0,[sp,#0xa8]
        0x0000d83a:    e7ff        ..      B        0xd83c ; am_devices_mspi_atxp032_write + 144
        0x0000d83c:    9829        ).      LDR      r0,[sp,#0xa4]
        0x0000d83e:    902e        ..      STR      r0,[sp,#0xb8]
        0x0000d840:    9829        ).      LDR      r0,[sp,#0xa4]
        0x0000d842:    f5007080    ...p    ADD      r0,r0,#0x100
        0x0000d846:    9029        ).      STR      r0,[sp,#0xa4]
        0x0000d848:    9828        (.      LDR      r0,[sp,#0xa0]
        0x0000d84a:    902f        /.      STR      r0,[sp,#0xbc]
        0x0000d84c:    9828        (.      LDR      r0,[sp,#0xa0]
        0x0000d84e:    f5007080    ...p    ADD      r0,r0,#0x100
        0x0000d852:    9028        (.      STR      r0,[sp,#0xa0]
        0x0000d854:    2000        .       MOVS     r0,#0
        0x0000d856:    9030        0.      STR      r0,[sp,#0xc0]
        0x0000d858:    9031        1.      STR      r0,[sp,#0xc4]
        0x0000d85a:    f04f30ff    O..0    MOV      r0,#0xffffffff
        0x0000d85e:    9005        ..      STR      r0,[sp,#0x14]
        0x0000d860:    9826        &.      LDR      r0,[sp,#0x98]
        0x0000d862:    6840        @h      LDR      r0,[r0,#4]
        0x0000d864:    466a        jF      MOV      r2,sp
        0x0000d866:    a905        ..      ADD      r1,sp,#0x14
        0x0000d868:    6011        .`      STR      r1,[r2,#0]
        0x0000d86a:    f242135d    B.].    MOV      r3,#0x215d
        0x0000d86e:    f2c00301    ....    MOVT     r3,#1
        0x0000d872:    a92c        ,.      ADD      r1,sp,#0xb0
        0x0000d874:    2201        ."      MOVS     r2,#1
        0x0000d876:    f002fb1b    ....    BL       am_hal_mspi_nonblocking_transfer ; 0xfeb0
        0x0000d87a:    9027        '.      STR      r0,[sp,#0x9c]
        0x0000d87c:    9827        '.      LDR      r0,[sp,#0x9c]
        0x0000d87e:    b118        ..      CBZ      r0,0xd888 ; am_devices_mspi_atxp032_write + 220
        0x0000d880:    e7ff        ..      B        0xd882 ; am_devices_mspi_atxp032_write + 214
        0x0000d882:    2001        .       MOVS     r0,#1
        0x0000d884:    9037        7.      STR      r0,[sp,#0xdc]
        0x0000d886:    e0a7        ..      B        0xd9d8 ; am_devices_mspi_atxp032_write + 556
        0x0000d888:    2000        .       MOVS     r0,#0
        0x0000d88a:    9004        ..      STR      r0,[sp,#0x10]
        0x0000d88c:    e7ff        ..      B        0xd88e ; am_devices_mspi_atxp032_write + 226
        0x0000d88e:    9804        ..      LDR      r0,[sp,#0x10]
        0x0000d890:    f244213f    D.?!    MOV      r1,#0x423f
        0x0000d894:    f2c0010f    ....    MOVT     r1,#0xf
        0x0000d898:    4288        .B      CMP      r0,r1
        0x0000d89a:    d80c        ..      BHI      0xd8b6 ; am_devices_mspi_atxp032_write + 266
        0x0000d89c:    e7ff        ..      B        0xd89e ; am_devices_mspi_atxp032_write + 242
        0x0000d89e:    9805        ..      LDR      r0,[sp,#0x14]
        0x0000d8a0:    b908        ..      CBNZ     r0,0xd8a6 ; am_devices_mspi_atxp032_write + 250
        0x0000d8a2:    e7ff        ..      B        0xd8a4 ; am_devices_mspi_atxp032_write + 248
        0x0000d8a4:    e007        ..      B        0xd8b6 ; am_devices_mspi_atxp032_write + 266
        0x0000d8a6:    2001        .       MOVS     r0,#1
        0x0000d8a8:    f002ff12    ....    BL       am_util_delay_us ; 0x106d0
        0x0000d8ac:    e7ff        ..      B        0xd8ae ; am_devices_mspi_atxp032_write + 258
        0x0000d8ae:    9804        ..      LDR      r0,[sp,#0x10]
        0x0000d8b0:    3001        .0      ADDS     r0,#1
        0x0000d8b2:    9004        ..      STR      r0,[sp,#0x10]
        0x0000d8b4:    e7eb        ..      B        0xd88e ; am_devices_mspi_atxp032_write + 226
        0x0000d8b6:    9805        ..      LDR      r0,[sp,#0x14]
        0x0000d8b8:    b118        ..      CBZ      r0,0xd8c2 ; am_devices_mspi_atxp032_write + 278
        0x0000d8ba:    e7ff        ..      B        0xd8bc ; am_devices_mspi_atxp032_write + 272
        0x0000d8bc:    2001        .       MOVS     r0,#1
        0x0000d8be:    9037        7.      STR      r0,[sp,#0xdc]
        0x0000d8c0:    e08a        ..      B        0xd9d8 ; am_devices_mspi_atxp032_write + 556
        0x0000d8c2:    2000        .       MOVS     r0,#0
        0x0000d8c4:    9003        ..      STR      r0,[sp,#0xc]
        0x0000d8c6:    e7ff        ..      B        0xd8c8 ; am_devices_mspi_atxp032_write + 284
        0x0000d8c8:    9803        ..      LDR      r0,[sp,#0xc]
        0x0000d8ca:    f244213f    D.?!    MOV      r1,#0x423f
        0x0000d8ce:    f2c0010f    ....    MOVT     r1,#0xf
        0x0000d8d2:    4288        .B      CMP      r0,r1
        0x0000d8d4:    d86b        k.      BHI      0xd9ae ; am_devices_mspi_atxp032_write + 514
        0x0000d8d6:    e7ff        ..      B        0xd8d8 ; am_devices_mspi_atxp032_write + 300
        0x0000d8d8:    9826        &.      LDR      r0,[sp,#0x98]
        0x0000d8da:    7b40        @{      LDRB     r0,[r0,#0xd]
        0x0000d8dc:    4601        .F      MOV      r1,r0
        0x0000d8de:    9102        ..      STR      r1,[sp,#8]
        0x0000d8e0:    2802        .(      CMP      r0,#2
        0x0000d8e2:    d30a        ..      BCC      0xd8fa ; am_devices_mspi_atxp032_write + 334
        0x0000d8e4:    e7ff        ..      B        0xd8e6 ; am_devices_mspi_atxp032_write + 314
        0x0000d8e6:    9802        ..      LDR      r0,[sp,#8]
        0x0000d8e8:    3804        .8      SUBS     r0,#4
        0x0000d8ea:    2802        .(      CMP      r0,#2
        0x0000d8ec:    d31d        ..      BCC      0xd92a ; am_devices_mspi_atxp032_write + 382
        0x0000d8ee:    e7ff        ..      B        0xd8f0 ; am_devices_mspi_atxp032_write + 324
        0x0000d8f0:    9802        ..      LDR      r0,[sp,#8]
        0x0000d8f2:    3806        .8      SUBS     r0,#6
        0x0000d8f4:    2802        .(      CMP      r0,#2
        0x0000d8f6:    d331        1.      BCC      0xd95c ; am_devices_mspi_atxp032_write + 432
        0x0000d8f8:    e048        H.      B        0xd98c ; am_devices_mspi_atxp032_write + 480
        0x0000d8fa:    9836        6.      LDR      r0,[sp,#0xd8]
        0x0000d8fc:    466a        jF      MOV      r2,sp
        0x0000d8fe:    2102        .!      MOVS     r1,#2
        0x0000d900:    6051        Q`      STR      r1,[r2,#4]
        0x0000d902:    a906        ..      ADD      r1,sp,#0x18
        0x0000d904:    6011        .`      STR      r1,[r2,#0]
        0x0000d906:    2105        .!      MOVS     r1,#5
        0x0000d908:    2300        .#      MOVS     r3,#0
        0x0000d90a:    461a        .F      MOV      r2,r3
        0x0000d90c:    f7fff976    ..v.    BL       am_devices_mspi_atxp032_command_read ; 0xcbfc
        0x0000d910:    9027        '.      STR      r0,[sp,#0x9c]
        0x0000d912:    9827        '.      LDR      r0,[sp,#0x9c]
        0x0000d914:    b118        ..      CBZ      r0,0xd91e ; am_devices_mspi_atxp032_write + 370
        0x0000d916:    e7ff        ..      B        0xd918 ; am_devices_mspi_atxp032_write + 364
        0x0000d918:    2001        .       MOVS     r0,#1
        0x0000d91a:    9037        7.      STR      r0,[sp,#0xdc]
        0x0000d91c:    e05c        \.      B        0xd9d8 ; am_devices_mspi_atxp032_write + 556
        0x0000d91e:    9906        ..      LDR      r1,[sp,#0x18]
        0x0000d920:    2001        .       MOVS     r0,#1
        0x0000d922:    4388        .C      BICS     r0,r0,r1
        0x0000d924:    f88d00af    ....    STRB     r0,[sp,#0xaf]
        0x0000d928:    e033        3.      B        0xd992 ; am_devices_mspi_atxp032_write + 486
        0x0000d92a:    9836        6.      LDR      r0,[sp,#0xd8]
        0x0000d92c:    466a        jF      MOV      r2,sp
        0x0000d92e:    2104        .!      MOVS     r1,#4
        0x0000d930:    6051        Q`      STR      r1,[r2,#4]
        0x0000d932:    a906        ..      ADD      r1,sp,#0x18
        0x0000d934:    6011        .`      STR      r1,[r2,#0]
        0x0000d936:    2105        .!      MOVS     r1,#5
        0x0000d938:    2300        .#      MOVS     r3,#0
        0x0000d93a:    461a        .F      MOV      r2,r3
        0x0000d93c:    f7fff95e    ..^.    BL       am_devices_mspi_atxp032_command_read ; 0xcbfc
        0x0000d940:    9027        '.      STR      r0,[sp,#0x9c]
        0x0000d942:    9827        '.      LDR      r0,[sp,#0x9c]
        0x0000d944:    b118        ..      CBZ      r0,0xd94e ; am_devices_mspi_atxp032_write + 418
        0x0000d946:    e7ff        ..      B        0xd948 ; am_devices_mspi_atxp032_write + 412
        0x0000d948:    2001        .       MOVS     r0,#1
        0x0000d94a:    9037        7.      STR      r0,[sp,#0xdc]
        0x0000d94c:    e044        D.      B        0xd9d8 ; am_devices_mspi_atxp032_write + 556
        0x0000d94e:    f8bd101a    ....    LDRH     r1,[sp,#0x1a]
        0x0000d952:    2001        .       MOVS     r0,#1
        0x0000d954:    4388        .C      BICS     r0,r0,r1
        0x0000d956:    f88d00af    ....    STRB     r0,[sp,#0xaf]
        0x0000d95a:    e01a        ..      B        0xd992 ; am_devices_mspi_atxp032_write + 486
        0x0000d95c:    9836        6.      LDR      r0,[sp,#0xd8]
        0x0000d95e:    466a        jF      MOV      r2,sp
        0x0000d960:    2106        .!      MOVS     r1,#6
        0x0000d962:    6051        Q`      STR      r1,[r2,#4]
        0x0000d964:    a906        ..      ADD      r1,sp,#0x18
        0x0000d966:    6011        .`      STR      r1,[r2,#0]
        0x0000d968:    2105        .!      MOVS     r1,#5
        0x0000d96a:    2300        .#      MOVS     r3,#0
        0x0000d96c:    461a        .F      MOV      r2,r3
        0x0000d96e:    f7fff945    ..E.    BL       am_devices_mspi_atxp032_command_read ; 0xcbfc
        0x0000d972:    9027        '.      STR      r0,[sp,#0x9c]
        0x0000d974:    9827        '.      LDR      r0,[sp,#0x9c]
        0x0000d976:    b118        ..      CBZ      r0,0xd980 ; am_devices_mspi_atxp032_write + 468
        0x0000d978:    e7ff        ..      B        0xd97a ; am_devices_mspi_atxp032_write + 462
        0x0000d97a:    2001        .       MOVS     r0,#1
        0x0000d97c:    9037        7.      STR      r0,[sp,#0xdc]
        0x0000d97e:    e02b        +.      B        0xd9d8 ; am_devices_mspi_atxp032_write + 556
        0x0000d980:    9907        ..      LDR      r1,[sp,#0x1c]
        0x0000d982:    2001        .       MOVS     r0,#1
        0x0000d984:    4388        .C      BICS     r0,r0,r1
        0x0000d986:    f88d00af    ....    STRB     r0,[sp,#0xaf]
        0x0000d98a:    e002        ..      B        0xd992 ; am_devices_mspi_atxp032_write + 486
        0x0000d98c:    2001        .       MOVS     r0,#1
        0x0000d98e:    9037        7.      STR      r0,[sp,#0xdc]
        0x0000d990:    e022        ".      B        0xd9d8 ; am_devices_mspi_atxp032_write + 556
        0x0000d992:    2064        d       MOVS     r0,#0x64
        0x0000d994:    f002fe9c    ....    BL       am_util_delay_us ; 0x106d0
        0x0000d998:    f89d00af    ....    LDRB     r0,[sp,#0xaf]
        0x0000d99c:    07c0        ..      LSLS     r0,r0,#31
        0x0000d99e:    b108        ..      CBZ      r0,0xd9a4 ; am_devices_mspi_atxp032_write + 504
        0x0000d9a0:    e7ff        ..      B        0xd9a2 ; am_devices_mspi_atxp032_write + 502
        0x0000d9a2:    e004        ..      B        0xd9ae ; am_devices_mspi_atxp032_write + 514
        0x0000d9a4:    e7ff        ..      B        0xd9a6 ; am_devices_mspi_atxp032_write + 506
        0x0000d9a6:    9803        ..      LDR      r0,[sp,#0xc]
        0x0000d9a8:    3001        .0      ADDS     r0,#1
        0x0000d9aa:    9003        ..      STR      r0,[sp,#0xc]
        0x0000d9ac:    e78c        ..      B        0xd8c8 ; am_devices_mspi_atxp032_write + 284
        0x0000d9ae:    9836        6.      LDR      r0,[sp,#0xd8]
        0x0000d9b0:    466a        jF      MOV      r2,sp
        0x0000d9b2:    2300        .#      MOVS     r3,#0
        0x0000d9b4:    6053        S`      STR      r3,[r2,#4]
        0x0000d9b6:    a906        ..      ADD      r1,sp,#0x18
        0x0000d9b8:    6011        .`      STR      r1,[r2,#0]
        0x0000d9ba:    2104        .!      MOVS     r1,#4
        0x0000d9bc:    461a        .F      MOV      r2,r3
        0x0000d9be:    f7fff96f    ..o.    BL       am_devices_mspi_atxp032_command_write ; 0xcca0
        0x0000d9c2:    9027        '.      STR      r0,[sp,#0x9c]
        0x0000d9c4:    9827        '.      LDR      r0,[sp,#0x9c]
        0x0000d9c6:    b118        ..      CBZ      r0,0xd9d0 ; am_devices_mspi_atxp032_write + 548
        0x0000d9c8:    e7ff        ..      B        0xd9ca ; am_devices_mspi_atxp032_write + 542
        0x0000d9ca:    2001        .       MOVS     r0,#1
        0x0000d9cc:    9037        7.      STR      r0,[sp,#0xdc]
        0x0000d9ce:    e003        ..      B        0xd9d8 ; am_devices_mspi_atxp032_write + 556
        0x0000d9d0:    e707        ..      B        0xd7e2 ; am_devices_mspi_atxp032_write + 54
        0x0000d9d2:    2000        .       MOVS     r0,#0
        0x0000d9d4:    9037        7.      STR      r0,[sp,#0xdc]
        0x0000d9d6:    e7ff        ..      B        0xd9d8 ; am_devices_mspi_atxp032_write + 556
        0x0000d9d8:    9837        7.      LDR      r0,[sp,#0xdc]
        0x0000d9da:    b038        8.      ADD      sp,sp,#0xe0
        0x0000d9dc:    bd80        ..      POP      {r7,pc}
        0x0000d9de:    0000        ..      MOVS     r0,r0
    am_getStackedReg
        0x0000d9e0:    b082        ..      SUB      sp,sp,#8
        0x0000d9e2:    9001        ..      STR      r0,[sp,#4]
        0x0000d9e4:    9100        ..      STR      r1,[sp,#0]
        0x0000d9e6:    9800        ..      LDR      r0,[sp,#0]
        0x0000d9e8:    9901        ..      LDR      r1,[sp,#4]
        0x0000d9ea:    f8500021    P.!.    LDR      r0,[r0,r1,LSL #2]
        0x0000d9ee:    b002        ..      ADD      sp,sp,#8
        0x0000d9f0:    4770        pG      BX       lr
        0x0000d9f2:    0000        ..      MOVS     r0,r0
    am_hal_burst_ldo_charge
        0x0000d9f4:    b510        ..      PUSH     {r4,lr}
        0x0000d9f6:    f6430038    C.8.    MOV      r0,#0x3838
        0x0000d9fa:    f2c50002    ....    MOVT     r0,#0x5002
        0x0000d9fe:    6800        .h      LDR      r0,[r0,#0]
        0x0000da00:    0700        ..      LSLS     r0,r0,#28
        0x0000da02:    bf48        H.      IT       MI
        0x0000da04:    bd10        ..      POPMI    {r4,pc}
        0x0000da06:    2464        d$      MOVS     r4,#0x64
        0x0000da08:    f2c40402    ....    MOVT     r4,#0x4002
        0x0000da0c:    f8540c04    T...    LDR      r0,[r4,#-4]
        0x0000da10:    f0200080     ...    BIC      r0,r0,#0x80
        0x0000da14:    f8440c04    D...    STR      r0,[r4,#-4]
        0x0000da18:    f8540c04    T...    LDR      r0,[r4,#-4]
        0x0000da1c:    f0200020     . .    BIC      r0,r0,#0x20
        0x0000da20:    f8440c04    D...    STR      r0,[r4,#-4]
        0x0000da24:    f8540c04    T...    LDR      r0,[r4,#-4]
        0x0000da28:    f0400040    @.@.    ORR      r0,r0,#0x40
        0x0000da2c:    f8440c04    D...    STR      r0,[r4,#-4]
        0x0000da30:    f8540c04    T...    LDR      r0,[r4,#-4]
        0x0000da34:    f4407080    @..p    ORR      r0,r0,#0x100
        0x0000da38:    f8440c04    D...    STR      r0,[r4,#-4]
        0x0000da3c:    f2471000    G...    MOVW     r0,#0x7100
        0x0000da40:    f2c00002    ....    MOVT     r0,#2
        0x0000da44:    f000fc88    ....    BL       am_hal_flash_delay ; 0xe358
        0x0000da48:    6820         h      LDR      r0,[r4,#0]
        0x0000da4a:    f0400008    @...    ORR      r0,r0,#8
        0x0000da4e:    6020         `      STR      r0,[r4,#0]
        0x0000da50:    6820         h      LDR      r0,[r4,#0]
        0x0000da52:    f0400001    @...    ORR      r0,r0,#1
        0x0000da56:    6020         `      STR      r0,[r4,#0]
        0x0000da58:    6820         h      LDR      r0,[r4,#0]
        0x0000da5a:    f0400004    @...    ORR      r0,r0,#4
        0x0000da5e:    6020         `      STR      r0,[r4,#0]
        0x0000da60:    6820         h      LDR      r0,[r4,#0]
        0x0000da62:    f0200002     ...    BIC      r0,r0,#2
        0x0000da66:    6020         `      STR      r0,[r4,#0]
        0x0000da68:    6820         h      LDR      r0,[r4,#0]
        0x0000da6a:    f0400010    @...    ORR      r0,r0,#0x10
        0x0000da6e:    6020         `      STR      r0,[r4,#0]
        0x0000da70:    2020                MOVS     r0,#0x20
        0x0000da72:    f000fc71    ..q.    BL       am_hal_flash_delay ; 0xe358
        0x0000da76:    6820         h      LDR      r0,[r4,#0]
        0x0000da78:    f0400002    @...    ORR      r0,r0,#2
        0x0000da7c:    6020         `      STR      r0,[r4,#0]
        0x0000da7e:    f44f40fa    O..@    MOV      r0,#0x7d00
        0x0000da82:    f000fc69    ..i.    BL       am_hal_flash_delay ; 0xe358
        0x0000da86:    6820         h      LDR      r0,[r4,#0]
        0x0000da88:    f0200001     ...    BIC      r0,r0,#1
        0x0000da8c:    6020         `      STR      r0,[r4,#0]
        0x0000da8e:    6820         h      LDR      r0,[r4,#0]
        0x0000da90:    f0200004     ...    BIC      r0,r0,#4
        0x0000da94:    6020         `      STR      r0,[r4,#0]
        0x0000da96:    6820         h      LDR      r0,[r4,#0]
        0x0000da98:    f0200002     ...    BIC      r0,r0,#2
        0x0000da9c:    6020         `      STR      r0,[r4,#0]
        0x0000da9e:    f8540c04    T...    LDR      r0,[r4,#-4]
        0x0000daa2:    f0200040     .@.    BIC      r0,r0,#0x40
        0x0000daa6:    f8440c04    D...    STR      r0,[r4,#-4]
        0x0000daaa:    f8540c04    T...    LDR      r0,[r4,#-4]
        0x0000daae:    f4207080     ..p    BIC      r0,r0,#0x100
        0x0000dab2:    f8440c04    D...    STR      r0,[r4,#-4]
        0x0000dab6:    bd10        ..      POP      {r4,pc}
    am_hal_cachectrl_config
        0x0000dab8:    b5b0        ..      PUSH     {r4,r5,r7,lr}
        0x0000daba:    b082        ..      SUB      sp,sp,#8
        0x0000dabc:    4604        .F      MOV      r4,r0
        0x0000dabe:    f000fe67    ..g.    BL       am_hal_interrupt_master_disable ; 0xe790
        0x0000dac2:    f2480500    H...    MOVW     r5,#0x8000
        0x0000dac6:    9001        ..      STR      r0,[sp,#4]
        0x0000dac8:    f2c40501    ....    MOVT     r5,#0x4001
        0x0000dacc:    6828        (h      LDR      r0,[r5,#0]
        0x0000dace:    f4207040     .@p    BIC      r0,r0,#0x300
        0x0000dad2:    6028        (`      STR      r0,[r5,#0]
        0x0000dad4:    9801        ..      LDR      r0,[sp,#4]
        0x0000dad6:    f000fe63    ..c.    BL       am_hal_interrupt_master_set ; 0xe7a0
        0x0000dada:    78a1        .x      LDRB     r1,[r4,#2]
        0x0000dadc:    7820         x      LDRB     r0,[r4,#0]
        0x0000dade:    7862        bx      LDRB     r2,[r4,#1]
        0x0000dae0:    0049        I.      LSLS     r1,r1,#1
        0x0000dae2:    b2c9        ..      UXTB     r1,r1
        0x0000dae4:    f0020203    ....    AND      r2,r2,#3
        0x0000dae8:    f3601107    `...    BFI      r1,r0,#4,#4
        0x0000daec:    ea412002    A..     ORR      r0,r1,r2,LSL #8
        0x0000daf0:    f4401080    @...    ORR      r0,r0,#0x100000
        0x0000daf4:    f4406180    @..a    ORR      r1,r0,#0x400
        0x0000daf8:    2000        .       MOVS     r0,#0
        0x0000dafa:    6029        )`      STR      r1,[r5,#0]
        0x0000dafc:    b002        ..      ADD      sp,sp,#8
        0x0000dafe:    bdb0        ..      POP      {r4,r5,r7,pc}
    am_hal_cachectrl_control
        0x0000db00:    b510        ..      PUSH     {r4,lr}
        0x0000db02:    b082        ..      SUB      sp,sp,#8
        0x0000db04:    1e42        B.      SUBS     r2,r0,#1
        0x0000db06:    2a10        .*      CMP      r2,#0x10
        0x0000db08:    f20080a0    ....    BHI.W    0xdc4c ; am_hal_cachectrl_control + 332
        0x0000db0c:    e8dff002    ....    TBB      [pc,r2]
    $d.4
        0x0000db10:    18140aa3    ....    DCD    403966627
        0x0000db14:    24201e1c    .. $    DCD    606084636
        0x0000db18:    58483628    (6HX    DCD    1481127464
        0x0000db1c:    8a827a62    bz..    DCD    2323806818
        0x0000db20:    bf000094    ....    DCD    3204448404
    $t.5
        0x0000db24:    f2480000    H...    MOVW     r0,#0x8000
        0x0000db28:    f2c40001    ....    MOVT     r0,#0x4001
        0x0000db2c:    6800        .h      LDR      r0,[r0,#0]
        0x0000db2e:    01c0        ..      LSLS     r0,r0,#7
        0x0000db30:    f1008090    ....    BMI.W    0xdc54 ; am_hal_cachectrl_control + 340
        0x0000db34:    2407        .$      MOVS     r4,#7
        0x0000db36:    e061        a.      B        0xdbfc ; am_hal_cachectrl_control + 252
        0x0000db38:    f44f6088    O..`    MOV      r0,#0x440
        0x0000db3c:    e08b        ..      B        0xdc56 ; am_hal_cachectrl_control + 342
        0x0000db3e:    bf00        ..      NOP      
        0x0000db40:    f44f7008    O..p    MOV      r0,#0x220
        0x0000db44:    e087        ..      B        0xdc56 ; am_hal_cachectrl_control + 342
        0x0000db46:    bf00        ..      NOP      
        0x0000db48:    2040        @       MOVS     r0,#0x40
        0x0000db4a:    e084        ..      B        0xdc56 ; am_hal_cachectrl_control + 342
        0x0000db4c:    2020                MOVS     r0,#0x20
        0x0000db4e:    e082        ..      B        0xdc56 ; am_hal_cachectrl_control + 342
        0x0000db50:    f44f6080    O..`    MOV      r0,#0x400
        0x0000db54:    e07f        ..      B        0xdc56 ; am_hal_cachectrl_control + 342
        0x0000db56:    bf00        ..      NOP      
        0x0000db58:    f44f7000    O..p    MOV      r0,#0x200
        0x0000db5c:    e07b        {.      B        0xdc56 ; am_hal_cachectrl_control + 342
        0x0000db5e:    bf00        ..      NOP      
        0x0000db60:    f000fe16    ....    BL       am_hal_interrupt_master_disable ; 0xe790
        0x0000db64:    9001        ..      STR      r0,[sp,#4]
        0x0000db66:    f2480000    H...    MOVW     r0,#0x8000
        0x0000db6a:    f2c40001    ....    MOVT     r0,#0x4001
        0x0000db6e:    6801        .h      LDR      r1,[r0,#0]
        0x0000db70:    f0417180    A..q    ORR      r1,r1,#0x1000000
        0x0000db74:    6001        .`      STR      r1,[r0,#0]
        0x0000db76:    9801        ..      LDR      r0,[sp,#4]
        0x0000db78:    e00c        ..      B        0xdb94 ; am_hal_cachectrl_control + 148
        0x0000db7a:    bf00        ..      NOP      
        0x0000db7c:    f000fe08    ....    BL       am_hal_interrupt_master_disable ; 0xe790
        0x0000db80:    9000        ..      STR      r0,[sp,#0]
        0x0000db82:    f2480000    H...    MOVW     r0,#0x8000
        0x0000db86:    f2c40001    ....    MOVT     r0,#0x4001
        0x0000db8a:    6801        .h      LDR      r1,[r0,#0]
        0x0000db8c:    f0217180    !..q    BIC      r1,r1,#0x1000000
        0x0000db90:    6001        .`      STR      r1,[r0,#0]
        0x0000db92:    9800        ..      LDR      r0,[sp,#0]
        0x0000db94:    f000fe04    ....    BL       am_hal_interrupt_master_set ; 0xe7a0
        0x0000db98:    2400        .$      MOVS     r4,#0
        0x0000db9a:    4620         F      MOV      r0,r4
        0x0000db9c:    b002        ..      ADD      sp,sp,#8
        0x0000db9e:    bd10        ..      POP      {r4,pc}
        0x0000dba0:    2000        .       MOVS     r0,#0
        0x0000dba2:    f004fb77    ..w.    BL       set_LPMMODE ; 0x12294
        0x0000dba6:    2800        .(      CMP      r0,#0
        0x0000dba8:    d042        B.      BEQ      0xdc30 ; am_hal_cachectrl_control + 304
        0x0000dbaa:    2007        .       MOVS     r0,#7
        0x0000dbac:    f004fc28    ..(.    BL       set_SEDELAY ; 0x12400
        0x0000dbb0:    2800        .(      CMP      r0,#0
        0x0000dbb2:    d03d        =.      BEQ      0xdc30 ; am_hal_cachectrl_control + 304
        0x0000dbb4:    2003        .       MOVS     r0,#3
        0x0000dbb6:    f004fbcb    ....    BL       set_RDWAIT ; 0x12350
        0x0000dbba:    2800        .(      CMP      r0,#0
        0x0000dbbc:    d1ec        ..      BNE      0xdb98 ; am_hal_cachectrl_control + 152
        0x0000dbbe:    e037        7.      B        0xdc30 ; am_hal_cachectrl_control + 304
        0x0000dbc0:    2001        .       MOVS     r0,#1
        0x0000dbc2:    2401        .$      MOVS     r4,#1
        0x0000dbc4:    f004fb66    ..f.    BL       set_LPMMODE ; 0x12294
        0x0000dbc8:    b1c0        ..      CBZ      r0,0xdbfc ; am_hal_cachectrl_control + 252
        0x0000dbca:    2005        .       MOVS     r0,#5
        0x0000dbcc:    f004fc18    ....    BL       set_SEDELAY ; 0x12400
        0x0000dbd0:    b948        H.      CBNZ     r0,0xdbe6 ; am_hal_cachectrl_control + 230
        0x0000dbd2:    e02d        -.      B        0xdc30 ; am_hal_cachectrl_control + 304
        0x0000dbd4:    2001        .       MOVS     r0,#1
        0x0000dbd6:    2401        .$      MOVS     r4,#1
        0x0000dbd8:    f004fb5c    ..\.    BL       set_LPMMODE ; 0x12294
        0x0000dbdc:    b170        p.      CBZ      r0,0xdbfc ; am_hal_cachectrl_control + 252
        0x0000dbde:    2006        .       MOVS     r0,#6
        0x0000dbe0:    f004fc0e    ....    BL       set_SEDELAY ; 0x12400
        0x0000dbe4:    b320         .      CBZ      r0,0xdc30 ; am_hal_cachectrl_control + 304
        0x0000dbe6:    2001        .       MOVS     r0,#1
        0x0000dbe8:    2401        .$      MOVS     r4,#1
        0x0000dbea:    f004fbb1    ....    BL       set_RDWAIT ; 0x12350
        0x0000dbee:    2800        .(      CMP      r0,#0
        0x0000dbf0:    bf18        ..      IT       NE
        0x0000dbf2:    2400        .$      MOVNE    r4,#0
        0x0000dbf4:    4620         F      MOV      r0,r4
        0x0000dbf6:    b002        ..      ADD      sp,sp,#8
        0x0000dbf8:    bd10        ..      POP      {r4,pc}
        0x0000dbfa:    bf00        ..      NOP      
        0x0000dbfc:    4620         F      MOV      r0,r4
        0x0000dbfe:    b002        ..      ADD      sp,sp,#8
        0x0000dc00:    bd10        ..      POP      {r4,pc}
        0x0000dc02:    bf00        ..      NOP      
        0x0000dc04:    b311        ..      CBZ      r1,0xdc4c ; am_hal_cachectrl_control + 332
        0x0000dc06:    6808        .h      LDR      r0,[r1,#0]
        0x0000dc08:    f004fb44    ..D.    BL       set_LPMMODE ; 0x12294
        0x0000dc0c:    2800        .(      CMP      r0,#0
        0x0000dc0e:    d1c3        ..      BNE      0xdb98 ; am_hal_cachectrl_control + 152
        0x0000dc10:    e00e        ..      B        0xdc30 ; am_hal_cachectrl_control + 304
        0x0000dc12:    bf00        ..      NOP      
        0x0000dc14:    b1d1        ..      CBZ      r1,0xdc4c ; am_hal_cachectrl_control + 332
        0x0000dc16:    6808        .h      LDR      r0,[r1,#0]
        0x0000dc18:    f004fbf2    ....    BL       set_SEDELAY ; 0x12400
        0x0000dc1c:    2800        .(      CMP      r0,#0
        0x0000dc1e:    d1bb        ..      BNE      0xdb98 ; am_hal_cachectrl_control + 152
        0x0000dc20:    e006        ..      B        0xdc30 ; am_hal_cachectrl_control + 304
        0x0000dc22:    bf00        ..      NOP      
        0x0000dc24:    b191        ..      CBZ      r1,0xdc4c ; am_hal_cachectrl_control + 332
        0x0000dc26:    6808        .h      LDR      r0,[r1,#0]
        0x0000dc28:    f004fb92    ....    BL       set_RDWAIT ; 0x12350
        0x0000dc2c:    2800        .(      CMP      r0,#0
        0x0000dc2e:    d1b3        ..      BNE      0xdb98 ; am_hal_cachectrl_control + 152
        0x0000dc30:    2401        .$      MOVS     r4,#1
        0x0000dc32:    4620         F      MOV      r0,r4
        0x0000dc34:    b002        ..      ADD      sp,sp,#8
        0x0000dc36:    bd10        ..      POP      {r4,pc}
        0x0000dc38:    b141        A.      CBZ      r1,0xdc4c ; am_hal_cachectrl_control + 332
        0x0000dc3a:    6848        Hh      LDR      r0,[r1,#4]
        0x0000dc3c:    220f        ."      MOVS     r2,#0xf
        0x0000dc3e:    f6cf0200    ....    MOVT     r2,#0xf800
        0x0000dc42:    4210        .B      TST      r0,r2
        0x0000dc44:    d102        ..      BNE      0xdc4c ; am_hal_cachectrl_control + 332
        0x0000dc46:    688b        .h      LDR      r3,[r1,#8]
        0x0000dc48:    4213        .B      TST      r3,r2
        0x0000dc4a:    d00d        ..      BEQ      0xdc68 ; am_hal_cachectrl_control + 360
        0x0000dc4c:    2406        .$      MOVS     r4,#6
        0x0000dc4e:    4620         F      MOV      r0,r4
        0x0000dc50:    b002        ..      ADD      sp,sp,#8
        0x0000dc52:    bd10        ..      POP      {r4,pc}
        0x0000dc54:    2002        .       MOVS     r0,#2
        0x0000dc56:    f2480100    H...    MOVW     r1,#0x8000
        0x0000dc5a:    f2c40101    ....    MOVT     r1,#0x4001
        0x0000dc5e:    2400        .$      MOVS     r4,#0
        0x0000dc60:    6088        .`      STR      r0,[r1,#8]
        0x0000dc62:    4620         F      MOV      r0,r4
        0x0000dc64:    b002        ..      ADD      sp,sp,#8
        0x0000dc66:    bd10        ..      POP      {r4,pc}
        0x0000dc68:    780a        .x      LDRB     r2,[r1,#0]
        0x0000dc6a:    2a01        .*      CMP      r2,#1
        0x0000dc6c:    d016        ..      BEQ      0xdc9c ; am_hal_cachectrl_control + 412
        0x0000dc6e:    2a00        .*      CMP      r2,#0
        0x0000dc70:    d1ec        ..      BNE      0xdc4c ; am_hal_cachectrl_control + 332
        0x0000dc72:    f2480200    H...    MOVW     r2,#0x8000
        0x0000dc76:    f2c40201    ....    MOVT     r2,#0x4001
        0x0000dc7a:    6110        .a      STR      r0,[r2,#0x10]
        0x0000dc7c:    6888        .h      LDR      r0,[r1,#8]
        0x0000dc7e:    2400        .$      MOVS     r4,#0
        0x0000dc80:    6150        Pa      STR      r0,[r2,#0x14]
        0x0000dc82:    7848        Hx      LDRB     r0,[r1,#1]
        0x0000dc84:    6811        .h      LDR      r1,[r2,#0]
        0x0000dc86:    f000003f    ..?.    AND      r0,r0,#0x3f
        0x0000dc8a:    f0210104    !...    BIC      r1,r1,#4
        0x0000dc8e:    ea410080    A...    ORR      r0,r1,r0,LSL #2
        0x0000dc92:    6010        .`      STR      r0,[r2,#0]
        0x0000dc94:    4620         F      MOV      r0,r4
        0x0000dc96:    b002        ..      ADD      sp,sp,#8
        0x0000dc98:    bd10        ..      POP      {r4,pc}
        0x0000dc9a:    bf00        ..      NOP      
        0x0000dc9c:    f2480200    H...    MOVW     r2,#0x8000
        0x0000dca0:    f2c40201    ....    MOVT     r2,#0x4001
        0x0000dca4:    6190        .a      STR      r0,[r2,#0x18]
        0x0000dca6:    6888        .h      LDR      r0,[r1,#8]
        0x0000dca8:    2400        .$      MOVS     r4,#0
        0x0000dcaa:    61d0        .a      STR      r0,[r2,#0x1c]
        0x0000dcac:    7848        Hx      LDRB     r0,[r1,#1]
        0x0000dcae:    6811        .h      LDR      r1,[r2,#0]
        0x0000dcb0:    f000001f    ....    AND      r0,r0,#0x1f
        0x0000dcb4:    f0210108    !...    BIC      r1,r1,#8
        0x0000dcb8:    ea4100c0    A...    ORR      r0,r1,r0,LSL #3
        0x0000dcbc:    6010        .`      STR      r0,[r2,#0]
        0x0000dcbe:    4620         F      MOV      r0,r4
        0x0000dcc0:    b002        ..      ADD      sp,sp,#8
        0x0000dcc2:    bd10        ..      POP      {r4,pc}
    am_hal_cachectrl_enable
        0x0000dcc4:    f2480100    H...    MOVW     r1,#0x8000
        0x0000dcc8:    f2c40101    ....    MOVT     r1,#0x4001
        0x0000dccc:    6808        .h      LDR      r0,[r1,#0]
        0x0000dcce:    f0400201    @...    ORR      r2,r0,#1
        0x0000dcd2:    2000        .       MOVS     r0,#0
        0x0000dcd4:    600a        .`      STR      r2,[r1,#0]
        0x0000dcd6:    4770        pG      BX       lr
    am_hal_clkgen_control
        0x0000dcd8:    b510        ..      PUSH     {r4,lr}
        0x0000dcda:    f64332c4    C..2    MOV      r2,#0x3bc4
        0x0000dcde:    f2c10201    ....    MOVT     r2,#0x1001
        0x0000dce2:    6813        .h      LDR      r3,[r2,#0]
        0x0000dce4:    460c        .F      MOV      r4,r1
        0x0000dce6:    b92b        +.      CBNZ     r3,0xdcf4 ; am_hal_clkgen_control + 28
        0x0000dce8:    f24f0100    O...    MOVW     r1,#0xf000
        0x0000dcec:    f6c471ff    ...q    MOVT     r1,#0x4fff
        0x0000dcf0:    6809        .h      LDR      r1,[r1,#0]
        0x0000dcf2:    6011        .`      STR      r1,[r2,#0]
        0x0000dcf4:    2809        .(      CMP      r0,#9
        0x0000dcf6:    d811        ..      BHI      0xdd1c ; am_hal_clkgen_control + 68
        0x0000dcf8:    e8dff000    ....    TBB      [pc,r0]
    $d.1
        0x0000dcfc:    261c1206    ...&    DCD    639373830
        0x0000dd00:    62584c42    BLXb    DCD    1649953858
        0x0000dd04:    bf00866c    l...    DCD    3204482668
    $t.2
        0x0000dd08:    f244010c    D...    MOV      r1,#0x400c
        0x0000dd0c:    f2c40100    ....    MOVT     r1,#0x4000
        0x0000dd10:    2047        G       MOVS     r0,#0x47
        0x0000dd12:    6088        .`      STR      r0,[r1,#8]
        0x0000dd14:    2000        .       MOVS     r0,#0
        0x0000dd16:    60c8        .`      STR      r0,[r1,#0xc]
        0x0000dd18:    6088        .`      STR      r0,[r1,#8]
        0x0000dd1a:    bd10        ..      POP      {r4,pc}
        0x0000dd1c:    2006        .       MOVS     r0,#6
        0x0000dd1e:    bd10        ..      POP      {r4,pc}
        0x0000dd20:    f244000c    D...    MOV      r0,#0x400c
        0x0000dd24:    f2c40000    ....    MOVT     r0,#0x4000
        0x0000dd28:    6801        .h      LDR      r1,[r0,#0]
        0x0000dd2a:    f0210101    !...    BIC      r1,r1,#1
        0x0000dd2e:    6001        .`      STR      r1,[r0,#0]
        0x0000dd30:    2000        .       MOVS     r0,#0
        0x0000dd32:    bd10        ..      POP      {r4,pc}
        0x0000dd34:    f244000c    D...    MOV      r0,#0x400c
        0x0000dd38:    f2c40000    ....    MOVT     r0,#0x4000
        0x0000dd3c:    6801        .h      LDR      r1,[r0,#0]
        0x0000dd3e:    f0210102    !...    BIC      r1,r1,#2
        0x0000dd42:    6001        .`      STR      r1,[r0,#0]
        0x0000dd44:    2000        .       MOVS     r0,#0
        0x0000dd46:    bd10        ..      POP      {r4,pc}
        0x0000dd48:    f2401020    @. .    MOVW     r0,#0x120
        0x0000dd4c:    f64f61ec    O..a    MOV      r1,#0xfeec
        0x0000dd50:    f2c40002    ....    MOVT     r0,#0x4002
        0x0000dd54:    f6cf71ff    ...q    MOVT     r1,#0xffff
        0x0000dd58:    5841        AX      LDR      r1,[r0,r1]
        0x0000dd5a:    b2c9        ..      UXTB     r1,r1
        0x0000dd5c:    2921        !)      CMP      r1,#0x21
        0x0000dd5e:    d304        ..      BCC      0xdd6a ; am_hal_clkgen_control + 146
        0x0000dd60:    6801        .h      LDR      r1,[r0,#0]
        0x0000dd62:    2201        ."      MOVS     r2,#1
        0x0000dd64:    f3622109    b..!    BFI      r1,r2,#8,#2
        0x0000dd68:    6001        .`      STR      r1,[r0,#0]
        0x0000dd6a:    f244000c    D...    MOV      r0,#0x400c
        0x0000dd6e:    f2c40000    ....    MOVT     r0,#0x4000
        0x0000dd72:    6801        .h      LDR      r1,[r0,#0]
        0x0000dd74:    f0410101    A...    ORR      r1,r1,#1
        0x0000dd78:    6001        .`      STR      r1,[r0,#0]
        0x0000dd7a:    2000        .       MOVS     r0,#0
        0x0000dd7c:    bd10        ..      POP      {r4,pc}
        0x0000dd7e:    bf00        ..      NOP      
        0x0000dd80:    f244000c    D...    MOV      r0,#0x400c
        0x0000dd84:    f2c40000    ....    MOVT     r0,#0x4000
        0x0000dd88:    6801        .h      LDR      r1,[r0,#0]
        0x0000dd8a:    f0410102    A...    ORR      r1,r1,#2
        0x0000dd8e:    6001        .`      STR      r1,[r0,#0]
        0x0000dd90:    2000        .       MOVS     r0,#0
        0x0000dd92:    bd10        ..      POP      {r4,pc}
        0x0000dd94:    f244010c    D...    MOV      r1,#0x400c
        0x0000dd98:    f2c40100    ....    MOVT     r1,#0x4000
        0x0000dd9c:    2047        G       MOVS     r0,#0x47
        0x0000dd9e:    6088        .`      STR      r0,[r1,#8]
        0x0000dda0:    2001        .       MOVS     r0,#1
        0x0000dda2:    60c8        .`      STR      r0,[r1,#0xc]
        0x0000dda4:    2000        .       MOVS     r0,#0
        0x0000dda6:    6088        .`      STR      r0,[r1,#8]
        0x0000dda8:    bd10        ..      POP      {r4,pc}
        0x0000ddaa:    bf00        ..      NOP      
        0x0000ddac:    f244000c    D...    MOV      r0,#0x400c
        0x0000ddb0:    f2c40000    ....    MOVT     r0,#0x4000
        0x0000ddb4:    6801        .h      LDR      r1,[r0,#0]
        0x0000ddb6:    f0210180    !...    BIC      r1,r1,#0x80
        0x0000ddba:    6001        .`      STR      r1,[r0,#0]
        0x0000ddbc:    2000        .       MOVS     r0,#0
        0x0000ddbe:    bd10        ..      POP      {r4,pc}
        0x0000ddc0:    f244000c    D...    MOV      r0,#0x400c
        0x0000ddc4:    f2c40000    ....    MOVT     r0,#0x4000
        0x0000ddc8:    6801        .h      LDR      r1,[r0,#0]
        0x0000ddca:    f0410180    A...    ORR      r1,r1,#0x80
        0x0000ddce:    6001        .`      STR      r1,[r0,#0]
        0x0000ddd0:    2000        .       MOVS     r0,#0
        0x0000ddd2:    bd10        ..      POP      {r4,pc}
        0x0000ddd4:    f2401020    @. .    MOVW     r0,#0x120
        0x0000ddd8:    f64f61ec    O..a    MOV      r1,#0xfeec
        0x0000dddc:    f2c40002    ....    MOVT     r0,#0x4002
        0x0000dde0:    f6cf71ff    ...q    MOVT     r1,#0xffff
        0x0000dde4:    5841        AX      LDR      r1,[r0,r1]
        0x0000dde6:    b2c9        ..      UXTB     r1,r1
        0x0000dde8:    2921        !)      CMP      r1,#0x21
        0x0000ddea:    d307        ..      BCC      0xddfc ; am_hal_clkgen_control + 292
        0x0000ddec:    6801        .h      LDR      r1,[r0,#0]
        0x0000ddee:    f4417140    A.@q    ORR      r1,r1,#0x300
        0x0000ddf2:    6001        .`      STR      r1,[r0,#0]
        0x0000ddf4:    f44f507a    O.zP    MOV      r0,#0x3e80
        0x0000ddf8:    f000faae    ....    BL       am_hal_flash_delay ; 0xe358
        0x0000ddfc:    b174        t.      CBZ      r4,0xde1c ; am_hal_clkgen_control + 324
        0x0000ddfe:    6820         h      LDR      r0,[r4,#0]
        0x0000de00:    f0400001    @...    ORR      r0,r0,#1
        0x0000de04:    e00e        ..      B        0xde24 ; am_hal_clkgen_control + 332
        0x0000de06:    bf00        ..      NOP      
        0x0000de08:    f244000c    D...    MOV      r0,#0x400c
        0x0000de0c:    f2c40000    ....    MOVT     r0,#0x4000
        0x0000de10:    6941        Ai      LDR      r1,[r0,#0x14]
        0x0000de12:    f0210101    !...    BIC      r1,r1,#1
        0x0000de16:    6141        Aa      STR      r1,[r0,#0x14]
        0x0000de18:    2000        .       MOVS     r0,#0
        0x0000de1a:    bd10        ..      POP      {r4,pc}
        0x0000de1c:    f64b0001    K...    MOV      r0,#0xb801
        0x0000de20:    f2c00025    ..%.    MOVT     r0,#0x25
        0x0000de24:    f244010c    D...    MOV      r1,#0x400c
        0x0000de28:    f2c40100    ....    MOVT     r1,#0x4000
        0x0000de2c:    6148        Ha      STR      r0,[r1,#0x14]
        0x0000de2e:    2000        .       MOVS     r0,#0
        0x0000de30:    bd10        ..      POP      {r4,pc}
        0x0000de32:    0000        ..      MOVS     r0,r0
    am_hal_clkgen_status_get
        0x0000de34:    2800        .(      CMP      r0,#0
        0x0000de36:    bf04        ..      ITT      EQ
        0x0000de38:    2006        .       MOVEQ    r0,#6
        0x0000de3a:    4770        pG      BXEQ     lr
        0x0000de3c:    f2440118    D...    MOV      r1,#0x4018
        0x0000de40:    f2c40100    ....    MOVT     r1,#0x4000
        0x0000de44:    680a        .h      LDR      r2,[r1,#0]
        0x0000de46:    07d2        ..      LSLS     r2,r2,#31
        0x0000de48:    f2436200    C..b    MOVW     r2,#0x3600
        0x0000de4c:    f2c0126e    ..n.    MOVT     r2,#0x16e
        0x0000de50:    bf04        ..      ITT      EQ
        0x0000de52:    f6464200    F..B    MOVWEQ   r2,#0x6c00
        0x0000de56:    f2c022dc    ..."    MOVTEQ   r2,#0x2dc
        0x0000de5a:    6002        .`      STR      r2,[r0,#0]
        0x0000de5c:    6849        Ih      LDR      r1,[r1,#4]
        0x0000de5e:    f0010201    ....    AND      r2,r1,#1
        0x0000de62:    f3c10140    ..@.    UBFX     r1,r1,#1,#1
        0x0000de66:    6042        B`      STR      r2,[r0,#4]
        0x0000de68:    7201        .r      STRB     r1,[r0,#8]
        0x0000de6a:    2000        .       MOVS     r0,#0
        0x0000de6c:    4770        pG      BX       lr
        0x0000de6e:    0000        ..      MOVS     r0,r0
    am_hal_cmdq_alloc_block
        0x0000de70:    b5f0        ..      PUSH     {r4-r7,lr}
        0x0000de72:    b081        ..      SUB      sp,sp,#4
        0x0000de74:    b3a0        ..      CBZ      r0,0xdee0 ; am_hal_cmdq_alloc_block + 112
        0x0000de76:    4605        .F      MOV      r5,r0
        0x0000de78:    6800        .h      LDR      r0,[r0,#0]
        0x0000de7a:    460f        .F      MOV      r7,r1
        0x0000de7c:    f64c51cd    L..Q    MOV      r1,#0xcdcd
        0x0000de80:    f020407e     .~@    BIC      r0,r0,#0xfe000000
        0x0000de84:    f2c011cd    ....    MOVT     r1,#0x1cd
        0x0000de88:    4288        .B      CMP      r0,r1
        0x0000de8a:    d129        ).      BNE      0xdee0 ; am_hal_cmdq_alloc_block + 112
        0x0000de8c:    4616        .F      MOV      r6,r2
        0x0000de8e:    2a00        .*      CMP      r2,#0
        0x0000de90:    f04f0006    O...    MOV      r0,#6
        0x0000de94:    d051        Q.      BEQ      0xdf3a ; am_hal_cmdq_alloc_block + 202
        0x0000de96:    461c        .F      MOV      r4,r3
        0x0000de98:    2b00        .+      CMP      r3,#0
        0x0000de9a:    d04e        N.      BEQ      0xdf3a ; am_hal_cmdq_alloc_block + 202
        0x0000de9c:    e9d50104    ....    LDRD     r0,r1,[r5,#0x10]
        0x0000dea0:    4288        .B      CMP      r0,r1
        0x0000dea2:    d121        !.      BNE      0xdee8 ; am_hal_cmdq_alloc_block + 120
        0x0000dea4:    f000fc74    ..t.    BL       am_hal_interrupt_master_disable ; 0xe790
        0x0000dea8:    9000        ..      STR      r0,[sp,#0]
        0x0000deaa:    e9d51008    ....    LDRD     r1,r0,[r5,#0x20]
        0x0000deae:    e9d00201    ....    LDRD     r0,r2,[r0,#4]
        0x0000deb2:    460b        .F      MOV      r3,r1
        0x0000deb4:    6812        .h      LDR      r2,[r2,#0]
        0x0000deb6:    f3620307    b...    BFI      r3,r2,#0,#8
        0x0000deba:    4299        .B      CMP      r1,r3
        0x0000debc:    bfb8        ..      IT       LT
        0x0000debe:    f5a37380    ...s    SUBLT    r3,r3,#0x100
        0x0000dec2:    61eb        .a      STR      r3,[r5,#0x1c]
        0x0000dec4:    6800        .h      LDR      r0,[r0,#0]
        0x0000dec6:    60e8        .`      STR      r0,[r5,#0xc]
        0x0000dec8:    9800        ..      LDR      r0,[sp,#0]
        0x0000deca:    f000fc69    ..i.    BL       am_hal_interrupt_master_set ; 0xe7a0
        0x0000dece:    e9d51007    ....    LDRD     r1,r0,[r5,#0x1c]
        0x0000ded2:    31fe        .1      ADDS     r1,r1,#0xfe
        0x0000ded4:    4281        .B      CMP      r1,r0
        0x0000ded6:    da0b        ..      BGE      0xdef0 ; am_hal_cmdq_alloc_block + 128
        0x0000ded8:    2005        .       MOVS     r0,#5
        0x0000deda:    b001        ..      ADD      sp,sp,#4
        0x0000dedc:    bdf0        ..      POP      {r4-r7,pc}
        0x0000dede:    bf00        ..      NOP      
        0x0000dee0:    2002        .       MOVS     r0,#2
        0x0000dee2:    b001        ..      ADD      sp,sp,#4
        0x0000dee4:    bdf0        ..      POP      {r4-r7,pc}
        0x0000dee6:    bf00        ..      NOP      
        0x0000dee8:    2007        .       MOVS     r0,#7
        0x0000deea:    b001        ..      ADD      sp,sp,#4
        0x0000deec:    bdf0        ..      POP      {r4-r7,pc}
        0x0000deee:    bf00        ..      NOP      
        0x0000def0:    e9d53103    ...1    LDRD     r3,r1,[r5,#0xc]
        0x0000def4:    00fa        ..      LSLS     r2,r7,#3
        0x0000def6:    4299        .B      CMP      r1,r3
        0x0000def8:    d204        ..      BCS      0xdf04 ; am_hal_cmdq_alloc_block + 148
        0x0000defa:    1857        W.      ADDS     r7,r2,r1
        0x0000defc:    3708        .7      ADDS     r7,r7,#8
        0x0000defe:    429f        .B      CMP      r7,r3
        0x0000df00:    d2ea        ..      BCS      0xded8 ; am_hal_cmdq_alloc_block + 104
        0x0000df02:    e013        ..      B        0xdf2c ; am_hal_cmdq_alloc_block + 188
        0x0000df04:    eb020c01    ....    ADD      r12,r2,r1
        0x0000df08:    f8d5e008    ....    LDR      lr,[r5,#8]
        0x0000df0c:    f10c0710    ....    ADD      r7,r12,#0x10
        0x0000df10:    4577        wE      CMP      r7,lr
        0x0000df12:    d90b        ..      BLS      0xdf2c ; am_hal_cmdq_alloc_block + 188
        0x0000df14:    f8d5c004    ....    LDR      r12,[r5,#4]
        0x0000df18:    eb02070c    ....    ADD      r7,r2,r12
        0x0000df1c:    3708        .7      ADDS     r7,r7,#8
        0x0000df1e:    429f        .B      CMP      r7,r3
        0x0000df20:    d2da        ..      BCS      0xded8 ; am_hal_cmdq_alloc_block + 104
        0x0000df22:    6a6b        kj      LDR      r3,[r5,#0x24]
        0x0000df24:    685b        [h      LDR      r3,[r3,#4]
        0x0000df26:    e9c13c00    ...<    STRD     r3,r12,[r1,#0]
        0x0000df2a:    4661        aF      MOV      r1,r12
        0x0000df2c:    3001        .0      ADDS     r0,#1
        0x0000df2e:    6228        (b      STR      r0,[r5,#0x20]
        0x0000df30:    6020         `      STR      r0,[r4,#0]
        0x0000df32:    1888        ..      ADDS     r0,r1,r2
        0x0000df34:    6168        ha      STR      r0,[r5,#0x14]
        0x0000df36:    2000        .       MOVS     r0,#0
        0x0000df38:    6031        1`      STR      r1,[r6,#0]
        0x0000df3a:    b001        ..      ADD      sp,sp,#4
        0x0000df3c:    bdf0        ..      POP      {r4-r7,pc}
        0x0000df3e:    0000        ..      MOVS     r0,r0
    am_hal_cmdq_disable
        0x0000df40:    b1c0        ..      CBZ      r0,0xdf74 ; am_hal_cmdq_disable + 52
        0x0000df42:    6801        .h      LDR      r1,[r0,#0]
        0x0000df44:    f64c53cd    L..S    MOV      r3,#0xcdcd
        0x0000df48:    f021427e    !.~B    BIC      r2,r1,#0xfe000000
        0x0000df4c:    f2c013cd    ....    MOVT     r3,#0x1cd
        0x0000df50:    429a        .B      CMP      r2,r3
        0x0000df52:    d10f        ..      BNE      0xdf74 ; am_hal_cmdq_disable + 52
        0x0000df54:    0189        ..      LSLS     r1,r1,#6
        0x0000df56:    bf5c        \.      ITT      PL
        0x0000df58:    2000        .       MOVPL    r0,#0
        0x0000df5a:    4770        pG      BXPL     lr
        0x0000df5c:    6a41        Aj      LDR      r1,[r0,#0x24]
        0x0000df5e:    6809        .h      LDR      r1,[r1,#0]
        0x0000df60:    680a        .h      LDR      r2,[r1,#0]
        0x0000df62:    f0220201    "...    BIC      r2,r2,#1
        0x0000df66:    600a        .`      STR      r2,[r1,#0]
        0x0000df68:    6801        .h      LDR      r1,[r0,#0]
        0x0000df6a:    f0217100    !..q    BIC      r1,r1,#0x2000000
        0x0000df6e:    6001        .`      STR      r1,[r0,#0]
        0x0000df70:    2000        .       MOVS     r0,#0
        0x0000df72:    4770        pG      BX       lr
        0x0000df74:    2002        .       MOVS     r0,#2
        0x0000df76:    4770        pG      BX       lr
    am_hal_cmdq_enable
        0x0000df78:    b1c0        ..      CBZ      r0,0xdfac ; am_hal_cmdq_enable + 52
        0x0000df7a:    6801        .h      LDR      r1,[r0,#0]
        0x0000df7c:    f64c53cd    L..S    MOV      r3,#0xcdcd
        0x0000df80:    f021427e    !.~B    BIC      r2,r1,#0xfe000000
        0x0000df84:    f2c013cd    ....    MOVT     r3,#0x1cd
        0x0000df88:    429a        .B      CMP      r2,r3
        0x0000df8a:    d10f        ..      BNE      0xdfac ; am_hal_cmdq_enable + 52
        0x0000df8c:    0189        ..      LSLS     r1,r1,#6
        0x0000df8e:    bf44        D.      ITT      MI
        0x0000df90:    2000        .       MOVMI    r0,#0
        0x0000df92:    4770        pG      BXMI     lr
        0x0000df94:    6a41        Aj      LDR      r1,[r0,#0x24]
        0x0000df96:    6809        .h      LDR      r1,[r1,#0]
        0x0000df98:    680a        .h      LDR      r2,[r1,#0]
        0x0000df9a:    f0420201    B...    ORR      r2,r2,#1
        0x0000df9e:    600a        .`      STR      r2,[r1,#0]
        0x0000dfa0:    6801        .h      LDR      r1,[r0,#0]
        0x0000dfa2:    f0417100    A..q    ORR      r1,r1,#0x2000000
        0x0000dfa6:    6001        .`      STR      r1,[r0,#0]
        0x0000dfa8:    2000        .       MOVS     r0,#0
        0x0000dfaa:    4770        pG      BX       lr
        0x0000dfac:    2002        .       MOVS     r0,#2
        0x0000dfae:    4770        pG      BX       lr
    am_hal_cmdq_error_resume
        0x0000dfb0:    b580        ..      PUSH     {r7,lr}
        0x0000dfb2:    2800        .(      CMP      r0,#0
        0x0000dfb4:    d048        H.      BEQ      0xe048 ; am_hal_cmdq_error_resume + 152
        0x0000dfb6:    6801        .h      LDR      r1,[r0,#0]
        0x0000dfb8:    f64c53cd    L..S    MOV      r3,#0xcdcd
        0x0000dfbc:    f021427e    !.~B    BIC      r2,r1,#0xfe000000
        0x0000dfc0:    f2c013cd    ....    MOVT     r3,#0x1cd
        0x0000dfc4:    429a        .B      CMP      r2,r3
        0x0000dfc6:    d13f        ?.      BNE      0xe048 ; am_hal_cmdq_error_resume + 152
        0x0000dfc8:    0189        ..      LSLS     r1,r1,#6
        0x0000dfca:    bf5c        \.      ITT      PL
        0x0000dfcc:    2000        .       MOVPL    r0,#0
        0x0000dfce:    bd80        ..      POPPL    {r7,pc}
        0x0000dfd0:    6a41        Aj      LDR      r1,[r0,#0x24]
        0x0000dfd2:    e8915008    ...P    LDM      r1,{r3,r12,lr}
        0x0000dfd6:    6819        .h      LDR      r1,[r3,#0]
        0x0000dfd8:    f0210101    !...    BIC      r1,r1,#1
        0x0000dfdc:    6019        .`      STR      r1,[r3,#0]
        0x0000dfde:    f8dc3000    ...0    LDR      r3,[r12,#0]
        0x0000dfe2:    6819        .h      LDR      r1,[r3,#0]
        0x0000dfe4:    f0210201    !...    BIC      r2,r1,#1
        0x0000dfe8:    4572        rE      CMP      r2,lr
        0x0000dfea:    d023        #.      BEQ      0xe034 ; am_hal_cmdq_error_resume + 132
        0x0000dfec:    4561        aE      CMP      r1,r12
        0x0000dfee:    bf14        ..      ITE      NE
        0x0000dff0:    3308        .3      ADDNE    r3,r3,#8
        0x0000dff2:    685b        [h      LDREQ    r3,[r3,#4]
        0x0000dff4:    6819        .h      LDR      r1,[r3,#0]
        0x0000dff6:    f0210201    !...    BIC      r2,r1,#1
        0x0000dffa:    4572        rE      CMP      r2,lr
        0x0000dffc:    d01a        ..      BEQ      0xe034 ; am_hal_cmdq_error_resume + 132
        0x0000dffe:    4561        aE      CMP      r1,r12
        0x0000e000:    bf0c        ..      ITE      EQ
        0x0000e002:    685b        [h      LDREQ    r3,[r3,#4]
        0x0000e004:    3308        .3      ADDNE    r3,r3,#8
        0x0000e006:    6819        .h      LDR      r1,[r3,#0]
        0x0000e008:    f0210201    !...    BIC      r2,r1,#1
        0x0000e00c:    4572        rE      CMP      r2,lr
        0x0000e00e:    d011        ..      BEQ      0xe034 ; am_hal_cmdq_error_resume + 132
        0x0000e010:    4561        aE      CMP      r1,r12
        0x0000e012:    bf0c        ..      ITE      EQ
        0x0000e014:    685b        [h      LDREQ    r3,[r3,#4]
        0x0000e016:    3308        .3      ADDNE    r3,r3,#8
        0x0000e018:    6819        .h      LDR      r1,[r3,#0]
        0x0000e01a:    f0210201    !...    BIC      r2,r1,#1
        0x0000e01e:    4572        rE      CMP      r2,lr
        0x0000e020:    d008        ..      BEQ      0xe034 ; am_hal_cmdq_error_resume + 132
        0x0000e022:    4561        aE      CMP      r1,r12
        0x0000e024:    bf0c        ..      ITE      EQ
        0x0000e026:    685b        [h      LDREQ    r3,[r3,#4]
        0x0000e028:    3308        .3      ADDNE    r3,r3,#8
        0x0000e02a:    6819        .h      LDR      r1,[r3,#0]
        0x0000e02c:    f0210201    !...    BIC      r2,r1,#1
        0x0000e030:    4572        rE      CMP      r2,lr
        0x0000e032:    d1db        ..      BNE      0xdfec ; am_hal_cmdq_error_resume + 60
        0x0000e034:    f8c3e000    ....    STR      lr,[r3,#0]
        0x0000e038:    f8cc3000    ...0    STR      r3,[r12,#0]
        0x0000e03c:    6801        .h      LDR      r1,[r0,#0]
        0x0000e03e:    f0217100    !..q    BIC      r1,r1,#0x2000000
        0x0000e042:    6001        .`      STR      r1,[r0,#0]
        0x0000e044:    2000        .       MOVS     r0,#0
        0x0000e046:    bd80        ..      POP      {r7,pc}
        0x0000e048:    2002        .       MOVS     r0,#2
        0x0000e04a:    bd80        ..      POP      {r7,pc}
    am_hal_cmdq_get_status
        0x0000e04c:    b5b0        ..      PUSH     {r4,r5,r7,lr}
        0x0000e04e:    b082        ..      SUB      sp,sp,#8
        0x0000e050:    2800        .(      CMP      r0,#0
        0x0000e052:    d041        A.      BEQ      0xe0d8 ; am_hal_cmdq_get_status + 140
        0x0000e054:    4605        .F      MOV      r5,r0
        0x0000e056:    6800        .h      LDR      r0,[r0,#0]
        0x0000e058:    460c        .F      MOV      r4,r1
        0x0000e05a:    f64c51cd    L..Q    MOV      r1,#0xcdcd
        0x0000e05e:    f020407e     .~@    BIC      r0,r0,#0xfe000000
        0x0000e062:    f2c011cd    ....    MOVT     r1,#0x1cd
        0x0000e066:    4288        .B      CMP      r0,r1
        0x0000e068:    d136        6.      BNE      0xe0d8 ; am_hal_cmdq_get_status + 140
        0x0000e06a:    b3cc        ..      CBZ      r4,0xe0e0 ; am_hal_cmdq_get_status + 148
        0x0000e06c:    f000fb90    ....    BL       am_hal_interrupt_master_disable ; 0xe790
        0x0000e070:    9001        ..      STR      r0,[sp,#4]
        0x0000e072:    e9d51008    ....    LDRD     r1,r0,[r5,#0x20]
        0x0000e076:    e9d00201    ....    LDRD     r0,r2,[r0,#4]
        0x0000e07a:    460b        .F      MOV      r3,r1
        0x0000e07c:    6812        .h      LDR      r2,[r2,#0]
        0x0000e07e:    f3620307    b...    BFI      r3,r2,#0,#8
        0x0000e082:    4299        .B      CMP      r1,r3
        0x0000e084:    bfb8        ..      IT       LT
        0x0000e086:    f5a37380    ...s    SUBLT    r3,r3,#0x100
        0x0000e08a:    61eb        .a      STR      r3,[r5,#0x1c]
        0x0000e08c:    6800        .h      LDR      r0,[r0,#0]
        0x0000e08e:    60e8        .`      STR      r0,[r5,#0xc]
        0x0000e090:    9801        ..      LDR      r0,[sp,#4]
        0x0000e092:    f000fb85    ....    BL       am_hal_interrupt_master_set ; 0xe7a0
        0x0000e096:    e9d50104    ....    LDRD     r0,r1,[r5,#0x10]
        0x0000e09a:    e9d52307    ...#    LDRD     r2,r3,[r5,#0x1c]
        0x0000e09e:    4281        .B      CMP      r1,r0
        0x0000e0a0:    60a3        .`      STR      r3,[r4,#8]
        0x0000e0a2:    bf18        ..      IT       NE
        0x0000e0a4:    3b01        .;      SUBNE    r3,#1
        0x0000e0a6:    6a68        hj      LDR      r0,[r5,#0x24]
        0x0000e0a8:    6063        c`      STR      r3,[r4,#4]
        0x0000e0aa:    f1000318    ....    ADD      r3,r0,#0x18
        0x0000e0ae:    6022        "`      STR      r2,[r4,#0]
        0x0000e0b0:    cb0e        ..      LDM      r3,{r1-r3}
        0x0000e0b2:    6a40        @j      LDR      r0,[r0,#0x24]
        0x0000e0b4:    6809        .h      LDR      r1,[r1,#0]
        0x0000e0b6:    400a        .@      ANDS     r2,r2,r1
        0x0000e0b8:    bf18        ..      IT       NE
        0x0000e0ba:    2201        ."      MOVNE    r2,#1
        0x0000e0bc:    4008        .@      ANDS     r0,r0,r1
        0x0000e0be:    7322        "s      STRB     r2,[r4,#0xc]
        0x0000e0c0:    bf18        ..      IT       NE
        0x0000e0c2:    2001        .       MOVNE    r0,#1
        0x0000e0c4:    7360        `s      STRB     r0,[r4,#0xd]
        0x0000e0c6:    ea130001    ....    ANDS     r0,r3,r1
        0x0000e0ca:    bf18        ..      IT       NE
        0x0000e0cc:    2001        .       MOVNE    r0,#1
        0x0000e0ce:    73a0        .s      STRB     r0,[r4,#0xe]
        0x0000e0d0:    2000        .       MOVS     r0,#0
        0x0000e0d2:    b002        ..      ADD      sp,sp,#8
        0x0000e0d4:    bdb0        ..      POP      {r4,r5,r7,pc}
        0x0000e0d6:    bf00        ..      NOP      
        0x0000e0d8:    2002        .       MOVS     r0,#2
        0x0000e0da:    b002        ..      ADD      sp,sp,#8
        0x0000e0dc:    bdb0        ..      POP      {r4,r5,r7,pc}
        0x0000e0de:    bf00        ..      NOP      
        0x0000e0e0:    2006        .       MOVS     r0,#6
        0x0000e0e2:    b002        ..      ADD      sp,sp,#8
        0x0000e0e4:    bdb0        ..      POP      {r4,r5,r7,pc}
        0x0000e0e6:    0000        ..      MOVS     r0,r0
    am_hal_cmdq_init
        0x0000e0e8:    e92d41f0    -..A    PUSH     {r4-r8,lr}
        0x0000e0ec:    2809        .(      CMP      r0,#9
        0x0000e0ee:    bf84        ..      ITT      HI
        0x0000e0f0:    2005        .       MOVHI    r0,#5
        0x0000e0f2:    e8bd81f0    ....    POPHI    {r4-r8,pc}
        0x0000e0f6:    b171        q.      CBZ      r1,0xe116 ; am_hal_cmdq_init + 46
        0x0000e0f8:    4603        .F      MOV      r3,r0
        0x0000e0fa:    2a00        .*      CMP      r2,#0
        0x0000e0fc:    f04f0006    O...    MOV      r0,#6
        0x0000e100:    d04f        O.      BEQ      0xe1a2 ; am_hal_cmdq_init + 186
        0x0000e102:    f8d1e004    ....    LDR      lr,[r1,#4]
        0x0000e106:    f1be0f00    ....    CMP      lr,#0
        0x0000e10a:    bf08        ..      IT       EQ
        0x0000e10c:    e8bd81f0    ....    POPEQ    {r4-r8,pc}
        0x0000e110:    6808        .h      LDR      r0,[r1,#0]
        0x0000e112:    2802        .(      CMP      r0,#2
        0x0000e114:    d202        ..      BCS      0xe11c ; am_hal_cmdq_init + 52
        0x0000e116:    2006        .       MOVS     r0,#6
        0x0000e118:    e8bd81f0    ....    POP      {r4-r8,pc}
        0x0000e11c:    f6432c0c    C..,    MOV      r12,#0x3a0c
        0x0000e120:    252c        ,%      MOVS     r5,#0x2c
        0x0000e122:    f2c10c01    ....    MOVT     r12,#0x1001
        0x0000e126:    fb03f405    ....    MUL      r4,r3,r5
        0x0000e12a:    f85c4004    \..@    LDR      r4,[r12,r4]
        0x0000e12e:    01e6        ..      LSLS     r6,r4,#7
        0x0000e130:    bf44        D.      ITT      MI
        0x0000e132:    2007        .       MOVMI    r0,#7
        0x0000e134:    e8bd81f0    ....    POPMI    {r4-r8,pc}
        0x0000e138:    f6420844    B.D.    MOV      r8,#0x2844
        0x0000e13c:    fb13cc05    ....    SMLABB   r12,r3,r5,r12
        0x0000e140:    00c5        ..      LSLS     r5,r0,#3
        0x0000e142:    eb0e06c0    ....    ADD      r6,lr,r0,LSL #3
        0x0000e146:    f64c50cd    L..P    MOV      r0,#0xcdcd
        0x0000e14a:    eb030383    ....    ADD      r3,r3,r3,LSL #2
        0x0000e14e:    f2c00801    ....    MOVT     r8,#1
        0x0000e152:    f2c010cd    ....    MOVT     r0,#0x1cd
        0x0000e156:    eb0807c3    ....    ADD      r7,r8,r3,LSL #3
        0x0000e15a:    f3600419    `...    BFI      r4,r0,#0,#26
        0x0000e15e:    e9cce601    ....    STRD     lr,r6,[r12,#4]
        0x0000e162:    e9cce505    ....    STRD     lr,r5,[r12,#0x14]
        0x0000e166:    e9d76502    ...e    LDRD     r6,r5,[r7,#8]
        0x0000e16a:    f8cc4000    ...@    STR      r4,[r12,#0]
        0x0000e16e:    2000        .       MOVS     r0,#0
        0x0000e170:    693c        <i      LDR      r4,[r7,#0x10]
        0x0000e172:    f8cc7024    ..$p    STR      r7,[r12,#0x24]
        0x0000e176:    e9ccee03    ....    STRD     lr,lr,[r12,#0xc]
        0x0000e17a:    e9cc0007    ....    STRD     r0,r0,[r12,#0x1c]
        0x0000e17e:    6030        0`      STR      r0,[r6,#0]
        0x0000e180:    6028        (`      STR      r0,[r5,#0]
        0x0000e182:    697e        ~i      LDR      r6,[r7,#0x14]
        0x0000e184:    6825        %h      LDR      r5,[r4,#0]
        0x0000e186:    687f        .h      LDR      r7,[r7,#4]
        0x0000e188:    432e        .C      ORRS     r6,r6,r5
        0x0000e18a:    6026        &`      STR      r6,[r4,#0]
        0x0000e18c:    684e        Nh      LDR      r6,[r1,#4]
        0x0000e18e:    f8583033    X.30    LDR      r3,[r8,r3,LSL #3]
        0x0000e192:    603e        >`      STR      r6,[r7,#0]
        0x0000e194:    7a09        .z      LDRB     r1,[r1,#8]
        0x0000e196:    2702        .'      MOVS     r7,#2
        0x0000e198:    ea070141    ..A.    AND      r1,r7,r1,LSL #1
        0x0000e19c:    6019        .`      STR      r1,[r3,#0]
        0x0000e19e:    f8c2c000    ....    STR      r12,[r2,#0]
        0x0000e1a2:    e8bd81f0    ....    POP      {r4-r8,pc}
        0x0000e1a6:    0000        ..      MOVS     r0,r0
    am_hal_cmdq_post_block
        0x0000e1a8:    b580        ..      PUSH     {r7,lr}
        0x0000e1aa:    b1f8        ..      CBZ      r0,0xe1ec ; am_hal_cmdq_post_block + 68
        0x0000e1ac:    6802        .h      LDR      r2,[r0,#0]
        0x0000e1ae:    f64c53cd    L..S    MOV      r3,#0xcdcd
        0x0000e1b2:    f022427e    ".~B    BIC      r2,r2,#0xfe000000
        0x0000e1b6:    f2c013cd    ....    MOVT     r3,#0x1cd
        0x0000e1ba:    429a        .B      CMP      r2,r3
        0x0000e1bc:    d116        ..      BNE      0xe1ec ; am_hal_cmdq_post_block + 68
        0x0000e1be:    e9d03204    ...2    LDRD     r3,r2,[r0,#0x10]
        0x0000e1c2:    4293        .B      CMP      r3,r2
        0x0000e1c4:    bf04        ..      ITT      EQ
        0x0000e1c6:    2007        .       MOVEQ    r0,#7
        0x0000e1c8:    bd80        ..      POPEQ    {r7,pc}
        0x0000e1ca:    e9d0c308    ....    LDRD     r12,r3,[r0,#0x20]
        0x0000e1ce:    e9d3e302    ....    LDRD     lr,r3,[r3,#8]
        0x0000e1d2:    ea41010e    A...    ORR      r1,r1,lr
        0x0000e1d6:    e9c21c00    ....    STRD     r1,r12,[r2,#0]
        0x0000e1da:    f1020108    ....    ADD      r1,r2,#8
        0x0000e1de:    e9c01104    ....    STRD     r1,r1,[r0,#0x10]
        0x0000e1e2:    fa5ff08c    _...    UXTB     r0,r12
        0x0000e1e6:    6018        .`      STR      r0,[r3,#0]
        0x0000e1e8:    2000        .       MOVS     r0,#0
        0x0000e1ea:    bd80        ..      POP      {r7,pc}
        0x0000e1ec:    2002        .       MOVS     r0,#2
        0x0000e1ee:    bd80        ..      POP      {r7,pc}
    am_hal_cmdq_post_loop_block
        0x0000e1f0:    b5b0        ..      PUSH     {r4,r5,r7,lr}
        0x0000e1f2:    b328        (.      CBZ      r0,0xe240 ; am_hal_cmdq_post_loop_block + 80
        0x0000e1f4:    6802        .h      LDR      r2,[r0,#0]
        0x0000e1f6:    f64c53cd    L..S    MOV      r3,#0xcdcd
        0x0000e1fa:    f022427e    ".~B    BIC      r2,r2,#0xfe000000
        0x0000e1fe:    f2c013cd    ....    MOVT     r3,#0x1cd
        0x0000e202:    429a        .B      CMP      r2,r3
        0x0000e204:    d11c        ..      BNE      0xe240 ; am_hal_cmdq_post_loop_block + 80
        0x0000e206:    e9d02304    ...#    LDRD     r2,r3,[r0,#0x10]
        0x0000e20a:    429a        .B      CMP      r2,r3
        0x0000e20c:    bf04        ..      ITT      EQ
        0x0000e20e:    2007        .       MOVEQ    r0,#7
        0x0000e210:    bdb0        ..      POPEQ    {r4,r5,r7,pc}
        0x0000e212:    6a42        Bj      LDR      r2,[r0,#0x24]
        0x0000e214:    6844        Dh      LDR      r4,[r0,#4]
        0x0000e216:    e9d2ce01    ....    LDRD     r12,lr,[r2,#4]
        0x0000e21a:    68d5        .h      LDR      r5,[r2,#0xc]
        0x0000e21c:    2200        ."      MOVS     r2,#0
        0x0000e21e:    ea41010c    A...    ORR      r1,r1,r12
        0x0000e222:    f8c3e000    ....    STR      lr,[r3,#0]
        0x0000e226:    605a        Z`      STR      r2,[r3,#4]
        0x0000e228:    e9c31402    ....    STRD     r1,r4,[r3,#8]
        0x0000e22c:    f1030110    ....    ADD      r1,r3,#0x10
        0x0000e230:    f8903020    .. 0    LDRB     r3,[r0,#0x20]
        0x0000e234:    6101        .a      STR      r1,[r0,#0x10]
        0x0000e236:    6141        Aa      STR      r1,[r0,#0x14]
        0x0000e238:    4610        .F      MOV      r0,r2
        0x0000e23a:    602b        +`      STR      r3,[r5,#0]
        0x0000e23c:    bdb0        ..      POP      {r4,r5,r7,pc}
        0x0000e23e:    bf00        ..      NOP      
        0x0000e240:    2002        .       MOVS     r0,#2
        0x0000e242:    bdb0        ..      POP      {r4,r5,r7,pc}
    am_hal_cmdq_release_block
        0x0000e244:    b1a0        ..      CBZ      r0,0xe270 ; am_hal_cmdq_release_block + 44
        0x0000e246:    6801        .h      LDR      r1,[r0,#0]
        0x0000e248:    f64c52cd    L..R    MOV      r2,#0xcdcd
        0x0000e24c:    f021417e    !.~A    BIC      r1,r1,#0xfe000000
        0x0000e250:    f2c012cd    ....    MOVT     r2,#0x1cd
        0x0000e254:    4291        .B      CMP      r1,r2
        0x0000e256:    d10b        ..      BNE      0xe270 ; am_hal_cmdq_release_block + 44
        0x0000e258:    e9d01204    ....    LDRD     r1,r2,[r0,#0x10]
        0x0000e25c:    4291        .B      CMP      r1,r2
        0x0000e25e:    bf04        ..      ITT      EQ
        0x0000e260:    2007        .       MOVEQ    r0,#7
        0x0000e262:    4770        pG      BXEQ     lr
        0x0000e264:    6a02        .j      LDR      r2,[r0,#0x20]
        0x0000e266:    6141        Aa      STR      r1,[r0,#0x14]
        0x0000e268:    1e51        Q.      SUBS     r1,r2,#1
        0x0000e26a:    6201        .b      STR      r1,[r0,#0x20]
        0x0000e26c:    2000        .       MOVS     r0,#0
        0x0000e26e:    4770        pG      BX       lr
        0x0000e270:    2002        .       MOVS     r0,#2
        0x0000e272:    4770        pG      BX       lr
    am_hal_cmdq_reset
        0x0000e274:    b580        ..      PUSH     {r7,lr}
        0x0000e276:    b348        H.      CBZ      r0,0xe2cc ; am_hal_cmdq_reset + 88
        0x0000e278:    6801        .h      LDR      r1,[r0,#0]
        0x0000e27a:    f64c53cd    L..S    MOV      r3,#0xcdcd
        0x0000e27e:    f021427e    !.~B    BIC      r2,r1,#0xfe000000
        0x0000e282:    f2c013cd    ....    MOVT     r3,#0x1cd
        0x0000e286:    429a        .B      CMP      r2,r3
        0x0000e288:    d120         .      BNE      0xe2cc ; am_hal_cmdq_reset + 88
        0x0000e28a:    0189        ..      LSLS     r1,r1,#6
        0x0000e28c:    bf44        D.      ITT      MI
        0x0000e28e:    2007        .       MOVMI    r0,#7
        0x0000e290:    bd80        ..      POPMI    {r7,pc}
        0x0000e292:    6a41        Aj      LDR      r1,[r0,#0x24]
        0x0000e294:    e9d12c00    ...,    LDRD     r2,r12,[r1,#0]
        0x0000e298:    e9d13e02    ...>    LDRD     r3,lr,[r1,#8]
        0x0000e29c:    6811        .h      LDR      r1,[r2,#0]
        0x0000e29e:    f0210101    !...    BIC      r1,r1,#1
        0x0000e2a2:    6011        .`      STR      r1,[r2,#0]
        0x0000e2a4:    6841        Ah      LDR      r1,[r0,#4]
        0x0000e2a6:    e9c01103    ....    STRD     r1,r1,[r0,#0xc]
        0x0000e2aa:    6141        Aa      STR      r1,[r0,#0x14]
        0x0000e2ac:    2100        .!      MOVS     r1,#0
        0x0000e2ae:    e9c01107    ....    STRD     r1,r1,[r0,#0x1c]
        0x0000e2b2:    6019        .`      STR      r1,[r3,#0]
        0x0000e2b4:    f8ce1000    ....    STR      r1,[lr,#0]
        0x0000e2b8:    6842        Bh      LDR      r2,[r0,#4]
        0x0000e2ba:    f8cc2000    ...     STR      r2,[r12,#0]
        0x0000e2be:    6802        .h      LDR      r2,[r0,#0]
        0x0000e2c0:    f0227200    "..r    BIC      r2,r2,#0x2000000
        0x0000e2c4:    6002        .`      STR      r2,[r0,#0]
        0x0000e2c6:    4608        .F      MOV      r0,r1
        0x0000e2c8:    bd80        ..      POP      {r7,pc}
        0x0000e2ca:    bf00        ..      NOP      
        0x0000e2cc:    2002        .       MOVS     r0,#2
        0x0000e2ce:    bd80        ..      POP      {r7,pc}
    am_hal_cmdq_term
        0x0000e2d0:    b5b0        ..      PUSH     {r4,r5,r7,lr}
        0x0000e2d2:    b082        ..      SUB      sp,sp,#8
        0x0000e2d4:    b3c0        ..      CBZ      r0,0xe348 ; am_hal_cmdq_term + 120
        0x0000e2d6:    4604        .F      MOV      r4,r0
        0x0000e2d8:    6800        .h      LDR      r0,[r0,#0]
        0x0000e2da:    460d        .F      MOV      r5,r1
        0x0000e2dc:    f64c51cd    L..Q    MOV      r1,#0xcdcd
        0x0000e2e0:    f020407e     .~@    BIC      r0,r0,#0xfe000000
        0x0000e2e4:    f2c011cd    ....    MOVT     r1,#0x1cd
        0x0000e2e8:    4288        .B      CMP      r0,r1
        0x0000e2ea:    d12d        -.      BNE      0xe348 ; am_hal_cmdq_term + 120
        0x0000e2ec:    f000fa50    ..P.    BL       am_hal_interrupt_master_disable ; 0xe790
        0x0000e2f0:    9001        ..      STR      r0,[sp,#4]
        0x0000e2f2:    e9d41008    ....    LDRD     r1,r0,[r4,#0x20]
        0x0000e2f6:    e9d00201    ....    LDRD     r0,r2,[r0,#4]
        0x0000e2fa:    460b        .F      MOV      r3,r1
        0x0000e2fc:    6812        .h      LDR      r2,[r2,#0]
        0x0000e2fe:    f3620307    b...    BFI      r3,r2,#0,#8
        0x0000e302:    4299        .B      CMP      r1,r3
        0x0000e304:    bfb8        ..      IT       LT
        0x0000e306:    f5a37380    ...s    SUBLT    r3,r3,#0x100
        0x0000e30a:    61e3        .a      STR      r3,[r4,#0x1c]
        0x0000e30c:    6800        .h      LDR      r0,[r0,#0]
        0x0000e30e:    60e0        .`      STR      r0,[r4,#0xc]
        0x0000e310:    9801        ..      LDR      r0,[sp,#4]
        0x0000e312:    f000fa45    ..E.    BL       am_hal_interrupt_master_set ; 0xe7a0
        0x0000e316:    b91d        ..      CBNZ     r5,0xe320 ; am_hal_cmdq_term + 80
        0x0000e318:    e9d40107    ....    LDRD     r0,r1,[r4,#0x1c]
        0x0000e31c:    4288        .B      CMP      r0,r1
        0x0000e31e:    d117        ..      BNE      0xe350 ; am_hal_cmdq_term + 128
        0x0000e320:    6820         h      LDR      r0,[r4,#0]
        0x0000e322:    6a61        aj      LDR      r1,[r4,#0x24]
        0x0000e324:    f0207080     ..p    BIC      r0,r0,#0x1000000
        0x0000e328:    6020         `      STR      r0,[r4,#0]
        0x0000e32a:    6808        .h      LDR      r0,[r1,#0]
        0x0000e32c:    690a        .i      LDR      r2,[r1,#0x10]
        0x0000e32e:    6803        .h      LDR      r3,[r0,#0]
        0x0000e330:    f0230301    #...    BIC      r3,r3,#1
        0x0000e334:    6003        .`      STR      r3,[r0,#0]
        0x0000e336:    6948        Hi      LDR      r0,[r1,#0x14]
        0x0000e338:    6811        .h      LDR      r1,[r2,#0]
        0x0000e33a:    ea210000    !...    BIC      r0,r1,r0
        0x0000e33e:    6010        .`      STR      r0,[r2,#0]
        0x0000e340:    2000        .       MOVS     r0,#0
        0x0000e342:    b002        ..      ADD      sp,sp,#8
        0x0000e344:    bdb0        ..      POP      {r4,r5,r7,pc}
        0x0000e346:    bf00        ..      NOP      
        0x0000e348:    2002        .       MOVS     r0,#2
        0x0000e34a:    b002        ..      ADD      sp,sp,#8
        0x0000e34c:    bdb0        ..      POP      {r4,r5,r7,pc}
        0x0000e34e:    bf00        ..      NOP      
        0x0000e350:    2003        .       MOVS     r0,#3
        0x0000e352:    b002        ..      ADD      sp,sp,#8
        0x0000e354:    bdb0        ..      POP      {r4,r5,r7,pc}
        0x0000e356:    0000        ..      MOVS     r0,r0
    am_hal_flash_delay
        0x0000e358:    f2440134    D.4.    MOV      r1,#0x4034
        0x0000e35c:    f2c40100    ....    MOVT     r1,#0x4000
        0x0000e360:    680a        .h      LDR      r2,[r1,#0]
        0x0000e362:    f3c20180    ....    UBFX     r1,r2,#2,#1
        0x0000e366:    4088        .@      LSLS     r0,r0,r1
        0x0000e368:    210e        .!      MOVS     r1,#0xe
        0x0000e36a:    f0120f04    ....    TST      r2,#4
        0x0000e36e:    bf08        ..      IT       EQ
        0x0000e370:    210b        .!      MOVEQ    r1,#0xb
        0x0000e372:    4281        .B      CMP      r1,r0
        0x0000e374:    bf28        (.      IT       CS
        0x0000e376:    4770        pG      BXCS     lr
        0x0000e378:    1a40        @.      SUBS     r0,r0,r1
        0x0000e37a:    219d        .!      MOVS     r1,#0x9d
        0x0000e37c:    f6c00100    ....    MOVT     r1,#0x800
        0x0000e380:    4708        .G      BX       r1
        0x0000e382:    0000        ..      MOVS     r0,r0
    am_hal_flash_delay_status_check
        0x0000e384:    e92d47f0    -..G    PUSH     {r4-r10,lr}
        0x0000e388:    460e        .F      MOV      r6,r1
        0x0000e38a:    4615        .F      MOV      r5,r2
        0x0000e38c:    9908        ..      LDR      r1,[sp,#0x20]
        0x0000e38e:    6832        2h      LDR      r2,[r6,#0]
        0x0000e390:    461c        .F      MOV      r4,r3
        0x0000e392:    2900        .)      CMP      r1,#0
        0x0000e394:    ea020105    ....    AND      r1,r2,r5
        0x0000e398:    d024        $.      BEQ      0xe3e4 ; am_hal_flash_delay_status_check + 96
        0x0000e39a:    42a1        .B      CMP      r1,r4
        0x0000e39c:    d047        G.      BEQ      0xe42e ; am_hal_flash_delay_status_check + 170
        0x0000e39e:    f2440834    D.4.    MOV      r8,#0x4034
        0x0000e3a2:    f2400a9d    @...    MOVW     r10,#0x9d
        0x0000e3a6:    f2c40800    ....    MOVT     r8,#0x4000
        0x0000e3aa:    1c47        G.      ADDS     r7,r0,#1
        0x0000e3ac:    f04f0910    O...    MOV      r9,#0x10
        0x0000e3b0:    f6c00a00    ....    MOVT     r10,#0x800
        0x0000e3b4:    3f01        .?      SUBS     r7,#1
        0x0000e3b6:    d03d        =.      BEQ      0xe434 ; am_hal_flash_delay_status_check + 176
        0x0000e3b8:    f8d80000    ....    LDR      r0,[r8,#0]
        0x0000e3bc:    f3c00180    ....    UBFX     r1,r0,#2,#1
        0x0000e3c0:    f0100f04    ....    TST      r0,#4
        0x0000e3c4:    f06f000d    o...    MVN      r0,#0xd
        0x0000e3c8:    bf08        ..      IT       EQ
        0x0000e3ca:    f06f000a    o...    MVNEQ    r0,#0xa
        0x0000e3ce:    fa09f101    ....    LSL      r1,r9,r1
        0x0000e3d2:    4408        .D      ADD      r0,r0,r1
        0x0000e3d4:    47d0        .G      BLX      r10
        0x0000e3d6:    6830        0h      LDR      r0,[r6,#0]
        0x0000e3d8:    4028        (@      ANDS     r0,r0,r5
        0x0000e3da:    42a0        .B      CMP      r0,r4
        0x0000e3dc:    d1ea        ..      BNE      0xe3b4 ; am_hal_flash_delay_status_check + 48
        0x0000e3de:    2000        .       MOVS     r0,#0
        0x0000e3e0:    e8bd87f0    ....    POP      {r4-r10,pc}
        0x0000e3e4:    42a1        .B      CMP      r1,r4
        0x0000e3e6:    bf1c        ..      ITT      NE
        0x0000e3e8:    2000        .       MOVNE    r0,#0
        0x0000e3ea:    e8bd87f0    ....    POPNE    {r4-r10,pc}
        0x0000e3ee:    f2440834    D.4.    MOV      r8,#0x4034
        0x0000e3f2:    f2400a9d    @...    MOVW     r10,#0x9d
        0x0000e3f6:    f2c40800    ....    MOVT     r8,#0x4000
        0x0000e3fa:    1c47        G.      ADDS     r7,r0,#1
        0x0000e3fc:    f04f0910    O...    MOV      r9,#0x10
        0x0000e400:    f6c00a00    ....    MOVT     r10,#0x800
        0x0000e404:    3f01        .?      SUBS     r7,#1
        0x0000e406:    d015        ..      BEQ      0xe434 ; am_hal_flash_delay_status_check + 176
        0x0000e408:    f8d80000    ....    LDR      r0,[r8,#0]
        0x0000e40c:    f3c00180    ....    UBFX     r1,r0,#2,#1
        0x0000e410:    f0100f04    ....    TST      r0,#4
        0x0000e414:    f06f000d    o...    MVN      r0,#0xd
        0x0000e418:    bf08        ..      IT       EQ
        0x0000e41a:    f06f000a    o...    MVNEQ    r0,#0xa
        0x0000e41e:    fa09f101    ....    LSL      r1,r9,r1
        0x0000e422:    4408        .D      ADD      r0,r0,r1
        0x0000e424:    47d0        .G      BLX      r10
        0x0000e426:    6830        0h      LDR      r0,[r6,#0]
        0x0000e428:    4028        (@      ANDS     r0,r0,r5
        0x0000e42a:    42a0        .B      CMP      r0,r4
        0x0000e42c:    d0ea        ..      BEQ      0xe404 ; am_hal_flash_delay_status_check + 128
        0x0000e42e:    2000        .       MOVS     r0,#0
        0x0000e430:    e8bd87f0    ....    POP      {r4-r10,pc}
        0x0000e434:    2004        .       MOVS     r0,#4
        0x0000e436:    e8bd87f0    ....    POP      {r4-r10,pc}
        0x0000e43a:    0000        ..      MOVS     r0,r0
    am_hal_flash_load_ui32
        0x0000e43c:    2175        u!      MOVS     r1,#0x75
        0x0000e43e:    f6c00100    ....    MOVT     r1,#0x800
        0x0000e442:    4708        .G      BX       r1
    am_hal_flash_store_ui32
        0x0000e444:    b580        ..      PUSH     {r7,lr}
        0x0000e446:    b084        ..      SUB      sp,sp,#0x10
        0x0000e448:    f2447270    D.pr    MOV      r2,#0x4770
        0x0000e44c:    f6cb7200    ...r    MOVT     r2,#0xbf00
        0x0000e450:    9203        ..      STR      r2,[sp,#0xc]
        0x0000e452:    f6460200    F...    MOVW     r2,#0x6800
        0x0000e456:    f6cb7200    ...r    MOVT     r2,#0xbf00
        0x0000e45a:    9202        ..      STR      r2,[sp,#8]
        0x0000e45c:    f2460201    F...    MOV      r2,#0x6001
        0x0000e460:    f6cb7200    ...r    MOVT     r2,#0xbf00
        0x0000e464:    9201        ..      STR      r2,[sp,#4]
        0x0000e466:    aa01        ..      ADD      r2,sp,#4
        0x0000e468:    3201        .2      ADDS     r2,#1
        0x0000e46a:    4790        .G      BLX      r2
        0x0000e46c:    b004        ..      ADD      sp,sp,#0x10
        0x0000e46e:    bd80        ..      POP      {r7,pc}
    am_hal_gpio_pinconfig
        0x0000e470:    e92d4ff0    -..O    PUSH     {r4-r11,lr}
        0x0000e474:    b087        ..      SUB      sp,sp,#0x1c
        0x0000e476:    2849        I(      CMP      r0,#0x49
        0x0000e478:    d904        ..      BLS      0xe484 ; am_hal_gpio_pinconfig + 20
        0x0000e47a:    2506        .%      MOVS     r5,#6
        0x0000e47c:    4628        (F      MOV      r0,r5
        0x0000e47e:    b007        ..      ADD      sp,sp,#0x1c
        0x0000e480:    e8bd8ff0    ....    POP      {r4-r11,pc}
        0x0000e484:    f2401202    @...    MOVW     r2,#0x102
        0x0000e488:    f0010307    ....    AND      r3,r1,#7
        0x0000e48c:    f3c11742    ..B.    UBFX     r7,r1,#5,#3
        0x0000e490:    4604        .F      MOV      r4,r0
        0x0000e492:    f6c00200    ....    MOVT     r2,#0x800
        0x0000e496:    ea4f00c3    O...    LSL      r0,r3,#3
        0x0000e49a:    b1ff        ..      CBZ      r7,0xe4dc ; am_hal_gpio_pinconfig + 108
        0x0000e49c:    f1a10640    ..@.    SUB      r6,r1,#0x40
        0x0000e4a0:    b276        v.      SXTB     r6,r6
        0x0000e4a2:    2e00        ..      CMP      r6,#0
        0x0000e4a4:    f0400001    @...    ORR      r0,r0,#1
        0x0000e4a8:    d40a        ..      BMI      0xe4c0 ; am_hal_gpio_pinconfig + 80
        0x0000e4aa:    f6423638    B.86    MOV      r6,#0x2b38
        0x0000e4ae:    f2c00601    ....    MOVT     r6,#1
        0x0000e4b2:    5d36        6]      LDRB     r6,[r6,r4]
        0x0000e4b4:    07f6        ..      LSLS     r6,r6,#31
        0x0000e4b6:    d021        !.      BEQ      0xe4fc ; am_hal_gpio_pinconfig + 140
        0x0000e4b8:    ea401087    @...    ORR      r0,r0,r7,LSL #6
        0x0000e4bc:    3880        .8      SUBS     r0,r0,#0x80
        0x0000e4be:    e00d        ..      B        0xe4dc ; am_hal_gpio_pinconfig + 108
        0x0000e4c0:    2f06        ./      CMP      r7,#6
        0x0000e4c2:    d107        ..      BNE      0xe4d4 ; am_hal_gpio_pinconfig + 100
        0x0000e4c4:    2c14        .,      CMP      r4,#0x14
        0x0000e4c6:    d009        ..      BEQ      0xe4dc ; am_hal_gpio_pinconfig + 108
        0x0000e4c8:    1e55        U.      SUBS     r5,r2,#1
        0x0000e4ca:    4628        (F      MOV      r0,r5
        0x0000e4cc:    b007        ..      ADD      sp,sp,#0x1c
        0x0000e4ce:    e8bd8ff0    ....    POP      {r4-r11,pc}
        0x0000e4d2:    bf00        ..      NOP      
        0x0000e4d4:    2c14        .,      CMP      r4,#0x14
        0x0000e4d6:    bf08        ..      IT       EQ
        0x0000e4d8:    2f01        ./      CMPEQ    r7,#1
        0x0000e4da:    d00f        ..      BEQ      0xe4fc ; am_hal_gpio_pinconfig + 140
        0x0000e4dc:    f3c107c1    ....    UBFX     r7,r1,#3,#2
        0x0000e4e0:    b1cf        ..      CBZ      r7,0xe516 ; am_hal_gpio_pinconfig + 166
        0x0000e4e2:    2f02        ./      CMP      r7,#2
        0x0000e4e4:    d010        ..      BEQ      0xe508 ; am_hal_gpio_pinconfig + 152
        0x0000e4e6:    2f01        ./      CMP      r7,#1
        0x0000e4e8:    f0408076    @.v.    BNE.W    0xe5d8 ; am_hal_gpio_pinconfig + 360
        0x0000e4ec:    2c24        $,      CMP      r4,#0x24
        0x0000e4ee:    d002        ..      BEQ      0xe4f6 ; am_hal_gpio_pinconfig + 134
        0x0000e4f0:    2c03        .,      CMP      r4,#3
        0x0000e4f2:    4615        .F      MOV      r5,r2
        0x0000e4f4:    d1c2        ..      BNE      0xe47c ; am_hal_gpio_pinconfig + 12
        0x0000e4f6:    f0400040    @.@.    ORR      r0,r0,#0x40
        0x0000e4fa:    e00c        ..      B        0xe516 ; am_hal_gpio_pinconfig + 166
        0x0000e4fc:    1e95        ..      SUBS     r5,r2,#2
        0x0000e4fe:    4628        (F      MOV      r0,r5
        0x0000e500:    b007        ..      ADD      sp,sp,#0x1c
        0x0000e502:    e8bd8ff0    ....    POP      {r4-r11,pc}
        0x0000e506:    bf00        ..      NOP      
        0x0000e508:    2c29        ),      CMP      r4,#0x29
        0x0000e50a:    d002        ..      BEQ      0xe512 ; am_hal_gpio_pinconfig + 162
        0x0000e50c:    2c25        %,      CMP      r4,#0x25
        0x0000e50e:    4615        .F      MOV      r5,r2
        0x0000e510:    d1b4        ..      BNE      0xe47c ; am_hal_gpio_pinconfig + 12
        0x0000e512:    f0400080    @...    ORR      r0,r0,#0x80
        0x0000e516:    f6423782    B..7    MOV      r7,#0x2b82
        0x0000e51a:    f2c00701    ....    MOVT     r7,#1
        0x0000e51e:    5d3f        ?]      LDRB     r7,[r7,r4]
        0x0000e520:    40df        .@      LSRS     r7,r7,r3
        0x0000e522:    07ff        ..      LSLS     r7,r7,#31
        0x0000e524:    f64247f4    B..G    MOV      r7,#0x2cf4
        0x0000e528:    f2c00701    ....    MOVT     r7,#1
        0x0000e52c:    5d3f        ?]      LDRB     r7,[r7,r4]
        0x0000e52e:    bf18        ..      IT       NE
        0x0000e530:    f0400002    @...    ORRNE    r0,r0,#2
        0x0000e534:    429f        .B      CMP      r7,r3
        0x0000e536:    d11f        ..      BNE      0xe578 ; am_hal_gpio_pinconfig + 264
        0x0000e538:    0c0b        ..      LSRS     r3,r1,#16
        0x0000e53a:    f003070d    ....    AND      r7,r3,#0xd
        0x0000e53e:    2f0d        ./      CMP      r7,#0xd
        0x0000e540:    f1020501    ....    ADD      r5,r2,#1
        0x0000e544:    d09a        ..      BEQ      0xe47c ; am_hal_gpio_pinconfig + 12
        0x0000e546:    07df        ..      LSLS     r7,r3,#31
        0x0000e548:    d104        ..      BNE      0xe554 ; am_hal_gpio_pinconfig + 228
        0x0000e54a:    f003070e    ....    AND      r7,r3,#0xe
        0x0000e54e:    2f04        ./      CMP      r7,#4
        0x0000e550:    f63faf94    ?...    BHI.W    0xe47c ; am_hal_gpio_pinconfig + 12
        0x0000e554:    f6423ccc    B..<    MOV      r12,#0x2bcc
        0x0000e558:    f0030630    ..0.    AND      r6,r3,#0x30
        0x0000e55c:    f2c00c01    ....    MOVT     r12,#1
        0x0000e560:    f3c30542    ..B.    UBFX     r5,r3,#1,#3
        0x0000e564:    f36316c7    c...    BFI      r6,r3,#7,#1
        0x0000e568:    f81c7024    ..$p    LDRB     r7,[r12,r4,LSL #2]
        0x0000e56c:    1973        s.      ADDS     r3,r6,r5
        0x0000e56e:    42bb        .B      CMP      r3,r7
        0x0000e570:    f0408094    @...    BNE.W    0xe69c ; am_hal_gpio_pinconfig + 556
        0x0000e574:    2200        ."      MOVS     r2,#0
        0x0000e576:    e0a3        ..      B        0xe6c0 ; am_hal_gpio_pinconfig + 592
        0x0000e578:    2202        ."      MOVS     r2,#2
        0x0000e57a:    ea0222d1    ..."    AND      r2,r2,r1,LSR #11
        0x0000e57e:    f3c12307    ...#    UBFX     r3,r1,#8,#8
        0x0000e582:    4310        .C      ORRS     r0,r0,r2
        0x0000e584:    2208        ."      MOVS     r2,#8
        0x0000e586:    f3c30781    ....    UBFX     r7,r3,#2,#2
        0x0000e58a:    ea022291    ..."    AND      r2,r2,r1,LSR #10
        0x0000e58e:    ea420247    B.G.    ORR      r2,r2,r7,LSL #1
        0x0000e592:    3f01        .?      SUBS     r7,#1
        0x0000e594:    1ece        ..      SUBS     r6,r1,#3
        0x0000e596:    fab7f787    ....    CLZ      r7,r7
        0x0000e59a:    fab6f686    ....    CLZ      r6,r6
        0x0000e59e:    097f        ..      LSRS     r7,r7,#5
        0x0000e5a0:    0976        v.      LSRS     r6,r6,#5
        0x0000e5a2:    f0030360    ..`.    AND      r3,r3,#0x60
        0x0000e5a6:    2b40        @+      CMP      r3,#0x40
        0x0000e5a8:    ea470306    G...    ORR      r3,r7,r6
        0x0000e5ac:    9301        ..      STR      r3,[sp,#4]
        0x0000e5ae:    bf07        ..      ITTEE    EQ
        0x0000e5b0:    f3c133c0    ...3    UBFXEQ   r3,r1,#15,#1
        0x0000e5b4:    ea420c03    B...    ORREQ    r12,r2,r3
        0x0000e5b8:    f3c13380    ...3    UBFXNE   r3,r1,#14,#1
        0x0000e5bc:    eb020c03    ....    ADDNE    r12,r2,r3
        0x0000e5c0:    0a09        ..      LSRS     r1,r1,#8
        0x0000e5c2:    f0010103    ....    AND      r1,r1,#3
        0x0000e5c6:    e8dff001    ....    TBB      [pc,r1]
    $d.2
        0x0000e5ca:    0310        ..      DCW    784
        0x0000e5cc:    bf000d0f    ....    DCD    3204451599
    $t.3
        0x0000e5d0:    f0400004    @...    ORR      r0,r0,#4
        0x0000e5d4:    2100        .!      MOVS     r1,#0
        0x0000e5d6:    e008        ..      B        0xe5ea ; am_hal_gpio_pinconfig + 378
        0x0000e5d8:    4615        .F      MOV      r5,r2
        0x0000e5da:    4628        (F      MOV      r0,r5
        0x0000e5dc:    b007        ..      ADD      sp,sp,#0x1c
        0x0000e5de:    e8bd8ff0    ....    POP      {r4-r11,pc}
        0x0000e5e2:    bf00        ..      NOP      
        0x0000e5e4:    f0400004    @...    ORR      r0,r0,#4
        0x0000e5e8:    2101        .!      MOVS     r1,#1
        0x0000e5ea:    f06f0303    o...    MVN      r3,#3
        0x0000e5ee:    ea030254    ..T.    AND      r2,r3,r4,LSR #1
        0x0000e5f2:    231c        .#      MOVS     r3,#0x1c
        0x0000e5f4:    ea030384    ....    AND      r3,r3,r4,LSL #2
        0x0000e5f8:    260f        .&      MOVS     r6,#0xf
        0x0000e5fa:    409e        .@      LSLS     r6,r6,r3
        0x0000e5fc:    9205        ..      STR      r2,[sp,#0x14]
        0x0000e5fe:    2218        ."      MOVS     r2,#0x18
        0x0000e600:    43f6        .C      MVNS     r6,r6
        0x0000e602:    ea0202c4    ....    AND      r2,r2,r4,LSL #3
        0x0000e606:    9604        ..      STR      r6,[sp,#0x10]
        0x0000e608:    26ff        .&      MOVS     r6,#0xff
        0x0000e60a:    4096        .@      LSLS     r6,r6,r2
        0x0000e60c:    f2400a74    @.t.    MOVW     r10,#0x74
        0x0000e610:    ea6f0806    o...    MVN      r8,r6
        0x0000e614:    fa00f602    ....    LSL      r6,r0,r2
        0x0000e618:    fa01f002    ....    LSL      r0,r1,r2
        0x0000e61c:    f2c40a01    ....    MOVT     r10,#0x4001
        0x0000e620:    9003        ..      STR      r0,[sp,#0xc]
        0x0000e622:    fa0cf003    ....    LSL      r0,r12,r3
        0x0000e626:    f1aa0928    ..(.    SUB      r9,r10,#0x28
        0x0000e62a:    f0240703    $...    BIC      r7,r4,#3
        0x0000e62e:    f1aa0574    ..t.    SUB      r5,r10,#0x74
        0x0000e632:    f10a0b84    ....    ADD      r11,r10,#0x84
        0x0000e636:    9002        ..      STR      r0,[sp,#8]
        0x0000e638:    f000f8aa    ....    BL       am_hal_interrupt_master_disable ; 0xe790
        0x0000e63c:    9901        ..      LDR      r1,[sp,#4]
        0x0000e63e:    9006        ..      STR      r0,[sp,#0x18]
        0x0000e640:    b149        I.      CBZ      r1,0xe656 ; am_hal_gpio_pinconfig + 486
        0x0000e642:    f004001f    ....    AND      r0,r4,#0x1f
        0x0000e646:    2101        .!      MOVS     r1,#1
        0x0000e648:    fa01f000    ....    LSL      r0,r1,r0
        0x0000e64c:    f3c41141    ..A.    UBFX     r1,r4,#5,#2
        0x0000e650:    eb0a0181    ....    ADD      r1,r10,r1,LSL #2
        0x0000e654:    6548        He      STR      r0,[r1,#0x54]
        0x0000e656:    2073        s       MOVS     r0,#0x73
        0x0000e658:    f8ca0000    ....    STR      r0,[r10,#0]
        0x0000e65c:    5978        xY      LDR      r0,[r7,r5]
        0x0000e65e:    ea000008    ....    AND      r0,r0,r8
        0x0000e662:    4330        0C      ORRS     r0,r0,r6
        0x0000e664:    5178        xQ      STR      r0,[r7,r5]
        0x0000e666:    9905        ..      LDR      r1,[sp,#0x14]
        0x0000e668:    2500        .%      MOVS     r5,#0
        0x0000e66a:    f8510009    Q...    LDR      r0,[r1,r9]
        0x0000e66e:    9b04        ..      LDR      r3,[sp,#0x10]
        0x0000e670:    4018        .@      ANDS     r0,r0,r3
        0x0000e672:    9b02        ..      LDR      r3,[sp,#8]
        0x0000e674:    4318        .C      ORRS     r0,r0,r3
        0x0000e676:    f8410009    A...    STR      r0,[r1,r9]
        0x0000e67a:    f857000b    W...    LDR      r0,[r7,r11]
        0x0000e67e:    9903        ..      LDR      r1,[sp,#0xc]
        0x0000e680:    ea000008    ....    AND      r0,r0,r8
        0x0000e684:    4308        .C      ORRS     r0,r0,r1
        0x0000e686:    f847000b    G...    STR      r0,[r7,r11]
        0x0000e68a:    f8ca5000    ...P    STR      r5,[r10,#0]
        0x0000e68e:    9806        ..      LDR      r0,[sp,#0x18]
        0x0000e690:    f000f886    ....    BL       am_hal_interrupt_master_set ; 0xe7a0
        0x0000e694:    4628        (F      MOV      r0,r5
        0x0000e696:    b007        ..      ADD      sp,sp,#0x1c
        0x0000e698:    e8bd8ff0    ....    POP      {r4-r11,pc}
        0x0000e69c:    eb0c0784    ....    ADD      r7,r12,r4,LSL #2
        0x0000e6a0:    787e        ~x      LDRB     r6,[r7,#1]
        0x0000e6a2:    42b3        .B      CMP      r3,r6
        0x0000e6a4:    d102        ..      BNE      0xe6ac ; am_hal_gpio_pinconfig + 572
        0x0000e6a6:    2202        ."      MOVS     r2,#2
        0x0000e6a8:    e00a        ..      B        0xe6c0 ; am_hal_gpio_pinconfig + 592
        0x0000e6aa:    bf00        ..      NOP      
        0x0000e6ac:    78be        .x      LDRB     r6,[r7,#2]
        0x0000e6ae:    42b3        .B      CMP      r3,r6
        0x0000e6b0:    d102        ..      BNE      0xe6b8 ; am_hal_gpio_pinconfig + 584
        0x0000e6b2:    2204        ."      MOVS     r2,#4
        0x0000e6b4:    e004        ..      B        0xe6c0 ; am_hal_gpio_pinconfig + 592
        0x0000e6b6:    bf00        ..      NOP      
        0x0000e6b8:    78ff        .x      LDRB     r7,[r7,#3]
        0x0000e6ba:    42bb        .B      CMP      r3,r7
        0x0000e6bc:    d108        ..      BNE      0xe6d0 ; am_hal_gpio_pinconfig + 608
        0x0000e6be:    2206        ."      MOVS     r2,#6
        0x0000e6c0:    2308        .#      MOVS     r3,#8
        0x0000e6c2:    ea0343d1    ...C    AND      r3,r3,r1,LSR #19
        0x0000e6c6:    eb020c03    ....    ADD      r12,r2,r3
        0x0000e6ca:    2200        ."      MOVS     r2,#0
        0x0000e6cc:    9201        ..      STR      r2,[sp,#4]
        0x0000e6ce:    e777        w.      B        0xe5c0 ; am_hal_gpio_pinconfig + 336
        0x0000e6d0:    1c95        ..      ADDS     r5,r2,#2
        0x0000e6d2:    4628        (F      MOV      r0,r5
        0x0000e6d4:    b007        ..      ADD      sp,sp,#0x1c
        0x0000e6d6:    e8bd8ff0    ....    POP      {r4-r11,pc}
        0x0000e6da:    0000        ..      MOVS     r0,r0
    am_hal_gpio_state_write
        0x0000e6dc:    b5b0        ..      PUSH     {r4,r5,r7,lr}
        0x0000e6de:    b082        ..      SUB      sp,sp,#8
        0x0000e6e0:    2849        I(      CMP      r0,#0x49
        0x0000e6e2:    d903        ..      BLS      0xe6ec ; am_hal_gpio_state_write + 16
        0x0000e6e4:    2405        .$      MOVS     r4,#5
        0x0000e6e6:    4620         F      MOV      r0,r4
        0x0000e6e8:    b002        ..      ADD      sp,sp,#8
        0x0000e6ea:    bdb0        ..      POP      {r4,r5,r7,pc}
        0x0000e6ec:    460d        .F      MOV      r5,r1
        0x0000e6ee:    2905        .)      CMP      r1,#5
        0x0000e6f0:    d904        ..      BLS      0xe6fc ; am_hal_gpio_state_write + 32
        0x0000e6f2:    2406        .$      MOVS     r4,#6
        0x0000e6f4:    4620         F      MOV      r0,r4
        0x0000e6f6:    b002        ..      ADD      sp,sp,#8
        0x0000e6f8:    bdb0        ..      POP      {r4,r5,r7,pc}
        0x0000e6fa:    bf00        ..      NOP      
        0x0000e6fc:    4604        .F      MOV      r4,r0
        0x0000e6fe:    f000f847    ..G.    BL       am_hal_interrupt_master_disable ; 0xe790
        0x0000e702:    2d05        .-      CMP      r5,#5
        0x0000e704:    9001        ..      STR      r0,[sp,#4]
        0x0000e706:    d841        A.      BHI      0xe78c ; am_hal_gpio_state_write + 176
        0x0000e708:    f004001f    ....    AND      r0,r4,#0x1f
        0x0000e70c:    2101        .!      MOVS     r1,#1
        0x0000e70e:    fa01f000    ....    LSL      r0,r1,r0
        0x0000e712:    210c        .!      MOVS     r1,#0xc
        0x0000e714:    ea0101d4    ....    AND      r1,r1,r4,LSR #3
        0x0000e718:    e8dff005    ....    TBB      [pc,r5]
    $d.7
        0x0000e71c:    1e140c04    ....    DCD    504630276
        0x0000e720:    bf002a22    "*..    DCD    3204459042
    $t.8
        0x0000e724:    22c8        ."      MOVS     r2,#0xc8
        0x0000e726:    f2c40201    ....    MOVT     r2,#0x4001
        0x0000e72a:    4411        .D      ADD      r1,r1,r2
        0x0000e72c:    f8410c24    A.$.    STR      r0,[r1,#-0x24]
        0x0000e730:    e024        $.      B        0xe77c ; am_hal_gpio_state_write + 160
        0x0000e732:    bf00        ..      NOP      
        0x0000e734:    22c8        ."      MOVS     r2,#0xc8
        0x0000e736:    f2c40201    ....    MOVT     r2,#0x4001
        0x0000e73a:    4411        .D      ADD      r1,r1,r2
        0x0000e73c:    f8410c30    A.0.    STR      r0,[r1,#-0x30]
        0x0000e740:    e01c        ..      B        0xe77c ; am_hal_gpio_state_write + 160
        0x0000e742:    bf00        ..      NOP      
        0x0000e744:    22c8        ."      MOVS     r2,#0xc8
        0x0000e746:    f2c40201    ....    MOVT     r2,#0x4001
        0x0000e74a:    4411        .D      ADD      r1,r1,r2
        0x0000e74c:    f8512c3c    Q.<,    LDR      r2,[r1,#-0x3c]
        0x0000e750:    4050        P@      EORS     r0,r0,r2
        0x0000e752:    f8410c3c    A.<.    STR      r0,[r1,#-0x3c]
        0x0000e756:    e011        ..      B        0xe77c ; am_hal_gpio_state_write + 160
        0x0000e758:    22c8        ."      MOVS     r2,#0xc8
        0x0000e75a:    f2c40201    ....    MOVT     r2,#0x4001
        0x0000e75e:    e00c        ..      B        0xe77a ; am_hal_gpio_state_write + 158
        0x0000e760:    22c8        ."      MOVS     r2,#0xc8
        0x0000e762:    f2c40201    ....    MOVT     r2,#0x4001
        0x0000e766:    4411        .D      ADD      r1,r1,r2
        0x0000e768:    f8410c0c    A...    STR      r0,[r1,#-0xc]
        0x0000e76c:    e006        ..      B        0xe77c ; am_hal_gpio_state_write + 160
        0x0000e76e:    bf00        ..      NOP      
        0x0000e770:    22c8        ."      MOVS     r2,#0xc8
        0x0000e772:    f2c40201    ....    MOVT     r2,#0x4001
        0x0000e776:    588b        .X      LDR      r3,[r1,r2]
        0x0000e778:    4058        X@      EORS     r0,r0,r3
        0x0000e77a:    5088        .P      STR      r0,[r1,r2]
        0x0000e77c:    2400        .$      MOVS     r4,#0
        0x0000e77e:    9801        ..      LDR      r0,[sp,#4]
        0x0000e780:    f000f80e    ....    BL       am_hal_interrupt_master_set ; 0xe7a0
        0x0000e784:    4620         F      MOV      r0,r4
        0x0000e786:    b002        ..      ADD      sp,sp,#8
        0x0000e788:    bdb0        ..      POP      {r4,r5,r7,pc}
        0x0000e78a:    bf00        ..      NOP      
        0x0000e78c:    2406        .$      MOVS     r4,#6
        0x0000e78e:    e7f6        ..      B        0xe77e ; am_hal_gpio_state_write + 162
    am_hal_interrupt_master_disable
        0x0000e790:    f3ef8010    ....    MRS      r0,PRIMASK
        0x0000e794:    b672        r.      CPSID    i
        0x0000e796:    4770        pG      BX       lr
    am_hal_interrupt_master_enable
        0x0000e798:    f3ef8010    ....    MRS      r0,PRIMASK
        0x0000e79c:    b662        b.      CPSIE    i
        0x0000e79e:    4770        pG      BX       lr
    am_hal_interrupt_master_set
        0x0000e7a0:    f3808810    ....    MSR      PRIMASK,r0
        0x0000e7a4:    4770        pG      BX       lr
        0x0000e7a6:    0000        ..      MOVS     r0,r0
    am_hal_itm_enable
        0x0000e7a8:    f64e50fc    N..P    MOV      r0,#0xedfc
        0x0000e7ac:    f2ce0000    ....    MOVT     r0,#0xe000
        0x0000e7b0:    6801        .h      LDR      r1,[r0,#0]
        0x0000e7b2:    f0417180    A..q    ORR      r1,r1,#0x1000000
        0x0000e7b6:    6001        .`      STR      r1,[r0,#0]
        0x0000e7b8:    6801        .h      LDR      r1,[r0,#0]
        0x0000e7ba:    01c9        ..      LSLS     r1,r1,#7
        0x0000e7bc:    d409        ..      BMI      0xe7d2 ; am_hal_itm_enable + 42
        0x0000e7be:    6801        .h      LDR      r1,[r0,#0]
        0x0000e7c0:    01c9        ..      LSLS     r1,r1,#7
        0x0000e7c2:    bf5c        \.      ITT      PL
        0x0000e7c4:    6801        .h      LDRPL    r1,[r0,#0]
        0x0000e7c6:    ea5f11c1    _...    LSLSPL   r1,r1,#7
        0x0000e7ca:    d402        ..      BMI      0xe7d2 ; am_hal_itm_enable + 42
        0x0000e7cc:    6801        .h      LDR      r1,[r0,#0]
        0x0000e7ce:    01c9        ..      LSLS     r1,r1,#7
        0x0000e7d0:    d5f2        ..      BPL      0xe7b8 ; am_hal_itm_enable + 16
        0x0000e7d2:    f6406000    @..`    MOVW     r0,#0xe00
        0x0000e7d6:    f64c6155    L.Ua    MOV      r1,#0xce55
        0x0000e7da:    f2ce0000    ....    MOVT     r0,#0xe000
        0x0000e7de:    f2cc51ac    ...Q    MOVT     r1,#0xc5ac
        0x0000e7e2:    f8c011b0    ....    STR      r1,[r0,#0x1b0]
        0x0000e7e6:    210f        .!      MOVS     r1,#0xf
        0x0000e7e8:    6401        .d      STR      r1,[r0,#0x40]
        0x0000e7ea:    f04f31ff    O..1    MOV      r1,#0xffffffff
        0x0000e7ee:    6001        .`      STR      r1,[r0,#0]
        0x0000e7f0:    f2405111    @..Q    MOV      r1,#0x511
        0x0000e7f4:    f2c00115    ....    MOVT     r1,#0x15
        0x0000e7f8:    f8c01080    ....    STR      r1,[r0,#0x80]
        0x0000e7fc:    4770        pG      BX       lr
        0x0000e7fe:    0000        ..      MOVS     r0,r0
    am_hal_itm_print
        0x0000e800:    b510        ..      PUSH     {r4,lr}
        0x0000e802:    f04f31ff    O..1    MOV      r1,#0xffffffff
        0x0000e806:    bf00        ..      NOP      
        0x0000e808:    1842        B.      ADDS     r2,r0,r1
        0x0000e80a:    7853        Sx      LDRB     r3,[r2,#1]
        0x0000e80c:    b143        C.      CBZ      r3,0xe820 ; am_hal_itm_print + 32
        0x0000e80e:    7893        .x      LDRB     r3,[r2,#2]
        0x0000e810:    b153        S.      CBZ      r3,0xe828 ; am_hal_itm_print + 40
        0x0000e812:    78d3        .x      LDRB     r3,[r2,#3]
        0x0000e814:    b333        3.      CBZ      r3,0xe864 ; am_hal_itm_print + 100
        0x0000e816:    7912        .y      LDRB     r2,[r2,#4]
        0x0000e818:    3104        .1      ADDS     r1,#4
        0x0000e81a:    2a00        .*      CMP      r2,#0
        0x0000e81c:    d1f4        ..      BNE      0xe808 ; am_hal_itm_print + 8
        0x0000e81e:    e004        ..      B        0xe82a ; am_hal_itm_print + 42
        0x0000e820:    3101        .1      ADDS     r1,#1
        0x0000e822:    b919        ..      CBNZ     r1,0xe82c ; am_hal_itm_print + 44
        0x0000e824:    e021        !.      B        0xe86a ; am_hal_itm_print + 106
        0x0000e826:    bf00        ..      NOP      
        0x0000e828:    3102        .1      ADDS     r1,#2
        0x0000e82a:    b1f1        ..      CBZ      r1,0xe86a ; am_hal_itm_print + 106
        0x0000e82c:    f0110e03    ....    ANDS     lr,r1,#3
        0x0000e830:    f1a10c01    ....    SUB      r12,r1,#1
        0x0000e834:    d040        @.      BEQ      0xe8b8 ; am_hal_itm_print + 184
        0x0000e836:    7802        .x      LDRB     r2,[r0,#0]
        0x0000e838:    f04f4360    O.`C    MOV      r3,#0xe0000000
        0x0000e83c:    681c        .h      LDR      r4,[r3,#0]
        0x0000e83e:    b934        4.      CBNZ     r4,0xe84e ; am_hal_itm_print + 78
        0x0000e840:    681c        .h      LDR      r4,[r3,#0]
        0x0000e842:    b924        $.      CBNZ     r4,0xe84e ; am_hal_itm_print + 78
        0x0000e844:    681c        .h      LDR      r4,[r3,#0]
        0x0000e846:    b914        ..      CBNZ     r4,0xe84e ; am_hal_itm_print + 78
        0x0000e848:    681c        .h      LDR      r4,[r3,#0]
        0x0000e84a:    2c00        .,      CMP      r4,#0
        0x0000e84c:    d0f6        ..      BEQ      0xe83c ; am_hal_itm_print + 60
        0x0000e84e:    1c44        D.      ADDS     r4,r0,#1
        0x0000e850:    f04f4360    O.`C    MOV      r3,#0xe0000000
        0x0000e854:    f1be0f01    ....    CMP      lr,#1
        0x0000e858:    701a        .p      STRB     r2,[r3,#0]
        0x0000e85a:    d107        ..      BNE      0xe86c ; am_hal_itm_print + 108
        0x0000e85c:    4661        aF      MOV      r1,r12
        0x0000e85e:    4620         F      MOV      r0,r4
        0x0000e860:    e02a        *.      B        0xe8b8 ; am_hal_itm_print + 184
        0x0000e862:    bf00        ..      NOP      
        0x0000e864:    3103        .1      ADDS     r1,#3
        0x0000e866:    2900        .)      CMP      r1,#0
        0x0000e868:    d1e0        ..      BNE      0xe82c ; am_hal_itm_print + 44
        0x0000e86a:    bd10        ..      POP      {r4,pc}
        0x0000e86c:    7822        "x      LDRB     r2,[r4,#0]
        0x0000e86e:    bf00        ..      NOP      
        0x0000e870:    681c        .h      LDR      r4,[r3,#0]
        0x0000e872:    b934        4.      CBNZ     r4,0xe882 ; am_hal_itm_print + 130
        0x0000e874:    681c        .h      LDR      r4,[r3,#0]
        0x0000e876:    b924        $.      CBNZ     r4,0xe882 ; am_hal_itm_print + 130
        0x0000e878:    681c        .h      LDR      r4,[r3,#0]
        0x0000e87a:    b914        ..      CBNZ     r4,0xe882 ; am_hal_itm_print + 130
        0x0000e87c:    681c        .h      LDR      r4,[r3,#0]
        0x0000e87e:    2c00        .,      CMP      r4,#0
        0x0000e880:    d0f6        ..      BEQ      0xe870 ; am_hal_itm_print + 112
        0x0000e882:    1c84        ..      ADDS     r4,r0,#2
        0x0000e884:    f04f4360    O.`C    MOV      r3,#0xe0000000
        0x0000e888:    f1be0f02    ....    CMP      lr,#2
        0x0000e88c:    701a        .p      STRB     r2,[r3,#0]
        0x0000e88e:    d103        ..      BNE      0xe898 ; am_hal_itm_print + 152
        0x0000e890:    3902        .9      SUBS     r1,#2
        0x0000e892:    4620         F      MOV      r0,r4
        0x0000e894:    e010        ..      B        0xe8b8 ; am_hal_itm_print + 184
        0x0000e896:    bf00        ..      NOP      
        0x0000e898:    7822        "x      LDRB     r2,[r4,#0]
        0x0000e89a:    bf00        ..      NOP      
        0x0000e89c:    681c        .h      LDR      r4,[r3,#0]
        0x0000e89e:    b934        4.      CBNZ     r4,0xe8ae ; am_hal_itm_print + 174
        0x0000e8a0:    681c        .h      LDR      r4,[r3,#0]
        0x0000e8a2:    b924        $.      CBNZ     r4,0xe8ae ; am_hal_itm_print + 174
        0x0000e8a4:    681c        .h      LDR      r4,[r3,#0]
        0x0000e8a6:    b914        ..      CBNZ     r4,0xe8ae ; am_hal_itm_print + 174
        0x0000e8a8:    681c        .h      LDR      r4,[r3,#0]
        0x0000e8aa:    2c00        .,      CMP      r4,#0
        0x0000e8ac:    d0f6        ..      BEQ      0xe89c ; am_hal_itm_print + 156
        0x0000e8ae:    3003        .0      ADDS     r0,#3
        0x0000e8b0:    f04f4360    O.`C    MOV      r3,#0xe0000000
        0x0000e8b4:    3903        .9      SUBS     r1,#3
        0x0000e8b6:    701a        .p      STRB     r2,[r3,#0]
        0x0000e8b8:    f1bc0f03    ....    CMP      r12,#3
        0x0000e8bc:    bf38        8.      IT       CC
        0x0000e8be:    bd10        ..      POPCC    {r4,pc}
        0x0000e8c0:    f04f4260    O.`B    MOV      r2,#0xe0000000
        0x0000e8c4:    e004        ..      B        0xe8d0 ; am_hal_itm_print + 208
        0x0000e8c6:    bf00        ..      NOP      
        0x0000e8c8:    3004        .0      ADDS     r0,#4
        0x0000e8ca:    3904        .9      SUBS     r1,#4
        0x0000e8cc:    7013        .p      STRB     r3,[r2,#0]
        0x0000e8ce:    d0cc        ..      BEQ      0xe86a ; am_hal_itm_print + 106
        0x0000e8d0:    7803        .x      LDRB     r3,[r0,#0]
        0x0000e8d2:    bf00        ..      NOP      
        0x0000e8d4:    6814        .h      LDR      r4,[r2,#0]
        0x0000e8d6:    b934        4.      CBNZ     r4,0xe8e6 ; am_hal_itm_print + 230
        0x0000e8d8:    6814        .h      LDR      r4,[r2,#0]
        0x0000e8da:    b924        $.      CBNZ     r4,0xe8e6 ; am_hal_itm_print + 230
        0x0000e8dc:    6814        .h      LDR      r4,[r2,#0]
        0x0000e8de:    b914        ..      CBNZ     r4,0xe8e6 ; am_hal_itm_print + 230
        0x0000e8e0:    6814        .h      LDR      r4,[r2,#0]
        0x0000e8e2:    2c00        .,      CMP      r4,#0
        0x0000e8e4:    d0f6        ..      BEQ      0xe8d4 ; am_hal_itm_print + 212
        0x0000e8e6:    7013        .p      STRB     r3,[r2,#0]
        0x0000e8e8:    7843        Cx      LDRB     r3,[r0,#1]
        0x0000e8ea:    bf00        ..      NOP      
        0x0000e8ec:    6814        .h      LDR      r4,[r2,#0]
        0x0000e8ee:    b934        4.      CBNZ     r4,0xe8fe ; am_hal_itm_print + 254
        0x0000e8f0:    6814        .h      LDR      r4,[r2,#0]
        0x0000e8f2:    b924        $.      CBNZ     r4,0xe8fe ; am_hal_itm_print + 254
        0x0000e8f4:    6814        .h      LDR      r4,[r2,#0]
        0x0000e8f6:    b914        ..      CBNZ     r4,0xe8fe ; am_hal_itm_print + 254
        0x0000e8f8:    6814        .h      LDR      r4,[r2,#0]
        0x0000e8fa:    2c00        .,      CMP      r4,#0
        0x0000e8fc:    d0f6        ..      BEQ      0xe8ec ; am_hal_itm_print + 236
        0x0000e8fe:    7013        .p      STRB     r3,[r2,#0]
        0x0000e900:    7883        .x      LDRB     r3,[r0,#2]
        0x0000e902:    bf00        ..      NOP      
        0x0000e904:    6814        .h      LDR      r4,[r2,#0]
        0x0000e906:    b934        4.      CBNZ     r4,0xe916 ; am_hal_itm_print + 278
        0x0000e908:    6814        .h      LDR      r4,[r2,#0]
        0x0000e90a:    b924        $.      CBNZ     r4,0xe916 ; am_hal_itm_print + 278
        0x0000e90c:    6814        .h      LDR      r4,[r2,#0]
        0x0000e90e:    b914        ..      CBNZ     r4,0xe916 ; am_hal_itm_print + 278
        0x0000e910:    6814        .h      LDR      r4,[r2,#0]
        0x0000e912:    2c00        .,      CMP      r4,#0
        0x0000e914:    d0f6        ..      BEQ      0xe904 ; am_hal_itm_print + 260
        0x0000e916:    7013        .p      STRB     r3,[r2,#0]
        0x0000e918:    78c3        .x      LDRB     r3,[r0,#3]
        0x0000e91a:    bf00        ..      NOP      
        0x0000e91c:    6814        .h      LDR      r4,[r2,#0]
        0x0000e91e:    2c00        .,      CMP      r4,#0
        0x0000e920:    d1d2        ..      BNE      0xe8c8 ; am_hal_itm_print + 200
        0x0000e922:    6814        .h      LDR      r4,[r2,#0]
        0x0000e924:    2c00        .,      CMP      r4,#0
        0x0000e926:    d1cf        ..      BNE      0xe8c8 ; am_hal_itm_print + 200
        0x0000e928:    6814        .h      LDR      r4,[r2,#0]
        0x0000e92a:    2c00        .,      CMP      r4,#0
        0x0000e92c:    d1cc        ..      BNE      0xe8c8 ; am_hal_itm_print + 200
        0x0000e92e:    6814        .h      LDR      r4,[r2,#0]
        0x0000e930:    2c00        .,      CMP      r4,#0
        0x0000e932:    d0f3        ..      BEQ      0xe91c ; am_hal_itm_print + 284
        0x0000e934:    e7c8        ..      B        0xe8c8 ; am_hal_itm_print + 200
        0x0000e936:    0000        ..      MOVS     r0,r0
    am_hal_mcuctrl_control
        0x0000e938:    e92d43f0    -..C    PUSH     {r4-r9,lr}
        0x0000e93c:    b081        ..      SUB      sp,sp,#4
        0x0000e93e:    2804        .(      CMP      r0,#4
        0x0000e940:    d845        E.      BHI      0xe9ce ; am_hal_mcuctrl_control + 150
        0x0000e942:    e8dff000    ....    TBB      [pc,r0]
    $d.1
        0x0000e946:    1103        ..      DCW    4355
        0x0000e948:    003f2f1f    ./?.    DCD    4140831
    $t.2
        0x0000e94c:    f2401020    @. .    MOVW     r0,#0x120
        0x0000e950:    f2c40002    ....    MOVT     r0,#0x4002
        0x0000e954:    f8d010b0    ....    LDR      r1,[r0,#0xb0]
        0x0000e958:    f0410101    A...    ORR      r1,r1,#1
        0x0000e95c:    f8c010b0    ....    STR      r1,[r0,#0xb0]
        0x0000e960:    2000        .       MOVS     r0,#0
        0x0000e962:    b001        ..      ADD      sp,sp,#4
        0x0000e964:    e8bd83f0    ....    POP      {r4-r9,pc}
        0x0000e968:    f2401020    @. .    MOVW     r0,#0x120
        0x0000e96c:    f2c40002    ....    MOVT     r0,#0x4002
        0x0000e970:    f8d010b0    ....    LDR      r1,[r0,#0xb0]
        0x0000e974:    f0210101    !...    BIC      r1,r1,#1
        0x0000e978:    f8c010b0    ....    STR      r1,[r0,#0xb0]
        0x0000e97c:    2000        .       MOVS     r0,#0
        0x0000e97e:    b001        ..      ADD      sp,sp,#4
        0x0000e980:    e8bd83f0    ....    POP      {r4-r9,pc}
        0x0000e984:    f2401020    @. .    MOVW     r0,#0x120
        0x0000e988:    f2c40002    ....    MOVT     r0,#0x4002
        0x0000e98c:    6801        .h      LDR      r1,[r0,#0]
        0x0000e98e:    f021011f    !...    BIC      r1,r1,#0x1f
        0x0000e992:    6001        .`      STR      r1,[r0,#0]
        0x0000e994:    6801        .h      LDR      r1,[r0,#0]
        0x0000e996:    f0410107    A...    ORR      r1,r1,#7
        0x0000e99a:    6001        .`      STR      r1,[r0,#0]
        0x0000e99c:    2000        .       MOVS     r0,#0
        0x0000e99e:    b001        ..      ADD      sp,sp,#4
        0x0000e9a0:    e8bd83f0    ....    POP      {r4-r9,pc}
        0x0000e9a4:    f2401020    @. .    MOVW     r0,#0x120
        0x0000e9a8:    f2c40002    ....    MOVT     r0,#0x4002
        0x0000e9ac:    6801        .h      LDR      r1,[r0,#0]
        0x0000e9ae:    f021011f    !...    BIC      r1,r1,#0x1f
        0x0000e9b2:    6001        .`      STR      r1,[r0,#0]
        0x0000e9b4:    6801        .h      LDR      r1,[r0,#0]
        0x0000e9b6:    f0410118    A...    ORR      r1,r1,#0x18
        0x0000e9ba:    6001        .`      STR      r1,[r0,#0]
        0x0000e9bc:    2000        .       MOVS     r0,#0
        0x0000e9be:    b001        ..      ADD      sp,sp,#4
        0x0000e9c0:    e8bd83f0    ....    POP      {r4-r9,pc}
        0x0000e9c4:    6809        .h      LDR      r1,[r1,#0]
        0x0000e9c6:    f06f1033    o.3.    MVN      r0,#0x330033
        0x0000e9ca:    4201        .B      TST      r1,r0
        0x0000e9cc:    d004        ..      BEQ      0xe9d8 ; am_hal_mcuctrl_control + 160
        0x0000e9ce:    2006        .       MOVS     r0,#6
        0x0000e9d0:    b001        ..      ADD      sp,sp,#4
        0x0000e9d2:    e8bd83f0    ....    POP      {r4-r9,pc}
        0x0000e9d6:    bf00        ..      NOP      
        0x0000e9d8:    f2401820    @. .    MOVW     r8,#0x120
        0x0000e9dc:    fa91f0a1    ....    RBIT     r0,r1
        0x0000e9e0:    220c        ."      MOVS     r2,#0xc
        0x0000e9e2:    f2c40802    ....    MOVT     r8,#0x4002
        0x0000e9e6:    ea027010    ...p    AND      r0,r2,r0,LSR #28
        0x0000e9ea:    2202        ."      MOVS     r2,#2
        0x0000e9ec:    ea0233d1    ...3    AND      r3,r2,r1,LSR #15
        0x0000e9f0:    f8d82164    ..d!    LDR      r2,[r8,#0x164]
        0x0000e9f4:    f3c14640    ..@F    UBFX     r6,r1,#17,#1
        0x0000e9f8:    4433        3D      ADD      r3,r3,r6
        0x0000e9fa:    f0020501    ....    AND      r5,r2,#1
        0x0000e9fe:    4418        .D      ADD      r0,r0,r3
        0x0000ea00:    f0020402    ....    AND      r4,r2,#2
        0x0000ea04:    ea4000c5    @...    ORR      r0,r0,r5,LSL #3
        0x0000ea08:    ea400344    @.D.    ORR      r3,r0,r4,LSL #1
        0x0000ea0c:    2007        .       MOVS     r0,#7
        0x0000ea0e:    f04f0900    O...    MOV      r9,#0
        0x0000ea12:    2500        .%      MOVS     r5,#0
        0x0000ea14:    e8dff003    ....    TBB      [pc,r3]
    $d.3
        0x0000ea18:    08081017    ....    DCD    134746135
        0x0000ea1c:    084e174e    N.N.    DCD    139335502
        0x0000ea20:    08080c0c    ....    DCD    134745100
        0x0000ea24:    084e0c14    ..N.    DCD    139332628
    $t.4
        0x0000ea28:    2503        .%      MOVS     r5,#3
        0x0000ea2a:    f04f0900    O...    MOV      r9,#0
        0x0000ea2e:    e00a        ..      B        0xea46 ; am_hal_mcuctrl_control + 270
        0x0000ea30:    2502        .%      MOVS     r5,#2
        0x0000ea32:    f04f0901    O...    MOV      r9,#1
        0x0000ea36:    e006        ..      B        0xea46 ; am_hal_mcuctrl_control + 270
        0x0000ea38:    2502        .%      MOVS     r5,#2
        0x0000ea3a:    f04f0900    O...    MOV      r9,#0
        0x0000ea3e:    e002        ..      B        0xea46 ; am_hal_mcuctrl_control + 270
        0x0000ea40:    2500        .%      MOVS     r5,#0
        0x0000ea42:    f04f0903    O...    MOV      r9,#3
        0x0000ea46:    2404        .$      MOVS     r4,#4
        0x0000ea48:    2008        .       MOVS     r0,#8
        0x0000ea4a:    ea0407d1    ....    AND      r7,r4,r1,LSR #3
        0x0000ea4e:    2602        .&      MOVS     r6,#2
        0x0000ea50:    ea000351    ..Q.    AND      r3,r0,r1,LSR #1
        0x0000ea54:    ea0646d1    ...F    AND      r6,r6,r1,LSR #19
        0x0000ea58:    ea475151    G.QQ    ORR      r1,r7,r1,LSR #21
        0x0000ea5c:    4319        .C      ORRS     r1,r1,r3
        0x0000ea5e:    ea000052    ..R.    AND      r0,r0,r2,LSR #1
        0x0000ea62:    4331        1C      ORRS     r1,r1,r6
        0x0000ea64:    ea0402d2    ....    AND      r2,r4,r2,LSR #3
        0x0000ea68:    4308        .C      ORRS     r0,r0,r1
        0x0000ea6a:    ea400102    @...    ORR      r1,r0,r2
        0x0000ea6e:    2007        .       MOVS     r0,#7
        0x0000ea70:    e8dff001    ....    TBB      [pc,r1]
    $d.5
        0x0000ea74:    08080e12    ....    DCD    134745618
        0x0000ea78:    08201220     . .    DCD    136319520
        0x0000ea7c:    08080a0a    ....    DCD    134744586
        0x0000ea80:    08200a10    .. .    DCD    136317456
    $t.6
        0x0000ea84:    2530        0%      MOVS     r5,#0x30
        0x0000ea86:    e007        ..      B        0xea98 ; am_hal_mcuctrl_control + 352
        0x0000ea88:    2520         %      MOVS     r5,#0x20
        0x0000ea8a:    f04f0910    O...    MOV      r9,#0x10
        0x0000ea8e:    e003        ..      B        0xea98 ; am_hal_mcuctrl_control + 352
        0x0000ea90:    2520         %      MOVS     r5,#0x20
        0x0000ea92:    e001        ..      B        0xea98 ; am_hal_mcuctrl_control + 352
        0x0000ea94:    f04f0930    O.0.    MOV      r9,#0x30
        0x0000ea98:    f7fffe7a    ..z.    BL       am_hal_interrupt_master_disable ; 0xe790
        0x0000ea9c:    9000        ..      STR      r0,[sp,#0]
        0x0000ea9e:    f8d80164    ..d.    LDR      r0,[r8,#0x164]
        0x0000eaa2:    ea400009    @...    ORR      r0,r0,r9
        0x0000eaa6:    43a8        .C      BICS     r0,r0,r5
        0x0000eaa8:    f8c80164    ..d.    STR      r0,[r8,#0x164]
        0x0000eaac:    9800        ..      LDR      r0,[sp,#0]
        0x0000eaae:    f7fffe77    ..w.    BL       am_hal_interrupt_master_set ; 0xe7a0
        0x0000eab2:    2000        .       MOVS     r0,#0
        0x0000eab4:    b001        ..      ADD      sp,sp,#4
        0x0000eab6:    e8bd83f0    ....    POP      {r4-r9,pc}
        0x0000eaba:    0000        ..      MOVS     r0,r0
    am_hal_mcuctrl_info_get
        0x0000eabc:    b1e1        ..      CBZ      r1,0xeaf8 ; am_hal_mcuctrl_info_get + 60
        0x0000eabe:    2802        .(      CMP      r0,#2
        0x0000eac0:    d01c        ..      BEQ      0xeafc ; am_hal_mcuctrl_info_get + 64
        0x0000eac2:    2801        .(      CMP      r0,#1
        0x0000eac4:    d038        8.      BEQ      0xeb38 ; am_hal_mcuctrl_info_get + 124
        0x0000eac6:    b9b8        ..      CBNZ     r0,0xeaf8 ; am_hal_mcuctrl_info_get + 60
        0x0000eac8:    2014        .       MOVS     r0,#0x14
        0x0000eaca:    f2c40002    ....    MOVT     r0,#0x4002
        0x0000eace:    6842        Bh      LDR      r2,[r0,#4]
        0x0000ead0:    f3c21380    ....    UBFX     r3,r2,#6,#1
        0x0000ead4:    f3c20280    ....    UBFX     r2,r2,#2,#1
        0x0000ead8:    700b        .p      STRB     r3,[r1,#0]
        0x0000eada:    704a        Jp      STRB     r2,[r1,#1]
        0x0000eadc:    f8d0218c    ...!    LDR      r2,[r0,#0x18c]
        0x0000eae0:    f3c26281    ...b    UBFX     r2,r2,#26,#2
        0x0000eae4:    710a        .q      STRB     r2,[r1,#4]
        0x0000eae6:    6800        .h      LDR      r0,[r0,#0]
        0x0000eae8:    f3c00240    ..@.    UBFX     r2,r0,#1,#1
        0x0000eaec:    f0000001    ....    AND      r0,r0,#1
        0x0000eaf0:    70c8        .p      STRB     r0,[r1,#3]
        0x0000eaf2:    2000        .       MOVS     r0,#0
        0x0000eaf4:    708a        .p      STRB     r2,[r1,#2]
        0x0000eaf6:    4770        pG      BX       lr
        0x0000eaf8:    2006        .       MOVS     r0,#6
        0x0000eafa:    4770        pG      BX       lr
        0x0000eafc:    2014        .       MOVS     r0,#0x14
        0x0000eafe:    f2c40002    ....    MOVT     r0,#0x4002
        0x0000eb02:    f8d021b8    ...!    LDR      r2,[r0,#0x1b8]
        0x0000eb06:    f0020301    ....    AND      r3,r2,#1
        0x0000eb0a:    700b        .p      STRB     r3,[r1,#0]
        0x0000eb0c:    f3c20340    ..@.    UBFX     r3,r2,#1,#1
        0x0000eb10:    f3c20280    ....    UBFX     r2,r2,#2,#1
        0x0000eb14:    720b        .r      STRB     r3,[r1,#8]
        0x0000eb16:    740a        .t      STRB     r2,[r1,#0x10]
        0x0000eb18:    f8d021b0    ...!    LDR      r2,[r0,#0x1b0]
        0x0000eb1c:    60ca        .`      STR      r2,[r1,#0xc]
        0x0000eb1e:    f8d021ac    ...!    LDR      r2,[r0,#0x1ac]
        0x0000eb22:    684b        Kh      LDR      r3,[r1,#4]
        0x0000eb24:    431a        .C      ORRS     r2,r2,r3
        0x0000eb26:    604a        J`      STR      r2,[r1,#4]
        0x0000eb28:    f8d001b4    ....    LDR      r0,[r0,#0x1b4]
        0x0000eb2c:    694a        Ji      LDR      r2,[r1,#0x14]
        0x0000eb2e:    4310        .C      ORRS     r0,r0,r2
        0x0000eb30:    6148        Ha      STR      r0,[r1,#0x14]
        0x0000eb32:    2000        .       MOVS     r0,#0
        0x0000eb34:    4770        pG      BX       lr
        0x0000eb36:    bf00        ..      NOP      
        0x0000eb38:    2014        .       MOVS     r0,#0x14
        0x0000eb3a:    f2c40002    ....    MOVT     r0,#0x4002
        0x0000eb3e:    f8502c14    P..,    LDR      r2,[r0,#-0x14]
        0x0000eb42:    600a        .`      STR      r2,[r1,#0]
        0x0000eb44:    f8503c10    P..<    LDR      r3,[r0,#-0x10]
        0x0000eb48:    604b        K`      STR      r3,[r1,#4]
        0x0000eb4a:    f8503c0c    P..<    LDR      r3,[r0,#-0xc]
        0x0000eb4e:    608b        .`      STR      r3,[r1,#8]
        0x0000eb50:    f8503c08    P..<    LDR      r3,[r0,#-8]
        0x0000eb54:    60cb        .`      STR      r3,[r1,#0xc]
        0x0000eb56:    f8503c04    P..<    LDR      r3,[r0,#-4]
        0x0000eb5a:    610b        .a      STR      r3,[r1,#0x10]
        0x0000eb5c:    6800        .h      LDR      r0,[r0,#0]
        0x0000eb5e:    f64223b8    B..#    MOV      r3,#0x2ab8
        0x0000eb62:    6148        Ha      STR      r0,[r1,#0x14]
        0x0000eb64:    2001        .       MOVS     r0,#1
        0x0000eb66:    6188        .a      STR      r0,[r1,#0x18]
        0x0000eb68:    f3c25003    ...P    UBFX     r0,r2,#20,#4
        0x0000eb6c:    f2c00301    ....    MOVT     r3,#1
        0x0000eb70:    f8530020    S. .    LDR      r0,[r3,r0,LSL #2]
        0x0000eb74:    f64223f8    B..#    MOV      r3,#0x2af8
        0x0000eb78:    f3c24203    ...B    UBFX     r2,r2,#16,#4
        0x0000eb7c:    f2c00301    ....    MOVT     r3,#1
        0x0000eb80:    f8532022    S."     LDR      r2,[r3,r2,LSL #2]
        0x0000eb84:    e9c10207    ....    STRD     r0,r2,[r1,#0x1c]
        0x0000eb88:    f64070e4    @..p    MOV      r0,#0xfe4
        0x0000eb8c:    f2cf0000    ....    MOVT     r0,#0xf000
        0x0000eb90:    f8502c04    P..,    LDR      r2,[r0,#-4]
        0x0000eb94:    b2d2        ..      UXTB     r2,r2
        0x0000eb96:    624a        Jb      STR      r2,[r1,#0x24]
        0x0000eb98:    6803        .h      LDR      r3,[r0,#0]
        0x0000eb9a:    f363220b    c.."    BFI      r2,r3,#8,#4
        0x0000eb9e:    624a        Jb      STR      r2,[r1,#0x24]
        0x0000eba0:    6802        .h      LDR      r2,[r0,#0]
        0x0000eba2:    f3c21203    ....    UBFX     r2,r2,#4,#4
        0x0000eba6:    628a        .b      STR      r2,[r1,#0x28]
        0x0000eba8:    6843        Ch      LDR      r3,[r0,#4]
        0x0000ebaa:    f3631207    c...    BFI      r2,r3,#4,#4
        0x0000ebae:    628a        .b      STR      r2,[r1,#0x28]
        0x0000ebb0:    6842        Bh      LDR      r2,[r0,#4]
        0x0000ebb2:    f00202f0    ....    AND      r2,r2,#0xf0
        0x0000ebb6:    62ca        .b      STR      r2,[r1,#0x2c]
        0x0000ebb8:    6883        .h      LDR      r3,[r0,#8]
        0x0000ebba:    f3c31303    ....    UBFX     r3,r3,#4,#4
        0x0000ebbe:    441a        .D      ADD      r2,r2,r3
        0x0000ebc0:    62ca        .b      STR      r2,[r1,#0x2c]
        0x0000ebc2:    6982        .i      LDR      r2,[r0,#0x18]
        0x0000ebc4:    0612        ..      LSLS     r2,r2,#24
        0x0000ebc6:    630a        .c      STR      r2,[r1,#0x30]
        0x0000ebc8:    6943        Ci      LDR      r3,[r0,#0x14]
        0x0000ebca:    f3634217    c..B    BFI      r2,r3,#16,#8
        0x0000ebce:    630a        .c      STR      r2,[r1,#0x30]
        0x0000ebd0:    6903        .i      LDR      r3,[r0,#0x10]
        0x0000ebd2:    f363220f    c.."    BFI      r2,r3,#8,#8
        0x0000ebd6:    630a        .c      STR      r2,[r1,#0x30]
        0x0000ebd8:    68c0        .h      LDR      r0,[r0,#0xc]
        0x0000ebda:    b2c0        ..      UXTB     r0,r0
        0x0000ebdc:    4410        .D      ADD      r0,r0,r2
        0x0000ebde:    6308        .c      STR      r0,[r1,#0x30]
        0x0000ebe0:    2000        .       MOVS     r0,#0
        0x0000ebe2:    4770        pG      BX       lr
    am_hal_mspi_blocking_transfer
        0x0000ebe4:    b5f0        ..      PUSH     {r4-r7,lr}
        0x0000ebe6:    b081        ..      SUB      sp,sp,#4
        0x0000ebe8:    b1c0        ..      CBZ      r0,0xec1c ; am_hal_mspi_blocking_transfer + 56
        0x0000ebea:    4614        .F      MOV      r4,r2
        0x0000ebec:    6802        .h      LDR      r2,[r0,#0]
        0x0000ebee:    f64b67be    K..g    MOV      r7,#0xbebe
        0x0000ebf2:    f022437e    ".~C    BIC      r3,r2,#0xfe000000
        0x0000ebf6:    f2c017be    ....    MOVT     r7,#0x1be
        0x0000ebfa:    42bb        .B      CMP      r3,r7
        0x0000ebfc:    d10e        ..      BNE      0xec1c ; am_hal_mspi_blocking_transfer + 56
        0x0000ebfe:    0192        ..      LSLS     r2,r2,#6
        0x0000ec00:    d508        ..      BPL      0xec14 ; am_hal_mspi_blocking_transfer + 48
        0x0000ec02:    69c2        .i      LDR      r2,[r0,#0x1c]
        0x0000ec04:    b932        2.      CBNZ     r2,0xec14 ; am_hal_mspi_blocking_transfer + 48
        0x0000ec06:    f8d0283c    ..<(    LDR      r2,[r0,#0x83c]
        0x0000ec0a:    b91a        ..      CBNZ     r2,0xec14 ; am_hal_mspi_blocking_transfer + 48
        0x0000ec0c:    f8902828    ..((    LDRB     r2,[r0,#0x828]
        0x0000ec10:    2a02        .*      CMP      r2,#2
        0x0000ec12:    d107        ..      BNE      0xec24 ; am_hal_mspi_blocking_transfer + 64
        0x0000ec14:    2007        .       MOVS     r0,#7
        0x0000ec16:    b001        ..      ADD      sp,sp,#4
        0x0000ec18:    bdf0        ..      POP      {r4-r7,pc}
        0x0000ec1a:    bf00        ..      NOP      
        0x0000ec1c:    2002        .       MOVS     r0,#2
        0x0000ec1e:    b001        ..      ADD      sp,sp,#4
        0x0000ec20:    bdf0        ..      POP      {r4-r7,pc}
        0x0000ec22:    bf00        ..      NOP      
        0x0000ec24:    790a        .y      LDRB     r2,[r1,#4]
        0x0000ec26:    680b        .h      LDR      r3,[r1,#0]
        0x0000ec28:    02d2        ..      LSLS     r2,r2,#11
        0x0000ec2a:    ea424203    B..B    ORR      r2,r2,r3,LSL #16
        0x0000ec2e:    7b0b        .{      LDRB     r3,[r1,#0xc]
        0x0000ec30:    798f        .y      LDRB     r7,[r1,#6]
        0x0000ec32:    f8d0c004    ....    LDR      r12,[r0,#4]
        0x0000ec36:    2b00        .+      CMP      r3,#0
        0x0000ec38:    f2440300    D...    MOVW     r3,#0x4000
        0x0000ec3c:    f0070701    ....    AND      r7,r7,#1
        0x0000ec40:    f2c50301    ....    MOVT     r3,#0x5001
        0x0000ec44:    ea422287    B.."    ORR      r2,r2,r7,LSL #10
        0x0000ec48:    d005        ..      BEQ      0xec56 ; am_hal_mspi_blocking_transfer + 114
        0x0000ec4a:    89cf        ..      LDRH     r7,[r1,#0xe]
        0x0000ec4c:    f4427200    B..r    ORR      r2,r2,#0x200
        0x0000ec50:    eb03360c    ...6    ADD      r6,r3,r12,LSL #12
        0x0000ec54:    60f7        .`      STR      r7,[r6,#0xc]
        0x0000ec56:    79cf        .y      LDRB     r7,[r1,#7]
        0x0000ec58:    b137        7.      CBZ      r7,0xec68 ; am_hal_mspi_blocking_transfer + 132
        0x0000ec5a:    688f        .h      LDR      r7,[r1,#8]
        0x0000ec5c:    f4427280    B..r    ORR      r2,r2,#0x100
        0x0000ec60:    eb03350c    ...5    ADD      r5,r3,r12,LSL #12
        0x0000ec64:    60af        .`      STR      r7,[r5,#8]
        0x0000ec66:    e001        ..      B        0xec6c ; am_hal_mspi_blocking_transfer + 136
        0x0000ec68:    eb03350c    ...5    ADD      r5,r3,r12,LSL #12
        0x0000ec6c:    7c0f        .|      LDRB     r7,[r1,#0x10]
        0x0000ec6e:    f891e005    ....    LDRB     lr,[r1,#5]
        0x0000ec72:    2f00        ./      CMP      r7,#0
        0x0000ec74:    7a87        .z      LDRB     r7,[r0,#0xa]
        0x0000ec76:    7c4e        N|      LDRB     r6,[r1,#0x11]
        0x0000ec78:    bf18        ..      IT       NE
        0x0000ec7a:    f0420280    B...    ORRNE    r2,r2,#0x80
        0x0000ec7e:    f0070703    ....    AND      r7,r7,#3
        0x0000ec82:    ea421287    B...    ORR      r2,r2,r7,LSL #6
        0x0000ec86:    7ccf        .|      LDRB     r7,[r1,#0x13]
        0x0000ec88:    7c8b        .|      LDRB     r3,[r1,#0x12]
        0x0000ec8a:    f0070707    ....    AND      r7,r7,#7
        0x0000ec8e:    ea421247    B.G.    ORR      r2,r2,r7,LSL #5
        0x0000ec92:    f006060f    ....    AND      r6,r6,#0xf
        0x0000ec96:    ea421606    B...    ORR      r6,r2,r6,LSL #4
        0x0000ec9a:    2200        ."      MOVS     r2,#0
        0x0000ec9c:    2b00        .+      CMP      r3,#0
        0x0000ec9e:    bf18        ..      IT       NE
        0x0000eca0:    f0460608    F...    ORRNE    r6,r6,#8
        0x0000eca4:    f8d57200    ...r    LDR      r7,[r5,#0x200]
        0x0000eca8:    f8c52200    ..."    STR      r2,[r5,#0x200]
        0x0000ecac:    f04f32ff    O..2    MOV      r2,#0xffffffff
        0x0000ecb0:    f8c52208    ..."    STR      r2,[r5,#0x208]
        0x0000ecb4:    798a        .y      LDRB     r2,[r1,#6]
        0x0000ecb6:    f1be0f00    ....    CMP      lr,#0
        0x0000ecba:    bf18        ..      IT       NE
        0x0000ecbc:    f4465680    F..V    ORRNE    r6,r6,#0x1000
        0x0000ecc0:    2a01        .*      CMP      r2,#1
        0x0000ecc2:    f0460601    F...    ORR      r6,r6,#1
        0x0000ecc6:    d009        ..      BEQ      0xecdc ; am_hal_mspi_blocking_transfer + 248
        0x0000ecc8:    b982        ..      CBNZ     r2,0xecec ; am_hal_mspi_blocking_transfer + 264
        0x0000ecca:    680a        .h      LDR      r2,[r1,#0]
        0x0000eccc:    6949        Ii      LDR      r1,[r1,#0x14]
        0x0000ecce:    68c3        .h      LDR      r3,[r0,#0xc]
        0x0000ecd0:    4660        `F      MOV      r0,r12
        0x0000ecd2:    9600        ..      STR      r6,[sp,#0]
        0x0000ecd4:    f003f91e    ....    BL       mspi_fifo_read ; 0x11f14
        0x0000ecd8:    e007        ..      B        0xecea ; am_hal_mspi_blocking_transfer + 262
        0x0000ecda:    bf00        ..      NOP      
        0x0000ecdc:    680a        .h      LDR      r2,[r1,#0]
        0x0000ecde:    6949        Ii      LDR      r1,[r1,#0x14]
        0x0000ece0:    68c3        .h      LDR      r3,[r0,#0xc]
        0x0000ece2:    4660        `F      MOV      r0,r12
        0x0000ece4:    9600        ..      STR      r6,[sp,#0]
        0x0000ece6:    f003f973    ..s.    BL       mspi_fifo_write ; 0x11fd0
        0x0000ecea:    b938        8.      CBNZ     r0,0xecfc ; am_hal_mspi_blocking_transfer + 280
        0x0000ecec:    2601        .&      MOVS     r6,#1
        0x0000ecee:    4620         F      MOV      r0,r4
        0x0000ecf0:    4629        )F      MOV      r1,r5
        0x0000ecf2:    2202        ."      MOVS     r2,#2
        0x0000ecf4:    2302        .#      MOVS     r3,#2
        0x0000ecf6:    9600        ..      STR      r6,[sp,#0]
        0x0000ecf8:    f7fffb44    ..D.    BL       am_hal_flash_delay_status_check ; 0xe384
        0x0000ecfc:    f04f31ff    O..1    MOV      r1,#0xffffffff
        0x0000ed00:    f8c51208    ....    STR      r1,[r5,#0x208]
        0x0000ed04:    f8c57200    ...r    STR      r7,[r5,#0x200]
        0x0000ed08:    b001        ..      ADD      sp,sp,#4
        0x0000ed0a:    bdf0        ..      POP      {r4-r7,pc}
    am_hal_mspi_control
        0x0000ed0c:    e92d47f0    -..G    PUSH     {r4-r10,lr}
        0x0000ed10:    b082        ..      SUB      sp,sp,#8
        0x0000ed12:    b188        ..      CBZ      r0,0xed38 ; am_hal_mspi_control + 44
        0x0000ed14:    4604        .F      MOV      r4,r0
        0x0000ed16:    6800        .h      LDR      r0,[r0,#0]
        0x0000ed18:    4615        .F      MOV      r5,r2
        0x0000ed1a:    f64b62be    K..b    MOV      r2,#0xbebe
        0x0000ed1e:    f020407e     .~@    BIC      r0,r0,#0xfe000000
        0x0000ed22:    f2c012be    ....    MOVT     r2,#0x1be
        0x0000ed26:    4290        .B      CMP      r0,r2
        0x0000ed28:    d106        ..      BNE      0xed38 ; am_hal_mspi_control + 44
        0x0000ed2a:    291c        .)      CMP      r1,#0x1c
        0x0000ed2c:    d90a        ..      BLS      0xed44 ; am_hal_mspi_control + 56
        0x0000ed2e:    2606        .&      MOVS     r6,#6
        0x0000ed30:    4630        0F      MOV      r0,r6
        0x0000ed32:    b002        ..      ADD      sp,sp,#8
        0x0000ed34:    e8bd87f0    ....    POP      {r4-r10,pc}
        0x0000ed38:    2602        .&      MOVS     r6,#2
        0x0000ed3a:    4630        0F      MOV      r0,r6
        0x0000ed3c:    b002        ..      ADD      sp,sp,#8
        0x0000ed3e:    e8bd87f0    ....    POP      {r4-r10,pc}
        0x0000ed42:    bf00        ..      NOP      
        0x0000ed44:    291b        .)      CMP      r1,#0x1b
        0x0000ed46:    f200836c    ..l.    BHI.W    0xf422 ; am_hal_mspi_control + 1814
        0x0000ed4a:    6867        gh      LDR      r7,[r4,#4]
        0x0000ed4c:    e8dff011    ....    TBH      [pc,r1,LSL #1]
    $d.11
        0x0000ed50:    0032001c    ..2.    DCD    3276828
        0x0000ed54:    0062004a    J.b.    DCD    6422602
        0x0000ed58:    00980086    ....    DCD    9961606
        0x0000ed5c:    00bc00aa    ....    DCD    12320938
        0x0000ed60:    00e400ce    ....    DCD    14942414
        0x0000ed64:    010c00f6    ....    DCD    17563894
        0x0000ed68:    016e015c    \.n.    DCD    23986524
        0x0000ed6c:    018a0180    ....    DCD    25821568
        0x0000ed70:    01be01b8    ....    DCD    29229496
        0x0000ed74:    01de01cc    ....    DCD    31326668
        0x0000ed78:    02580236    6.X.    DCD    39322166
        0x0000ed7c:    028e026c    l...    DCD    42861164
        0x0000ed80:    02b402a0    ....    DCD    45351584
        0x0000ed84:    02ee02c8    ....    DCD    49152712
    $t.12
        0x0000ed88:    2d00        .-      CMP      r5,#0
        0x0000ed8a:    f000834a    ..J.    BEQ.W    0xf422 ; am_hal_mspi_control + 1814
        0x0000ed8e:    f2440100    D...    MOVW     r1,#0x4000
        0x0000ed92:    f2c50101    ....    MOVT     r1,#0x5001
        0x0000ed96:    eb013107    ...1    ADD      r1,r1,r7,LSL #12
        0x0000ed9a:    6828        (h      LDR      r0,[r5,#0]
        0x0000ed9c:    f8d12100    ...!    LDR      r2,[r1,#0x100]
        0x0000eda0:    2600        .&      MOVS     r6,#0
        0x0000eda2:    f3600200    `...    BFI      r2,r0,#0,#1
        0x0000eda6:    f8c12100    ...!    STR      r2,[r1,#0x100]
        0x0000edaa:    4630        0F      MOV      r0,r6
        0x0000edac:    b002        ..      ADD      sp,sp,#8
        0x0000edae:    e8bd87f0    ....    POP      {r4-r10,pc}
        0x0000edb2:    bf00        ..      NOP      
        0x0000edb4:    2d00        .-      CMP      r5,#0
        0x0000edb6:    f0008334    ..4.    BEQ.W    0xf422 ; am_hal_mspi_control + 1814
        0x0000edba:    6828        (h      LDR      r0,[r5,#0]
        0x0000edbc:    f24e01e0    N...    MOV      r1,#0xe0e0
        0x0000edc0:    f2c001e0    ....    MOVT     r1,#0xe0
        0x0000edc4:    4208        .B      TST      r0,r1
        0x0000edc6:    f040832c    @.,.    BNE.W    0xf422 ; am_hal_mspi_control + 1814
        0x0000edca:    f2440100    D...    MOVW     r1,#0x4000
        0x0000edce:    f2c50101    ....    MOVT     r1,#0x5001
        0x0000edd2:    eb013107    ...1    ADD      r1,r1,r7,LSL #12
        0x0000edd6:    f8c102b4    ....    STR      r0,[r1,#0x2b4]
        0x0000edda:    2600        .&      MOVS     r6,#0
        0x0000eddc:    4630        0F      MOV      r0,r6
        0x0000edde:    b002        ..      ADD      sp,sp,#8
        0x0000ede0:    e8bd87f0    ....    POP      {r4-r10,pc}
        0x0000ede4:    2d00        .-      CMP      r5,#0
        0x0000ede6:    f000831c    ....    BEQ.W    0xf422 ; am_hal_mspi_control + 1814
        0x0000edea:    6828        (h      LDR      r0,[r5,#0]
        0x0000edec:    2806        .(      CMP      r0,#6
        0x0000edee:    f0808315    ....    BCS.W    0xf41c ; am_hal_mspi_control + 1808
        0x0000edf2:    f2440100    D...    MOVW     r1,#0x4000
        0x0000edf6:    f2c50101    ....    MOVT     r1,#0x5001
        0x0000edfa:    eb013107    ...1    ADD      r1,r1,r7,LSL #12
        0x0000edfe:    f8d12100    ...!    LDR      r2,[r1,#0x100]
        0x0000ee02:    2600        .&      MOVS     r6,#0
        0x0000ee04:    f3601207    `...    BFI      r2,r0,#4,#4
        0x0000ee08:    f8c12100    ...!    STR      r2,[r1,#0x100]
        0x0000ee0c:    4630        0F      MOV      r0,r6
        0x0000ee0e:    b002        ..      ADD      sp,sp,#8
        0x0000ee10:    e8bd87f0    ....    POP      {r4-r10,pc}
        0x0000ee14:    2d00        .-      CMP      r5,#0
        0x0000ee16:    f0008304    ....    BEQ.W    0xf422 ; am_hal_mspi_control + 1814
        0x0000ee1a:    6828        (h      LDR      r0,[r5,#0]
        0x0000ee1c:    2606        .&      MOVS     r6,#6
        0x0000ee1e:    2807        .(      CMP      r0,#7
        0x0000ee20:    f63faf86    ?...    BHI.W    0xed30 ; am_hal_mspi_control + 36
        0x0000ee24:    2101        .!      MOVS     r1,#1
        0x0000ee26:    4081        .@      LSLS     r1,r1,r0
        0x0000ee28:    f0110f87    ....    TST      r1,#0x87
        0x0000ee2c:    f43faf80    ?...    BEQ.W    0xed30 ; am_hal_mspi_control + 36
        0x0000ee30:    f2440100    D...    MOVW     r1,#0x4000
        0x0000ee34:    f2c50101    ....    MOVT     r1,#0x5001
        0x0000ee38:    eb013107    ...1    ADD      r1,r1,r7,LSL #12
        0x0000ee3c:    2380        .#      MOVS     r3,#0x80
        0x0000ee3e:    f8d12100    ...!    LDR      r2,[r1,#0x100]
        0x0000ee42:    eb031000    ....    ADD      r0,r3,r0,LSL #4
        0x0000ee46:    0900        ..      LSRS     r0,r0,#4
        0x0000ee48:    f3601207    `...    BFI      r2,r0,#4,#4
        0x0000ee4c:    f8c12100    ...!    STR      r2,[r1,#0x100]
        0x0000ee50:    2600        .&      MOVS     r6,#0
        0x0000ee52:    4630        0F      MOV      r0,r6
        0x0000ee54:    b002        ..      ADD      sp,sp,#8
        0x0000ee56:    e8bd87f0    ....    POP      {r4-r10,pc}
        0x0000ee5a:    bf00        ..      NOP      
        0x0000ee5c:    f2440000    D...    MOVW     r0,#0x4000
        0x0000ee60:    f2c50001    ....    MOVT     r0,#0x5001
        0x0000ee64:    eb003007    ...0    ADD      r0,r0,r7,LSL #12
        0x0000ee68:    f8d01120    .. .    LDR      r1,[r0,#0x120]
        0x0000ee6c:    2600        .&      MOVS     r6,#0
        0x0000ee6e:    f0210102    !...    BIC      r1,r1,#2
        0x0000ee72:    f8c01120    .. .    STR      r1,[r0,#0x120]
        0x0000ee76:    4630        0F      MOV      r0,r6
        0x0000ee78:    b002        ..      ADD      sp,sp,#8
        0x0000ee7a:    e8bd87f0    ....    POP      {r4-r10,pc}
        0x0000ee7e:    bf00        ..      NOP      
        0x0000ee80:    f2440000    D...    MOVW     r0,#0x4000
        0x0000ee84:    f2c50001    ....    MOVT     r0,#0x5001
        0x0000ee88:    eb003007    ...0    ADD      r0,r0,r7,LSL #12
        0x0000ee8c:    f8d01120    .. .    LDR      r1,[r0,#0x120]
        0x0000ee90:    2600        .&      MOVS     r6,#0
        0x0000ee92:    f0410102    A...    ORR      r1,r1,#2
        0x0000ee96:    f8c01120    .. .    STR      r1,[r0,#0x120]
        0x0000ee9a:    4630        0F      MOV      r0,r6
        0x0000ee9c:    b002        ..      ADD      sp,sp,#8
        0x0000ee9e:    e8bd87f0    ....    POP      {r4-r10,pc}
        0x0000eea2:    bf00        ..      NOP      
        0x0000eea4:    f2440000    D...    MOVW     r0,#0x4000
        0x0000eea8:    f2c50001    ....    MOVT     r0,#0x5001
        0x0000eeac:    eb003007    ...0    ADD      r0,r0,r7,LSL #12
        0x0000eeb0:    f8d01128    ..(.    LDR      r1,[r0,#0x128]
        0x0000eeb4:    2600        .&      MOVS     r6,#0
        0x0000eeb6:    f0214100    !..A    BIC      r1,r1,#0x80000000
        0x0000eeba:    f8c01128    ..(.    STR      r1,[r0,#0x128]
        0x0000eebe:    4630        0F      MOV      r0,r6
        0x0000eec0:    b002        ..      ADD      sp,sp,#8
        0x0000eec2:    e8bd87f0    ....    POP      {r4-r10,pc}
        0x0000eec6:    bf00        ..      NOP      
        0x0000eec8:    f2440000    D...    MOVW     r0,#0x4000
        0x0000eecc:    f2c50001    ....    MOVT     r0,#0x5001
        0x0000eed0:    eb003007    ...0    ADD      r0,r0,r7,LSL #12
        0x0000eed4:    f8d01128    ..(.    LDR      r1,[r0,#0x128]
        0x0000eed8:    2600        .&      MOVS     r6,#0
        0x0000eeda:    f0414100    A..A    ORR      r1,r1,#0x80000000
        0x0000eede:    f8c01128    ..(.    STR      r1,[r0,#0x128]
        0x0000eee2:    4630        0F      MOV      r0,r6
        0x0000eee4:    b002        ..      ADD      sp,sp,#8
        0x0000eee6:    e8bd87f0    ....    POP      {r4-r10,pc}
        0x0000eeea:    bf00        ..      NOP      
        0x0000eeec:    2d00        .-      CMP      r5,#0
        0x0000eeee:    f0008298    ....    BEQ.W    0xf422 ; am_hal_mspi_control + 1814
        0x0000eef2:    f2440100    D...    MOVW     r1,#0x4000
        0x0000eef6:    f2c50101    ....    MOVT     r1,#0x5001
        0x0000eefa:    eb013107    ...1    ADD      r1,r1,r7,LSL #12
        0x0000eefe:    6828        (h      LDR      r0,[r5,#0]
        0x0000ef00:    f8d12120    .. !    LDR      r2,[r1,#0x120]
        0x0000ef04:    2600        .&      MOVS     r6,#0
        0x0000ef06:    f3600283    `...    BFI      r2,r0,#2,#2
        0x0000ef0a:    f8c12120    .. !    STR      r2,[r1,#0x120]
        0x0000ef0e:    4630        0F      MOV      r0,r6
        0x0000ef10:    b002        ..      ADD      sp,sp,#8
        0x0000ef12:    e8bd87f0    ....    POP      {r4-r10,pc}
        0x0000ef16:    bf00        ..      NOP      
        0x0000ef18:    f2440000    D...    MOVW     r0,#0x4000
        0x0000ef1c:    f2c50001    ....    MOVT     r0,#0x5001
        0x0000ef20:    eb003007    ...0    ADD      r0,r0,r7,LSL #12
        0x0000ef24:    f8d01104    ....    LDR      r1,[r0,#0x104]
        0x0000ef28:    2600        .&      MOVS     r6,#0
        0x0000ef2a:    f0210101    !...    BIC      r1,r1,#1
        0x0000ef2e:    f8c01104    ....    STR      r1,[r0,#0x104]
        0x0000ef32:    4630        0F      MOV      r0,r6
        0x0000ef34:    b002        ..      ADD      sp,sp,#8
        0x0000ef36:    e8bd87f0    ....    POP      {r4-r10,pc}
        0x0000ef3a:    bf00        ..      NOP      
        0x0000ef3c:    7a60        `z      LDRB     r0,[r4,#9]
        0x0000ef3e:    2802        .(      CMP      r0,#2
        0x0000ef40:    f200826f    ..o.    BHI.W    0xf422 ; am_hal_mspi_control + 1814
        0x0000ef44:    f2440000    D...    MOVW     r0,#0x4000
        0x0000ef48:    f2c50001    ....    MOVT     r0,#0x5001
        0x0000ef4c:    eb003007    ...0    ADD      r0,r0,r7,LSL #12
        0x0000ef50:    f8d01104    ....    LDR      r1,[r0,#0x104]
        0x0000ef54:    2600        .&      MOVS     r6,#0
        0x0000ef56:    f0410101    A...    ORR      r1,r1,#1
        0x0000ef5a:    f8c01104    ....    STR      r1,[r0,#0x104]
        0x0000ef5e:    4630        0F      MOV      r0,r6
        0x0000ef60:    b002        ..      ADD      sp,sp,#8
        0x0000ef62:    e8bd87f0    ....    POP      {r4-r10,pc}
        0x0000ef66:    bf00        ..      NOP      
        0x0000ef68:    2d00        .-      CMP      r5,#0
        0x0000ef6a:    f000825a    ..Z.    BEQ.W    0xf422 ; am_hal_mspi_control + 1814
        0x0000ef6e:    f2440000    D...    MOVW     r0,#0x4000
        0x0000ef72:    f2c50001    ....    MOVT     r0,#0x5001
        0x0000ef76:    eb003007    ...0    ADD      r0,r0,r7,LSL #12
        0x0000ef7a:    7829        )x      LDRB     r1,[r5,#0]
        0x0000ef7c:    f8d02104    ...!    LDR      r2,[r0,#0x104]
        0x0000ef80:    f001013f    ..?.    AND      r1,r1,#0x3f
        0x0000ef84:    f0220204    "...    BIC      r2,r2,#4
        0x0000ef88:    ea420181    B...    ORR      r1,r2,r1,LSL #2
        0x0000ef8c:    f8c01104    ....    STR      r1,[r0,#0x104]
        0x0000ef90:    7869        ix      LDRB     r1,[r5,#1]
        0x0000ef92:    f8d02104    ...!    LDR      r2,[r0,#0x104]
        0x0000ef96:    f001010f    ....    AND      r1,r1,#0xf
        0x0000ef9a:    f0220210    "...    BIC      r2,r2,#0x10
        0x0000ef9e:    ea421101    B...    ORR      r1,r2,r1,LSL #4
        0x0000efa2:    f8c01104    ....    STR      r1,[r0,#0x104]
        0x0000efa6:    78a9        .x      LDRB     r1,[r5,#2]
        0x0000efa8:    f8d02104    ...!    LDR      r2,[r0,#0x104]
        0x0000efac:    f001011f    ....    AND      r1,r1,#0x1f
        0x0000efb0:    f42252f8    "..R    BIC      r2,r2,#0x1f00
        0x0000efb4:    ea422101    B..!    ORR      r1,r2,r1,LSL #8
        0x0000efb8:    f8c01104    ....    STR      r1,[r0,#0x104]
        0x0000efbc:    78e9        .x      LDRB     r1,[r5,#3]
        0x0000efbe:    f8d02104    ...!    LDR      r2,[r0,#0x104]
        0x0000efc2:    f0010107    ....    AND      r1,r1,#7
        0x0000efc6:    f0220220    ". .    BIC      r2,r2,#0x20
        0x0000efca:    ea421141    B.A.    ORR      r1,r2,r1,LSL #5
        0x0000efce:    f8c01104    ....    STR      r1,[r0,#0x104]
        0x0000efd2:    7929        )y      LDRB     r1,[r5,#4]
        0x0000efd4:    f8d02104    ...!    LDR      r2,[r0,#0x104]
        0x0000efd8:    f001011f    ....    AND      r1,r1,#0x1f
        0x0000efdc:    f42212f8    "...    BIC      r2,r2,#0x1f0000
        0x0000efe0:    ea424101    B..A    ORR      r1,r2,r1,LSL #16
        0x0000efe4:    f8c01104    ....    STR      r1,[r0,#0x104]
        0x0000efe8:    7969        iy      LDRB     r1,[r5,#5]
        0x0000efea:    f8d02104    ...!    LDR      r2,[r0,#0x104]
        0x0000efee:    f001011f    ....    AND      r1,r1,#0x1f
        0x0000eff2:    f0220208    "...    BIC      r2,r2,#8
        0x0000eff6:    ea4201c1    B...    ORR      r1,r2,r1,LSL #3
        0x0000effa:    f8c01104    ....    STR      r1,[r0,#0x104]
        0x0000effe:    2600        .&      MOVS     r6,#0
        0x0000f000:    4630        0F      MOV      r0,r6
        0x0000f002:    b002        ..      ADD      sp,sp,#8
        0x0000f004:    e8bd87f0    ....    POP      {r4-r10,pc}
        0x0000f008:    f2440000    D...    MOVW     r0,#0x4000
        0x0000f00c:    f2c50001    ....    MOVT     r0,#0x5001
        0x0000f010:    eb003007    ...0    ADD      r0,r0,r7,LSL #12
        0x0000f014:    f8d01120    .. .    LDR      r1,[r0,#0x120]
        0x0000f018:    2600        .&      MOVS     r6,#0
        0x0000f01a:    f0210101    !...    BIC      r1,r1,#1
        0x0000f01e:    f8c01120    .. .    STR      r1,[r0,#0x120]
        0x0000f022:    4630        0F      MOV      r0,r6
        0x0000f024:    b002        ..      ADD      sp,sp,#8
        0x0000f026:    e8bd87f0    ....    POP      {r4-r10,pc}
        0x0000f02a:    bf00        ..      NOP      
        0x0000f02c:    f2440000    D...    MOVW     r0,#0x4000
        0x0000f030:    f2c50001    ....    MOVT     r0,#0x5001
        0x0000f034:    eb003007    ...0    ADD      r0,r0,r7,LSL #12
        0x0000f038:    f8d01120    .. .    LDR      r1,[r0,#0x120]
        0x0000f03c:    2600        .&      MOVS     r6,#0
        0x0000f03e:    f0410101    A...    ORR      r1,r1,#1
        0x0000f042:    f8c01120    .. .    STR      r1,[r0,#0x120]
        0x0000f046:    4630        0F      MOV      r0,r6
        0x0000f048:    b002        ..      ADD      sp,sp,#8
        0x0000f04a:    e8bd87f0    ....    POP      {r4-r10,pc}
        0x0000f04e:    bf00        ..      NOP      
        0x0000f050:    2d00        .-      CMP      r5,#0
        0x0000f052:    f00081e6    ....    BEQ.W    0xf422 ; am_hal_mspi_control + 1814
        0x0000f056:    7829        )x      LDRB     r1,[r5,#0]
        0x0000f058:    4638        8F      MOV      r0,r7
        0x0000f05a:    b002        ..      ADD      sp,sp,#8
        0x0000f05c:    e8bd47f0    ...G    POP      {r4-r10,lr}
        0x0000f060:    f002bde0    ....    B.W      mspi_device_configure ; 0x11c24
        0x0000f064:    f2440100    D...    MOVW     r1,#0x4000
        0x0000f068:    f2c50101    ....    MOVT     r1,#0x5001
        0x0000f06c:    eb013107    ...1    ADD      r1,r1,r7,LSL #12
        0x0000f070:    7828        (x      LDRB     r0,[r5,#0]
        0x0000f072:    f8d12100    ...!    LDR      r2,[r1,#0x100]
        0x0000f076:    2801        .(      CMP      r0,#1
        0x0000f078:    f360220d    `.."    BFI      r2,r0,#8,#6
        0x0000f07c:    f8c12100    ...!    STR      r2,[r1,#0x100]
        0x0000f080:    f8d12100    ...!    LDR      r2,[r1,#0x100]
        0x0000f084:    f0408186    @...    BNE.W    0xf394 ; am_hal_mspi_control + 1672
        0x0000f088:    f0420208    B...    ORR      r2,r2,#8
        0x0000f08c:    f8c12100    ...!    STR      r2,[r1,#0x100]
        0x0000f090:    f8d12100    ...!    LDR      r2,[r1,#0x100]
        0x0000f094:    f0220204    "...    BIC      r2,r2,#4
        0x0000f098:    f8c12100    ...!    STR      r2,[r1,#0x100]
        0x0000f09c:    f8d12100    ...!    LDR      r2,[r1,#0x100]
        0x0000f0a0:    f0420202    B...    ORR      r2,r2,#2
        0x0000f0a4:    f8c12100    ...!    STR      r2,[r1,#0x100]
        0x0000f0a8:    2200        ."      MOVS     r2,#0
        0x0000f0aa:    f8c12104    ...!    STR      r2,[r1,#0x104]
        0x0000f0ae:    6962        bi      LDR      r2,[r4,#0x14]
        0x0000f0b0:    2a00        .*      CMP      r2,#0
        0x0000f0b2:    f0008195    ....    BEQ.W    0xf3e0 ; am_hal_mspi_control + 1748
        0x0000f0b6:    f44f6280    O..b    MOV      r2,#0x400
        0x0000f0ba:    230c        .#      MOVS     r3,#0xc
        0x0000f0bc:    e182        ..      B        0xf3c4 ; am_hal_mspi_control + 1720
        0x0000f0be:    bf00        ..      NOP      
        0x0000f0c0:    4620         F      MOV      r0,r4
        0x0000f0c2:    b002        ..      ADD      sp,sp,#8
        0x0000f0c4:    e8bd47f0    ...G    POP      {r4-r10,lr}
        0x0000f0c8:    f002bd6a    ..j.    B.W      mspi_cq_pause ; 0x11ba0
        0x0000f0cc:    f2440000    D...    MOVW     r0,#0x4000
        0x0000f0d0:    f2c50001    ....    MOVT     r0,#0x5001
        0x0000f0d4:    eb003007    ...0    ADD      r0,r0,r7,LSL #12
        0x0000f0d8:    2180        .!      MOVS     r1,#0x80
        0x0000f0da:    f8c012b4    ....    STR      r1,[r0,#0x2b4]
        0x0000f0de:    2600        .&      MOVS     r6,#0
        0x0000f0e0:    4630        0F      MOV      r0,r6
        0x0000f0e2:    b002        ..      ADD      sp,sp,#8
        0x0000f0e4:    e8bd87f0    ....    POP      {r4-r10,pc}
        0x0000f0e8:    2d00        .-      CMP      r5,#0
        0x0000f0ea:    f000819a    ....    BEQ.W    0xf422 ; am_hal_mspi_control + 1814
        0x0000f0ee:    6960        `i      LDR      r0,[r4,#0x14]
        0x0000f0f0:    2800        .(      CMP      r0,#0
        0x0000f0f2:    f0008181    ....    BEQ.W    0xf3f8 ; am_hal_mspi_control + 1772
        0x0000f0f6:    782d        -x      LDRB     r5,[r5,#0]
        0x0000f0f8:    f8940828    ..(.    LDRB     r0,[r4,#0x828]
        0x0000f0fc:    4285        .B      CMP      r5,r0
        0x0000f0fe:    f0408175    @.u.    BNE.W    0xf3ec ; am_hal_mspi_control + 1760
        0x0000f102:    2600        .&      MOVS     r6,#0
        0x0000f104:    4630        0F      MOV      r0,r6
        0x0000f106:    b002        ..      ADD      sp,sp,#8
        0x0000f108:    e8bd87f0    ....    POP      {r4-r10,pc}
        0x0000f10c:    2d00        .-      CMP      r5,#0
        0x0000f10e:    f0008188    ....    BEQ.W    0xf422 ; am_hal_mspi_control + 1814
        0x0000f112:    7928        (y      LDRB     r0,[r5,#4]
        0x0000f114:    f0100fe0    ....    TST      r0,#0xe0
        0x0000f118:    f0408183    @...    BNE.W    0xf422 ; am_hal_mspi_control + 1814
        0x0000f11c:    68a8        .h      LDR      r0,[r5,#8]
        0x0000f11e:    f24e01e0    N...    MOV      r1,#0xe0e0
        0x0000f122:    f2c001e0    ....    MOVT     r1,#0xe0
        0x0000f126:    4208        .B      TST      r0,r1
        0x0000f128:    f040817b    @.{.    BNE.W    0xf422 ; am_hal_mspi_control + 1814
        0x0000f12c:    f8940828    ..(.    LDRB     r0,[r4,#0x828]
        0x0000f130:    2801        .(      CMP      r0,#1
        0x0000f132:    f0408161    @.a.    BNE.W    0xf3f8 ; am_hal_mspi_control + 1772
        0x0000f136:    f8d40834    ..4.    LDR      r0,[r4,#0x834]
        0x0000f13a:    f2440900    D...    MOVW     r9,#0x4000
        0x0000f13e:    f2c50901    ....    MOVT     r9,#0x5001
        0x0000f142:    b138        8.      CBZ      r0,0xf154 ; am_hal_mspi_control + 1096
        0x0000f144:    2000        .       MOVS     r0,#0
        0x0000f146:    f8c40834    ..4.    STR      r0,[r4,#0x834]
        0x0000f14a:    eb093007    ...0    ADD      r0,r9,r7,LSL #12
        0x0000f14e:    2120         !      MOVS     r1,#0x20
        0x0000f150:    f8c012b4    ....    STR      r1,[r0,#0x2b4]
        0x0000f154:    7828        (x      LDRB     r0,[r5,#0]
        0x0000f156:    b120         .      CBZ      r0,0xf162 ; am_hal_mspi_control + 1110
        0x0000f158:    f8940829    ..).    LDRB     r0,[r4,#0x829]
        0x0000f15c:    2800        .(      CMP      r0,#0
        0x0000f15e:    f00081f3    ....    BEQ.W    0xf548 ; am_hal_mspi_control + 2108
        0x0000f162:    f04f0800    O...    MOV      r8,#0
        0x0000f166:    f04f0a00    O...    MOV      r10,#0
        0x0000f16a:    f8d40824    ..$.    LDR      r0,[r4,#0x824]
        0x0000f16e:    aa01        ..      ADD      r2,sp,#4
        0x0000f170:    466b        kF      MOV      r3,sp
        0x0000f172:    2103        .!      MOVS     r1,#3
        0x0000f174:    f7fefe7c    ..|.    BL       am_hal_cmdq_alloc_block ; 0xde70
        0x0000f178:    4606        .F      MOV      r6,r0
        0x0000f17a:    2800        .(      CMP      r0,#0
        0x0000f17c:    f47fadd8    ....    BNE      0xed30 ; am_hal_mspi_control + 36
        0x0000f180:    9801        ..      LDR      r0,[sp,#4]
        0x0000f182:    eb093107    ...1    ADD      r1,r9,r7,LSL #12
        0x0000f186:    f501722e    ...r    ADD      r2,r1,#0x2b8
        0x0000f18a:    f501712d    ..-q    ADD      r1,r1,#0x2b4
        0x0000f18e:    6082        .`      STR      r2,[r0,#8]
        0x0000f190:    6002        .`      STR      r2,[r0,#0]
        0x0000f192:    6101        .a      STR      r1,[r0,#0x10]
        0x0000f194:    f8d42834    ..4(    LDR      r2,[r4,#0x834]
        0x0000f198:    f44f4180    O..A    MOV      r1,#0x4000
        0x0000f19c:    2a02        .*      CMP      r2,#2
        0x0000f19e:    f0008259    ..Y.    BEQ.W    0xf654 ; am_hal_mspi_control + 2376
        0x0000f1a2:    686b        kh      LDR      r3,[r5,#4]
        0x0000f1a4:    2a01        .*      CMP      r2,#1
        0x0000f1a6:    ea43020a    C...    ORR      r2,r3,r10
        0x0000f1aa:    f0408257    @.W.    BNE.W    0xf65c ; am_hal_mspi_control + 2384
        0x0000f1ae:    f24403a0    D...    MOV      r3,#0x40a0
        0x0000f1b2:    431a        .C      ORRS     r2,r2,r3
        0x0000f1b4:    2302        .#      MOVS     r3,#2
        0x0000f1b6:    f8c43834    ..48    STR      r3,[r4,#0x834]
        0x0000f1ba:    e251        Q.      B        0xf660 ; am_hal_mspi_control + 2388
        0x0000f1bc:    2d00        .-      CMP      r5,#0
        0x0000f1be:    f0008130    ..0.    BEQ.W    0xf422 ; am_hal_mspi_control + 1814
        0x0000f1c2:    f8d40850    ..P.    LDR      r0,[r4,#0x850]
        0x0000f1c6:    2800        .(      CMP      r0,#0
        0x0000f1c8:    f0408116    @...    BNE.W    0xf3f8 ; am_hal_mspi_control + 1772
        0x0000f1cc:    2600        .&      MOVS     r6,#0
        0x0000f1ce:    2001        .       MOVS     r0,#1
        0x0000f1d0:    f8c4684c    ..Lh    STR      r6,[r4,#0x84c]
        0x0000f1d4:    f8c4683c    ..<h    STR      r6,[r4,#0x83c]
        0x0000f1d8:    f8c40848    ..H.    STR      r0,[r4,#0x848]
        0x0000f1dc:    6868        hh      LDR      r0,[r5,#4]
        0x0000f1de:    f64a21ab    J..!    MOV      r1,#0xaaab
        0x0000f1e2:    f6ca21aa    ...!    MOVT     r1,#0xaaaa
        0x0000f1e6:    fba00101    ....    UMULL    r0,r1,r0,r1
        0x0000f1ea:    6828        (h      LDR      r0,[r5,#0]
        0x0000f1ec:    f8c40850    ..P.    STR      r0,[r4,#0x850]
        0x0000f1f0:    0908        ..      LSRS     r0,r1,#4
        0x0000f1f2:    f8c40844    ..D.    STR      r0,[r4,#0x844]
        0x0000f1f6:    4630        0F      MOV      r0,r6
        0x0000f1f8:    b002        ..      ADD      sp,sp,#8
        0x0000f1fa:    e8bd87f0    ....    POP      {r4-r10,pc}
        0x0000f1fe:    bf00        ..      NOP      
        0x0000f200:    f2440000    D...    MOVW     r0,#0x4000
        0x0000f204:    f2c50001    ....    MOVT     r0,#0x5001
        0x0000f208:    eb003007    ...0    ADD      r0,r0,r7,LSL #12
        0x0000f20c:    f44f1100    O...    MOV      r1,#0x200000
        0x0000f210:    f8c012b4    ....    STR      r1,[r0,#0x2b4]
        0x0000f214:    2001        .       MOVS     r0,#1
        0x0000f216:    2600        .&      MOVS     r6,#0
        0x0000f218:    f8c40834    ..4.    STR      r0,[r4,#0x834]
        0x0000f21c:    f8c46840    ..@h    STR      r6,[r4,#0x840]
        0x0000f220:    4630        0F      MOV      r0,r6
        0x0000f222:    b002        ..      ADD      sp,sp,#8
        0x0000f224:    e8bd87f0    ....    POP      {r4-r10,pc}
        0x0000f228:    f2440000    D...    MOVW     r0,#0x4000
        0x0000f22c:    f2c50001    ....    MOVT     r0,#0x5001
        0x0000f230:    eb003007    ...0    ADD      r0,r0,r7,LSL #12
        0x0000f234:    2120         !      MOVS     r1,#0x20
        0x0000f236:    f8c012b4    ....    STR      r1,[r0,#0x2b4]
        0x0000f23a:    f8d40840    ..@.    LDR      r0,[r4,#0x840]
        0x0000f23e:    2600        .&      MOVS     r6,#0
        0x0000f240:    2800        .(      CMP      r0,#0
        0x0000f242:    f8c46834    ..4h    STR      r6,[r4,#0x834]
        0x0000f246:    f47fad73    ..s.    BNE      0xed30 ; am_hal_mspi_control + 36
        0x0000f24a:    4620         F      MOV      r0,r4
        0x0000f24c:    2100        .!      MOVS     r1,#0
        0x0000f24e:    2500        .%      MOVS     r5,#0
        0x0000f250:    f002ff96    ....    BL       sched_hiprio ; 0x12180
        0x0000f254:    4606        .F      MOV      r6,r0
        0x0000f256:    2800        .(      CMP      r0,#0
        0x0000f258:    f47fad6a    ..j.    BNE      0xed30 ; am_hal_mspi_control + 36
        0x0000f25c:    f8c45840    ..@X    STR      r5,[r4,#0x840]
        0x0000f260:    2600        .&      MOVS     r6,#0
        0x0000f262:    4630        0F      MOV      r0,r6
        0x0000f264:    b002        ..      ADD      sp,sp,#8
        0x0000f266:    e8bd87f0    ....    POP      {r4-r10,pc}
        0x0000f26a:    bf00        ..      NOP      
        0x0000f26c:    2d00        .-      CMP      r5,#0
        0x0000f26e:    f00080d8    ....    BEQ.W    0xf422 ; am_hal_mspi_control + 1814
        0x0000f272:    f8d40824    ..$.    LDR      r0,[r4,#0x824]
        0x0000f276:    2800        .(      CMP      r0,#0
        0x0000f278:    f00080be    ....    BEQ.W    0xf3f8 ; am_hal_mspi_control + 1772
        0x0000f27c:    69e1        .i      LDR      r1,[r4,#0x1c]
        0x0000f27e:    f5b17f80    ....    CMP      r1,#0x100
        0x0000f282:    f04080bf    @...    BNE.W    0xf404 ; am_hal_mspi_control + 1784
        0x0000f286:    2605        .&      MOVS     r6,#5
        0x0000f288:    4630        0F      MOV      r0,r6
        0x0000f28a:    b002        ..      ADD      sp,sp,#8
        0x0000f28c:    e8bd87f0    ....    POP      {r4-r10,pc}
        0x0000f290:    2d00        .-      CMP      r5,#0
        0x0000f292:    f00080c6    ....    BEQ.W    0xf422 ; am_hal_mspi_control + 1814
        0x0000f296:    f2440100    D...    MOVW     r1,#0x4000
        0x0000f29a:    f2c50101    ....    MOVT     r1,#0x5001
        0x0000f29e:    eb013107    ...1    ADD      r1,r1,r7,LSL #12
        0x0000f2a2:    7828        (x      LDRB     r0,[r5,#0]
        0x0000f2a4:    684a        Jh      LDR      r2,[r1,#4]
        0x0000f2a6:    2600        .&      MOVS     r6,#0
        0x0000f2a8:    f3601286    `...    BFI      r2,r0,#6,#1
        0x0000f2ac:    604a        J`      STR      r2,[r1,#4]
        0x0000f2ae:    4630        0F      MOV      r0,r6
        0x0000f2b0:    b002        ..      ADD      sp,sp,#8
        0x0000f2b2:    e8bd87f0    ....    POP      {r4-r10,pc}
        0x0000f2b6:    bf00        ..      NOP      
        0x0000f2b8:    2d00        .-      CMP      r5,#0
        0x0000f2ba:    f00080b2    ....    BEQ.W    0xf422 ; am_hal_mspi_control + 1814
        0x0000f2be:    f2440100    D...    MOVW     r1,#0x4000
        0x0000f2c2:    f2c50101    ....    MOVT     r1,#0x5001
        0x0000f2c6:    eb013107    ...1    ADD      r1,r1,r7,LSL #12
        0x0000f2ca:    7828        (x      LDRB     r0,[r5,#0]
        0x0000f2cc:    684a        Jh      LDR      r2,[r1,#4]
        0x0000f2ce:    2600        .&      MOVS     r6,#0
        0x0000f2d0:    f3601205    `...    BFI      r2,r0,#4,#2
        0x0000f2d4:    604a        J`      STR      r2,[r1,#4]
        0x0000f2d6:    4630        0F      MOV      r0,r6
        0x0000f2d8:    b002        ..      ADD      sp,sp,#8
        0x0000f2da:    e8bd87f0    ....    POP      {r4-r10,pc}
        0x0000f2de:    bf00        ..      NOP      
        0x0000f2e0:    2d00        .-      CMP      r5,#0
        0x0000f2e2:    f000809e    ....    BEQ.W    0xf422 ; am_hal_mspi_control + 1814
        0x0000f2e6:    f2440100    D...    MOVW     r1,#0x4000
        0x0000f2ea:    f2c50101    ....    MOVT     r1,#0x5001
        0x0000f2ee:    eb013107    ...1    ADD      r1,r1,r7,LSL #12
        0x0000f2f2:    79a8        .y      LDRB     r0,[r5,#6]
        0x0000f2f4:    684a        Jh      LDR      r2,[r1,#4]
        0x0000f2f6:    f000003f    ..?.    AND      r0,r0,#0x3f
        0x0000f2fa:    f022727c    ".|r    BIC      r2,r2,#0x3f00000
        0x0000f2fe:    ea425000    B..P    ORR      r0,r2,r0,LSL #20
        0x0000f302:    6048        H`      STR      r0,[r1,#4]
        0x0000f304:    f8d10120    .. .    LDR      r0,[r1,#0x120]
        0x0000f308:    2600        .&      MOVS     r6,#0
        0x0000f30a:    f44060e0    @..`    ORR      r0,r0,#0x700
        0x0000f30e:    f8c10120    .. .    STR      r0,[r1,#0x120]
        0x0000f312:    7a68        hz      LDRB     r0,[r5,#9]
        0x0000f314:    f8d12120    .. !    LDR      r2,[r1,#0x120]
        0x0000f318:    f4226200    "..b    BIC      r2,r2,#0x800
        0x0000f31c:    ea4220c0    B..     ORR      r0,r2,r0,LSL #11
        0x0000f320:    f8c10120    .. .    STR      r0,[r1,#0x120]
        0x0000f324:    4630        0F      MOV      r0,r6
        0x0000f326:    b002        ..      ADD      sp,sp,#8
        0x0000f328:    e8bd87f0    ....    POP      {r4-r10,pc}
        0x0000f32c:    2d00        .-      CMP      r5,#0
        0x0000f32e:    d078        x.      BEQ      0xf422 ; am_hal_mspi_control + 1814
        0x0000f330:    f2440100    D...    MOVW     r1,#0x4000
        0x0000f334:    f2c50101    ....    MOVT     r1,#0x5001
        0x0000f338:    eb013107    ...1    ADD      r1,r1,r7,LSL #12
        0x0000f33c:    7928        (y      LDRB     r0,[r5,#4]
        0x0000f33e:    684a        Jh      LDR      r2,[r1,#4]
        0x0000f340:    f000003f    ..?.    AND      r0,r0,#0x3f
        0x0000f344:    f022727c    ".|r    BIC      r2,r2,#0x3f00000
        0x0000f348:    ea425000    B..P    ORR      r0,r2,r0,LSL #20
        0x0000f34c:    6048        H`      STR      r0,[r1,#4]
        0x0000f34e:    7928        (y      LDRB     r0,[r5,#4]
        0x0000f350:    f8d12120    .. !    LDR      r2,[r1,#0x120]
        0x0000f354:    2800        .(      CMP      r0,#0
        0x0000f356:    f4226200    "..b    BIC      r2,r2,#0x800
        0x0000f35a:    bf18        ..      IT       NE
        0x0000f35c:    f5026200    ...b    ADDNE    r2,r2,#0x800
        0x0000f360:    f8c12120    .. !    STR      r2,[r1,#0x120]
        0x0000f364:    78e8        .x      LDRB     r0,[r5,#3]
        0x0000f366:    684a        Jh      LDR      r2,[r1,#4]
        0x0000f368:    f000003f    ..?.    AND      r0,r0,#0x3f
        0x0000f36c:    f422527c    ".|R    BIC      r2,r2,#0x3f00
        0x0000f370:    ea422000    B..     ORR      r0,r2,r0,LSL #8
        0x0000f374:    6048        H`      STR      r0,[r1,#4]
        0x0000f376:    78e8        .x      LDRB     r0,[r5,#3]
        0x0000f378:    f8d12120    .. !    LDR      r2,[r1,#0x120]
        0x0000f37c:    2600        .&      MOVS     r6,#0
        0x0000f37e:    f0220220    ". .    BIC      r2,r2,#0x20
        0x0000f382:    2800        .(      CMP      r0,#0
        0x0000f384:    bf18        ..      IT       NE
        0x0000f386:    3220         2      ADDNE    r2,r2,#0x20
        0x0000f388:    f8c12120    .. !    STR      r2,[r1,#0x120]
        0x0000f38c:    4630        0F      MOV      r0,r6
        0x0000f38e:    b002        ..      ADD      sp,sp,#8
        0x0000f390:    e8bd87f0    ....    POP      {r4-r10,pc}
        0x0000f394:    f0220208    "...    BIC      r2,r2,#8
        0x0000f398:    f8c12100    ...!    STR      r2,[r1,#0x100]
        0x0000f39c:    f8d12100    ...!    LDR      r2,[r1,#0x100]
        0x0000f3a0:    f0220204    "...    BIC      r2,r2,#4
        0x0000f3a4:    f8c12100    ...!    STR      r2,[r1,#0x100]
        0x0000f3a8:    f8d12100    ...!    LDR      r2,[r1,#0x100]
        0x0000f3ac:    f0420202    B...    ORR      r2,r2,#2
        0x0000f3b0:    f8c12100    ...!    STR      r2,[r1,#0x100]
        0x0000f3b4:    2200        ."      MOVS     r2,#0
        0x0000f3b6:    f8c12104    ...!    STR      r2,[r1,#0x104]
        0x0000f3ba:    6962        bi      LDR      r2,[r4,#0x14]
        0x0000f3bc:    b182        ..      CBZ      r2,0xf3e0 ; am_hal_mspi_control + 1748
        0x0000f3be:    f44f6200    O..b    MOV      r2,#0x800
        0x0000f3c2:    2308        .#      MOVS     r3,#8
        0x0000f3c4:    f8d17268    ..hr    LDR      r7,[r1,#0x268]
        0x0000f3c8:    f027071f    '...    BIC      r7,r7,#0x1f
        0x0000f3cc:    443b        ;D      ADD      r3,r3,r7
        0x0000f3ce:    f8c13268    ..h2    STR      r3,[r1,#0x268]
        0x0000f3d2:    f8d13268    ..h2    LDR      r3,[r1,#0x268]
        0x0000f3d6:    f42353f8    #..S    BIC      r3,r3,#0x1f00
        0x0000f3da:    431a        .C      ORRS     r2,r2,r3
        0x0000f3dc:    f8c12268    ..h"    STR      r2,[r1,#0x268]
        0x0000f3e0:    7260        `r      STRB     r0,[r4,#9]
        0x0000f3e2:    2600        .&      MOVS     r6,#0
        0x0000f3e4:    4630        0F      MOV      r0,r6
        0x0000f3e6:    b002        ..      ADD      sp,sp,#8
        0x0000f3e8:    e8bd87f0    ....    POP      {r4-r10,pc}
        0x0000f3ec:    2802        .(      CMP      r0,#2
        0x0000f3ee:    d037        7.      BEQ      0xf460 ; am_hal_mspi_control + 1876
        0x0000f3f0:    2800        .(      CMP      r0,#0
        0x0000f3f2:    d13c        <.      BNE      0xf46e ; am_hal_mspi_control + 1890
        0x0000f3f4:    69e0        .i      LDR      r0,[r4,#0x1c]
        0x0000f3f6:    b3d0        ..      CBZ      r0,0xf46e ; am_hal_mspi_control + 1890
        0x0000f3f8:    2607        .&      MOVS     r6,#7
        0x0000f3fa:    4630        0F      MOV      r0,r6
        0x0000f3fc:    b002        ..      ADD      sp,sp,#8
        0x0000f3fe:    e8bd87f0    ....    POP      {r4-r10,pc}
        0x0000f402:    bf00        ..      NOP      
        0x0000f404:    68e9        .h      LDR      r1,[r5,#0xc]
        0x0000f406:    aa01        ..      ADD      r2,sp,#4
        0x0000f408:    3103        .1      ADDS     r1,#3
        0x0000f40a:    466b        kF      MOV      r3,sp
        0x0000f40c:    f7fefd30    ..0.    BL       am_hal_cmdq_alloc_block ; 0xde70
        0x0000f410:    b160        `.      CBZ      r0,0xf42c ; am_hal_mspi_control + 1824
        0x0000f412:    2605        .&      MOVS     r6,#5
        0x0000f414:    4630        0F      MOV      r0,r6
        0x0000f416:    b002        ..      ADD      sp,sp,#8
        0x0000f418:    e8bd87f0    ....    POP      {r4-r10,pc}
        0x0000f41c:    2807        .(      CMP      r0,#7
        0x0000f41e:    f43face8    ?...    BEQ      0xedf2 ; am_hal_mspi_control + 230
        0x0000f422:    2606        .&      MOVS     r6,#6
        0x0000f424:    4630        0F      MOV      r0,r6
        0x0000f426:    b002        ..      ADD      sp,sp,#8
        0x0000f428:    e8bd87f0    ....    POP      {r4-r10,pc}
        0x0000f42c:    f2440000    D...    MOVW     r0,#0x4000
        0x0000f430:    f2c50001    ....    MOVT     r0,#0x5001
        0x0000f434:    eb003c07    ...<    ADD      r12,r0,r7,LSL #12
        0x0000f438:    f8dd9004    ....    LDR      r9,[sp,#4]
        0x0000f43c:    f50c7e2e    ...~    ADD      lr,r12,#0x2b8
        0x0000f440:    f8c9e000    ....    STR      lr,[r9,#0]
        0x0000f444:    f8d41834    ..4.    LDR      r1,[r4,#0x834]
        0x0000f448:    2902        .)      CMP      r1,#2
        0x0000f44a:    d025        %.      BEQ      0xf498 ; am_hal_mspi_control + 1932
        0x0000f44c:    6828        (h      LDR      r0,[r5,#0]
        0x0000f44e:    2901        .)      CMP      r1,#1
        0x0000f450:    d126        &.      BNE      0xf4a0 ; am_hal_mspi_control + 1940
        0x0000f452:    f24401a0    D...    MOV      r1,#0x40a0
        0x0000f456:    4308        .C      ORRS     r0,r0,r1
        0x0000f458:    2102        .!      MOVS     r1,#2
        0x0000f45a:    f8c41834    ..4.    STR      r1,[r4,#0x834]
        0x0000f45e:    e021        !.      B        0xf4a4 ; am_hal_mspi_control + 1944
        0x0000f460:    4620         F      MOV      r0,r4
        0x0000f462:    f002fb9d    ....    BL       mspi_cq_pause ; 0x11ba0
        0x0000f466:    4606        .F      MOV      r6,r0
        0x0000f468:    2800        .(      CMP      r0,#0
        0x0000f46a:    f47fac61    ..a.    BNE      0xed30 ; am_hal_mspi_control + 36
        0x0000f46e:    f8d40824    ..$.    LDR      r0,[r4,#0x824]
        0x0000f472:    f7fefeff    ....    BL       am_hal_cmdq_reset ; 0xe274
        0x0000f476:    2600        .&      MOVS     r6,#0
        0x0000f478:    2001        .       MOVS     r0,#1
        0x0000f47a:    f8c4682c    ..,h    STR      r6,[r4,#0x82c]
        0x0000f47e:    e9c46606    ...f    STRD     r6,r6,[r4,#0x18]
        0x0000f482:    f8845828    ..(X    STRB     r5,[r4,#0x828]
        0x0000f486:    f8840829    ..).    STRB     r0,[r4,#0x829]
        0x0000f48a:    f8c46858    ..Xh    STR      r6,[r4,#0x858]
        0x0000f48e:    4630        0F      MOV      r0,r6
        0x0000f490:    b002        ..      ADD      sp,sp,#8
        0x0000f492:    e8bd87f0    ....    POP      {r4-r10,pc}
        0x0000f496:    bf00        ..      NOP      
        0x0000f498:    f44f4080    O..@    MOV      r0,#0x4000
        0x0000f49c:    e002        ..      B        0xf4a4 ; am_hal_mspi_control + 1944
        0x0000f49e:    bf00        ..      NOP      
        0x0000f4a0:    f4404081    @..@    ORR      r0,r0,#0x4080
        0x0000f4a4:    f8c90004    ....    STR      r0,[r9,#4]
        0x0000f4a8:    68e9        .h      LDR      r1,[r5,#0xc]
        0x0000f4aa:    f1090008    ....    ADD      r0,r9,#8
        0x0000f4ae:    b139        9.      CBZ      r1,0xf4c0 ; am_hal_mspi_control + 1972
        0x0000f4b0:    68af        .h      LDR      r7,[r5,#8]
        0x0000f4b2:    1e4b        K.      SUBS     r3,r1,#1
        0x0000f4b4:    2b03        .+      CMP      r3,#3
        0x0000f4b6:    f0010803    ....    AND      r8,r1,#3
        0x0000f4ba:    d203        ..      BCS      0xf4c4 ; am_hal_mspi_control + 1976
        0x0000f4bc:    2100        .!      MOVS     r1,#0
        0x0000f4be:    e024        $.      B        0xf50a ; am_hal_mspi_control + 2046
        0x0000f4c0:    4606        .F      MOV      r6,r0
        0x0000f4c2:    e075        u.      B        0xf5b0 ; am_hal_mspi_control + 2212
        0x0000f4c4:    f0210003    !...    BIC      r0,r1,#3
        0x0000f4c8:    f1c00a00    ....    RSB      r10,r0,#0
        0x0000f4cc:    2000        .       MOVS     r0,#0
        0x0000f4ce:    2100        .!      MOVS     r1,#0
        0x0000f4d0:    587a        zX      LDR      r2,[r7,r1]
        0x0000f4d2:    eb090301    ....    ADD      r3,r9,r1
        0x0000f4d6:    187e        ~.      ADDS     r6,r7,r1
        0x0000f4d8:    609a        .`      STR      r2,[r3,#8]
        0x0000f4da:    6872        rh      LDR      r2,[r6,#4]
        0x0000f4dc:    3804        .8      SUBS     r0,#4
        0x0000f4de:    60da        .`      STR      r2,[r3,#0xc]
        0x0000f4e0:    68b2        .h      LDR      r2,[r6,#8]
        0x0000f4e2:    4582        .E      CMP      r10,r0
        0x0000f4e4:    611a        .a      STR      r2,[r3,#0x10]
        0x0000f4e6:    68f2        .h      LDR      r2,[r6,#0xc]
        0x0000f4e8:    f1010120    .. .    ADD      r1,r1,#0x20
        0x0000f4ec:    615a        Za      STR      r2,[r3,#0x14]
        0x0000f4ee:    6932        2i      LDR      r2,[r6,#0x10]
        0x0000f4f0:    619a        .a      STR      r2,[r3,#0x18]
        0x0000f4f2:    6972        ri      LDR      r2,[r6,#0x14]
        0x0000f4f4:    61da        .a      STR      r2,[r3,#0x1c]
        0x0000f4f6:    69b2        .i      LDR      r2,[r6,#0x18]
        0x0000f4f8:    621a        .b      STR      r2,[r3,#0x20]
        0x0000f4fa:    69f2        .i      LDR      r2,[r6,#0x1c]
        0x0000f4fc:    625a        Zb      STR      r2,[r3,#0x24]
        0x0000f4fe:    d1e7        ..      BNE      0xf4d0 ; am_hal_mspi_control + 1988
        0x0000f500:    4489        .D      ADD      r9,r9,r1
        0x0000f502:    f1090608    ....    ADD      r6,r9,#8
        0x0000f506:    4241        AB      RSBS     r1,r0,#0
        0x0000f508:    4630        0F      MOV      r0,r6
        0x0000f50a:    f1b80f00    ....    CMP      r8,#0
        0x0000f50e:    d04f        O.      BEQ      0xf5b0 ; am_hal_mspi_control + 2212
        0x0000f510:    eb0706c1    ....    ADD      r6,r7,r1,LSL #3
        0x0000f514:    f8577031    W.1p    LDR      r7,[r7,r1,LSL #3]
        0x0000f518:    4601        .F      MOV      r1,r0
        0x0000f51a:    f8417b08    A..{    STR      r7,[r1],#8
        0x0000f51e:    6877        wh      LDR      r7,[r6,#4]
        0x0000f520:    f1b80f01    ....    CMP      r8,#1
        0x0000f524:    f8c9700c    ...p    STR      r7,[r9,#0xc]
        0x0000f528:    d102        ..      BNE      0xf530 ; am_hal_mspi_control + 2084
        0x0000f52a:    460e        .F      MOV      r6,r1
        0x0000f52c:    4681        .F      MOV      r9,r0
        0x0000f52e:    e03f        ?.      B        0xf5b0 ; am_hal_mspi_control + 2212
        0x0000f530:    e9d62702    ...'    LDRD     r2,r7,[r6,#8]
        0x0000f534:    f1b80f02    ....    CMP      r8,#2
        0x0000f538:    f1000910    ....    ADD      r9,r0,#0x10
        0x0000f53c:    e9c02702    ...'    STRD     r2,r7,[r0,#8]
        0x0000f540:    d130        0.      BNE      0xf5a4 ; am_hal_mspi_control + 2200
        0x0000f542:    464e        NF      MOV      r6,r9
        0x0000f544:    4689        .F      MOV      r9,r1
        0x0000f546:    e033        3.      B        0xf5b0 ; am_hal_mspi_control + 2212
        0x0000f548:    f8d40824    ..$.    LDR      r0,[r4,#0x824]
        0x0000f54c:    aa01        ..      ADD      r2,sp,#4
        0x0000f54e:    466b        kF      MOV      r3,sp
        0x0000f550:    2101        .!      MOVS     r1,#1
        0x0000f552:    f7fefc8d    ....    BL       am_hal_cmdq_alloc_block ; 0xde70
        0x0000f556:    4606        .F      MOV      r6,r0
        0x0000f558:    2800        .(      CMP      r0,#0
        0x0000f55a:    f47fabe9    ....    BNE      0xed30 ; am_hal_mspi_control + 36
        0x0000f55e:    f89d0000    ....    LDRB     r0,[sp,#0]
        0x0000f562:    f242013d    B.=.    MOV      r1,#0x203d
        0x0000f566:    f2c00101    ....    MOVT     r1,#1
        0x0000f56a:    eb040080    ....    ADD      r0,r4,r0,LSL #2
        0x0000f56e:    6241        Ab      STR      r1,[r0,#0x24]
        0x0000f570:    f8c04424    ..$D    STR      r4,[r0,#0x424]
        0x0000f574:    eb093007    ...0    ADD      r0,r9,r7,LSL #12
        0x0000f578:    9901        ..      LDR      r1,[sp,#4]
        0x0000f57a:    f500702d    ..-p    ADD      r0,r0,#0x2b4
        0x0000f57e:    2200        ."      MOVS     r2,#0
        0x0000f580:    e9c10200    ....    STRD     r0,r2,[r1,#0]
        0x0000f584:    f7fff904    ....    BL       am_hal_interrupt_master_disable ; 0xe790
        0x0000f588:    f8d41824    ..$.    LDR      r1,[r4,#0x824]
        0x0000f58c:    4680        .F      MOV      r8,r0
        0x0000f58e:    4608        .F      MOV      r0,r1
        0x0000f590:    2101        .!      MOVS     r1,#1
        0x0000f592:    f7fefe09    ....    BL       am_hal_cmdq_post_block ; 0xe1a8
        0x0000f596:    2800        .(      CMP      r0,#0
        0x0000f598:    f00080cc    ....    BEQ.W    0xf734 ; am_hal_mspi_control + 2600
        0x0000f59c:    4606        .F      MOV      r6,r0
        0x0000f59e:    4640        @F      MOV      r0,r8
        0x0000f5a0:    e077        w.      B        0xf692 ; am_hal_mspi_control + 2438
        0x0000f5a2:    bf00        ..      NOP      
        0x0000f5a4:    e9d61304    ....    LDRD     r1,r3,[r6,#0x10]
        0x0000f5a8:    f1000618    ....    ADD      r6,r0,#0x18
        0x0000f5ac:    e9c01304    ....    STRD     r1,r3,[r0,#0x10]
        0x0000f5b0:    69a8        .i      LDR      r0,[r5,#0x18]
        0x0000f5b2:    2800        .(      CMP      r0,#0
        0x0000f5b4:    bf18        ..      IT       NE
        0x0000f5b6:    6006        .`      STRNE    r6,[r0,#0]
        0x0000f5b8:    f50c702d    ..-p    ADD      r0,r12,#0x2b4
        0x0000f5bc:    f8c6e000    ....    STR      lr,[r6,#0]
        0x0000f5c0:    f8490f10    I...    STR      r0,[r9,#0x10]!
        0x0000f5c4:    f44f4080    O..@    MOV      r0,#0x4000
        0x0000f5c8:    f8490c04    I...    STR      r0,[r9,#-4]
        0x0000f5cc:    692e        .i      LDR      r6,[r5,#0x10]
        0x0000f5ce:    6868        hh      LDR      r0,[r5,#4]
        0x0000f5d0:    f8cd9004    ....    STR      r9,[sp,#4]
        0x0000f5d4:    f8c90004    ....    STR      r0,[r9,#4]
        0x0000f5d8:    b93e        >.      CBNZ     r6,0xf5ea ; am_hal_mspi_control + 2270
        0x0000f5da:    f8d40834    ..4.    LDR      r0,[r4,#0x834]
        0x0000f5de:    b918        ..      CBNZ     r0,0xf5e8 ; am_hal_mspi_control + 2268
        0x0000f5e0:    f8940828    ..(.    LDRB     r0,[r4,#0x828]
        0x0000f5e4:    2800        .(      CMP      r0,#0
        0x0000f5e6:    d06f        o.      BEQ      0xf6c8 ; am_hal_mspi_control + 2492
        0x0000f5e8:    2600        .&      MOVS     r6,#0
        0x0000f5ea:    f89d0000    ....    LDRB     r0,[sp,#0]
        0x0000f5ee:    eb040080    ....    ADD      r0,r4,r0,LSL #2
        0x0000f5f2:    6246        Fb      STR      r6,[r0,#0x24]
        0x0000f5f4:    6969        ii      LDR      r1,[r5,#0x14]
        0x0000f5f6:    f8c01424    ..$.    STR      r1,[r0,#0x424]
        0x0000f5fa:    f7fff8c9    ....    BL       am_hal_interrupt_master_disable ; 0xe790
        0x0000f5fe:    4680        .F      MOV      r8,r0
        0x0000f600:    f8d40824    ..$.    LDR      r0,[r4,#0x824]
        0x0000f604:    4631        1F      MOV      r1,r6
        0x0000f606:    2e00        ..      CMP      r6,#0
        0x0000f608:    bf18        ..      IT       NE
        0x0000f60a:    2101        .!      MOVNE    r1,#1
        0x0000f60c:    f7fefdcc    ....    BL       am_hal_cmdq_post_block ; 0xe1a8
        0x0000f610:    4607        .F      MOV      r7,r0
        0x0000f612:    b158        X.      CBZ      r0,0xf62c ; am_hal_mspi_control + 2336
        0x0000f614:    4640        @F      MOV      r0,r8
        0x0000f616:    f7fff8c3    ....    BL       am_hal_interrupt_master_set ; 0xe7a0
        0x0000f61a:    f8d40824    ..$.    LDR      r0,[r4,#0x824]
        0x0000f61e:    f7fefe11    ....    BL       am_hal_cmdq_release_block ; 0xe244
        0x0000f622:    463e        >F      MOV      r6,r7
        0x0000f624:    4630        0F      MOV      r0,r6
        0x0000f626:    b002        ..      ADD      sp,sp,#8
        0x0000f628:    e8bd87f0    ....    POP      {r4-r10,pc}
        0x0000f62c:    f8d4901c    ....    LDR      r9,[r4,#0x1c]
        0x0000f630:    f8d4182c    ..,.    LDR      r1,[r4,#0x82c]
        0x0000f634:    f1090001    ....    ADD      r0,r9,#1
        0x0000f638:    61e0        .a      STR      r0,[r4,#0x1c]
        0x0000f63a:    1c48        H.      ADDS     r0,r1,#1
        0x0000f63c:    f8c4082c    ..,.    STR      r0,[r4,#0x82c]
        0x0000f640:    6928        (i      LDR      r0,[r5,#0x10]
        0x0000f642:    b118        ..      CBZ      r0,0xf64c ; am_hal_mspi_control + 2368
        0x0000f644:    2000        .       MOVS     r0,#0
        0x0000f646:    f8840829    ..).    STRB     r0,[r4,#0x829]
        0x0000f64a:    e04e        N.      B        0xf6ea ; am_hal_mspi_control + 2526
        0x0000f64c:    2e00        ..      CMP      r6,#0
        0x0000f64e:    d049        I.      BEQ      0xf6e4 ; am_hal_mspi_control + 2520
        0x0000f650:    2000        .       MOVS     r0,#0
        0x0000f652:    e04a        J.      B        0xf6ea ; am_hal_mspi_control + 2526
        0x0000f654:    f44f4280    O..B    MOV      r2,#0x4000
        0x0000f658:    e002        ..      B        0xf660 ; am_hal_mspi_control + 2388
        0x0000f65a:    bf00        ..      NOP      
        0x0000f65c:    f4424281    B..B    ORR      r2,r2,#0x4080
        0x0000f660:    6042        B`      STR      r2,[r0,#4]
        0x0000f662:    60c1        .`      STR      r1,[r0,#0xc]
        0x0000f664:    68a9        .h      LDR      r1,[r5,#8]
        0x0000f666:    ea410108    A...    ORR      r1,r1,r8
        0x0000f66a:    6141        Aa      STR      r1,[r0,#0x14]
        0x0000f66c:    f7fff890    ....    BL       am_hal_interrupt_master_disable ; 0xe790
        0x0000f670:    782a        *x      LDRB     r2,[r5,#0]
        0x0000f672:    f8d41824    ..$.    LDR      r1,[r4,#0x824]
        0x0000f676:    4607        .F      MOV      r7,r0
        0x0000f678:    4608        .F      MOV      r0,r1
        0x0000f67a:    f04f0100    O...    MOV      r1,#0
        0x0000f67e:    b11a        ..      CBZ      r2,0xf688 ; am_hal_mspi_control + 2428
        0x0000f680:    f7fefdb6    ....    BL       am_hal_cmdq_post_loop_block ; 0xe1f0
        0x0000f684:    e002        ..      B        0xf68c ; am_hal_mspi_control + 2432
        0x0000f686:    bf00        ..      NOP      
        0x0000f688:    f7fefd8e    ....    BL       am_hal_cmdq_post_block ; 0xe1a8
        0x0000f68c:    4606        .F      MOV      r6,r0
        0x0000f68e:    b158        X.      CBZ      r0,0xf6a8 ; am_hal_mspi_control + 2460
        0x0000f690:    4638        8F      MOV      r0,r7
        0x0000f692:    f7fff885    ....    BL       am_hal_interrupt_master_set ; 0xe7a0
        0x0000f696:    f8d40824    ..$.    LDR      r0,[r4,#0x824]
        0x0000f69a:    f7fefdd3    ....    BL       am_hal_cmdq_release_block ; 0xe244
        0x0000f69e:    4630        0F      MOV      r0,r6
        0x0000f6a0:    b002        ..      ADD      sp,sp,#8
        0x0000f6a2:    e8bd87f0    ....    POP      {r4-r10,pc}
        0x0000f6a6:    bf00        ..      NOP      
        0x0000f6a8:    69e6        .i      LDR      r6,[r4,#0x1c]
        0x0000f6aa:    1c70        p.      ADDS     r0,r6,#1
        0x0000f6ac:    61e0        .a      STR      r0,[r4,#0x1c]
        0x0000f6ae:    7828        (x      LDRB     r0,[r5,#0]
        0x0000f6b0:    0040        @.      LSLS     r0,r0,#1
        0x0000f6b2:    f8840828    ..(.    STRB     r0,[r4,#0x828]
        0x0000f6b6:    4638        8F      MOV      r0,r7
        0x0000f6b8:    f7fff872    ..r.    BL       am_hal_interrupt_master_set ; 0xe7a0
        0x0000f6bc:    b376        v.      CBZ      r6,0xf71c ; am_hal_mspi_control + 2576
        0x0000f6be:    2600        .&      MOVS     r6,#0
        0x0000f6c0:    4630        0F      MOV      r0,r6
        0x0000f6c2:    b002        ..      ADD      sp,sp,#8
        0x0000f6c4:    e8bd87f0    ....    POP      {r4-r10,pc}
        0x0000f6c8:    f8d40854    ..T.    LDR      r0,[r4,#0x854]
        0x0000f6cc:    f8d41858    ..X.    LDR      r1,[r4,#0x858]
        0x0000f6d0:    f6417611    A..v    MOV      r6,#0x1f11
        0x0000f6d4:    f2c00601    ....    MOVT     r6,#1
        0x0000f6d8:    ebb10f50    ..P.    CMP      r1,r0,LSR #1
        0x0000f6dc:    bf38        8.      IT       CC
        0x0000f6de:    2600        .&      MOVCC    r6,#0
        0x0000f6e0:    e783        ..      B        0xf5ea ; am_hal_mspi_control + 2270
        0x0000f6e2:    bf00        ..      NOP      
        0x0000f6e4:    f8d40858    ..X.    LDR      r0,[r4,#0x858]
        0x0000f6e8:    3001        .0      ADDS     r0,#1
        0x0000f6ea:    f8c40858    ..X.    STR      r0,[r4,#0x858]
        0x0000f6ee:    4640        @F      MOV      r0,r8
        0x0000f6f0:    f7fff856    ..V.    BL       am_hal_interrupt_master_set ; 0xe7a0
        0x0000f6f4:    f1b90f00    ....    CMP      r9,#0
        0x0000f6f8:    d004        ..      BEQ      0xf704 ; am_hal_mspi_control + 2552
        0x0000f6fa:    463e        >F      MOV      r6,r7
        0x0000f6fc:    4630        0F      MOV      r0,r6
        0x0000f6fe:    b002        ..      ADD      sp,sp,#8
        0x0000f700:    e8bd87f0    ....    POP      {r4-r10,pc}
        0x0000f704:    f8d40824    ..$.    LDR      r0,[r4,#0x824]
        0x0000f708:    f7fefc36    ..6.    BL       am_hal_cmdq_enable ; 0xdf78
        0x0000f70c:    4606        .F      MOV      r6,r0
        0x0000f70e:    2800        .(      CMP      r0,#0
        0x0000f710:    bf08        ..      IT       EQ
        0x0000f712:    463e        >F      MOVEQ    r6,r7
        0x0000f714:    4630        0F      MOV      r0,r6
        0x0000f716:    b002        ..      ADD      sp,sp,#8
        0x0000f718:    e8bd87f0    ....    POP      {r4-r10,pc}
        0x0000f71c:    f8d40824    ..$.    LDR      r0,[r4,#0x824]
        0x0000f720:    f7fefc2a    ..*.    BL       am_hal_cmdq_enable ; 0xdf78
        0x0000f724:    4606        .F      MOV      r6,r0
        0x0000f726:    2800        .(      CMP      r0,#0
        0x0000f728:    bf08        ..      IT       EQ
        0x0000f72a:    2600        .&      MOVEQ    r6,#0
        0x0000f72c:    4630        0F      MOV      r0,r6
        0x0000f72e:    b002        ..      ADD      sp,sp,#8
        0x0000f730:    e8bd87f0    ....    POP      {r4-r10,pc}
        0x0000f734:    69e6        .i      LDR      r6,[r4,#0x1c]
        0x0000f736:    1c70        p.      ADDS     r0,r6,#1
        0x0000f738:    61e0        .a      STR      r0,[r4,#0x1c]
        0x0000f73a:    4640        @F      MOV      r0,r8
        0x0000f73c:    f7fff830    ..0.    BL       am_hal_interrupt_master_set ; 0xe7a0
        0x0000f740:    b93e        >.      CBNZ     r6,0xf752 ; am_hal_mspi_control + 2630
        0x0000f742:    f8d40824    ..$.    LDR      r0,[r4,#0x824]
        0x0000f746:    f7fefc17    ....    BL       am_hal_cmdq_enable ; 0xdf78
        0x0000f74a:    4606        .F      MOV      r6,r0
        0x0000f74c:    2800        .(      CMP      r0,#0
        0x0000f74e:    f47faaef    ....    BNE      0xed30 ; am_hal_mspi_control + 36
        0x0000f752:    f04f0a40    O.@.    MOV      r10,#0x40
        0x0000f756:    f44f0880    O...    MOV      r8,#0x400000
        0x0000f75a:    e506        ..      B        0xf16a ; am_hal_mspi_control + 1118
    am_hal_mspi_deinitialize
        0x0000f75c:    b5b0        ..      PUSH     {r4,r5,r7,lr}
        0x0000f75e:    b1c8        ..      CBZ      r0,0xf794 ; am_hal_mspi_deinitialize + 56
        0x0000f760:    4604        .F      MOV      r4,r0
        0x0000f762:    6800        .h      LDR      r0,[r0,#0]
        0x0000f764:    f64b61be    K..a    MOV      r1,#0xbebe
        0x0000f768:    f2c011be    ....    MOVT     r1,#0x1be
        0x0000f76c:    f020427e     .~B    BIC      r2,r0,#0xfe000000
        0x0000f770:    428a        .B      CMP      r2,r1
        0x0000f772:    d10f        ..      BNE      0xf794 ; am_hal_mspi_deinitialize + 56
        0x0000f774:    f020427c     .|B    BIC      r2,r0,#0xfc000000
        0x0000f778:    f1017100    ...q    ADD      r1,r1,#0x2000000
        0x0000f77c:    428a        .B      CMP      r2,r1
        0x0000f77e:    d121        !.      BNE      0xf7c4 ; am_hal_mspi_deinitialize + 104
        0x0000f780:    6960        `i      LDR      r0,[r4,#0x14]
        0x0000f782:    b1e0        ..      CBZ      r0,0xf7be ; am_hal_mspi_deinitialize + 98
        0x0000f784:    f8d40824    ..$.    LDR      r0,[r4,#0x824]
        0x0000f788:    f7fefbda    ....    BL       am_hal_cmdq_disable ; 0xdf40
        0x0000f78c:    b120         .      CBZ      r0,0xf798 ; am_hal_mspi_deinitialize + 60
        0x0000f78e:    6820         h      LDR      r0,[r4,#0]
        0x0000f790:    e018        ..      B        0xf7c4 ; am_hal_mspi_deinitialize + 104
        0x0000f792:    bf00        ..      NOP      
        0x0000f794:    2002        .       MOVS     r0,#2
        0x0000f796:    bdb0        ..      POP      {r4,r5,r7,pc}
        0x0000f798:    6860        `h      LDR      r0,[r4,#4]
        0x0000f79a:    f64351d0    C..Q    MOV      r1,#0x3dd0
        0x0000f79e:    f2c10101    ....    MOVT     r1,#0x1001
        0x0000f7a2:    f64002a8    @...    MOV      r2,#0x8a8
        0x0000f7a6:    fb001102    ....    MLA      r1,r0,r2,r1
        0x0000f7aa:    f8d10824    ..$.    LDR      r0,[r1,#0x824]
        0x0000f7ae:    b130        0.      CBZ      r0,0xf7be ; am_hal_mspi_deinitialize + 98
        0x0000f7b0:    f6010524    ..$.    ADD      r5,r1,#0x824
        0x0000f7b4:    2101        .!      MOVS     r1,#1
        0x0000f7b6:    f7fefd8b    ....    BL       am_hal_cmdq_term ; 0xe2d0
        0x0000f7ba:    2000        .       MOVS     r0,#0
        0x0000f7bc:    6028        (`      STR      r0,[r5,#0]
        0x0000f7be:    6820         h      LDR      r0,[r4,#0]
        0x0000f7c0:    f0207000     ..p    BIC      r0,r0,#0x2000000
        0x0000f7c4:    f0207180     ..q    BIC      r1,r0,#0x1000000
        0x0000f7c8:    2000        .       MOVS     r0,#0
        0x0000f7ca:    e9c41000    ....    STRD     r1,r0,[r4,#0]
        0x0000f7ce:    7220         r      STRB     r0,[r4,#8]
        0x0000f7d0:    bdb0        ..      POP      {r4,r5,r7,pc}
        0x0000f7d2:    0000        ..      MOVS     r0,r0
    am_hal_mspi_device_configure
        0x0000f7d4:    e92d41f0    -..A    PUSH     {r4-r8,lr}
        0x0000f7d8:    b330        0.      CBZ      r0,0xf828 ; am_hal_mspi_device_configure + 84
        0x0000f7da:    4604        .F      MOV      r4,r0
        0x0000f7dc:    6800        .h      LDR      r0,[r0,#0]
        0x0000f7de:    f64b62be    K..b    MOV      r2,#0xbebe
        0x0000f7e2:    460d        .F      MOV      r5,r1
        0x0000f7e4:    f020417e     .~A    BIC      r1,r0,#0xfe000000
        0x0000f7e8:    f2c012be    ....    MOVT     r2,#0x1be
        0x0000f7ec:    4291        .B      CMP      r1,r2
        0x0000f7ee:    d11b        ..      BNE      0xf828 ; am_hal_mspi_device_configure + 84
        0x0000f7f0:    0180        ..      LSLS     r0,r0,#6
        0x0000f7f2:    bf44        D.      ITT      MI
        0x0000f7f4:    2007        .       MOVMI    r0,#7
        0x0000f7f6:    e8bd81f0    ....    POPMI    {r4-r8,pc}
        0x0000f7fa:    7968        hy      LDRB     r0,[r5,#5]
        0x0000f7fc:    f8d48004    ....    LDR      r8,[r4,#4]
        0x0000f800:    2806        .(      CMP      r0,#6
        0x0000f802:    d304        ..      BCC      0xf80e ; am_hal_mspi_device_configure + 58
        0x0000f804:    2809        .(      CMP      r0,#9
        0x0000f806:    d802        ..      BHI      0xf80e ; am_hal_mspi_device_configure + 58
        0x0000f808:    f1b80f01    ....    CMP      r8,#1
        0x0000f80c:    d109        ..      BNE      0xf822 ; am_hal_mspi_device_configure + 78
        0x0000f80e:    69aa        .i      LDR      r2,[r5,#0x18]
        0x0000f810:    f2400e00    @...    MOVW     lr,#0
        0x0000f814:    f1b25f80    ..._    CMP      r2,#0x10000000
        0x0000f818:    f2c10e01    ....    MOVT     lr,#0x1001
        0x0000f81c:    d308        ..      BCC      0xf830 ; am_hal_mspi_device_configure + 92
        0x0000f81e:    4572        rE      CMP      r2,lr
        0x0000f820:    d206        ..      BCS      0xf830 ; am_hal_mspi_device_configure + 92
        0x0000f822:    2005        .       MOVS     r0,#5
        0x0000f824:    e8bd81f0    ....    POP      {r4-r8,pc}
        0x0000f828:    2002        .       MOVS     r0,#2
        0x0000f82a:    e8bd81f0    ....    POP      {r4-r8,pc}
        0x0000f82e:    bf00        ..      NOP      
        0x0000f830:    79ea        .y      LDRB     r2,[r5,#7]
        0x0000f832:    2300        .#      MOVS     r3,#0
        0x0000f834:    3a01        .:      SUBS     r2,#1
        0x0000f836:    b2d2        ..      UXTB     r2,r2
        0x0000f838:    2a02        .*      CMP      r2,#2
        0x0000f83a:    bf9c        ..      ITT      LS
        0x0000f83c:    a363        c.      ADRLS    r3,{pc}+0x190 ; 0xf9cc
        0x0000f83e:    f8533022    S."0    LDRLS    r3,[r3,r2,LSL #2]
        0x0000f842:    782a        *x      LDRB     r2,[r5,#0]
        0x0000f844:    7868        hx      LDRB     r0,[r5,#1]
        0x0000f846:    78ae        .x      LDRB     r6,[r5,#2]
        0x0000f848:    f002023f    ..?.    AND      r2,r2,#0x3f
        0x0000f84c:    79af        .y      LDRB     r7,[r5,#6]
        0x0000f84e:    ea432202    C.."    ORR      r2,r3,r2,LSL #8
        0x0000f852:    f0000003    ....    AND      r0,r0,#3
        0x0000f856:    ea421000    B...    ORR      r0,r2,r0,LSL #4
        0x0000f85a:    f0060201    ....    AND      r2,r6,#1
        0x0000f85e:    ea401082    @...    ORR      r0,r0,r2,LSL #6
        0x0000f862:    f007023f    ..?.    AND      r2,r7,#0x3f
        0x0000f866:    ea405202    @..R    ORR      r2,r0,r2,LSL #20
        0x0000f86a:    eb0e3008    ...0    ADD      r0,lr,r8,LSL #12
        0x0000f86e:    f1002040    ..@     ADD      r0,r0,#0x40004000
        0x0000f872:    6042        B`      STR      r2,[r0,#4]
        0x0000f874:    7a2a        *z      LDRB     r2,[r5,#8]
        0x0000f876:    f8d03100    ...1    LDR      r3,[r0,#0x100]
        0x0000f87a:    f002023f    ..?.    AND      r2,r2,#0x3f
        0x0000f87e:    f423537c    #.|S    BIC      r3,r3,#0x3f00
        0x0000f882:    ea432202    C.."    ORR      r2,r3,r2,LSL #8
        0x0000f886:    f8c02100    ...!    STR      r2,[r0,#0x100]
        0x0000f88a:    7a2a        *z      LDRB     r2,[r5,#8]
        0x0000f88c:    f8d03100    ...1    LDR      r3,[r0,#0x100]
        0x0000f890:    2a01        .*      CMP      r2,#1
        0x0000f892:    f0230308    #...    BIC      r3,r3,#8
        0x0000f896:    bf08        ..      IT       EQ
        0x0000f898:    3308        .3      ADDEQ    r3,r3,#8
        0x0000f89a:    f8c03100    ...1    STR      r3,[r0,#0x100]
        0x0000f89e:    f8d02100    ...!    LDR      r2,[r0,#0x100]
        0x0000f8a2:    f04f0c00    O...    MOV      r12,#0
        0x0000f8a6:    f0220204    "...    BIC      r2,r2,#4
        0x0000f8aa:    f8c02100    ...!    STR      r2,[r0,#0x100]
        0x0000f8ae:    f8d02100    ...!    LDR      r2,[r0,#0x100]
        0x0000f8b2:    f0420202    B...    ORR      r2,r2,#2
        0x0000f8b6:    f8c02100    ...!    STR      r2,[r0,#0x100]
        0x0000f8ba:    f8c0c104    ....    STR      r12,[r0,#0x104]
        0x0000f8be:    f8d02100    ...!    LDR      r2,[r0,#0x100]
        0x0000f8c2:    f0220201    "...    BIC      r2,r2,#1
        0x0000f8c6:    f8c02100    ...!    STR      r2,[r0,#0x100]
        0x0000f8ca:    7aef        .z      LDRB     r7,[r5,#0xb]
        0x0000f8cc:    7aab        .z      LDRB     r3,[r5,#0xa]
        0x0000f8ce:    01f9        ..      LSLS     r1,r7,#7
        0x0000f8d0:    3140        @1      ADDS     r1,r1,#0x40
        0x0000f8d2:    7a6a        jz      LDRB     r2,[r5,#9]
        0x0000f8d4:    7b2e        .{      LDRB     r6,[r5,#0xc]
        0x0000f8d6:    2b00        .+      CMP      r3,#0
        0x0000f8d8:    bf08        ..      IT       EQ
        0x0000f8da:    01f9        ..      LSLEQ    r1,r7,#7
        0x0000f8dc:    7aa3        .z      LDRB     r3,[r4,#0xa]
        0x0000f8de:    2e00        ..      CMP      r6,#0
        0x0000f8e0:    bf18        ..      IT       NE
        0x0000f8e2:    3120         1      ADDNE    r1,r1,#0x20
        0x0000f8e4:    f003030f    ....    AND      r3,r3,#0xf
        0x0000f8e8:    ea411103    A...    ORR      r1,r1,r3,LSL #4
        0x0000f8ec:    ea4121c2    A..!    ORR      r1,r1,r2,LSL #11
        0x0000f8f0:    f041010c    A...    ORR      r1,r1,#0xc
        0x0000f8f4:    f8c01120    .. .    STR      r1,[r0,#0x120]
        0x0000f8f8:    78e9        .x      LDRB     r1,[r5,#3]
        0x0000f8fa:    792a        *y      LDRB     r2,[r5,#4]
        0x0000f8fc:    f64003a8    @...    MOV      r3,#0x8a8
        0x0000f900:    ea424101    B..A    ORR      r1,r2,r1,LSL #16
        0x0000f904:    f8c01124    ..$.    STR      r1,[r0,#0x124]
        0x0000f908:    89e9        ..      LDRH     r1,[r5,#0xe]
        0x0000f90a:    7c2a        *|      LDRB     r2,[r5,#0x10]
        0x0000f90c:    f36f311f    o..1    BFC      r1,#12,#20
        0x0000f910:    f362310f    b..1    BFI      r1,r2,#12,#4
        0x0000f914:    f8c0126c    ..l.    STR      r1,[r0,#0x26c]
        0x0000f918:    f64351d0    C..Q    MOV      r1,#0x3dd0
        0x0000f91c:    f2c10101    ....    MOVT     r1,#0x1001
        0x0000f920:    fb081103    ....    MLA      r1,r8,r3,r1
        0x0000f924:    69ab        .i      LDR      r3,[r5,#0x18]
        0x0000f926:    696a        ji      LDR      r2,[r5,#0x14]
        0x0000f928:    610a        .a      STR      r2,[r1,#0x10]
        0x0000f92a:    614b        Ka      STR      r3,[r1,#0x14]
        0x0000f92c:    b37b        {.      CBZ      r3,0xf98e ; am_hal_mspi_device_configure + 442
        0x0000f92e:    2220         "      MOVS     r2,#0x20
        0x0000f930:    f8c02264    ..d"    STR      r2,[r0,#0x264]
        0x0000f934:    7a2a        *z      LDRB     r2,[r5,#8]
        0x0000f936:    f8d03268    ..h2    LDR      r3,[r0,#0x268]
        0x0000f93a:    2708        .'      MOVS     r7,#8
        0x0000f93c:    f0230317    #...    BIC      r3,r3,#0x17
        0x0000f940:    2a01        .*      CMP      r2,#1
        0x0000f942:    bf08        ..      IT       EQ
        0x0000f944:    270c        .'      MOVEQ    r7,#0xc
        0x0000f946:    ea430307    C...    ORR      r3,r3,r7
        0x0000f94a:    f8c03268    ..h2    STR      r3,[r0,#0x268]
        0x0000f94e:    f8d03268    ..h2    LDR      r3,[r0,#0x268]
        0x0000f952:    f44f6200    O..b    MOV      r2,#0x800
        0x0000f956:    bf08        ..      IT       EQ
        0x0000f958:    f44f6280    O..b    MOVEQ    r2,#0x400
        0x0000f95c:    f42353f8    #..S    BIC      r3,r3,#0x1f00
        0x0000f960:    441a        .D      ADD      r2,r2,r3
        0x0000f962:    f8c02268    ..h"    STR      r2,[r0,#0x268]
        0x0000f966:    696a        ji      LDR      r2,[r5,#0x14]
        0x0000f968:    f06f031f    o...    MVN      r3,#0x1f
        0x0000f96c:    eb030282    ....    ADD      r2,r3,r2,LSL #2
        0x0000f970:    f64833a3    H..3    MOV      r3,#0x8ba3
        0x0000f974:    f6cb232e    ...#    MOVT     r3,#0xba2e
        0x0000f978:    fba23703    ...7    UMULL    r3,r7,r2,r3
        0x0000f97c:    09bb        ..      LSRS     r3,r7,#6
        0x0000f97e:    f6450757    E.W.    MOV      r7,#0x5857
        0x0000f982:    42ba        .B      CMP      r2,r7
        0x0000f984:    bf88        ..      IT       HI
        0x0000f986:    f44f7380    O..s    MOVHI    r3,#0x100
        0x0000f98a:    f8c13854    ..T8    STR      r3,[r1,#0x854]
        0x0000f98e:    8be9        ..      LDRH     r1,[r5,#0x1e]
        0x0000f990:    6a2a        *j      LDR      r2,[r5,#0x20]
        0x0000f992:    2300        .#      MOVS     r3,#0
        0x0000f994:    f2c033ff    ...3    MOVT     r3,#0x3ff
        0x0000f998:    f36f219f    o..!    BFC      r1,#10,#22
        0x0000f99c:    401a        .@      ANDS     r2,r2,r3
        0x0000f99e:    4411        .D      ADD      r1,r1,r2
        0x0000f9a0:    f8c01128    ..(.    STR      r1,[r0,#0x128]
        0x0000f9a4:    f8d01100    ....    LDR      r1,[r0,#0x100]
        0x0000f9a8:    2207        ."      MOVS     r2,#7
        0x0000f9aa:    f3621107    b...    BFI      r1,r2,#4,#4
        0x0000f9ae:    f8c01100    ....    STR      r1,[r0,#0x100]
        0x0000f9b2:    7969        iy      LDRB     r1,[r5,#5]
        0x0000f9b4:    6860        `h      LDR      r0,[r4,#4]
        0x0000f9b6:    f002f935    ..5.    BL       mspi_device_configure ; 0x11c24
        0x0000f9ba:    7a29        )z      LDRB     r1,[r5,#8]
        0x0000f9bc:    2000        .       MOVS     r0,#0
        0x0000f9be:    7261        ar      STRB     r1,[r4,#9]
        0x0000f9c0:    f2427110    B..q    MOV      r1,#0x2710
        0x0000f9c4:    72a0        .r      STRB     r0,[r4,#0xa]
        0x0000f9c6:    60e1        .`      STR      r1,[r4,#0xc]
        0x0000f9c8:    e8bd81f0    ....    POP      {r4-r8,pc}
    $d.5
        0x0000f9cc:    00020000    ....    DCD    131072
        0x0000f9d0:    00010000    ....    DCD    65536
        0x0000f9d4:    00030000    ....    DCD    196608
    $t.2
    am_hal_mspi_disable
        0x0000f9d8:    b5b0        ..      PUSH     {r4,r5,r7,lr}
        0x0000f9da:    b378        x.      CBZ      r0,0xfa3c ; am_hal_mspi_disable + 100
        0x0000f9dc:    4604        .F      MOV      r4,r0
        0x0000f9de:    6800        .h      LDR      r0,[r0,#0]
        0x0000f9e0:    f64b62be    K..b    MOV      r2,#0xbebe
        0x0000f9e4:    f020417e     .~A    BIC      r1,r0,#0xfe000000
        0x0000f9e8:    f2c012be    ....    MOVT     r2,#0x1be
        0x0000f9ec:    4291        .B      CMP      r1,r2
        0x0000f9ee:    d125        %.      BNE      0xfa3c ; am_hal_mspi_disable + 100
        0x0000f9f0:    0180        ..      LSLS     r0,r0,#6
        0x0000f9f2:    bf5c        \.      ITT      PL
        0x0000f9f4:    2000        .       MOVPL    r0,#0
        0x0000f9f6:    bdb0        ..      POPPL    {r4,r5,r7,pc}
        0x0000f9f8:    6960        `i      LDR      r0,[r4,#0x14]
        0x0000f9fa:    b1c8        ..      CBZ      r0,0xfa30 ; am_hal_mspi_disable + 88
        0x0000f9fc:    f8d40824    ..$.    LDR      r0,[r4,#0x824]
        0x0000fa00:    f7fefa9e    ....    BL       am_hal_cmdq_disable ; 0xdf40
        0x0000fa04:    2800        .(      CMP      r0,#0
        0x0000fa06:    bf18        ..      IT       NE
        0x0000fa08:    bdb0        ..      POPNE    {r4,r5,r7,pc}
        0x0000fa0a:    6860        `h      LDR      r0,[r4,#4]
        0x0000fa0c:    f64351d0    C..Q    MOV      r1,#0x3dd0
        0x0000fa10:    f2c10101    ....    MOVT     r1,#0x1001
        0x0000fa14:    f64002a8    @...    MOV      r2,#0x8a8
        0x0000fa18:    fb001102    ....    MLA      r1,r0,r2,r1
        0x0000fa1c:    f8d10824    ..$.    LDR      r0,[r1,#0x824]
        0x0000fa20:    b130        0.      CBZ      r0,0xfa30 ; am_hal_mspi_disable + 88
        0x0000fa22:    f6010524    ..$.    ADD      r5,r1,#0x824
        0x0000fa26:    2101        .!      MOVS     r1,#1
        0x0000fa28:    f7fefc52    ..R.    BL       am_hal_cmdq_term ; 0xe2d0
        0x0000fa2c:    2000        .       MOVS     r0,#0
        0x0000fa2e:    6028        (`      STR      r0,[r5,#0]
        0x0000fa30:    6820         h      LDR      r0,[r4,#0]
        0x0000fa32:    f0207000     ..p    BIC      r0,r0,#0x2000000
        0x0000fa36:    6020         `      STR      r0,[r4,#0]
        0x0000fa38:    2000        .       MOVS     r0,#0
        0x0000fa3a:    bdb0        ..      POP      {r4,r5,r7,pc}
        0x0000fa3c:    2002        .       MOVS     r0,#2
        0x0000fa3e:    bdb0        ..      POP      {r4,r5,r7,pc}
    am_hal_mspi_enable
        0x0000fa40:    b5b0        ..      PUSH     {r4,r5,r7,lr}
        0x0000fa42:    b084        ..      SUB      sp,sp,#0x10
        0x0000fa44:    2800        .(      CMP      r0,#0
        0x0000fa46:    d049        I.      BEQ      0xfadc ; am_hal_mspi_enable + 156
        0x0000fa48:    4604        .F      MOV      r4,r0
        0x0000fa4a:    6800        .h      LDR      r0,[r0,#0]
        0x0000fa4c:    f64b62be    K..b    MOV      r2,#0xbebe
        0x0000fa50:    f020417e     .~A    BIC      r1,r0,#0xfe000000
        0x0000fa54:    f2c012be    ....    MOVT     r2,#0x1be
        0x0000fa58:    4291        .B      CMP      r1,r2
        0x0000fa5a:    d13f        ?.      BNE      0xfadc ; am_hal_mspi_enable + 156
        0x0000fa5c:    6961        ai      LDR      r1,[r4,#0x14]
        0x0000fa5e:    b3b1        ..      CBZ      r1,0xface ; am_hal_mspi_enable + 142
        0x0000fa60:    6922        "i      LDR      r2,[r4,#0x10]
        0x0000fa62:    9102        ..      STR      r1,[sp,#8]
        0x0000fa64:    0851        Q.      LSRS     r1,r2,#1
        0x0000fa66:    9101        ..      STR      r1,[sp,#4]
        0x0000fa68:    2101        .!      MOVS     r1,#1
        0x0000fa6a:    6860        `h      LDR      r0,[r4,#4]
        0x0000fa6c:    f88d100c    ....    STRB     r1,[sp,#0xc]
        0x0000fa70:    f64351d0    C..Q    MOV      r1,#0x3dd0
        0x0000fa74:    f2c10101    ....    MOVT     r1,#0x1001
        0x0000fa78:    f64002a8    @...    MOV      r2,#0x8a8
        0x0000fa7c:    fb001102    ....    MLA      r1,r0,r2,r1
        0x0000fa80:    3006        .0      ADDS     r0,#6
        0x0000fa82:    2500        .%      MOVS     r5,#0
        0x0000fa84:    f6010224    ..$.    ADD      r2,r1,#0x824
        0x0000fa88:    b2c0        ..      UXTB     r0,r0
        0x0000fa8a:    a901        ..      ADD      r1,sp,#4
        0x0000fa8c:    e9c45506    ...U    STRD     r5,r5,[r4,#0x18]
        0x0000fa90:    f7fefb2a    ..*.    BL       am_hal_cmdq_init ; 0xe0e8
        0x0000fa94:    6860        `h      LDR      r0,[r4,#4]
        0x0000fa96:    f24421b4    D..!    MOV      r1,#0x42b4
        0x0000fa9a:    2280        ."      MOVS     r2,#0x80
        0x0000fa9c:    0300        ..      LSLS     r0,r0,#12
        0x0000fa9e:    f2c50101    ....    MOVT     r1,#0x5001
        0x0000faa2:    f2c00240    ..@.    MOVT     r2,#0x40
        0x0000faa6:    500a        .P      STR      r2,[r1,r0]
        0x0000faa8:    f8c45850    ..PX    STR      r5,[r4,#0x850]
        0x0000faac:    f8845838    ..8X    STRB     r5,[r4,#0x838]
        0x0000fab0:    f44f7080    O..p    MOV      r0,#0x100
        0x0000fab4:    f8a40828    ..(.    STRH     r0,[r4,#0x828]
        0x0000fab8:    6820         h      LDR      r0,[r4,#0]
        0x0000faba:    f8c45834    ..4X    STR      r5,[r4,#0x834]
        0x0000fabe:    f8c4583c    ..<X    STR      r5,[r4,#0x83c]
        0x0000fac2:    f8c45840    ..@X    STR      r5,[r4,#0x840]
        0x0000fac6:    f8c4582c    ..,X    STR      r5,[r4,#0x82c]
        0x0000faca:    f8c45858    ..XX    STR      r5,[r4,#0x858]
        0x0000face:    f0407000    @..p    ORR      r0,r0,#0x2000000
        0x0000fad2:    6020         `      STR      r0,[r4,#0]
        0x0000fad4:    2000        .       MOVS     r0,#0
        0x0000fad6:    b004        ..      ADD      sp,sp,#0x10
        0x0000fad8:    bdb0        ..      POP      {r4,r5,r7,pc}
        0x0000fada:    bf00        ..      NOP      
        0x0000fadc:    2002        .       MOVS     r0,#2
        0x0000fade:    b004        ..      ADD      sp,sp,#0x10
        0x0000fae0:    bdb0        ..      POP      {r4,r5,r7,pc}
        0x0000fae2:    0000        ..      MOVS     r0,r0
    am_hal_mspi_initialize
        0x0000fae4:    b580        ..      PUSH     {r7,lr}
        0x0000fae6:    2802        .(      CMP      r0,#2
        0x0000fae8:    bf84        ..      ITT      HI
        0x0000faea:    2005        .       MOVHI    r0,#5
        0x0000faec:    bd80        ..      POPHI    {r7,pc}
        0x0000faee:    b1d9        ..      CBZ      r1,0xfb28 ; am_hal_mspi_initialize + 68
        0x0000faf0:    f6435cd0    C..\    MOV      r12,#0x3dd0
        0x0000faf4:    f6400ea8    @...    MOV      lr,#0x8a8
        0x0000faf8:    f2c10c01    ....    MOVT     r12,#0x1001
        0x0000fafc:    fb00f20e    ....    MUL      r2,r0,lr
        0x0000fb00:    f85c2002    \..     LDR      r2,[r12,r2]
        0x0000fb04:    01d3        ..      LSLS     r3,r2,#7
        0x0000fb06:    bf44        D.      ITT      MI
        0x0000fb08:    2007        .       MOVMI    r0,#7
        0x0000fb0a:    bd80        ..      POPMI    {r7,pc}
        0x0000fb0c:    f64b63be    K..c    MOV      r3,#0xbebe
        0x0000fb10:    fb00cc0e    ....    MLA      r12,r0,lr,r12
        0x0000fb14:    f2c013be    ....    MOVT     r3,#0x1be
        0x0000fb18:    f3630218    c...    BFI      r2,r3,#0,#25
        0x0000fb1c:    e9cc2000    ...     STRD     r2,r0,[r12,#0]
        0x0000fb20:    2000        .       MOVS     r0,#0
        0x0000fb22:    f8c1c000    ....    STR      r12,[r1,#0]
        0x0000fb26:    bd80        ..      POP      {r7,pc}
        0x0000fb28:    2006        .       MOVS     r0,#6
        0x0000fb2a:    bd80        ..      POP      {r7,pc}
    am_hal_mspi_interrupt_clear
        0x0000fb2c:    b190        ..      CBZ      r0,0xfb54 ; am_hal_mspi_interrupt_clear + 40
        0x0000fb2e:    6802        .h      LDR      r2,[r0,#0]
        0x0000fb30:    f64b63be    K..c    MOV      r3,#0xbebe
        0x0000fb34:    f022427e    ".~B    BIC      r2,r2,#0xfe000000
        0x0000fb38:    f2c013be    ....    MOVT     r3,#0x1be
        0x0000fb3c:    429a        .B      CMP      r2,r3
        0x0000fb3e:    d109        ..      BNE      0xfb54 ; am_hal_mspi_interrupt_clear + 40
        0x0000fb40:    6840        @h      LDR      r0,[r0,#4]
        0x0000fb42:    f2442208    D.."    MOV      r2,#0x4208
        0x0000fb46:    0300        ..      LSLS     r0,r0,#12
        0x0000fb48:    f2c50201    ....    MOVT     r2,#0x5001
        0x0000fb4c:    5011        .P      STR      r1,[r2,r0]
        0x0000fb4e:    2000        .       MOVS     r0,#0
        0x0000fb50:    4770        pG      BX       lr
        0x0000fb52:    bf00        ..      NOP      
        0x0000fb54:    2002        .       MOVS     r0,#2
        0x0000fb56:    4770        pG      BX       lr
    am_hal_mspi_interrupt_disable
        0x0000fb58:    b1a0        ..      CBZ      r0,0xfb84 ; am_hal_mspi_interrupt_disable + 44
        0x0000fb5a:    6802        .h      LDR      r2,[r0,#0]
        0x0000fb5c:    f64b63be    K..c    MOV      r3,#0xbebe
        0x0000fb60:    f022427e    ".~B    BIC      r2,r2,#0xfe000000
        0x0000fb64:    f2c013be    ....    MOVT     r3,#0x1be
        0x0000fb68:    429a        .B      CMP      r2,r3
        0x0000fb6a:    d10b        ..      BNE      0xfb84 ; am_hal_mspi_interrupt_disable + 44
        0x0000fb6c:    6840        @h      LDR      r0,[r0,#4]
        0x0000fb6e:    f2442200    D.."    MOVW     r2,#0x4200
        0x0000fb72:    0300        ..      LSLS     r0,r0,#12
        0x0000fb74:    f2c50201    ....    MOVT     r2,#0x5001
        0x0000fb78:    5813        .X      LDR      r3,[r2,r0]
        0x0000fb7a:    ea230101    #...    BIC      r1,r3,r1
        0x0000fb7e:    5011        .P      STR      r1,[r2,r0]
        0x0000fb80:    2000        .       MOVS     r0,#0
        0x0000fb82:    4770        pG      BX       lr
        0x0000fb84:    2002        .       MOVS     r0,#2
        0x0000fb86:    4770        pG      BX       lr
    am_hal_mspi_interrupt_enable
        0x0000fb88:    b1a0        ..      CBZ      r0,0xfbb4 ; am_hal_mspi_interrupt_enable + 44
        0x0000fb8a:    6802        .h      LDR      r2,[r0,#0]
        0x0000fb8c:    f64b63be    K..c    MOV      r3,#0xbebe
        0x0000fb90:    f022427e    ".~B    BIC      r2,r2,#0xfe000000
        0x0000fb94:    f2c013be    ....    MOVT     r3,#0x1be
        0x0000fb98:    429a        .B      CMP      r2,r3
        0x0000fb9a:    d10b        ..      BNE      0xfbb4 ; am_hal_mspi_interrupt_enable + 44
        0x0000fb9c:    6840        @h      LDR      r0,[r0,#4]
        0x0000fb9e:    f2442200    D.."    MOVW     r2,#0x4200
        0x0000fba2:    0300        ..      LSLS     r0,r0,#12
        0x0000fba4:    f2c50201    ....    MOVT     r2,#0x5001
        0x0000fba8:    5813        .X      LDR      r3,[r2,r0]
        0x0000fbaa:    4319        .C      ORRS     r1,r1,r3
        0x0000fbac:    5011        .P      STR      r1,[r2,r0]
        0x0000fbae:    2000        .       MOVS     r0,#0
        0x0000fbb0:    4770        pG      BX       lr
        0x0000fbb2:    bf00        ..      NOP      
        0x0000fbb4:    2002        .       MOVS     r0,#2
        0x0000fbb6:    4770        pG      BX       lr
    am_hal_mspi_interrupt_service
        0x0000fbb8:    e92d43f0    -..C    PUSH     {r4-r9,lr}
        0x0000fbbc:    b085        ..      SUB      sp,sp,#0x14
        0x0000fbbe:    2800        .(      CMP      r0,#0
        0x0000fbc0:    d04c        L.      BEQ      0xfc5c ; am_hal_mspi_interrupt_service + 164
        0x0000fbc2:    4604        .F      MOV      r4,r0
        0x0000fbc4:    6800        .h      LDR      r0,[r0,#0]
        0x0000fbc6:    460d        .F      MOV      r5,r1
        0x0000fbc8:    f64b61be    K..a    MOV      r1,#0xbebe
        0x0000fbcc:    f020407e     .~@    BIC      r0,r0,#0xfe000000
        0x0000fbd0:    f2c011be    ....    MOVT     r1,#0x1be
        0x0000fbd4:    4288        .B      CMP      r0,r1
        0x0000fbd6:    d141        A.      BNE      0xfc5c ; am_hal_mspi_interrupt_service + 164
        0x0000fbd8:    6866        fh      LDR      r6,[r4,#4]
        0x0000fbda:    f8940838    ..8.    LDRB     r0,[r4,#0x838]
        0x0000fbde:    2800        .(      CMP      r0,#0
        0x0000fbe0:    d040        @.      BEQ      0xfc64 ; am_hal_mspi_interrupt_service + 172
        0x0000fbe2:    6a20         j      LDR      r0,[r4,#0x20]
        0x0000fbe4:    4328        (C      ORRS     r0,r0,r5
        0x0000fbe6:    f4105fc6    ..._    TST      r0,#0x18c0
        0x0000fbea:    6220         b      STR      r0,[r4,#0x20]
        0x0000fbec:    d074        t.      BEQ      0xfcd8 ; am_hal_mspi_interrupt_service + 288
        0x0000fbee:    f2440800    D...    MOVW     r8,#0x4000
        0x0000fbf2:    f2c50801    ....    MOVT     r8,#0x5001
        0x0000fbf6:    eb083606    ...6    ADD      r6,r8,r6,LSL #12
        0x0000fbfa:    f8d61254    ..T.    LDR      r1,[r6,#0x254]
        0x0000fbfe:    07c9        ..      LSLS     r1,r1,#31
        0x0000fc00:    d00c        ..      BEQ      0xfc1c ; am_hal_mspi_interrupt_service + 100
        0x0000fc02:    f8d61254    ..T.    LDR      r1,[r6,#0x254]
        0x0000fc06:    07c9        ..      LSLS     r1,r1,#31
        0x0000fc08:    bf1c        ..      ITT      NE
        0x0000fc0a:    f8d61254    ..T.    LDRNE    r1,[r6,#0x254]
        0x0000fc0e:    ea5f71c1    _..q    LSLSNE   r1,r1,#31
        0x0000fc12:    d003        ..      BEQ      0xfc1c ; am_hal_mspi_interrupt_service + 100
        0x0000fc14:    f8d61254    ..T.    LDR      r1,[r6,#0x254]
        0x0000fc18:    07c9        ..      LSLS     r1,r1,#31
        0x0000fc1a:    d1ee        ..      BNE      0xfbfa ; am_hal_mspi_interrupt_service + 66
        0x0000fc1c:    f8d61204    ....    LDR      r1,[r6,#0x204]
        0x0000fc20:    4308        .C      ORRS     r0,r0,r1
        0x0000fc22:    6220         b      STR      r0,[r4,#0x20]
        0x0000fc24:    f04f30ff    O..0    MOV      r0,#0xffffffff
        0x0000fc28:    f8c60208    ....    STR      r0,[r6,#0x208]
        0x0000fc2c:    8c20         .      LDRH     r0,[r4,#0x20]
        0x0000fc2e:    f4105fc4    ..._    TST      r0,#0x1880
        0x0000fc32:    d055        U.      BEQ      0xfce0 ; am_hal_mspi_interrupt_service + 296
        0x0000fc34:    f8d60250    ..P.    LDR      r0,[r6,#0x250]
        0x0000fc38:    2101        .!      MOVS     r1,#1
        0x0000fc3a:    f0200003     ...    BIC      r0,r0,#3
        0x0000fc3e:    f8c60250    ..P.    STR      r0,[r6,#0x250]
        0x0000fc42:    f8d60100    ....    LDR      r0,[r6,#0x100]
        0x0000fc46:    f0204080     ..@    BIC      r0,r0,#0x40000000
        0x0000fc4a:    f8c60100    ....    STR      r0,[r6,#0x100]
        0x0000fc4e:    f8d60100    ....    LDR      r0,[r6,#0x100]
        0x0000fc52:    f0404080    @..@    ORR      r0,r0,#0x40000000
        0x0000fc56:    f8c60100    ....    STR      r0,[r6,#0x100]
        0x0000fc5a:    e042        B.      B        0xfce2 ; am_hal_mspi_interrupt_service + 298
        0x0000fc5c:    2002        .       MOVS     r0,#2
        0x0000fc5e:    b005        ..      ADD      sp,sp,#0x14
        0x0000fc60:    e8bd83f0    ....    POP      {r4-r9,pc}
        0x0000fc64:    69e0        .i      LDR      r0,[r4,#0x1c]
        0x0000fc66:    b3b8        ..      CBZ      r0,0xfcd8 ; am_hal_mspi_interrupt_service + 288
        0x0000fc68:    f64350d0    C..P    MOV      r0,#0x3dd0
        0x0000fc6c:    f2c10001    ....    MOVT     r0,#0x1001
        0x0000fc70:    f64001a8    @...    MOV      r1,#0x8a8
        0x0000fc74:    fb060901    ....    MLA      r9,r6,r1,r0
        0x0000fc78:    f8d90824    ..$.    LDR      r0,[r9,#0x824]
        0x0000fc7c:    2800        .(      CMP      r0,#0
        0x0000fc7e:    f000808c    ....    BEQ.W    0xfd9a ; am_hal_mspi_interrupt_service + 482
        0x0000fc82:    a901        ..      ADD      r1,sp,#4
        0x0000fc84:    f7fef9e2    ....    BL       am_hal_cmdq_get_status ; 0xe04c
        0x0000fc88:    2800        .(      CMP      r0,#0
        0x0000fc8a:    f0408086    @...    BNE.W    0xfd9a ; am_hal_mspi_interrupt_service + 482
        0x0000fc8e:    f04f0800    O...    MOV      r8,#0
        0x0000fc92:    f8848830    ..0.    STRB     r8,[r4,#0x830]
        0x0000fc96:    f8940830    ..0.    LDRB     r0,[r4,#0x830]
        0x0000fc9a:    2800        .(      CMP      r0,#0
        0x0000fc9c:    d17a        z.      BNE      0xfd94 ; am_hal_mspi_interrupt_service + 476
        0x0000fc9e:    69a0        .i      LDR      r0,[r4,#0x18]
        0x0000fca0:    9901        ..      LDR      r1,[sp,#4]
        0x0000fca2:    4288        .B      CMP      r0,r1
        0x0000fca4:    d076        v.      BEQ      0xfd94 ; am_hal_mspi_interrupt_service + 476
        0x0000fca6:    3001        .0      ADDS     r0,#1
        0x0000fca8:    61a0        .a      STR      r0,[r4,#0x18]
        0x0000fcaa:    b2c0        ..      UXTB     r0,r0
        0x0000fcac:    eb040080    ....    ADD      r0,r4,r0,LSL #2
        0x0000fcb0:    4607        .F      MOV      r7,r0
        0x0000fcb2:    69e1        .i      LDR      r1,[r4,#0x1c]
        0x0000fcb4:    f8572f24    W.$/    LDR      r2,[r7,#0x24]!
        0x0000fcb8:    3901        .9      SUBS     r1,#1
        0x0000fcba:    2a00        .*      CMP      r2,#0
        0x0000fcbc:    61e1        .a      STR      r1,[r4,#0x1c]
        0x0000fcbe:    d0ea        ..      BEQ      0xfc96 ; am_hal_mspi_interrupt_service + 222
        0x0000fcc0:    f8d00424    ..$.    LDR      r0,[r0,#0x424]
        0x0000fcc4:    2100        .!      MOVS     r1,#0
        0x0000fcc6:    4790        .G      BLX      r2
        0x0000fcc8:    f8940828    ..(.    LDRB     r0,[r4,#0x828]
        0x0000fccc:    2802        .(      CMP      r0,#2
        0x0000fcce:    bf18        ..      IT       NE
        0x0000fcd0:    f8c78000    ....    STRNE    r8,[r7,#0]
        0x0000fcd4:    e7df        ..      B        0xfc96 ; am_hal_mspi_interrupt_service + 222
        0x0000fcd6:    bf00        ..      NOP      
        0x0000fcd8:    2000        .       MOVS     r0,#0
        0x0000fcda:    b005        ..      ADD      sp,sp,#0x14
        0x0000fcdc:    e8bd83f0    ....    POP      {r4-r9,pc}
        0x0000fce0:    2100        .!      MOVS     r1,#0
        0x0000fce2:    f8d4384c    ..L8    LDR      r3,[r4,#0x84c]
        0x0000fce6:    f8d42844    ..D(    LDR      r2,[r4,#0x844]
        0x0000fcea:    3301        .3      ADDS     r3,#1
        0x0000fcec:    fbb3f5f2    ....    UDIV     r5,r3,r2
        0x0000fcf0:    f8d4083c    ..<.    LDR      r0,[r4,#0x83c]
        0x0000fcf4:    fb053212    ...2    MLS      r2,r5,r2,r3
        0x0000fcf8:    f8d47850    ..Px    LDR      r7,[r4,#0x850]
        0x0000fcfc:    eb020242    ..B.    ADD      r2,r2,r2,LSL #1
        0x0000fd00:    f8c4384c    ..L8    STR      r3,[r4,#0x84c]
        0x0000fd04:    3801        .8      SUBS     r0,#1
        0x0000fd06:    eb0703c2    ....    ADD      r3,r7,r2,LSL #3
        0x0000fd0a:    f8c4083c    ..<.    STR      r0,[r4,#0x83c]
        0x0000fd0e:    461f        .F      MOV      r7,r3
        0x0000fd10:    f8572f10    W../    LDR      r2,[r7,#0x10]!
        0x0000fd14:    b12a        *.      CBZ      r2,0xfd22 ; am_hal_mspi_interrupt_service + 362
        0x0000fd16:    6958        Xi      LDR      r0,[r3,#0x14]
        0x0000fd18:    4790        .G      BLX      r2
        0x0000fd1a:    2000        .       MOVS     r0,#0
        0x0000fd1c:    6038        8`      STR      r0,[r7,#0]
        0x0000fd1e:    f8d4083c    ..<.    LDR      r0,[r4,#0x83c]
        0x0000fd22:    b328        (.      CBZ      r0,0xfd70 ; am_hal_mspi_interrupt_service + 440
        0x0000fd24:    f8d4184c    ..L.    LDR      r1,[r4,#0x84c]
        0x0000fd28:    f8d42844    ..D(    LDR      r2,[r4,#0x844]
        0x0000fd2c:    3101        .1      ADDS     r1,#1
        0x0000fd2e:    fbb1f3f2    ....    UDIV     r3,r1,r2
        0x0000fd32:    6867        gh      LDR      r7,[r4,#4]
        0x0000fd34:    fb031112    ....    MLS      r1,r3,r2,r1
        0x0000fd38:    2000        .       MOVS     r0,#0
        0x0000fd3a:    f8d42850    ..P(    LDR      r2,[r4,#0x850]
        0x0000fd3e:    eb083307    ...3    ADD      r3,r8,r7,LSL #12
        0x0000fd42:    6220         b      STR      r0,[r4,#0x20]
        0x0000fd44:    eb010141    ..A.    ADD      r1,r1,r1,LSL #1
        0x0000fd48:    f8c30250    ..P.    STR      r0,[r3,#0x250]
        0x0000fd4c:    f8527031    R.1p    LDR      r7,[r2,r1,LSL #3]
        0x0000fd50:    eb0201c1    ....    ADD      r1,r2,r1,LSL #3
        0x0000fd54:    f8c37258    ..Xr    STR      r7,[r3,#0x258]
        0x0000fd58:    684a        Jh      LDR      r2,[r1,#4]
        0x0000fd5a:    f8c3225c    ..\"    STR      r2,[r3,#0x25c]
        0x0000fd5e:    688a        .h      LDR      r2,[r1,#8]
        0x0000fd60:    f8c32260    ..`"    STR      r2,[r3,#0x260]
        0x0000fd64:    68c9        .h      LDR      r1,[r1,#0xc]
        0x0000fd66:    f8c31250    ..P.    STR      r1,[r3,#0x250]
        0x0000fd6a:    b005        ..      ADD      sp,sp,#0x14
        0x0000fd6c:    e8bd83f0    ....    POP      {r4-r9,pc}
        0x0000fd70:    2000        .       MOVS     r0,#0
        0x0000fd72:    f8840838    ..8.    STRB     r0,[r4,#0x838]
        0x0000fd76:    f8c60250    ..P.    STR      r0,[r6,#0x250]
        0x0000fd7a:    f8d61200    ....    LDR      r1,[r6,#0x200]
        0x0000fd7e:    f0210140    !.@.    BIC      r1,r1,#0x40
        0x0000fd82:    f8c61200    ....    STR      r1,[r6,#0x200]
        0x0000fd86:    2180        .!      MOVS     r1,#0x80
        0x0000fd88:    f8c612b4    ....    STR      r1,[r6,#0x2b4]
        0x0000fd8c:    b005        ..      ADD      sp,sp,#0x14
        0x0000fd8e:    e8bd83f0    ....    POP      {r4-r9,pc}
        0x0000fd92:    bf00        ..      NOP      
        0x0000fd94:    f8940830    ..0.    LDRB     r0,[r4,#0x830]
        0x0000fd98:    b190        ..      CBZ      r0,0xfdc0 ; am_hal_mspi_interrupt_service + 520
        0x0000fd9a:    69e0        .i      LDR      r0,[r4,#0x1c]
        0x0000fd9c:    b958        X.      CBNZ     r0,0xfdb6 ; am_hal_mspi_interrupt_service + 510
        0x0000fd9e:    f2440000    D...    MOVW     r0,#0x4000
        0x0000fda2:    f2c50001    ....    MOVT     r0,#0x5001
        0x0000fda6:    eb003006    ...0    ADD      r0,r0,r6,LSL #12
        0x0000fdaa:    f8d01250    ..P.    LDR      r1,[r0,#0x250]
        0x0000fdae:    f0210103    !...    BIC      r1,r1,#3
        0x0000fdb2:    f8c01250    ..P.    STR      r1,[r0,#0x250]
        0x0000fdb6:    2000        .       MOVS     r0,#0
        0x0000fdb8:    b005        ..      ADD      sp,sp,#0x14
        0x0000fdba:    e8bd83f0    ....    POP      {r4-r9,pc}
        0x0000fdbe:    bf00        ..      NOP      
        0x0000fdc0:    f4155fc4    ..._    TST      r5,#0x1880
        0x0000fdc4:    d106        ..      BNE      0xfdd4 ; am_hal_mspi_interrupt_service + 540
        0x0000fdc6:    f89d0012    ....    LDRB     r0,[sp,#0x12]
        0x0000fdca:    b918        ..      CBNZ     r0,0xfdd4 ; am_hal_mspi_interrupt_service + 540
        0x0000fdcc:    69e0        .i      LDR      r0,[r4,#0x1c]
        0x0000fdce:    2800        .(      CMP      r0,#0
        0x0000fdd0:    d1f1        ..      BNE      0xfdb6 ; am_hal_mspi_interrupt_service + 510
        0x0000fdd2:    e047        G.      B        0xfe64 ; am_hal_mspi_interrupt_service + 684
        0x0000fdd4:    e9d40106    ....    LDRD     r0,r1,[r4,#0x18]
        0x0000fdd8:    3001        .0      ADDS     r0,#1
        0x0000fdda:    61a0        .a      STR      r0,[r4,#0x18]
        0x0000fddc:    b2c0        ..      UXTB     r0,r0
        0x0000fdde:    eb040080    ....    ADD      r0,r4,r0,LSL #2
        0x0000fde2:    4605        .F      MOV      r5,r0
        0x0000fde4:    f8552f24    U.$/    LDR      r2,[r5,#0x24]!
        0x0000fde8:    3901        .9      SUBS     r1,#1
        0x0000fdea:    61e1        .a      STR      r1,[r4,#0x1c]
        0x0000fdec:    b14a        J.      CBZ      r2,0xfe02 ; am_hal_mspi_interrupt_service + 586
        0x0000fdee:    f8d00424    ..$.    LDR      r0,[r0,#0x424]
        0x0000fdf2:    2101        .!      MOVS     r1,#1
        0x0000fdf4:    4790        .G      BLX      r2
        0x0000fdf6:    f8940828    ..(.    LDRB     r0,[r4,#0x828]
        0x0000fdfa:    2802        .(      CMP      r0,#2
        0x0000fdfc:    bf1c        ..      ITT      NE
        0x0000fdfe:    2000        .       MOVNE    r0,#0
        0x0000fe00:    6028        (`      STRNE    r0,[r5,#0]
        0x0000fe02:    f8d40824    ..$.    LDR      r0,[r4,#0x824]
        0x0000fe06:    f7fef89b    ....    BL       am_hal_cmdq_disable ; 0xdf40
        0x0000fe0a:    2800        .(      CMP      r0,#0
        0x0000fe0c:    d1d4        ..      BNE      0xfdb8 ; am_hal_mspi_interrupt_service + 512
        0x0000fe0e:    f2440000    D...    MOVW     r0,#0x4000
        0x0000fe12:    f2c50001    ....    MOVT     r0,#0x5001
        0x0000fe16:    eb003006    ...0    ADD      r0,r0,r6,LSL #12
        0x0000fe1a:    f8d01250    ..P.    LDR      r1,[r0,#0x250]
        0x0000fe1e:    f6090224    ..$.    ADD      r2,r9,#0x824
        0x0000fe22:    f0210103    !...    BIC      r1,r1,#3
        0x0000fe26:    f8c01250    ..P.    STR      r1,[r0,#0x250]
        0x0000fe2a:    f8d01100    ....    LDR      r1,[r0,#0x100]
        0x0000fe2e:    f0214180    !..A    BIC      r1,r1,#0x40000000
        0x0000fe32:    f8c01100    ....    STR      r1,[r0,#0x100]
        0x0000fe36:    f8d01100    ....    LDR      r1,[r0,#0x100]
        0x0000fe3a:    f0414180    A..A    ORR      r1,r1,#0x40000000
        0x0000fe3e:    f8c01100    ....    STR      r1,[r0,#0x100]
        0x0000fe42:    f8d012ac    ....    LDR      r1,[r0,#0x2ac]
        0x0000fe46:    f8c012ac    ....    STR      r1,[r0,#0x2ac]
        0x0000fe4a:    6810        .h      LDR      r0,[r2,#0]
        0x0000fe4c:    f7fef8b0    ....    BL       am_hal_cmdq_error_resume ; 0xdfb0
        0x0000fe50:    69e0        .i      LDR      r0,[r4,#0x1c]
        0x0000fe52:    b138        8.      CBZ      r0,0xfe64 ; am_hal_mspi_interrupt_service + 684
        0x0000fe54:    f8d40824    ..$.    LDR      r0,[r4,#0x824]
        0x0000fe58:    f7fef88e    ....    BL       am_hal_cmdq_enable ; 0xdf78
        0x0000fe5c:    2800        .(      CMP      r0,#0
        0x0000fe5e:    d1ab        ..      BNE      0xfdb8 ; am_hal_mspi_interrupt_service + 512
        0x0000fe60:    e7b4        ..      B        0xfdcc ; am_hal_mspi_interrupt_service + 532
        0x0000fe62:    bf00        ..      NOP      
        0x0000fe64:    f8d40824    ..$.    LDR      r0,[r4,#0x824]
        0x0000fe68:    f7fef86a    ..j.    BL       am_hal_cmdq_disable ; 0xdf40
        0x0000fe6c:    2800        .(      CMP      r0,#0
        0x0000fe6e:    d1a3        ..      BNE      0xfdb8 ; am_hal_mspi_interrupt_service + 512
        0x0000fe70:    e793        ..      B        0xfd9a ; am_hal_mspi_interrupt_service + 482
        0x0000fe72:    0000        ..      MOVS     r0,r0
    am_hal_mspi_interrupt_status_get
        0x0000fe74:    b1d0        ..      CBZ      r0,0xfeac ; am_hal_mspi_interrupt_status_get + 56
        0x0000fe76:    6803        .h      LDR      r3,[r0,#0]
        0x0000fe78:    f0234c7e    #.~L    BIC      r12,r3,#0xfe000000
        0x0000fe7c:    f64b63be    K..c    MOV      r3,#0xbebe
        0x0000fe80:    f2c013be    ....    MOVT     r3,#0x1be
        0x0000fe84:    459c        .E      CMP      r12,r3
        0x0000fe86:    d111        ..      BNE      0xfeac ; am_hal_mspi_interrupt_status_get + 56
        0x0000fe88:    6840        @h      LDR      r0,[r0,#4]
        0x0000fe8a:    f2440300    D...    MOVW     r3,#0x4000
        0x0000fe8e:    f2c50301    ....    MOVT     r3,#0x5001
        0x0000fe92:    eb033300    ...3    ADD      r3,r3,r0,LSL #12
        0x0000fe96:    f8d30204    ....    LDR      r0,[r3,#0x204]
        0x0000fe9a:    2a00        .*      CMP      r2,#0
        0x0000fe9c:    bf1c        ..      ITT      NE
        0x0000fe9e:    f8d32200    ..."    LDRNE    r2,[r3,#0x200]
        0x0000fea2:    4010        .@      ANDNE    r0,r0,r2
        0x0000fea4:    6008        .`      STR      r0,[r1,#0]
        0x0000fea6:    2000        .       MOVS     r0,#0
        0x0000fea8:    4770        pG      BX       lr
        0x0000feaa:    bf00        ..      NOP      
        0x0000feac:    2002        .       MOVS     r0,#2
        0x0000feae:    4770        pG      BX       lr
    am_hal_mspi_nonblocking_transfer
        0x0000feb0:    e92d43f0    -..C    PUSH     {r4-r9,lr}
        0x0000feb4:    b083        ..      SUB      sp,sp,#0xc
        0x0000feb6:    b1b8        ..      CBZ      r0,0xfee8 ; am_hal_mspi_nonblocking_transfer + 56
        0x0000feb8:    4604        .F      MOV      r4,r0
        0x0000feba:    6800        .h      LDR      r0,[r0,#0]
        0x0000febc:    4615        .F      MOV      r5,r2
        0x0000febe:    f64b62be    K..b    MOV      r2,#0xbebe
        0x0000fec2:    460f        .F      MOV      r7,r1
        0x0000fec4:    f020417e     .~A    BIC      r1,r0,#0xfe000000
        0x0000fec8:    f2c012be    ....    MOVT     r2,#0x1be
        0x0000fecc:    4291        .B      CMP      r1,r2
        0x0000fece:    d10b        ..      BNE      0xfee8 ; am_hal_mspi_nonblocking_transfer + 56
        0x0000fed0:    6961        ai      LDR      r1,[r4,#0x14]
        0x0000fed2:    2607        .&      MOVS     r6,#7
        0x0000fed4:    2900        .)      CMP      r1,#0
        0x0000fed6:    bf18        ..      IT       NE
        0x0000fed8:    f0107000    ...p    ANDSNE   r0,r0,#0x2000000
        0x0000fedc:    d10a        ..      BNE      0xfef4 ; am_hal_mspi_nonblocking_transfer + 68
        0x0000fede:    4630        0F      MOV      r0,r6
        0x0000fee0:    b003        ..      ADD      sp,sp,#0xc
        0x0000fee2:    e8bd83f0    ....    POP      {r4-r9,pc}
        0x0000fee6:    bf00        ..      NOP      
        0x0000fee8:    2602        .&      MOVS     r6,#2
        0x0000feea:    4630        0F      MOV      r0,r6
        0x0000feec:    b003        ..      ADD      sp,sp,#0xc
        0x0000feee:    e8bd83f0    ....    POP      {r4-r9,pc}
        0x0000fef2:    bf00        ..      NOP      
        0x0000fef4:    f8940828    ..(.    LDRB     r0,[r4,#0x828]
        0x0000fef8:    2802        .(      CMP      r0,#2
        0x0000fefa:    d105        ..      BNE      0xff08 ; am_hal_mspi_nonblocking_transfer + 88
        0x0000fefc:    2607        .&      MOVS     r6,#7
        0x0000fefe:    4630        0F      MOV      r0,r6
        0x0000ff00:    b003        ..      ADD      sp,sp,#0xc
        0x0000ff02:    e8bd83f0    ....    POP      {r4-r9,pc}
        0x0000ff06:    bf00        ..      NOP      
        0x0000ff08:    4698        .F      MOV      r8,r3
        0x0000ff0a:    2d01        .-      CMP      r5,#1
        0x0000ff0c:    d105        ..      BNE      0xff1a ; am_hal_mspi_nonblocking_transfer + 106
        0x0000ff0e:    89f9        ..      LDRH     r1,[r7,#0xe]
        0x0000ff10:    f04f5280    O..R    MOV      r2,#0x10000000
        0x0000ff14:    ebb24f01    ...O    CMP      r2,r1,LSL #16
        0x0000ff18:    d01c        ..      BEQ      0xff54 ; am_hal_mspi_nonblocking_transfer + 164
        0x0000ff1a:    f1b80f00    ....    CMP      r8,#0
        0x0000ff1e:    46c1        .F      MOV      r9,r8
        0x0000ff20:    d114        ..      BNE      0xff4c ; am_hal_mspi_nonblocking_transfer + 156
        0x0000ff22:    f8d41834    ..4.    LDR      r1,[r4,#0x834]
        0x0000ff26:    4308        .C      ORRS     r0,r0,r1
        0x0000ff28:    d10e        ..      BNE      0xff48 ; am_hal_mspi_nonblocking_transfer + 152
        0x0000ff2a:    f8d40854    ..T.    LDR      r0,[r4,#0x854]
        0x0000ff2e:    f8d41858    ..X.    LDR      r1,[r4,#0x858]
        0x0000ff32:    f6417911    A..y    MOV      r9,#0x1f11
        0x0000ff36:    f2c00901    ....    MOVT     r9,#1
        0x0000ff3a:    ebb10f50    ..P.    CMP      r1,r0,LSR #1
        0x0000ff3e:    bf38        8.      IT       CC
        0x0000ff40:    f04f0900    O...    MOVCC    r9,#0
        0x0000ff44:    e002        ..      B        0xff4c ; am_hal_mspi_nonblocking_transfer + 156
        0x0000ff46:    bf00        ..      NOP      
        0x0000ff48:    f04f0900    O...    MOV      r9,#0
        0x0000ff4c:    69e0        .i      LDR      r0,[r4,#0x1c]
        0x0000ff4e:    f5b07f80    ....    CMP      r0,#0x100
        0x0000ff52:    d105        ..      BNE      0xff60 ; am_hal_mspi_nonblocking_transfer + 176
        0x0000ff54:    2605        .&      MOVS     r6,#5
        0x0000ff56:    4630        0F      MOV      r0,r6
        0x0000ff58:    b003        ..      ADD      sp,sp,#0xc
        0x0000ff5a:    e8bd83f0    ....    POP      {r4-r9,pc}
        0x0000ff5e:    bf00        ..      NOP      
        0x0000ff60:    2100        .!      MOVS     r1,#0
        0x0000ff62:    2d01        .-      CMP      r5,#1
        0x0000ff64:    bf08        ..      IT       EQ
        0x0000ff66:    210a        .!      MOVEQ    r1,#0xa
        0x0000ff68:    f8d40824    ..$.    LDR      r0,[r4,#0x824]
        0x0000ff6c:    aa02        ..      ADD      r2,sp,#8
        0x0000ff6e:    ab01        ..      ADD      r3,sp,#4
        0x0000ff70:    2d00        .-      CMP      r5,#0
        0x0000ff72:    bf08        ..      IT       EQ
        0x0000ff74:    2103        .!      MOVEQ    r1,#3
        0x0000ff76:    f7fdff7b    ..{.    BL       am_hal_cmdq_alloc_block ; 0xde70
        0x0000ff7a:    4606        .F      MOV      r6,r0
        0x0000ff7c:    2800        .(      CMP      r0,#0
        0x0000ff7e:    d1ae        ..      BNE      0xfede ; am_hal_mspi_nonblocking_transfer + 46
        0x0000ff80:    9a02        ..      LDR      r2,[sp,#8]
        0x0000ff82:    4620         F      MOV      r0,r4
        0x0000ff84:    4629        )F      MOV      r1,r5
        0x0000ff86:    463b        ;F      MOV      r3,r7
        0x0000ff88:    f001f8d6    ....    BL       build_dma_cmdlist ; 0x11138
        0x0000ff8c:    b140        @.      CBZ      r0,0xffa0 ; am_hal_mspi_nonblocking_transfer + 240
        0x0000ff8e:    4606        .F      MOV      r6,r0
        0x0000ff90:    f8d40824    ..$.    LDR      r0,[r4,#0x824]
        0x0000ff94:    f7fef956    ..V.    BL       am_hal_cmdq_release_block ; 0xe244
        0x0000ff98:    4630        0F      MOV      r0,r6
        0x0000ff9a:    b003        ..      ADD      sp,sp,#0xc
        0x0000ff9c:    e8bd83f0    ....    POP      {r4-r9,pc}
        0x0000ffa0:    f89d0004    ....    LDRB     r0,[sp,#4]
        0x0000ffa4:    990a        ..      LDR      r1,[sp,#0x28]
        0x0000ffa6:    eb040080    ....    ADD      r0,r4,r0,LSL #2
        0x0000ffaa:    f8c09024    ..$.    STR      r9,[r0,#0x24]
        0x0000ffae:    f8c01424    ..$.    STR      r1,[r0,#0x424]
        0x0000ffb2:    f7fefbed    ....    BL       am_hal_interrupt_master_disable ; 0xe790
        0x0000ffb6:    4606        .F      MOV      r6,r0
        0x0000ffb8:    f8d40824    ..$.    LDR      r0,[r4,#0x824]
        0x0000ffbc:    4649        IF      MOV      r1,r9
        0x0000ffbe:    f1b90f00    ....    CMP      r9,#0
        0x0000ffc2:    bf18        ..      IT       NE
        0x0000ffc4:    2101        .!      MOVNE    r1,#1
        0x0000ffc6:    f7fef8ef    ....    BL       am_hal_cmdq_post_block ; 0xe1a8
        0x0000ffca:    4605        .F      MOV      r5,r0
        0x0000ffcc:    b140        @.      CBZ      r0,0xffe0 ; am_hal_mspi_nonblocking_transfer + 304
        0x0000ffce:    4630        0F      MOV      r0,r6
        0x0000ffd0:    f7fefbe6    ....    BL       am_hal_interrupt_master_set ; 0xe7a0
        0x0000ffd4:    f8d40824    ..$.    LDR      r0,[r4,#0x824]
        0x0000ffd8:    f7fef934    ..4.    BL       am_hal_cmdq_release_block ; 0xe244
        0x0000ffdc:    e01f        ..      B        0x1001e ; am_hal_mspi_nonblocking_transfer + 366
        0x0000ffde:    bf00        ..      NOP      
        0x0000ffe0:    69e7        .i      LDR      r7,[r4,#0x1c]
        0x0000ffe2:    f8d4182c    ..,.    LDR      r1,[r4,#0x82c]
        0x0000ffe6:    1c78        x.      ADDS     r0,r7,#1
        0x0000ffe8:    61e0        .a      STR      r0,[r4,#0x1c]
        0x0000ffea:    1c48        H.      ADDS     r0,r1,#1
        0x0000ffec:    f1b80f00    ....    CMP      r8,#0
        0x0000fff0:    f8c4082c    ..,.    STR      r0,[r4,#0x82c]
        0x0000fff4:    d004        ..      BEQ      0x10000 ; am_hal_mspi_nonblocking_transfer + 336
        0x0000fff6:    2000        .       MOVS     r0,#0
        0x0000fff8:    f8840829    ..).    STRB     r0,[r4,#0x829]
        0x0000fffc:    e009        ..      B        0x10012 ; am_hal_mspi_nonblocking_transfer + 354
        0x0000fffe:    bf00        ..      NOP      
        0x00010000:    f1b90f00    ....    CMP      r9,#0
        0x00010004:    d002        ..      BEQ      0x1000c ; am_hal_mspi_nonblocking_transfer + 348
        0x00010006:    2000        .       MOVS     r0,#0
        0x00010008:    e003        ..      B        0x10012 ; am_hal_mspi_nonblocking_transfer + 354
        0x0001000a:    bf00        ..      NOP      
        0x0001000c:    f8d40858    ..X.    LDR      r0,[r4,#0x858]
        0x00010010:    3001        .0      ADDS     r0,#1
        0x00010012:    f8c40858    ..X.    STR      r0,[r4,#0x858]
        0x00010016:    4630        0F      MOV      r0,r6
        0x00010018:    f7fefbc2    ....    BL       am_hal_interrupt_master_set ; 0xe7a0
        0x0001001c:    b127        '.      CBZ      r7,0x10028 ; am_hal_mspi_nonblocking_transfer + 376
        0x0001001e:    462e        .F      MOV      r6,r5
        0x00010020:    4630        0F      MOV      r0,r6
        0x00010022:    b003        ..      ADD      sp,sp,#0xc
        0x00010024:    e8bd83f0    ....    POP      {r4-r9,pc}
        0x00010028:    f8d40824    ..$.    LDR      r0,[r4,#0x824]
        0x0001002c:    f7fdffa4    ....    BL       am_hal_cmdq_enable ; 0xdf78
        0x00010030:    4606        .F      MOV      r6,r0
        0x00010032:    2800        .(      CMP      r0,#0
        0x00010034:    bf08        ..      IT       EQ
        0x00010036:    462e        .F      MOVEQ    r6,r5
        0x00010038:    4630        0F      MOV      r0,r6
        0x0001003a:    b003        ..      ADD      sp,sp,#0xc
        0x0001003c:    e8bd83f0    ....    POP      {r4-r9,pc}
    am_hal_mspi_power_control
        0x00010040:    b570        p.      PUSH     {r4-r6,lr}
        0x00010042:    2800        .(      CMP      r0,#0
        0x00010044:    d07c        |.      BEQ      0x10140 ; am_hal_mspi_power_control + 256
        0x00010046:    4604        .F      MOV      r4,r0
        0x00010048:    6800        .h      LDR      r0,[r0,#0]
        0x0001004a:    f64b65be    K..e    MOV      r5,#0xbebe
        0x0001004e:    f2c015be    ....    MOVT     r5,#0x1be
        0x00010052:    f020437e     .~C    BIC      r3,r0,#0xfe000000
        0x00010056:    42ab        .B      CMP      r3,r5
        0x00010058:    d172        r.      BNE      0x10140 ; am_hal_mspi_power_control + 256
        0x0001005a:    1e4b        K.      SUBS     r3,r1,#1
        0x0001005c:    2b02        .+      CMP      r3,#2
        0x0001005e:    d271        q.      BCS      0x10144 ; am_hal_mspi_power_control + 260
        0x00010060:    f2440600    D...    MOVW     r6,#0x4000
        0x00010064:    0181        ..      LSLS     r1,r0,#6
        0x00010066:    f2c50601    ....    MOVT     r6,#0x5001
        0x0001006a:    f1008103    ....    BMI.W    0x10274 ; am_hal_mspi_power_control + 564
        0x0001006e:    2a00        .*      CMP      r2,#0
        0x00010070:    d050        P.      BEQ      0x10114 ; am_hal_mspi_power_control + 212
        0x00010072:    6861        ah      LDR      r1,[r4,#4]
        0x00010074:    eb063101    ...1    ADD      r1,r6,r1,LSL #12
        0x00010078:    684a        Jh      LDR      r2,[r1,#4]
        0x0001007a:    f8c42864    ..d(    STR      r2,[r4,#0x864]
        0x0001007e:    f8d12100    ...!    LDR      r2,[r1,#0x100]
        0x00010082:    f8c42868    ..h(    STR      r2,[r4,#0x868]
        0x00010086:    f8d12110    ...!    LDR      r2,[r1,#0x110]
        0x0001008a:    f8c4286c    ..l(    STR      r2,[r4,#0x86c]
        0x0001008e:    f8d12114    ...!    LDR      r2,[r1,#0x114]
        0x00010092:    f8c42870    ..p(    STR      r2,[r4,#0x870]
        0x00010096:    f8d12120    .. !    LDR      r2,[r1,#0x120]
        0x0001009a:    f8c42874    ..t(    STR      r2,[r4,#0x874]
        0x0001009e:    f8d12128    ..(!    LDR      r2,[r1,#0x128]
        0x000100a2:    f8c42878    ..x(    STR      r2,[r4,#0x878]
        0x000100a6:    f8d122a8    ..."    LDR      r2,[r1,#0x2a8]
        0x000100aa:    f8c42880    ...(    STR      r2,[r4,#0x880]
        0x000100ae:    f8d122b8    ..."    LDR      r2,[r1,#0x2b8]
        0x000100b2:    f8c42884    ...(    STR      r2,[r4,#0x884]
        0x000100b6:    f8d122c0    ..."    LDR      r2,[r1,#0x2c0]
        0x000100ba:    f8c42888    ...(    STR      r2,[r4,#0x888]
        0x000100be:    f8d122c4    ..."    LDR      r2,[r1,#0x2c4]
        0x000100c2:    f8c4288c    ...(    STR      r2,[r4,#0x88c]
        0x000100c6:    f8d12200    ..."    LDR      r2,[r1,#0x200]
        0x000100ca:    f8c42890    ...(    STR      r2,[r4,#0x890]
        0x000100ce:    f8d122b0    ..."    LDR      r2,[r1,#0x2b0]
        0x000100d2:    f8c42894    ...(    STR      r2,[r4,#0x894]
        0x000100d6:    f8d12124    ..$!    LDR      r2,[r1,#0x124]
        0x000100da:    f8c42898    ...(    STR      r2,[r4,#0x898]
        0x000100de:    6a0a        .j      LDR      r2,[r1,#0x20]
        0x000100e0:    f8c428a4    ...(    STR      r2,[r4,#0x8a4]
        0x000100e4:    f8d12264    ..d"    LDR      r2,[r1,#0x264]
        0x000100e8:    f8c4289c    ...(    STR      r2,[r4,#0x89c]
        0x000100ec:    f8d12268    ..h"    LDR      r2,[r1,#0x268]
        0x000100f0:    f8c428a0    ...(    STR      r2,[r4,#0x8a0]
        0x000100f4:    f8d122a0    ..."    LDR      r2,[r1,#0x2a0]
        0x000100f8:    f8c4287c    ..|(    STR      r2,[r4,#0x87c]
        0x000100fc:    2201        ."      MOVS     r2,#1
        0x000100fe:    f8842860    ..`(    STRB     r2,[r4,#0x860]
        0x00010102:    f8d112a0    ....    LDR      r1,[r1,#0x2a0]
        0x00010106:    07c9        ..      LSLS     r1,r1,#31
        0x00010108:    d004        ..      BEQ      0x10114 ; am_hal_mspi_power_control + 212
        0x0001010a:    f8d40824    ..$.    LDR      r0,[r4,#0x824]
        0x0001010e:    f7fdff17    ....    BL       am_hal_cmdq_disable ; 0xdf40
        0x00010112:    6820         h      LDR      r0,[r4,#0]
        0x00010114:    f020407e     .~@    BIC      r0,r0,#0xfe000000
        0x00010118:    42a8        .B      CMP      r0,r5
        0x0001011a:    d109        ..      BNE      0x10130 ; am_hal_mspi_power_control + 240
        0x0001011c:    6860        `h      LDR      r0,[r4,#4]
        0x0001011e:    f64172ff    A..r    MOV      r2,#0x1fff
        0x00010122:    eb063000    ...0    ADD      r0,r6,r0,LSL #12
        0x00010126:    f8d01200    ....    LDR      r1,[r0,#0x200]
        0x0001012a:    4391        .C      BICS     r1,r1,r2
        0x0001012c:    f8c01200    ....    STR      r1,[r0,#0x200]
        0x00010130:    7920         y      LDRB     r0,[r4,#4]
        0x00010132:    300c        .0      ADDS     r0,r0,#0xc
        0x00010134:    b2c0        ..      UXTB     r0,r0
        0x00010136:    f000f9b5    ....    BL       am_hal_pwrctrl_periph_disable ; 0x104a4
        0x0001013a:    2000        .       MOVS     r0,#0
        0x0001013c:    bd70        p.      POP      {r4-r6,pc}
        0x0001013e:    bf00        ..      NOP      
        0x00010140:    2002        .       MOVS     r0,#2
        0x00010142:    bd70        p.      POP      {r4-r6,pc}
        0x00010144:    2900        .)      CMP      r1,#0
        0x00010146:    bf1c        ..      ITT      NE
        0x00010148:    2006        .       MOVNE    r0,#6
        0x0001014a:    bd70        p.      POPNE    {r4-r6,pc}
        0x0001014c:    2a00        .*      CMP      r2,#0
        0x0001014e:    f000809f    ....    BEQ.W    0x10290 ; am_hal_mspi_power_control + 592
        0x00010152:    f8940860    ..`.    LDRB     r0,[r4,#0x860]
        0x00010156:    2800        .(      CMP      r0,#0
        0x00010158:    f00080a2    ....    BEQ.W    0x102a0 ; am_hal_mspi_power_control + 608
        0x0001015c:    7920         y      LDRB     r0,[r4,#4]
        0x0001015e:    300c        .0      ADDS     r0,r0,#0xc
        0x00010160:    b2c0        ..      UXTB     r0,r0
        0x00010162:    f000f9f3    ....    BL       am_hal_pwrctrl_periph_enable ; 0x1054c
        0x00010166:    6862        bh      LDR      r2,[r4,#4]
        0x00010168:    f2440000    D...    MOVW     r0,#0x4000
        0x0001016c:    f8d41864    ..d.    LDR      r1,[r4,#0x864]
        0x00010170:    f2c50001    ....    MOVT     r0,#0x5001
        0x00010174:    eb003202    ...2    ADD      r2,r0,r2,LSL #12
        0x00010178:    6051        Q`      STR      r1,[r2,#4]
        0x0001017a:    6861        ah      LDR      r1,[r4,#4]
        0x0001017c:    f8d42868    ..h(    LDR      r2,[r4,#0x868]
        0x00010180:    eb003101    ...1    ADD      r1,r0,r1,LSL #12
        0x00010184:    f8c12100    ...!    STR      r2,[r1,#0x100]
        0x00010188:    6861        ah      LDR      r1,[r4,#4]
        0x0001018a:    f8d4286c    ..l(    LDR      r2,[r4,#0x86c]
        0x0001018e:    eb003101    ...1    ADD      r1,r0,r1,LSL #12
        0x00010192:    f8c12110    ...!    STR      r2,[r1,#0x110]
        0x00010196:    6861        ah      LDR      r1,[r4,#4]
        0x00010198:    f8d42870    ..p(    LDR      r2,[r4,#0x870]
        0x0001019c:    eb003101    ...1    ADD      r1,r0,r1,LSL #12
        0x000101a0:    f8c12114    ...!    STR      r2,[r1,#0x114]
        0x000101a4:    6861        ah      LDR      r1,[r4,#4]
        0x000101a6:    f8d42874    ..t(    LDR      r2,[r4,#0x874]
        0x000101aa:    eb003101    ...1    ADD      r1,r0,r1,LSL #12
        0x000101ae:    f8c12120    .. !    STR      r2,[r1,#0x120]
        0x000101b2:    6861        ah      LDR      r1,[r4,#4]
        0x000101b4:    f8d42878    ..x(    LDR      r2,[r4,#0x878]
        0x000101b8:    eb003101    ...1    ADD      r1,r0,r1,LSL #12
        0x000101bc:    f8c12128    ..(!    STR      r2,[r1,#0x128]
        0x000101c0:    6861        ah      LDR      r1,[r4,#4]
        0x000101c2:    f8d42880    ...(    LDR      r2,[r4,#0x880]
        0x000101c6:    eb003101    ...1    ADD      r1,r0,r1,LSL #12
        0x000101ca:    f8c122a8    ..."    STR      r2,[r1,#0x2a8]
        0x000101ce:    6861        ah      LDR      r1,[r4,#4]
        0x000101d0:    f8d42884    ...(    LDR      r2,[r4,#0x884]
        0x000101d4:    eb003101    ...1    ADD      r1,r0,r1,LSL #12
        0x000101d8:    f8c122b8    ..."    STR      r2,[r1,#0x2b8]
        0x000101dc:    6861        ah      LDR      r1,[r4,#4]
        0x000101de:    f8d42888    ...(    LDR      r2,[r4,#0x888]
        0x000101e2:    eb003101    ...1    ADD      r1,r0,r1,LSL #12
        0x000101e6:    f8c122c0    ..."    STR      r2,[r1,#0x2c0]
        0x000101ea:    6861        ah      LDR      r1,[r4,#4]
        0x000101ec:    f8d4288c    ...(    LDR      r2,[r4,#0x88c]
        0x000101f0:    eb003101    ...1    ADD      r1,r0,r1,LSL #12
        0x000101f4:    f8c122c4    ..."    STR      r2,[r1,#0x2c4]
        0x000101f8:    6861        ah      LDR      r1,[r4,#4]
        0x000101fa:    f8d42890    ...(    LDR      r2,[r4,#0x890]
        0x000101fe:    eb003101    ...1    ADD      r1,r0,r1,LSL #12
        0x00010202:    f8c12200    ..."    STR      r2,[r1,#0x200]
        0x00010206:    6861        ah      LDR      r1,[r4,#4]
        0x00010208:    f8d42898    ...(    LDR      r2,[r4,#0x898]
        0x0001020c:    eb003101    ...1    ADD      r1,r0,r1,LSL #12
        0x00010210:    f8c12124    ..$!    STR      r2,[r1,#0x124]
        0x00010214:    6861        ah      LDR      r1,[r4,#4]
        0x00010216:    f8d428a4    ...(    LDR      r2,[r4,#0x8a4]
        0x0001021a:    eb003101    ...1    ADD      r1,r0,r1,LSL #12
        0x0001021e:    620a        .b      STR      r2,[r1,#0x20]
        0x00010220:    6861        ah      LDR      r1,[r4,#4]
        0x00010222:    f8d4289c    ...(    LDR      r2,[r4,#0x89c]
        0x00010226:    eb003101    ...1    ADD      r1,r0,r1,LSL #12
        0x0001022a:    f8c12264    ..d"    STR      r2,[r1,#0x264]
        0x0001022e:    6861        ah      LDR      r1,[r4,#4]
        0x00010230:    f8d428a0    ...(    LDR      r2,[r4,#0x8a0]
        0x00010234:    eb003101    ...1    ADD      r1,r0,r1,LSL #12
        0x00010238:    f8c12268    ..h"    STR      r2,[r1,#0x268]
        0x0001023c:    6861        ah      LDR      r1,[r4,#4]
        0x0001023e:    f8942894    ...(    LDRB     r2,[r4,#0x894]
        0x00010242:    eb003101    ...1    ADD      r1,r0,r1,LSL #12
        0x00010246:    f8c122b4    ..."    STR      r2,[r1,#0x2b4]
        0x0001024a:    f8d4187c    ..|.    LDR      r1,[r4,#0x87c]
        0x0001024e:    6862        bh      LDR      r2,[r4,#4]
        0x00010250:    f0210101    !...    BIC      r1,r1,#1
        0x00010254:    eb003002    ...0    ADD      r0,r0,r2,LSL #12
        0x00010258:    f8c012a0    ....    STR      r1,[r0,#0x2a0]
        0x0001025c:    f894087c    ..|.    LDRB     r0,[r4,#0x87c]
        0x00010260:    07c0        ..      LSLS     r0,r0,#31
        0x00010262:    d003        ..      BEQ      0x1026c ; am_hal_mspi_power_control + 556
        0x00010264:    f8d40824    ..$.    LDR      r0,[r4,#0x824]
        0x00010268:    f7fdfe86    ....    BL       am_hal_cmdq_enable ; 0xdf78
        0x0001026c:    2000        .       MOVS     r0,#0
        0x0001026e:    f8840860    ..`.    STRB     r0,[r4,#0x860]
        0x00010272:    bd70        p.      POP      {r4-r6,pc}
        0x00010274:    6861        ah      LDR      r1,[r4,#4]
        0x00010276:    eb063101    ...1    ADD      r1,r6,r1,LSL #12
        0x0001027a:    f8d11254    ..T.    LDR      r1,[r1,#0x254]
        0x0001027e:    07c9        ..      LSLS     r1,r1,#31
        0x00010280:    d104        ..      BNE      0x1028c ; am_hal_mspi_power_control + 588
        0x00010282:    f8d41840    ..@.    LDR      r1,[r4,#0x840]
        0x00010286:    2900        .)      CMP      r1,#0
        0x00010288:    f43faef1    ?...    BEQ      0x1006e ; am_hal_mspi_power_control + 46
        0x0001028c:    2003        .       MOVS     r0,#3
        0x0001028e:    bd70        p.      POP      {r4-r6,pc}
        0x00010290:    7920         y      LDRB     r0,[r4,#4]
        0x00010292:    300c        .0      ADDS     r0,r0,#0xc
        0x00010294:    b2c0        ..      UXTB     r0,r0
        0x00010296:    f000f959    ..Y.    BL       am_hal_pwrctrl_periph_enable ; 0x1054c
        0x0001029a:    2000        .       MOVS     r0,#0
        0x0001029c:    bd70        p.      POP      {r4-r6,pc}
        0x0001029e:    bf00        ..      NOP      
        0x000102a0:    2007        .       MOVS     r0,#7
        0x000102a2:    bd70        p.      POP      {r4-r6,pc}
    am_hal_pwrctrl_low_power_init
        0x000102a4:    b570        p.      PUSH     {r4-r6,lr}
        0x000102a6:    b082        ..      SUB      sp,sp,#8
        0x000102a8:    f64330c4    C..0    MOV      r0,#0x3bc4
        0x000102ac:    f2c10001    ....    MOVT     r0,#0x1001
        0x000102b0:    6801        .h      LDR      r1,[r0,#0]
        0x000102b2:    b929        ).      CBNZ     r1,0x102c0 ; am_hal_pwrctrl_low_power_init + 28
        0x000102b4:    f24f0100    O...    MOVW     r1,#0xf000
        0x000102b8:    f6c471ff    ...q    MOVT     r1,#0x4fff
        0x000102bc:    6809        .h      LDR      r1,[r1,#0]
        0x000102be:    6001        .`      STR      r1,[r0,#0]
        0x000102c0:    f2403450    @.P4    MOVW     r4,#0x350
        0x000102c4:    f64f45bc    O..E    MOV      r5,#0xfcbc
        0x000102c8:    f2c40402    ....    MOVT     r4,#0x4002
        0x000102cc:    f6cf75ff    ...u    MOVT     r5,#0xffff
        0x000102d0:    5960        `Y      LDR      r0,[r4,r5]
        0x000102d2:    b2c0        ..      UXTB     r0,r0
        0x000102d4:    2821        !(      CMP      r0,#0x21
        0x000102d6:    d30a        ..      BCC      0x102ee ; am_hal_pwrctrl_low_power_init + 74
        0x000102d8:    f24110d8    A...    MOV      r0,#0x11d8
        0x000102dc:    f2c10001    ....    MOVT     r0,#0x1001
        0x000102e0:    7801        .x      LDRB     r1,[r0,#0]
        0x000102e2:    2900        .)      CMP      r1,#0
        0x000102e4:    d04e        N.      BEQ      0x10384 ; am_hal_pwrctrl_low_power_init + 224
        0x000102e6:    7841        Ax      LDRB     r1,[r0,#1]
        0x000102e8:    2900        .)      CMP      r1,#0
        0x000102ea:    f000808e    ....    BEQ.W    0x1040a ; am_hal_pwrctrl_low_power_init + 358
        0x000102ee:    5960        `Y      LDR      r0,[r4,r5]
        0x000102f0:    f00000fe    ....    AND      r0,r0,#0xfe
        0x000102f4:    2812        .(      CMP      r0,#0x12
        0x000102f6:    d303        ..      BCC      0x10300 ; am_hal_pwrctrl_low_power_init + 92
        0x000102f8:    68e0        .h      LDR      r0,[r4,#0xc]
        0x000102fa:    f0207080     ..p    BIC      r0,r0,#0x1000000
        0x000102fe:    60e0        .`      STR      r0,[r4,#0xc]
        0x00010300:    f2410600    A...    MOVW     r6,#0x1000
        0x00010304:    200c        .       MOVS     r0,#0xc
        0x00010306:    2100        .!      MOVS     r1,#0
        0x00010308:    f2c40602    ....    MOVT     r6,#0x4002
        0x0001030c:    f7fdfbf8    ....    BL       am_hal_cachectrl_control ; 0xdb00
        0x00010310:    69b0        .i      LDR      r0,[r6,#0x18]
        0x00010312:    05c0        ..      LSLS     r0,r0,#23
        0x00010314:    f10080c0    ....    BMI.W    0x10498 ; am_hal_pwrctrl_low_power_init + 500
        0x00010318:    5960        `Y      LDR      r0,[r4,r5]
        0x0001031a:    f00000fe    ....    AND      r0,r0,#0xfe
        0x0001031e:    2812        .(      CMP      r0,#0x12
        0x00010320:    d317        ..      BCC      0x10352 ; am_hal_pwrctrl_low_power_init + 174
        0x00010322:    f7fefa35    ..5.    BL       am_hal_interrupt_master_disable ; 0xe790
        0x00010326:    9001        ..      STR      r0,[sp,#4]
        0x00010328:    69a0        .i      LDR      r0,[r4,#0x18]
        0x0001032a:    2119        .!      MOVS     r1,#0x19
        0x0001032c:    f361108b    a...    BFI      r0,r1,#6,#6
        0x00010330:    61a0        .a      STR      r0,[r4,#0x18]
        0x00010332:    69a0        .i      LDR      r0,[r4,#0x18]
        0x00010334:    210c        .!      MOVS     r1,#0xc
        0x00010336:    f3610005    a...    BFI      r0,r1,#0,#6
        0x0001033a:    61a0        .a      STR      r0,[r4,#0x18]
        0x0001033c:    f244003c    D.<.    MOV      r0,#0x403c
        0x00010340:    f2c40000    ....    MOVT     r0,#0x4000
        0x00010344:    6801        .h      LDR      r1,[r0,#0]
        0x00010346:    f4210180    !...    BIC      r1,r1,#0x400000
        0x0001034a:    6001        .`      STR      r1,[r0,#0]
        0x0001034c:    9801        ..      LDR      r0,[sp,#4]
        0x0001034e:    f7fefa27    ..'.    BL       am_hal_interrupt_master_set ; 0xe7a0
        0x00010352:    f64f40c8    O..@    MOV      r0,#0xfcc8
        0x00010356:    f6cf70ff    ...p    MOVT     r0,#0xffff
        0x0001035a:    5822        "X      LDR      r2,[r4,r0]
        0x0001035c:    f5a4714e    ..Nq    SUB      r1,r4,#0x338
        0x00010360:    f0420201    B...    ORR      r2,r2,#1
        0x00010364:    5022        "P      STR      r2,[r4,r0]
        0x00010366:    2501        .%      MOVS     r5,#1
        0x00010368:    f2427010    B..p    MOV      r0,#0x2710
        0x0001036c:    2207        ."      MOVS     r2,#7
        0x0001036e:    2307        .#      MOVS     r3,#7
        0x00010370:    9500        ..      STR      r5,[sp,#0]
        0x00010372:    f7fef807    ....    BL       am_hal_flash_delay_status_check ; 0xe384
        0x00010376:    2800        .(      CMP      r0,#0
        0x00010378:    f0008086    ....    BEQ.W    0x10488 ; am_hal_pwrctrl_low_power_init + 484
        0x0001037c:    2004        .       MOVS     r0,#4
        0x0001037e:    b002        ..      ADD      sp,sp,#8
        0x00010380:    bd70        p.      POP      {r4-r6,pc}
        0x00010382:    bf00        ..      NOP      
        0x00010384:    2101        .!      MOVS     r1,#1
        0x00010386:    7001        .p      STRB     r1,[r0,#0]
        0x00010388:    6821        !h      LDR      r1,[r4,#0]
        0x0001038a:    6823        #h      LDR      r3,[r4,#0]
        0x0001038c:    f3c15185    ...Q    UBFX     r1,r1,#22,#6
        0x00010390:    390c        .9      SUBS     r1,r1,#0xc
        0x00010392:    f04f0200    O...    MOV      r2,#0
        0x00010396:    bf38        8.      IT       CC
        0x00010398:    4611        .F      MOVCC    r1,r2
        0x0001039a:    f023637c    #.|c    BIC      r3,r3,#0xfc00000
        0x0001039e:    ea435181    C..Q    ORR      r1,r3,r1,LSL #22
        0x000103a2:    6021        !`      STR      r1,[r4,#0]
        0x000103a4:    6821        !h      LDR      r1,[r4,#0]
        0x000103a6:    6823        #h      LDR      r3,[r4,#0]
        0x000103a8:    f3c12185    ...!    UBFX     r1,r1,#10,#6
        0x000103ac:    390d        .9      SUBS     r1,r1,#0xd
        0x000103ae:    bf38        8.      IT       CC
        0x000103b0:    4611        .F      MOVCC    r1,r2
        0x000103b2:    f423427c    #.|B    BIC      r2,r3,#0xfc00
        0x000103b6:    ea422181    B..!    ORR      r1,r2,r1,LSL #10
        0x000103ba:    6021        !`      STR      r1,[r4,#0]
        0x000103bc:    6861        ah      LDR      r1,[r4,#4]
        0x000103be:    2208        ."      MOVS     r2,#8
        0x000103c0:    f3625117    b..Q    BFI      r1,r2,#20,#4
        0x000103c4:    6061        a`      STR      r1,[r4,#4]
        0x000103c6:    6861        ah      LDR      r1,[r4,#4]
        0x000103c8:    2305        .#      MOVS     r3,#5
        0x000103ca:    f3634113    c..A    BFI      r1,r3,#16,#4
        0x000103ce:    6061        a`      STR      r1,[r4,#4]
        0x000103d0:    68e1        .h      LDR      r1,[r4,#0xc]
        0x000103d2:    f3620103    b...    BFI      r1,r2,#0,#4
        0x000103d6:    60e1        .`      STR      r1,[r4,#0xc]
        0x000103d8:    68a1        .h      LDR      r1,[r4,#8]
        0x000103da:    2206        ."      MOVS     r2,#6
        0x000103dc:    f36261de    b..a    BFI      r1,r2,#27,#4
        0x000103e0:    60a1        .`      STR      r1,[r4,#8]
        0x000103e2:    68e1        .h      LDR      r1,[r4,#0xc]
        0x000103e4:    f4410100    A...    ORR      r1,r1,#0x800000
        0x000103e8:    60e1        .`      STR      r1,[r4,#0xc]
        0x000103ea:    68e1        .h      LDR      r1,[r4,#0xc]
        0x000103ec:    f0217180    !..q    BIC      r1,r1,#0x1000000
        0x000103f0:    60e1        .`      STR      r1,[r4,#0xc]
        0x000103f2:    6861        ah      LDR      r1,[r4,#4]
        0x000103f4:    f0415140    A.@Q    ORR      r1,r1,#0x30000000
        0x000103f8:    6061        a`      STR      r1,[r4,#4]
        0x000103fa:    6861        ah      LDR      r1,[r4,#4]
        0x000103fc:    f041011f    A...    ORR      r1,r1,#0x1f
        0x00010400:    6061        a`      STR      r1,[r4,#4]
        0x00010402:    7841        Ax      LDRB     r1,[r0,#1]
        0x00010404:    2900        .)      CMP      r1,#0
        0x00010406:    f47faf72    ..r.    BNE      0x102ee ; am_hal_pwrctrl_low_power_init + 74
        0x0001040a:    2101        .!      MOVS     r1,#1
        0x0001040c:    7041        Ap      STRB     r1,[r0,#1]
        0x0001040e:    f6430038    C.8.    MOV      r0,#0x3838
        0x00010412:    f2c50002    ....    MOVT     r0,#0x5002
        0x00010416:    4601        .F      MOV      r1,r0
        0x00010418:    f8512b38    Q.8+    LDR      r2,[r1],#0x38
        0x0001041c:    f0120208    ....    ANDS     r2,r2,#8
        0x00010420:    f5a47232    ..2r    SUB      r2,r4,#0x2c8
        0x00010424:    bf08        ..      IT       EQ
        0x00010426:    f1000234    ..4.    ADDEQ    r2,r0,#0x34
        0x0001042a:    6810        .h      LDR      r0,[r2,#0]
        0x0001042c:    f64f5238    O.8R    MOV      r2,#0xfd38
        0x00010430:    f6cf72ff    ...r    MOVT     r2,#0xffff
        0x00010434:    bf18        ..      IT       NE
        0x00010436:    4621        !F      MOVNE    r1,r4
        0x00010438:    58a3        .X      LDR      r3,[r4,r2]
        0x0001043a:    f000003f    ..?.    AND      r0,r0,#0x3f
        0x0001043e:    f023033f    #.?.    BIC      r3,r3,#0x3f
        0x00010442:    283c        <(      CMP      r0,#0x3c
        0x00010444:    bf28        (.      IT       CS
        0x00010446:    203c        <       MOVCS    r0,#0x3c
        0x00010448:    50a3        .P      STR      r3,[r4,r2]
        0x0001044a:    58a3        .X      LDR      r3,[r4,r2]
        0x0001044c:    3003        .0      ADDS     r0,#3
        0x0001044e:    4318        .C      ORRS     r0,r0,r3
        0x00010450:    50a0        .P      STR      r0,[r4,r2]
        0x00010452:    6808        .h      LDR      r0,[r1,#0]
        0x00010454:    6821        !h      LDR      r1,[r4,#0]
        0x00010456:    f3c04005    ...@    UBFX     r0,r0,#16,#6
        0x0001045a:    f421117c    !.|.    BIC      r1,r1,#0x3f0000
        0x0001045e:    283a        :(      CMP      r0,#0x3a
        0x00010460:    bf28        (.      IT       CS
        0x00010462:    203a        :       MOVCS    r0,#0x3a
        0x00010464:    6021        !`      STR      r1,[r4,#0]
        0x00010466:    f44f21a0    O..!    MOV      r1,#0x50000
        0x0001046a:    eb014000    ...@    ADD      r0,r1,r0,LSL #16
        0x0001046e:    6821        !h      LDR      r1,[r4,#0]
        0x00010470:    f400107c    ..|.    AND      r0,r0,#0x3f0000
        0x00010474:    4308        .C      ORRS     r0,r0,r1
        0x00010476:    6020         `      STR      r0,[r4,#0]
        0x00010478:    5960        `Y      LDR      r0,[r4,r5]
        0x0001047a:    f00000fe    ....    AND      r0,r0,#0xfe
        0x0001047e:    2812        .(      CMP      r0,#0x12
        0x00010480:    f4bfaf3a    ..:.    BCS      0x102f8 ; am_hal_pwrctrl_low_power_init + 84
        0x00010484:    e73c        <.      B        0x10300 ; am_hal_pwrctrl_low_power_init + 92
        0x00010486:    bf00        ..      NOP      
        0x00010488:    6830        0h      LDR      r0,[r6,#0]
        0x0001048a:    f0400001    @...    ORR      r0,r0,#1
        0x0001048e:    6030        0`      STR      r0,[r6,#0]
        0x00010490:    6a70        pj      LDR      r0,[r6,#0x24]
        0x00010492:    f0400040    @.@.    ORR      r0,r0,#0x40
        0x00010496:    6270        pb      STR      r0,[r6,#0x24]
        0x00010498:    f7fdfaac    ....    BL       am_hal_burst_ldo_charge ; 0xd9f4
        0x0001049c:    2000        .       MOVS     r0,#0
        0x0001049e:    b002        ..      ADD      sp,sp,#8
        0x000104a0:    bd70        p.      POP      {r4-r6,pc}
        0x000104a2:    0000        ..      MOVS     r0,r0
    am_hal_pwrctrl_periph_disable
        0x000104a4:    b570        p.      PUSH     {r4-r6,lr}
        0x000104a6:    b082        ..      SUB      sp,sp,#8
        0x000104a8:    f2410508    A...    MOV      r5,#0x1008
        0x000104ac:    4604        .F      MOV      r4,r0
        0x000104ae:    f2c40502    ....    MOVT     r5,#0x4002
        0x000104b2:    f7fef96d    ..m.    BL       am_hal_interrupt_master_disable ; 0xe790
        0x000104b6:    f2427278    B.xr    MOV      r2,#0x2778
        0x000104ba:    9001        ..      STR      r0,[sp,#4]
        0x000104bc:    eb040144    ..D.    ADD      r1,r4,r4,LSL #1
        0x000104c0:    f2c00201    ....    MOVT     r2,#1
        0x000104c4:    f8524021    R.!@    LDR      r4,[r2,r1,LSL #2]
        0x000104c8:    6828        (h      LDR      r0,[r5,#0]
        0x000104ca:    eb020681    ....    ADD      r6,r2,r1,LSL #2
        0x000104ce:    43a0        .C      BICS     r0,r0,r4
        0x000104d0:    6028        (`      STR      r0,[r5,#0]
        0x000104d2:    9801        ..      LDR      r0,[sp,#4]
        0x000104d4:    f7fef964    ..d.    BL       am_hal_interrupt_master_set ; 0xe7a0
        0x000104d8:    20a0        .       MOVS     r0,#0xa0
        0x000104da:    f7fdff3d    ..=.    BL       am_hal_flash_delay ; 0xe358
        0x000104de:    6928        (i      LDR      r0,[r5,#0x10]
        0x000104e0:    6876        vh      LDR      r6,[r6,#4]
        0x000104e2:    4206        .B      TST      r6,r0
        0x000104e4:    d003        ..      BEQ      0x104ee ; am_hal_pwrctrl_periph_disable + 74
        0x000104e6:    20a0        .       MOVS     r0,#0xa0
        0x000104e8:    f7fdff36    ..6.    BL       am_hal_flash_delay ; 0xe358
        0x000104ec:    6928        (i      LDR      r0,[r5,#0x10]
        0x000104ee:    6928        (i      LDR      r0,[r5,#0x10]
        0x000104f0:    4206        .B      TST      r6,r0
        0x000104f2:    d00f        ..      BEQ      0x10514 ; am_hal_pwrctrl_periph_disable + 112
        0x000104f4:    6829        )h      LDR      r1,[r5,#0]
        0x000104f6:    2e0f        ..      CMP      r6,#0xf
        0x000104f8:    f04f0001    O...    MOV      r0,#1
        0x000104fc:    dc0e        ..      BGT      0x1051c ; am_hal_pwrctrl_periph_disable + 120
        0x000104fe:    2e04        ..      CMP      r6,#4
        0x00010500:    d01a        ..      BEQ      0x10538 ; am_hal_pwrctrl_periph_disable + 148
        0x00010502:    2e08        ..      CMP      r6,#8
        0x00010504:    d115        ..      BNE      0x10532 ; am_hal_pwrctrl_periph_disable + 142
        0x00010506:    f0110f0e    ....    TST      r1,#0xe
        0x0001050a:    d10e        ..      BNE      0x1052a ; am_hal_pwrctrl_periph_disable + 134
        0x0001050c:    2001        .       MOVS     r0,#1
        0x0001050e:    b002        ..      ADD      sp,sp,#8
        0x00010510:    bd70        p.      POP      {r4-r6,pc}
        0x00010512:    bf00        ..      NOP      
        0x00010514:    2000        .       MOVS     r0,#0
        0x00010516:    b002        ..      ADD      sp,sp,#8
        0x00010518:    bd70        p.      POP      {r4-r6,pc}
        0x0001051a:    bf00        ..      NOP      
        0x0001051c:    2e10        ..      CMP      r6,#0x10
        0x0001051e:    d011        ..      BEQ      0x10544 ; am_hal_pwrctrl_periph_disable + 160
        0x00010520:    2e40        @.      CMP      r6,#0x40
        0x00010522:    d106        ..      BNE      0x10532 ; am_hal_pwrctrl_periph_disable + 142
        0x00010524:    f4115f60    ..`_    TST      r1,#0x3800
        0x00010528:    d0f0        ..      BEQ      0x1050c ; am_hal_pwrctrl_periph_disable + 104
        0x0001052a:    ea110004    ....    ANDS     r0,r1,r4
        0x0001052e:    bf18        ..      IT       NE
        0x00010530:    2001        .       MOVNE    r0,#1
        0x00010532:    b002        ..      ADD      sp,sp,#8
        0x00010534:    bd70        p.      POP      {r4-r6,pc}
        0x00010536:    bf00        ..      NOP      
        0x00010538:    f2405081    @..P    MOV      r0,#0x581
        0x0001053c:    4201        .B      TST      r1,r0
        0x0001053e:    d1f4        ..      BNE      0x1052a ; am_hal_pwrctrl_periph_disable + 134
        0x00010540:    e7e4        ..      B        0x1050c ; am_hal_pwrctrl_periph_disable + 104
        0x00010542:    bf00        ..      NOP      
        0x00010544:    f0110f70    ..p.    TST      r1,#0x70
        0x00010548:    d1ef        ..      BNE      0x1052a ; am_hal_pwrctrl_periph_disable + 134
        0x0001054a:    e7df        ..      B        0x1050c ; am_hal_pwrctrl_periph_disable + 104
    am_hal_pwrctrl_periph_enable
        0x0001054c:    b570        p.      PUSH     {r4-r6,lr}
        0x0001054e:    b082        ..      SUB      sp,sp,#8
        0x00010550:    f2410508    A...    MOV      r5,#0x1008
        0x00010554:    4604        .F      MOV      r4,r0
        0x00010556:    f2c40502    ....    MOVT     r5,#0x4002
        0x0001055a:    f7fef919    ....    BL       am_hal_interrupt_master_disable ; 0xe790
        0x0001055e:    f2427278    B.xr    MOV      r2,#0x2778
        0x00010562:    9001        ..      STR      r0,[sp,#4]
        0x00010564:    eb040144    ..D.    ADD      r1,r4,r4,LSL #1
        0x00010568:    f2c00201    ....    MOVT     r2,#1
        0x0001056c:    f8524021    R.!@    LDR      r4,[r2,r1,LSL #2]
        0x00010570:    6828        (h      LDR      r0,[r5,#0]
        0x00010572:    eb020681    ....    ADD      r6,r2,r1,LSL #2
        0x00010576:    4320         C      ORRS     r0,r0,r4
        0x00010578:    6028        (`      STR      r0,[r5,#0]
        0x0001057a:    9801        ..      LDR      r0,[sp,#4]
        0x0001057c:    f7fef910    ....    BL       am_hal_interrupt_master_set ; 0xe7a0
        0x00010580:    20a0        .       MOVS     r0,#0xa0
        0x00010582:    f7fdfee9    ....    BL       am_hal_flash_delay ; 0xe358
        0x00010586:    6928        (i      LDR      r0,[r5,#0x10]
        0x00010588:    6876        vh      LDR      r6,[r6,#4]
        0x0001058a:    4206        .B      TST      r6,r0
        0x0001058c:    d006        ..      BEQ      0x1059c ; am_hal_pwrctrl_periph_enable + 80
        0x0001058e:    6928        (i      LDR      r0,[r5,#0x10]
        0x00010590:    4206        .B      TST      r6,r0
        0x00010592:    d00a        ..      BEQ      0x105aa ; am_hal_pwrctrl_periph_enable + 94
        0x00010594:    2000        .       MOVS     r0,#0
        0x00010596:    b002        ..      ADD      sp,sp,#8
        0x00010598:    bd70        p.      POP      {r4-r6,pc}
        0x0001059a:    bf00        ..      NOP      
        0x0001059c:    20a0        .       MOVS     r0,#0xa0
        0x0001059e:    f7fdfedb    ....    BL       am_hal_flash_delay ; 0xe358
        0x000105a2:    6928        (i      LDR      r0,[r5,#0x10]
        0x000105a4:    6928        (i      LDR      r0,[r5,#0x10]
        0x000105a6:    4206        .B      TST      r6,r0
        0x000105a8:    d1f4        ..      BNE      0x10594 ; am_hal_pwrctrl_periph_enable + 72
        0x000105aa:    f7fef8f1    ....    BL       am_hal_interrupt_master_disable ; 0xe790
        0x000105ae:    9000        ..      STR      r0,[sp,#0]
        0x000105b0:    6828        (h      LDR      r0,[r5,#0]
        0x000105b2:    43a0        .C      BICS     r0,r0,r4
        0x000105b4:    6028        (`      STR      r0,[r5,#0]
        0x000105b6:    9800        ..      LDR      r0,[sp,#0]
        0x000105b8:    f7fef8f2    ....    BL       am_hal_interrupt_master_set ; 0xe7a0
        0x000105bc:    2001        .       MOVS     r0,#1
        0x000105be:    b002        ..      ADD      sp,sp,#8
        0x000105c0:    bd70        p.      POP      {r4-r6,pc}
        0x000105c2:    0000        ..      MOVS     r0,r0
    am_hal_rtc_osc_disable
        0x000105c4:    f2442050    D.P     MOV      r0,#0x4250
        0x000105c8:    f2c40000    ....    MOVT     r0,#0x4000
        0x000105cc:    6801        .h      LDR      r1,[r0,#0]
        0x000105ce:    f0410110    A...    ORR      r1,r1,#0x10
        0x000105d2:    6001        .`      STR      r1,[r0,#0]
        0x000105d4:    4770        pG      BX       lr
        0x000105d6:    0000        ..      MOVS     r0,r0
    am_hal_tpiu_enable
        0x000105d8:    b570        p.      PUSH     {r4-r6,lr}
        0x000105da:    b084        ..      SUB      sp,sp,#0x10
        0x000105dc:    6806        .h      LDR      r6,[r0,#0]
        0x000105de:    f6407400    @..t    MOVW     r4,#0xf00
        0x000105e2:    2504        .%      MOVS     r5,#4
        0x000105e4:    f2ce0404    ....    MOVT     r4,#0xe004
        0x000105e8:    f2ce0504    ....    MOVT     r5,#0xe004
        0x000105ec:    2200        ."      MOVS     r2,#0
        0x000105ee:    f8c52300    ...#    STR      r2,[r5,#0x300]
        0x000105f2:    b1de        ..      CBZ      r6,0x1062c ; am_hal_tpiu_enable + 84
        0x000105f4:    2001        .       MOVS     r0,#1
        0x000105f6:    6028        (`      STR      r0,[r5,#0]
        0x000105f8:    a801        ..      ADD      r0,sp,#4
        0x000105fa:    f7fdfc1b    ....    BL       am_hal_clkgen_status_get ; 0xde34
        0x000105fe:    9801        ..      LDR      r0,[sp,#4]
        0x00010600:    1c41        A.      ADDS     r1,r0,#1
        0x00010602:    d021        !.      BEQ      0x10648 ; am_hal_tpiu_enable + 112
        0x00010604:    f647317f    G..1    MOV      r1,#0x7b7f
        0x00010608:    f6cf71e1    ...q    MOVT     r1,#0xffe1
        0x0001060c:    1872        r.      ADDS     r2,r6,r1
        0x0001060e:    f5014161    ..aA    ADD      r1,r1,#0xe100
        0x00010612:    08c0        ..      LSRS     r0,r0,#3
        0x00010614:    428a        .B      CMP      r2,r1
        0x00010616:    bf3c        <.      ITT      CC
        0x00010618:    f2442640    D.@&    MOVCC    r6,#0x4240
        0x0001061c:    f2c0060f    ....    MOVTCC   r6,#0xf
        0x00010620:    fbb0f0f6    ....    UDIV     r0,r0,r6
        0x00010624:    3801        .8      SUBS     r0,#1
        0x00010626:    b280        ..      UXTH     r0,r0
        0x00010628:    e00f        ..      B        0x1064a ; am_hal_tpiu_enable + 114
        0x0001062a:    bf00        ..      NOP      
        0x0001062c:    e9d01301    ....    LDRD     r1,r3,[r0,#4]
        0x00010630:    e9d00603    ....    LDRD     r0,r6,[r0,#0xc]
        0x00010634:    60ee        .`      STR      r6,[r5,#0xc]
        0x00010636:    f8c530ec    ...0    STR      r3,[r5,#0xec]
        0x0001063a:    3801        .8      SUBS     r0,#1
        0x0001063c:    2301        .#      MOVS     r3,#1
        0x0001063e:    fa03f000    ....    LSL      r0,r3,r0
        0x00010642:    6028        (`      STR      r0,[r5,#0]
        0x00010644:    6022        "`      STR      r2,[r4,#0]
        0x00010646:    e008        ..      B        0x1065a ; am_hal_tpiu_enable + 130
        0x00010648:    2005        .       MOVS     r0,#5
        0x0001064a:    60e8        .`      STR      r0,[r5,#0xc]
        0x0001064c:    2002        .       MOVS     r0,#2
        0x0001064e:    f8c500ec    ....    STR      r0,[r5,#0xec]
        0x00010652:    2000        .       MOVS     r0,#0
        0x00010654:    6020         `      STR      r0,[r4,#0]
        0x00010656:    f2402101    @..!    MOV      r1,#0x201
        0x0001065a:    f2402050    @.P     MOVW     r0,#0x250
        0x0001065e:    f2c40002    ....    MOVT     r0,#0x4002
        0x00010662:    6001        .`      STR      r1,[r0,#0]
        0x00010664:    f44f7048    O.Hp    MOV      r0,#0x320
        0x00010668:    f7fdfe76    ..v.    BL       am_hal_flash_delay ; 0xe358
        0x0001066c:    b004        ..      ADD      sp,sp,#0x10
        0x0001066e:    bd70        p.      POP      {r4-r6,pc}
    am_mspi1_isr
        0x00010670:    b580        ..      PUSH     {r7,lr}
        0x00010672:    b082        ..      SUB      sp,sp,#8
        0x00010674:    f64350cc    C..P    MOV      r0,#0x3dcc
        0x00010678:    f2c10001    ....    MOVT     r0,#0x1001
        0x0001067c:    9000        ..      STR      r0,[sp,#0]
        0x0001067e:    6800        .h      LDR      r0,[r0,#0]
        0x00010680:    a901        ..      ADD      r1,sp,#4
        0x00010682:    2200        ."      MOVS     r2,#0
        0x00010684:    f7fffbf6    ....    BL       am_hal_mspi_interrupt_status_get ; 0xfe74
        0x00010688:    9800        ..      LDR      r0,[sp,#0]
        0x0001068a:    6800        .h      LDR      r0,[r0,#0]
        0x0001068c:    9901        ..      LDR      r1,[sp,#4]
        0x0001068e:    f7fffa4d    ..M.    BL       am_hal_mspi_interrupt_clear ; 0xfb2c
        0x00010692:    9800        ..      LDR      r0,[sp,#0]
        0x00010694:    6800        .h      LDR      r0,[r0,#0]
        0x00010696:    9901        ..      LDR      r1,[sp,#4]
        0x00010698:    f7fffa8e    ....    BL       am_hal_mspi_interrupt_service ; 0xfbb8
        0x0001069c:    b002        ..      ADD      sp,sp,#8
        0x0001069e:    bd80        ..      POP      {r7,pc}
    am_util_delay_ms
        0x000106a0:    b580        ..      PUSH     {r7,lr}
        0x000106a2:    b086        ..      SUB      sp,sp,#0x18
        0x000106a4:    9005        ..      STR      r0,[sp,#0x14]
        0x000106a6:    4668        hF      MOV      r0,sp
        0x000106a8:    f7fdfbc4    ....    BL       am_hal_clkgen_status_get ; 0xde34
        0x000106ac:    9800        ..      LDR      r0,[sp,#0]
        0x000106ae:    9003        ..      STR      r0,[sp,#0xc]
        0x000106b0:    9805        ..      LDR      r0,[sp,#0x14]
        0x000106b2:    9903        ..      LDR      r1,[sp,#0xc]
        0x000106b4:    f64112f1    A...    MOV      r2,#0x19f1
        0x000106b8:    f2c05276    ..vR    MOVT     r2,#0x576
        0x000106bc:    fba12102    ...!    UMULL    r2,r1,r1,r2
        0x000106c0:    0989        ..      LSRS     r1,r1,#6
        0x000106c2:    4348        HC      MULS     r0,r1,r0
        0x000106c4:    9004        ..      STR      r0,[sp,#0x10]
        0x000106c6:    9804        ..      LDR      r0,[sp,#0x10]
        0x000106c8:    f7fdfe46    ..F.    BL       am_hal_flash_delay ; 0xe358
        0x000106cc:    b006        ..      ADD      sp,sp,#0x18
        0x000106ce:    bd80        ..      POP      {r7,pc}
    am_util_delay_us
        0x000106d0:    b580        ..      PUSH     {r7,lr}
        0x000106d2:    b086        ..      SUB      sp,sp,#0x18
        0x000106d4:    9005        ..      STR      r0,[sp,#0x14]
        0x000106d6:    4668        hF      MOV      r0,sp
        0x000106d8:    f7fdfbac    ....    BL       am_hal_clkgen_status_get ; 0xde34
        0x000106dc:    9800        ..      LDR      r0,[sp,#0]
        0x000106de:    9003        ..      STR      r0,[sp,#0xc]
        0x000106e0:    9805        ..      LDR      r0,[sp,#0x14]
        0x000106e2:    9903        ..      LDR      r1,[sp,#0xc]
        0x000106e4:    f6497281    I..r    MOV      r2,#0x9f81
        0x000106e8:    f2c1625e    ..^b    MOVT     r2,#0x165e
        0x000106ec:    fba12102    ...!    UMULL    r2,r1,r1,r2
        0x000106f0:    0c89        ..      LSRS     r1,r1,#18
        0x000106f2:    4348        HC      MULS     r0,r1,r0
        0x000106f4:    9004        ..      STR      r0,[sp,#0x10]
        0x000106f6:    9804        ..      LDR      r0,[sp,#0x10]
        0x000106f8:    f7fdfe2e    ....    BL       am_hal_flash_delay ; 0xe358
        0x000106fc:    b006        ..      ADD      sp,sp,#0x18
        0x000106fe:    bd80        ..      POP      {r7,pc}
    am_util_faultisr_collect_data
        0x00010700:    b580        ..      PUSH     {r7,lr}
        0x00010702:    b096        ..      SUB      sp,sp,#0x58
        0x00010704:    9015        ..      STR      r0,[sp,#0x54]
        0x00010706:    2000        .       MOVS     r0,#0
        0x00010708:    9008        ..      STR      r0,[sp,#0x20]
        0x0001070a:    9007        ..      STR      r0,[sp,#0x1c]
        0x0001070c:    9006        ..      STR      r0,[sp,#0x18]
        0x0001070e:    9005        ..      STR      r0,[sp,#0x14]
        0x00010710:    9004        ..      STR      r0,[sp,#0x10]
        0x00010712:    9003        ..      STR      r0,[sp,#0xc]
        0x00010714:    9002        ..      STR      r0,[sp,#8]
        0x00010716:    9802        ..      LDR      r0,[sp,#8]
        0x00010718:    9013        ..      STR      r0,[sp,#0x4c]
        0x0001071a:    f64e5028    N.(P    MOV      r0,#0xed28
        0x0001071e:    f2ce0000    ....    MOVT     r0,#0xe000
        0x00010722:    6800        .h      LDR      r0,[r0,#0]
        0x00010724:    9013        ..      STR      r0,[sp,#0x4c]
        0x00010726:    9813        ..      LDR      r0,[sp,#0x4c]
        0x00010728:    f88d0050    ..P.    STRB     r0,[sp,#0x50]
        0x0001072c:    9813        ..      LDR      r0,[sp,#0x4c]
        0x0001072e:    0a00        ..      LSRS     r0,r0,#8
        0x00010730:    f88d0051    ..Q.    STRB     r0,[sp,#0x51]
        0x00010734:    9813        ..      LDR      r0,[sp,#0x4c]
        0x00010736:    0c00        ..      LSRS     r0,r0,#16
        0x00010738:    f8ad0052    ..R.    STRH     r0,[sp,#0x52]
        0x0001073c:    f64e5038    N.8P    MOV      r0,#0xed38
        0x00010740:    f2ce0000    ....    MOVT     r0,#0xe000
        0x00010744:    6800        .h      LDR      r0,[r0,#0]
        0x00010746:    9012        ..      STR      r0,[sp,#0x48]
        0x00010748:    9815        ..      LDR      r0,[sp,#0x54]
        0x0001074a:    f000fcd9    ....    BL       am_valid_sp ; 0x11100
        0x0001074e:    b3d8        ..      CBZ      r0,0x107c8 ; am_util_faultisr_collect_data + 200
        0x00010750:    e7ff        ..      B        0x10752 ; am_util_faultisr_collect_data + 82
        0x00010752:    f89d0051    ..Q.    LDRB     r0,[sp,#0x51]
        0x00010756:    0780        ..      LSLS     r0,r0,#30
        0x00010758:    2800        .(      CMP      r0,#0
        0x0001075a:    d506        ..      BPL      0x1076a ; am_util_faultisr_collect_data + 106
        0x0001075c:    e7ff        ..      B        0x1075e ; am_util_faultisr_collect_data + 94
        0x0001075e:    9915        ..      LDR      r1,[sp,#0x54]
        0x00010760:    2006        .       MOVS     r0,#6
        0x00010762:    f7fdf93d    ..=.    BL       am_getStackedReg ; 0xd9e0
        0x00010766:    9001        ..      STR      r0,[sp,#4]
        0x00010768:    e003        ..      B        0x10772 ; am_util_faultisr_collect_data + 114
        0x0001076a:    f04f30ff    O..0    MOV      r0,#0xffffffff
        0x0001076e:    9001        ..      STR      r0,[sp,#4]
        0x00010770:    e7ff        ..      B        0x10772 ; am_util_faultisr_collect_data + 114
        0x00010772:    9801        ..      LDR      r0,[sp,#4]
        0x00010774:    9011        ..      STR      r0,[sp,#0x44]
        0x00010776:    9915        ..      LDR      r1,[sp,#0x54]
        0x00010778:    2000        .       MOVS     r0,#0
        0x0001077a:    f7fdf931    ..1.    BL       am_getStackedReg ; 0xd9e0
        0x0001077e:    9009        ..      STR      r0,[sp,#0x24]
        0x00010780:    9915        ..      LDR      r1,[sp,#0x54]
        0x00010782:    2001        .       MOVS     r0,#1
        0x00010784:    f7fdf92c    ..,.    BL       am_getStackedReg ; 0xd9e0
        0x00010788:    900a        ..      STR      r0,[sp,#0x28]
        0x0001078a:    9915        ..      LDR      r1,[sp,#0x54]
        0x0001078c:    2002        .       MOVS     r0,#2
        0x0001078e:    f7fdf927    ..'.    BL       am_getStackedReg ; 0xd9e0
        0x00010792:    900b        ..      STR      r0,[sp,#0x2c]
        0x00010794:    9915        ..      LDR      r1,[sp,#0x54]
        0x00010796:    2003        .       MOVS     r0,#3
        0x00010798:    f7fdf922    ..".    BL       am_getStackedReg ; 0xd9e0
        0x0001079c:    900c        ..      STR      r0,[sp,#0x30]
        0x0001079e:    9915        ..      LDR      r1,[sp,#0x54]
        0x000107a0:    2004        .       MOVS     r0,#4
        0x000107a2:    f7fdf91d    ....    BL       am_getStackedReg ; 0xd9e0
        0x000107a6:    900d        ..      STR      r0,[sp,#0x34]
        0x000107a8:    9915        ..      LDR      r1,[sp,#0x54]
        0x000107aa:    2005        .       MOVS     r0,#5
        0x000107ac:    f7fdf918    ....    BL       am_getStackedReg ; 0xd9e0
        0x000107b0:    900e        ..      STR      r0,[sp,#0x38]
        0x000107b2:    9915        ..      LDR      r1,[sp,#0x54]
        0x000107b4:    2006        .       MOVS     r0,#6
        0x000107b6:    f7fdf913    ....    BL       am_getStackedReg ; 0xd9e0
        0x000107ba:    900f        ..      STR      r0,[sp,#0x3c]
        0x000107bc:    9915        ..      LDR      r1,[sp,#0x54]
        0x000107be:    2007        .       MOVS     r0,#7
        0x000107c0:    f7fdf90e    ....    BL       am_getStackedReg ; 0xd9e0
        0x000107c4:    9010        ..      STR      r0,[sp,#0x40]
        0x000107c6:    e7ff        ..      B        0x107c8 ; am_util_faultisr_collect_data + 200
        0x000107c8:    2002        .       MOVS     r0,#2
        0x000107ca:    a903        ..      ADD      r1,sp,#0xc
        0x000107cc:    f7fef976    ..v.    BL       am_hal_mcuctrl_info_get ; 0xeabc
        0x000107d0:    f243105f    C._.    MOV      r0,#0x315f
        0x000107d4:    f2c00001    ....    MOVT     r0,#1
        0x000107d8:    f000f928    ..(.    BL       am_util_stdio_printf ; 0x10a2c
        0x000107dc:    9815        ..      LDR      r0,[sp,#0x54]
        0x000107de:    f000fc8f    ....    BL       am_valid_sp ; 0x11100
        0x000107e2:    b938        8.      CBNZ     r0,0x107f4 ; am_util_faultisr_collect_data + 244
        0x000107e4:    e7ff        ..      B        0x107e6 ; am_util_faultisr_collect_data + 230
        0x000107e6:    f24300ee    C...    MOV      r0,#0x30ee
        0x000107ea:    f2c00001    ....    MOVT     r0,#1
        0x000107ee:    f000f91d    ....    BL       am_util_stdio_printf ; 0x10a2c
        0x000107f2:    e03e        >.      B        0x10872 ; am_util_faultisr_collect_data + 370
        0x000107f4:    f243108c    C...    MOV      r0,#0x318c
        0x000107f8:    f2c00001    ....    MOVT     r0,#1
        0x000107fc:    f000f916    ....    BL       am_util_stdio_printf ; 0x10a2c
        0x00010800:    9909        ..      LDR      r1,[sp,#0x24]
        0x00010802:    f243309f    C..0    MOV      r0,#0x339f
        0x00010806:    f2c00001    ....    MOVT     r0,#1
        0x0001080a:    f000f90f    ....    BL       am_util_stdio_printf ; 0x10a2c
        0x0001080e:    990a        ..      LDR      r1,[sp,#0x28]
        0x00010810:    f24330b1    C..0    MOV      r0,#0x33b1
        0x00010814:    f2c00001    ....    MOVT     r0,#1
        0x00010818:    f000f908    ....    BL       am_util_stdio_printf ; 0x10a2c
        0x0001081c:    990b        ..      LDR      r1,[sp,#0x2c]
        0x0001081e:    f24330c3    C..0    MOV      r0,#0x33c3
        0x00010822:    f2c00001    ....    MOVT     r0,#1
        0x00010826:    f000f901    ....    BL       am_util_stdio_printf ; 0x10a2c
        0x0001082a:    990c        ..      LDR      r1,[sp,#0x30]
        0x0001082c:    f24330d5    C..0    MOV      r0,#0x33d5
        0x00010830:    f2c00001    ....    MOVT     r0,#1
        0x00010834:    f000f8fa    ....    BL       am_util_stdio_printf ; 0x10a2c
        0x00010838:    990d        ..      LDR      r1,[sp,#0x34]
        0x0001083a:    f2434033    C.3@    MOV      r0,#0x3433
        0x0001083e:    f2c00001    ....    MOVT     r0,#1
        0x00010842:    f000f8f3    ....    BL       am_util_stdio_printf ; 0x10a2c
        0x00010846:    990e        ..      LDR      r1,[sp,#0x38]
        0x00010848:    f24330f9    C..0    MOV      r0,#0x33f9
        0x0001084c:    f2c00001    ....    MOVT     r0,#1
        0x00010850:    f000f8ec    ....    BL       am_util_stdio_printf ; 0x10a2c
        0x00010854:    990f        ..      LDR      r1,[sp,#0x3c]
        0x00010856:    f24330e7    C..0    MOV      r0,#0x33e7
        0x0001085a:    f2c00001    ....    MOVT     r0,#1
        0x0001085e:    f000f8e5    ....    BL       am_util_stdio_printf ; 0x10a2c
        0x00010862:    9910        ..      LDR      r1,[sp,#0x40]
        0x00010864:    f2431079    C.y.    MOV      r0,#0x3179
        0x00010868:    f2c00001    ....    MOVT     r0,#1
        0x0001086c:    f000f8de    ....    BL       am_util_stdio_printf ; 0x10a2c
        0x00010870:    e7ff        ..      B        0x10872 ; am_util_faultisr_collect_data + 370
        0x00010872:    f24310b8    C...    MOV      r0,#0x31b8
        0x00010876:    f2c00001    ....    MOVT     r0,#1
        0x0001087a:    f000f8d7    ....    BL       am_util_stdio_printf ; 0x10a2c
        0x0001087e:    9911        ..      LDR      r1,[sp,#0x44]
        0x00010880:    f2434045    C.E@    MOV      r0,#0x3445
        0x00010884:    f2c00001    ....    MOVT     r0,#1
        0x00010888:    f000f8d0    ....    BL       am_util_stdio_printf ; 0x10a2c
        0x0001088c:    9912        ..      LDR      r1,[sp,#0x48]
        0x0001088e:    f243400b    C..@    MOV      r0,#0x340b
        0x00010892:    f2c00001    ....    MOVT     r0,#1
        0x00010896:    f000f8c9    ....    BL       am_util_stdio_printf ; 0x10a2c
        0x0001089a:    f89d1050    ..P.    LDRB     r1,[sp,#0x50]
        0x0001089e:    f24320e3    C..     MOV      r0,#0x32e3
        0x000108a2:    f2c00001    ....    MOVT     r0,#1
        0x000108a6:    f000f8c1    ....    BL       am_util_stdio_printf ; 0x10a2c
        0x000108aa:    f8bd1052    ..R.    LDRH     r1,[sp,#0x52]
        0x000108ae:    f2433012    C..0    MOV      r0,#0x3312
        0x000108b2:    f2c00001    ....    MOVT     r0,#1
        0x000108b6:    f000f8b9    ....    BL       am_util_stdio_printf ; 0x10a2c
        0x000108ba:    f89d1051    ..Q.    LDRB     r1,[sp,#0x51]
        0x000108be:    f24320b9    C..     MOV      r0,#0x32b9
        0x000108c2:    f2c00001    ....    MOVT     r0,#1
        0x000108c6:    f000f8b1    ....    BL       am_util_stdio_printf ; 0x10a2c
        0x000108ca:    2080        .       MOVS     r0,#0x80
        0x000108cc:    9002        ..      STR      r0,[sp,#8]
        0x000108ce:    e7ff        ..      B        0x108d0 ; am_util_faultisr_collect_data + 464
        0x000108d0:    9802        ..      LDR      r0,[sp,#8]
        0x000108d2:    2800        .(      CMP      r0,#0
        0x000108d4:    d062        b.      BEQ      0x1099c ; am_util_faultisr_collect_data + 668
        0x000108d6:    e7ff        ..      B        0x108d8 ; am_util_faultisr_collect_data + 472
        0x000108d8:    f89d0051    ..Q.    LDRB     r0,[sp,#0x51]
        0x000108dc:    9902        ..      LDR      r1,[sp,#8]
        0x000108de:    4008        .@      ANDS     r0,r0,r1
        0x000108e0:    4601        .F      MOV      r1,r0
        0x000108e2:    9100        ..      STR      r1,[sp,#0]
        0x000108e4:    2801        .(      CMP      r0,#1
        0x000108e6:    d04d        M.      BEQ      0x10984 ; am_util_faultisr_collect_data + 644
        0x000108e8:    e7ff        ..      B        0x108ea ; am_util_faultisr_collect_data + 490
        0x000108ea:    9800        ..      LDR      r0,[sp,#0]
        0x000108ec:    2802        .(      CMP      r0,#2
        0x000108ee:    d042        B.      BEQ      0x10976 ; am_util_faultisr_collect_data + 630
        0x000108f0:    e7ff        ..      B        0x108f2 ; am_util_faultisr_collect_data + 498
        0x000108f2:    9800        ..      LDR      r0,[sp,#0]
        0x000108f4:    2804        .(      CMP      r0,#4
        0x000108f6:    d037        7.      BEQ      0x10968 ; am_util_faultisr_collect_data + 616
        0x000108f8:    e7ff        ..      B        0x108fa ; am_util_faultisr_collect_data + 506
        0x000108fa:    9800        ..      LDR      r0,[sp,#0]
        0x000108fc:    2808        .(      CMP      r0,#8
        0x000108fe:    d02c        ,.      BEQ      0x1095a ; am_util_faultisr_collect_data + 602
        0x00010900:    e7ff        ..      B        0x10902 ; am_util_faultisr_collect_data + 514
        0x00010902:    9800        ..      LDR      r0,[sp,#0]
        0x00010904:    2810        .(      CMP      r0,#0x10
        0x00010906:    d021        !.      BEQ      0x1094c ; am_util_faultisr_collect_data + 588
        0x00010908:    e7ff        ..      B        0x1090a ; am_util_faultisr_collect_data + 522
        0x0001090a:    9800        ..      LDR      r0,[sp,#0]
        0x0001090c:    2820         (      CMP      r0,#0x20
        0x0001090e:    d016        ..      BEQ      0x1093e ; am_util_faultisr_collect_data + 574
        0x00010910:    e7ff        ..      B        0x10912 ; am_util_faultisr_collect_data + 530
        0x00010912:    9800        ..      LDR      r0,[sp,#0]
        0x00010914:    2840        @(      CMP      r0,#0x40
        0x00010916:    d00b        ..      BEQ      0x10930 ; am_util_faultisr_collect_data + 560
        0x00010918:    e7ff        ..      B        0x1091a ; am_util_faultisr_collect_data + 538
        0x0001091a:    9800        ..      LDR      r0,[sp,#0]
        0x0001091c:    2880        .(      CMP      r0,#0x80
        0x0001091e:    d138        8.      BNE      0x10992 ; am_util_faultisr_collect_data + 658
        0x00010920:    e7ff        ..      B        0x10922 ; am_util_faultisr_collect_data + 546
        0x00010922:    f24310ed    C...    MOV      r0,#0x31ed
        0x00010926:    f2c00001    ....    MOVT     r0,#1
        0x0001092a:    f000f87f    ....    BL       am_util_stdio_printf ; 0x10a2c
        0x0001092e:    e031        1.      B        0x10994 ; am_util_faultisr_collect_data + 660
        0x00010930:    f24310d0    C...    MOV      r0,#0x31d0
        0x00010934:    f2c00001    ....    MOVT     r0,#1
        0x00010938:    f000f878    ..x.    BL       am_util_stdio_printf ; 0x10a2c
        0x0001093c:    e02a        *.      B        0x10994 ; am_util_faultisr_collect_data + 660
        0x0001093e:    f2432062    C.b     MOV      r0,#0x3262
        0x00010942:    f2c00001    ....    MOVT     r0,#1
        0x00010946:    f000f871    ..q.    BL       am_util_stdio_printf ; 0x10a2c
        0x0001094a:    e023        #.      B        0x10994 ; am_util_faultisr_collect_data + 660
        0x0001094c:    f243202a    C.*     MOV      r0,#0x322a
        0x00010950:    f2c00001    ....    MOVT     r0,#1
        0x00010954:    f000f86a    ..j.    BL       am_util_stdio_printf ; 0x10a2c
        0x00010958:    e01c        ..      B        0x10994 ; am_util_faultisr_collect_data + 660
        0x0001095a:    f2432045    C.E     MOV      r0,#0x3245
        0x0001095e:    f2c00001    ....    MOVT     r0,#1
        0x00010962:    f000f863    ..c.    BL       am_util_stdio_printf ; 0x10a2c
        0x00010966:    e015        ..      B        0x10994 ; am_util_faultisr_collect_data + 660
        0x00010968:    f243207d    C.}     MOV      r0,#0x327d
        0x0001096c:    f2c00001    ....    MOVT     r0,#1
        0x00010970:    f000f85c    ..\.    BL       am_util_stdio_printf ; 0x10a2c
        0x00010974:    e00e        ..      B        0x10994 ; am_util_faultisr_collect_data + 660
        0x00010976:    f243200b    C..     MOV      r0,#0x320b
        0x0001097a:    f2c00001    ....    MOVT     r0,#1
        0x0001097e:    f000f855    ..U.    BL       am_util_stdio_printf ; 0x10a2c
        0x00010982:    e007        ..      B        0x10994 ; am_util_faultisr_collect_data + 660
        0x00010984:    f243209d    C..     MOV      r0,#0x329d
        0x00010988:    f2c00001    ....    MOVT     r0,#1
        0x0001098c:    f000f84e    ..N.    BL       am_util_stdio_printf ; 0x10a2c
        0x00010990:    e000        ..      B        0x10994 ; am_util_faultisr_collect_data + 660
        0x00010992:    e7ff        ..      B        0x10994 ; am_util_faultisr_collect_data + 660
        0x00010994:    9802        ..      LDR      r0,[sp,#8]
        0x00010996:    0840        @.      LSRS     r0,r0,#1
        0x00010998:    9002        ..      STR      r0,[sp,#8]
        0x0001099a:    e799        ..      B        0x108d0 ; am_util_faultisr_collect_data + 464
        0x0001099c:    f89d000c    ....    LDRB     r0,[sp,#0xc]
        0x000109a0:    07c0        ..      LSLS     r0,r0,#31
        0x000109a2:    b950        P.      CBNZ     r0,0x109ba ; am_util_faultisr_collect_data + 698
        0x000109a4:    e7ff        ..      B        0x109a6 ; am_util_faultisr_collect_data + 678
        0x000109a6:    f89d0014    ....    LDRB     r0,[sp,#0x14]
        0x000109aa:    07c0        ..      LSLS     r0,r0,#31
        0x000109ac:    b928        (.      CBNZ     r0,0x109ba ; am_util_faultisr_collect_data + 698
        0x000109ae:    e7ff        ..      B        0x109b0 ; am_util_faultisr_collect_data + 688
        0x000109b0:    f89d001c    ....    LDRB     r0,[sp,#0x1c]
        0x000109b4:    07c0        ..      LSLS     r0,r0,#31
        0x000109b6:    b138        8.      CBZ      r0,0x109c8 ; am_util_faultisr_collect_data + 712
        0x000109b8:    e7ff        ..      B        0x109ba ; am_util_faultisr_collect_data + 698
        0x000109ba:    f24310a6    C...    MOV      r0,#0x31a6
        0x000109be:    f2c00001    ....    MOVT     r0,#1
        0x000109c2:    f000f833    ..3.    BL       am_util_stdio_printf ; 0x10a2c
        0x000109c6:    e7ff        ..      B        0x109c8 ; am_util_faultisr_collect_data + 712
        0x000109c8:    f89d000c    ....    LDRB     r0,[sp,#0xc]
        0x000109cc:    07c0        ..      LSLS     r0,r0,#31
        0x000109ce:    b140        @.      CBZ      r0,0x109e2 ; am_util_faultisr_collect_data + 738
        0x000109d0:    e7ff        ..      B        0x109d2 ; am_util_faultisr_collect_data + 722
        0x000109d2:    9904        ..      LDR      r1,[sp,#0x10]
        0x000109d4:    f243305f    C._0    MOV      r0,#0x335f
        0x000109d8:    f2c00001    ....    MOVT     r0,#1
        0x000109dc:    f000f826    ..&.    BL       am_util_stdio_printf ; 0x10a2c
        0x000109e0:    e7ff        ..      B        0x109e2 ; am_util_faultisr_collect_data + 738
        0x000109e2:    f89d0014    ....    LDRB     r0,[sp,#0x14]
        0x000109e6:    07c0        ..      LSLS     r0,r0,#31
        0x000109e8:    b140        @.      CBZ      r0,0x109fc ; am_util_faultisr_collect_data + 764
        0x000109ea:    e7ff        ..      B        0x109ec ; am_util_faultisr_collect_data + 748
        0x000109ec:    9906        ..      LDR      r1,[sp,#0x18]
        0x000109ee:    f243303e    C.>0    MOV      r0,#0x333e
        0x000109f2:    f2c00001    ....    MOVT     r0,#1
        0x000109f6:    f000f819    ....    BL       am_util_stdio_printf ; 0x10a2c
        0x000109fa:    e7ff        ..      B        0x109fc ; am_util_faultisr_collect_data + 764
        0x000109fc:    f89d001c    ....    LDRB     r0,[sp,#0x1c]
        0x00010a00:    07c0        ..      LSLS     r0,r0,#31
        0x00010a02:    b140        @.      CBZ      r0,0x10a16 ; am_util_faultisr_collect_data + 790
        0x00010a04:    e7ff        ..      B        0x10a06 ; am_util_faultisr_collect_data + 774
        0x00010a06:    9908        ..      LDR      r1,[sp,#0x20]
        0x00010a08:    f2433080    C..0    MOVW     r0,#0x3380
        0x00010a0c:    f2c00001    ....    MOVT     r0,#1
        0x00010a10:    f000f80c    ....    BL       am_util_stdio_printf ; 0x10a2c
        0x00010a14:    e7ff        ..      B        0x10a16 ; am_util_faultisr_collect_data + 790
        0x00010a16:    f2431031    C.1.    MOV      r0,#0x3131
        0x00010a1a:    f2c00001    ....    MOVT     r0,#1
        0x00010a1e:    f000f805    ....    BL       am_util_stdio_printf ; 0x10a2c
        0x00010a22:    2000        .       MOVS     r0,#0
        0x00010a24:    9002        ..      STR      r0,[sp,#8]
        0x00010a26:    e7ff        ..      B        0x10a28 ; am_util_faultisr_collect_data + 808
        0x00010a28:    e7fe        ..      B        0x10a28 ; am_util_faultisr_collect_data + 808
        0x00010a2a:    0000        ..      MOVS     r0,r0
    am_util_stdio_printf
        0x00010a2c:    b083        ..      SUB      sp,sp,#0xc
        0x00010a2e:    b580        ..      PUSH     {r7,lr}
        0x00010a30:    b085        ..      SUB      sp,sp,#0x14
        0x00010a32:    9309        ..      STR      r3,[sp,#0x24]
        0x00010a34:    9208        ..      STR      r2,[sp,#0x20]
        0x00010a36:    9107        ..      STR      r1,[sp,#0x1c]
        0x00010a38:    9003        ..      STR      r0,[sp,#0xc]
        0x00010a3a:    f64570cc    E..p    MOV      r0,#0x5fcc
        0x00010a3e:    f2c10001    ....    MOVT     r0,#0x1001
        0x00010a42:    6800        .h      LDR      r0,[r0,#0]
        0x00010a44:    b918        ..      CBNZ     r0,0x10a4e ; am_util_stdio_printf + 34
        0x00010a46:    e7ff        ..      B        0x10a48 ; am_util_stdio_printf + 28
        0x00010a48:    2000        .       MOVS     r0,#0
        0x00010a4a:    9004        ..      STR      r0,[sp,#0x10]
        0x00010a4c:    e016        ..      B        0x10a7c ; am_util_stdio_printf + 80
        0x00010a4e:    a807        ..      ADD      r0,sp,#0x1c
        0x00010a50:    9001        ..      STR      r0,[sp,#4]
        0x00010a52:    9903        ..      LDR      r1,[sp,#0xc]
        0x00010a54:    9a01        ..      LDR      r2,[sp,#4]
        0x00010a56:    f64570d0    E..p    MOV      r0,#0x5fd0
        0x00010a5a:    f2c10001    ....    MOVT     r0,#0x1001
        0x00010a5e:    9000        ..      STR      r0,[sp,#0]
        0x00010a60:    f000f824    ..$.    BL       am_util_stdio_vsprintf ; 0x10aac
        0x00010a64:    4601        .F      MOV      r1,r0
        0x00010a66:    9800        ..      LDR      r0,[sp,#0]
        0x00010a68:    9102        ..      STR      r1,[sp,#8]
        0x00010a6a:    f64571cc    E..q    MOV      r1,#0x5fcc
        0x00010a6e:    f2c10101    ....    MOVT     r1,#0x1001
        0x00010a72:    6809        .h      LDR      r1,[r1,#0]
        0x00010a74:    4788        .G      BLX      r1
        0x00010a76:    9802        ..      LDR      r0,[sp,#8]
        0x00010a78:    9004        ..      STR      r0,[sp,#0x10]
        0x00010a7a:    e7ff        ..      B        0x10a7c ; am_util_stdio_printf + 80
        0x00010a7c:    9804        ..      LDR      r0,[sp,#0x10]
        0x00010a7e:    b005        ..      ADD      sp,sp,#0x14
        0x00010a80:    e8bd4080    ...@    POP      {r7,lr}
        0x00010a84:    b003        ..      ADD      sp,sp,#0xc
        0x00010a86:    4770        pG      BX       lr
    am_util_stdio_printf_init
        0x00010a88:    b081        ..      SUB      sp,sp,#4
        0x00010a8a:    9000        ..      STR      r0,[sp,#0]
        0x00010a8c:    9800        ..      LDR      r0,[sp,#0]
        0x00010a8e:    f64571cc    E..q    MOV      r1,#0x5fcc
        0x00010a92:    f2c10101    ....    MOVT     r1,#0x1001
        0x00010a96:    6008        .`      STR      r0,[r1,#0]
        0x00010a98:    b001        ..      ADD      sp,sp,#4
        0x00010a9a:    4770        pG      BX       lr
    am_util_stdio_terminal_clear
        0x00010a9c:    b580        ..      PUSH     {r7,lr}
        0x00010a9e:    f2434061    C.a@    MOV      r0,#0x3461
        0x00010aa2:    f2c00001    ....    MOVT     r0,#1
        0x00010aa6:    f7ffffc1    ....    BL       am_util_stdio_printf ; 0x10a2c
        0x00010aaa:    bd80        ..      POP      {r7,pc}
    am_util_stdio_vsprintf
        0x00010aac:    b580        ..      PUSH     {r7,lr}
        0x00010aae:    b09e        ..      SUB      sp,sp,#0x78
        0x00010ab0:    921d        ..      STR      r2,[sp,#0x74]
        0x00010ab2:    901c        ..      STR      r0,[sp,#0x70]
        0x00010ab4:    911b        ..      STR      r1,[sp,#0x6c]
        0x00010ab6:    2000        .       MOVS     r0,#0
        0x00010ab8:    9014        ..      STR      r0,[sp,#0x50]
        0x00010aba:    900e        ..      STR      r0,[sp,#0x38]
        0x00010abc:    e7ff        ..      B        0x10abe ; am_util_stdio_vsprintf + 18
        0x00010abe:    981b        ..      LDR      r0,[sp,#0x6c]
        0x00010ac0:    7800        .x      LDRB     r0,[r0,#0]
        0x00010ac2:    2800        .(      CMP      r0,#0
        0x00010ac4:    f0008312    ....    BEQ.W    0x110ec ; am_util_stdio_vsprintf + 1600
        0x00010ac8:    e7ff        ..      B        0x10aca ; am_util_stdio_vsprintf + 30
        0x00010aca:    2006        .       MOVS     r0,#6
        0x00010acc:    9011        ..      STR      r0,[sp,#0x44]
        0x00010ace:    981b        ..      LDR      r0,[sp,#0x6c]
        0x00010ad0:    7800        .x      LDRB     r0,[r0,#0]
        0x00010ad2:    2825        %(      CMP      r0,#0x25
        0x00010ad4:    d027        '.      BEQ      0x10b26 ; am_util_stdio_vsprintf + 122
        0x00010ad6:    e7ff        ..      B        0x10ad8 ; am_util_stdio_vsprintf + 44
        0x00010ad8:    981c        ..      LDR      r0,[sp,#0x70]
        0x00010ada:    b1e8        ..      CBZ      r0,0x10b18 ; am_util_stdio_vsprintf + 108
        0x00010adc:    e7ff        ..      B        0x10ade ; am_util_stdio_vsprintf + 50
        0x00010ade:    981b        ..      LDR      r0,[sp,#0x6c]
        0x00010ae0:    7800        .x      LDRB     r0,[r0,#0]
        0x00010ae2:    280a        .(      CMP      r0,#0xa
        0x00010ae4:    d111        ..      BNE      0x10b0a ; am_util_stdio_vsprintf + 94
        0x00010ae6:    e7ff        ..      B        0x10ae8 ; am_util_stdio_vsprintf + 60
        0x00010ae8:    f64570c8    E..p    MOV      r0,#0x5fc8
        0x00010aec:    f2c10001    ....    MOVT     r0,#0x1001
        0x00010af0:    7800        .x      LDRB     r0,[r0,#0]
        0x00010af2:    07c0        ..      LSLS     r0,r0,#31
        0x00010af4:    b148        H.      CBZ      r0,0x10b0a ; am_util_stdio_vsprintf + 94
        0x00010af6:    e7ff        ..      B        0x10af8 ; am_util_stdio_vsprintf + 76
        0x00010af8:    991c        ..      LDR      r1,[sp,#0x70]
        0x00010afa:    1c48        H.      ADDS     r0,r1,#1
        0x00010afc:    901c        ..      STR      r0,[sp,#0x70]
        0x00010afe:    200d        .       MOVS     r0,#0xd
        0x00010b00:    7008        .p      STRB     r0,[r1,#0]
        0x00010b02:    9814        ..      LDR      r0,[sp,#0x50]
        0x00010b04:    3001        .0      ADDS     r0,#1
        0x00010b06:    9014        ..      STR      r0,[sp,#0x50]
        0x00010b08:    e7ff        ..      B        0x10b0a ; am_util_stdio_vsprintf + 94
        0x00010b0a:    981b        ..      LDR      r0,[sp,#0x6c]
        0x00010b0c:    7800        .x      LDRB     r0,[r0,#0]
        0x00010b0e:    991c        ..      LDR      r1,[sp,#0x70]
        0x00010b10:    1c4a        J.      ADDS     r2,r1,#1
        0x00010b12:    921c        ..      STR      r2,[sp,#0x70]
        0x00010b14:    7008        .p      STRB     r0,[r1,#0]
        0x00010b16:    e7ff        ..      B        0x10b18 ; am_util_stdio_vsprintf + 108
        0x00010b18:    981b        ..      LDR      r0,[sp,#0x6c]
        0x00010b1a:    3001        .0      ADDS     r0,#1
        0x00010b1c:    901b        ..      STR      r0,[sp,#0x6c]
        0x00010b1e:    9814        ..      LDR      r0,[sp,#0x50]
        0x00010b20:    3001        .0      ADDS     r0,#1
        0x00010b22:    9014        ..      STR      r0,[sp,#0x50]
        0x00010b24:    e7cb        ..      B        0x10abe ; am_util_stdio_vsprintf + 18
        0x00010b26:    981b        ..      LDR      r0,[sp,#0x6c]
        0x00010b28:    3001        .0      ADDS     r0,#1
        0x00010b2a:    901b        ..      STR      r0,[sp,#0x6c]
        0x00010b2c:    2000        .       MOVS     r0,#0
        0x00010b2e:    f88d0040    ..@.    STRB     r0,[sp,#0x40]
        0x00010b32:    f88d0041    ..A.    STRB     r0,[sp,#0x41]
        0x00010b36:    2020                MOVS     r0,#0x20
        0x00010b38:    f88d0042    ..B.    STRB     r0,[sp,#0x42]
        0x00010b3c:    981b        ..      LDR      r0,[sp,#0x6c]
        0x00010b3e:    7800        .x      LDRB     r0,[r0,#0]
        0x00010b40:    2830        0(      CMP      r0,#0x30
        0x00010b42:    d107        ..      BNE      0x10b54 ; am_util_stdio_vsprintf + 168
        0x00010b44:    e7ff        ..      B        0x10b46 ; am_util_stdio_vsprintf + 154
        0x00010b46:    2030        0       MOVS     r0,#0x30
        0x00010b48:    f88d0042    ..B.    STRB     r0,[sp,#0x42]
        0x00010b4c:    981b        ..      LDR      r0,[sp,#0x6c]
        0x00010b4e:    3001        .0      ADDS     r0,#1
        0x00010b50:    901b        ..      STR      r0,[sp,#0x6c]
        0x00010b52:    e7ff        ..      B        0x10b54 ; am_util_stdio_vsprintf + 168
        0x00010b54:    981b        ..      LDR      r0,[sp,#0x6c]
        0x00010b56:    a915        ..      ADD      r1,sp,#0x54
        0x00010b58:    f000fb9c    ....    BL       decstr_to_int ; 0x11294
        0x00010b5c:    9013        ..      STR      r0,[sp,#0x4c]
        0x00010b5e:    9915        ..      LDR      r1,[sp,#0x54]
        0x00010b60:    981b        ..      LDR      r0,[sp,#0x6c]
        0x00010b62:    4408        .D      ADD      r0,r0,r1
        0x00010b64:    901b        ..      STR      r0,[sp,#0x6c]
        0x00010b66:    981b        ..      LDR      r0,[sp,#0x6c]
        0x00010b68:    7800        .x      LDRB     r0,[r0,#0]
        0x00010b6a:    2873        s(      CMP      r0,#0x73
        0x00010b6c:    d009        ..      BEQ      0x10b82 ; am_util_stdio_vsprintf + 214
        0x00010b6e:    e7ff        ..      B        0x10b70 ; am_util_stdio_vsprintf + 196
        0x00010b70:    9813        ..      LDR      r0,[sp,#0x4c]
        0x00010b72:    f1b03fff    ...?    CMP      r0,#0xffffffff
        0x00010b76:    dc04        ..      BGT      0x10b82 ; am_util_stdio_vsprintf + 214
        0x00010b78:    e7ff        ..      B        0x10b7a ; am_util_stdio_vsprintf + 206
        0x00010b7a:    9813        ..      LDR      r0,[sp,#0x4c]
        0x00010b7c:    4240        @B      RSBS     r0,r0,#0
        0x00010b7e:    9013        ..      STR      r0,[sp,#0x4c]
        0x00010b80:    e7ff        ..      B        0x10b82 ; am_util_stdio_vsprintf + 214
        0x00010b82:    981b        ..      LDR      r0,[sp,#0x6c]
        0x00010b84:    7800        .x      LDRB     r0,[r0,#0]
        0x00010b86:    282e        .(      CMP      r0,#0x2e
        0x00010b88:    d10d        ..      BNE      0x10ba6 ; am_util_stdio_vsprintf + 250
        0x00010b8a:    e7ff        ..      B        0x10b8c ; am_util_stdio_vsprintf + 224
        0x00010b8c:    981b        ..      LDR      r0,[sp,#0x6c]
        0x00010b8e:    3001        .0      ADDS     r0,#1
        0x00010b90:    901b        ..      STR      r0,[sp,#0x6c]
        0x00010b92:    981b        ..      LDR      r0,[sp,#0x6c]
        0x00010b94:    a915        ..      ADD      r1,sp,#0x54
        0x00010b96:    f000fb7d    ..}.    BL       decstr_to_int ; 0x11294
        0x00010b9a:    9011        ..      STR      r0,[sp,#0x44]
        0x00010b9c:    9915        ..      LDR      r1,[sp,#0x54]
        0x00010b9e:    981b        ..      LDR      r0,[sp,#0x6c]
        0x00010ba0:    4408        .D      ADD      r0,r0,r1
        0x00010ba2:    901b        ..      STR      r0,[sp,#0x6c]
        0x00010ba4:    e7ff        ..      B        0x10ba6 ; am_util_stdio_vsprintf + 250
        0x00010ba6:    981b        ..      LDR      r0,[sp,#0x6c]
        0x00010ba8:    7800        .x      LDRB     r0,[r0,#0]
        0x00010baa:    286c        l(      CMP      r0,#0x6c
        0x00010bac:    d110        ..      BNE      0x10bd0 ; am_util_stdio_vsprintf + 292
        0x00010bae:    e7ff        ..      B        0x10bb0 ; am_util_stdio_vsprintf + 260
        0x00010bb0:    981b        ..      LDR      r0,[sp,#0x6c]
        0x00010bb2:    3001        .0      ADDS     r0,#1
        0x00010bb4:    901b        ..      STR      r0,[sp,#0x6c]
        0x00010bb6:    981b        ..      LDR      r0,[sp,#0x6c]
        0x00010bb8:    7800        .x      LDRB     r0,[r0,#0]
        0x00010bba:    286c        l(      CMP      r0,#0x6c
        0x00010bbc:    d107        ..      BNE      0x10bce ; am_util_stdio_vsprintf + 290
        0x00010bbe:    e7ff        ..      B        0x10bc0 ; am_util_stdio_vsprintf + 276
        0x00010bc0:    981b        ..      LDR      r0,[sp,#0x6c]
        0x00010bc2:    3001        .0      ADDS     r0,#1
        0x00010bc4:    901b        ..      STR      r0,[sp,#0x6c]
        0x00010bc6:    2001        .       MOVS     r0,#1
        0x00010bc8:    f88d0040    ..@.    STRB     r0,[sp,#0x40]
        0x00010bcc:    e7ff        ..      B        0x10bce ; am_util_stdio_vsprintf + 290
        0x00010bce:    e7ff        ..      B        0x10bd0 ; am_util_stdio_vsprintf + 292
        0x00010bd0:    981b        ..      LDR      r0,[sp,#0x6c]
        0x00010bd2:    7800        .x      LDRB     r0,[r0,#0]
        0x00010bd4:    3846        F8      SUBS     r0,r0,#0x46
        0x00010bd6:    4601        .F      MOV      r1,r0
        0x00010bd8:    910b        ..      STR      r1,[sp,#0x2c]
        0x00010bda:    2832        2(      CMP      r0,#0x32
        0x00010bdc:    f2008273    ..s.    BHI.W    0x110c6 ; am_util_stdio_vsprintf + 1562
        0x00010be0:    990b        ..      LDR      r1,[sp,#0x2c]
        0x00010be2:    e8dff011    ....    TBH      [pc,r1,LSL #1]
    $d.4
        0x00010be6:    0224        $.      DCW    548
        0x00010be8:    02700270    p.p.    DCD    40895088
        0x00010bec:    02700270    p.p.    DCD    40895088
        0x00010bf0:    02700270    p.p.    DCD    40895088
        0x00010bf4:    02700270    p.p.    DCD    40895088
        0x00010bf8:    02700270    p.p.    DCD    40895088
        0x00010bfc:    02700270    p.p.    DCD    40895088
        0x00010c00:    02700270    p.p.    DCD    40895088
        0x00010c04:    02700270    p.p.    DCD    40895088
        0x00010c08:    00bf0270    p...    DCD    12518000
        0x00010c0c:    02700270    p.p.    DCD    40895088
        0x00010c10:    02700270    p.p.    DCD    40895088
        0x00010c14:    02700270    p.p.    DCD    40895088
        0x00010c18:    02700270    p.p.    DCD    40895088
        0x00010c1c:    02700270    p.p.    DCD    40895088
        0x00010c20:    016f0033    3.o.    DCD    24051763
        0x00010c24:    02240270    p.$.    DCD    35914352
        0x00010c28:    02700270    p.p.    DCD    40895088
        0x00010c2c:    0270016f    o.p.    DCD    40894831
        0x00010c30:    02700270    p.p.    DCD    40895088
        0x00010c34:    02700270    p.p.    DCD    40895088
        0x00010c38:    02700270    p.p.    DCD    40895088
        0x00010c3c:    02700270    p.p.    DCD    40895088
        0x00010c40:    02700047    G.p.    DCD    40894535
        0x00010c44:    02700119    ..p.    DCD    40894745
        0x00010c48:    00bb0270    p...    DCD    12255856
    $t.5
        0x00010c4c:    981d        ..      LDR      r0,[sp,#0x74]
        0x00010c4e:    1d01        ..      ADDS     r1,r0,#4
        0x00010c50:    911d        ..      STR      r1,[sp,#0x74]
        0x00010c52:    6800        .h      LDR      r0,[r0,#0]
        0x00010c54:    f88d0043    ..C.    STRB     r0,[sp,#0x43]
        0x00010c58:    981c        ..      LDR      r0,[sp,#0x70]
        0x00010c5a:    b138        8.      CBZ      r0,0x10c6c ; am_util_stdio_vsprintf + 448
        0x00010c5c:    e7ff        ..      B        0x10c5e ; am_util_stdio_vsprintf + 434
        0x00010c5e:    f89d0043    ..C.    LDRB     r0,[sp,#0x43]
        0x00010c62:    991c        ..      LDR      r1,[sp,#0x70]
        0x00010c64:    1c4a        J.      ADDS     r2,r1,#1
        0x00010c66:    921c        ..      STR      r2,[sp,#0x70]
        0x00010c68:    7008        .p      STRB     r0,[r1,#0]
        0x00010c6a:    e7ff        ..      B        0x10c6c ; am_util_stdio_vsprintf + 448
        0x00010c6c:    9814        ..      LDR      r0,[sp,#0x50]
        0x00010c6e:    3001        .0      ADDS     r0,#1
        0x00010c70:    9014        ..      STR      r0,[sp,#0x50]
        0x00010c72:    e236        6.      B        0x110e2 ; am_util_stdio_vsprintf + 1590
        0x00010c74:    981d        ..      LDR      r0,[sp,#0x74]
        0x00010c76:    1d01        ..      ADDS     r1,r0,#4
        0x00010c78:    911d        ..      STR      r1,[sp,#0x74]
        0x00010c7a:    6800        .h      LDR      r0,[r0,#0]
        0x00010c7c:    901a        ..      STR      r0,[sp,#0x68]
        0x00010c7e:    981a        ..      LDR      r0,[sp,#0x68]
        0x00010c80:    f001fc1c    ....    BL       simple_strlen ; 0x124bc
        0x00010c84:    900e        ..      STR      r0,[sp,#0x38]
        0x00010c86:    9813        ..      LDR      r0,[sp,#0x4c]
        0x00010c88:    2801        .(      CMP      r0,#1
        0x00010c8a:    db25        %.      BLT      0x10cd8 ; am_util_stdio_vsprintf + 556
        0x00010c8c:    e7ff        ..      B        0x10c8e ; am_util_stdio_vsprintf + 482
        0x00010c8e:    980e        ..      LDR      r0,[sp,#0x38]
        0x00010c90:    9913        ..      LDR      r1,[sp,#0x4c]
        0x00010c92:    4288        .B      CMP      r0,r1
        0x00010c94:    d21f        ..      BCS      0x10cd6 ; am_util_stdio_vsprintf + 554
        0x00010c96:    e7ff        ..      B        0x10c98 ; am_util_stdio_vsprintf + 492
        0x00010c98:    990e        ..      LDR      r1,[sp,#0x38]
        0x00010c9a:    9813        ..      LDR      r0,[sp,#0x4c]
        0x00010c9c:    1a40        @.      SUBS     r0,r0,r1
        0x00010c9e:    9013        ..      STR      r0,[sp,#0x4c]
        0x00010ca0:    981c        ..      LDR      r0,[sp,#0x70]
        0x00010ca2:    f89d1042    ..B.    LDRB     r1,[sp,#0x42]
        0x00010ca6:    9a13        ..      LDR      r2,[sp,#0x4c]
        0x00010ca8:    f001fa30    ..0.    BL       padbuffer ; 0x1210c
        0x00010cac:    9013        ..      STR      r0,[sp,#0x4c]
        0x00010cae:    981c        ..      LDR      r0,[sp,#0x70]
        0x00010cb0:    b118        ..      CBZ      r0,0x10cba ; am_util_stdio_vsprintf + 526
        0x00010cb2:    e7ff        ..      B        0x10cb4 ; am_util_stdio_vsprintf + 520
        0x00010cb4:    9813        ..      LDR      r0,[sp,#0x4c]
        0x00010cb6:    900a        ..      STR      r0,[sp,#0x28]
        0x00010cb8:    e002        ..      B        0x10cc0 ; am_util_stdio_vsprintf + 532
        0x00010cba:    2000        .       MOVS     r0,#0
        0x00010cbc:    900a        ..      STR      r0,[sp,#0x28]
        0x00010cbe:    e7ff        ..      B        0x10cc0 ; am_util_stdio_vsprintf + 532
        0x00010cc0:    990a        ..      LDR      r1,[sp,#0x28]
        0x00010cc2:    981c        ..      LDR      r0,[sp,#0x70]
        0x00010cc4:    4408        .D      ADD      r0,r0,r1
        0x00010cc6:    901c        ..      STR      r0,[sp,#0x70]
        0x00010cc8:    9913        ..      LDR      r1,[sp,#0x4c]
        0x00010cca:    9814        ..      LDR      r0,[sp,#0x50]
        0x00010ccc:    4408        .D      ADD      r0,r0,r1
        0x00010cce:    9014        ..      STR      r0,[sp,#0x50]
        0x00010cd0:    2000        .       MOVS     r0,#0
        0x00010cd2:    9013        ..      STR      r0,[sp,#0x4c]
        0x00010cd4:    e7ff        ..      B        0x10cd6 ; am_util_stdio_vsprintf + 554
        0x00010cd6:    e7ff        ..      B        0x10cd8 ; am_util_stdio_vsprintf + 556
        0x00010cd8:    e7ff        ..      B        0x10cda ; am_util_stdio_vsprintf + 558
        0x00010cda:    981a        ..      LDR      r0,[sp,#0x68]
        0x00010cdc:    7800        .x      LDRB     r0,[r0,#0]
        0x00010cde:    b188        ..      CBZ      r0,0x10d04 ; am_util_stdio_vsprintf + 600
        0x00010ce0:    e7ff        ..      B        0x10ce2 ; am_util_stdio_vsprintf + 566
        0x00010ce2:    981c        ..      LDR      r0,[sp,#0x70]
        0x00010ce4:    b138        8.      CBZ      r0,0x10cf6 ; am_util_stdio_vsprintf + 586
        0x00010ce6:    e7ff        ..      B        0x10ce8 ; am_util_stdio_vsprintf + 572
        0x00010ce8:    981a        ..      LDR      r0,[sp,#0x68]
        0x00010cea:    7800        .x      LDRB     r0,[r0,#0]
        0x00010cec:    991c        ..      LDR      r1,[sp,#0x70]
        0x00010cee:    1c4a        J.      ADDS     r2,r1,#1
        0x00010cf0:    921c        ..      STR      r2,[sp,#0x70]
        0x00010cf2:    7008        .p      STRB     r0,[r1,#0]
        0x00010cf4:    e7ff        ..      B        0x10cf6 ; am_util_stdio_vsprintf + 586
        0x00010cf6:    981a        ..      LDR      r0,[sp,#0x68]
        0x00010cf8:    3001        .0      ADDS     r0,#1
        0x00010cfa:    901a        ..      STR      r0,[sp,#0x68]
        0x00010cfc:    9814        ..      LDR      r0,[sp,#0x50]
        0x00010cfe:    3001        .0      ADDS     r0,#1
        0x00010d00:    9014        ..      STR      r0,[sp,#0x50]
        0x00010d02:    e7ea        ..      B        0x10cda ; am_util_stdio_vsprintf + 558
        0x00010d04:    9813        ..      LDR      r0,[sp,#0x4c]
        0x00010d06:    b340        @.      CBZ      r0,0x10d5a ; am_util_stdio_vsprintf + 686
        0x00010d08:    e7ff        ..      B        0x10d0a ; am_util_stdio_vsprintf + 606
        0x00010d0a:    9813        ..      LDR      r0,[sp,#0x4c]
        0x00010d0c:    4240        @B      RSBS     r0,r0,#0
        0x00010d0e:    9013        ..      STR      r0,[sp,#0x4c]
        0x00010d10:    980e        ..      LDR      r0,[sp,#0x38]
        0x00010d12:    9913        ..      LDR      r1,[sp,#0x4c]
        0x00010d14:    4288        .B      CMP      r0,r1
        0x00010d16:    d21f        ..      BCS      0x10d58 ; am_util_stdio_vsprintf + 684
        0x00010d18:    e7ff        ..      B        0x10d1a ; am_util_stdio_vsprintf + 622
        0x00010d1a:    990e        ..      LDR      r1,[sp,#0x38]
        0x00010d1c:    9813        ..      LDR      r0,[sp,#0x4c]
        0x00010d1e:    1a40        @.      SUBS     r0,r0,r1
        0x00010d20:    9013        ..      STR      r0,[sp,#0x4c]
        0x00010d22:    981c        ..      LDR      r0,[sp,#0x70]
        0x00010d24:    f89d1042    ..B.    LDRB     r1,[sp,#0x42]
        0x00010d28:    9a13        ..      LDR      r2,[sp,#0x4c]
        0x00010d2a:    f001f9ef    ....    BL       padbuffer ; 0x1210c
        0x00010d2e:    9013        ..      STR      r0,[sp,#0x4c]
        0x00010d30:    981c        ..      LDR      r0,[sp,#0x70]
        0x00010d32:    b118        ..      CBZ      r0,0x10d3c ; am_util_stdio_vsprintf + 656
        0x00010d34:    e7ff        ..      B        0x10d36 ; am_util_stdio_vsprintf + 650
        0x00010d36:    9813        ..      LDR      r0,[sp,#0x4c]
        0x00010d38:    9009        ..      STR      r0,[sp,#0x24]
        0x00010d3a:    e002        ..      B        0x10d42 ; am_util_stdio_vsprintf + 662
        0x00010d3c:    2000        .       MOVS     r0,#0
        0x00010d3e:    9009        ..      STR      r0,[sp,#0x24]
        0x00010d40:    e7ff        ..      B        0x10d42 ; am_util_stdio_vsprintf + 662
        0x00010d42:    9909        ..      LDR      r1,[sp,#0x24]
        0x00010d44:    981c        ..      LDR      r0,[sp,#0x70]
        0x00010d46:    4408        .D      ADD      r0,r0,r1
        0x00010d48:    901c        ..      STR      r0,[sp,#0x70]
        0x00010d4a:    9913        ..      LDR      r1,[sp,#0x4c]
        0x00010d4c:    9814        ..      LDR      r0,[sp,#0x50]
        0x00010d4e:    4408        .D      ADD      r0,r0,r1
        0x00010d50:    9014        ..      STR      r0,[sp,#0x50]
        0x00010d52:    2000        .       MOVS     r0,#0
        0x00010d54:    9013        ..      STR      r0,[sp,#0x4c]
        0x00010d56:    e7ff        ..      B        0x10d58 ; am_util_stdio_vsprintf + 684
        0x00010d58:    e7ff        ..      B        0x10d5a ; am_util_stdio_vsprintf + 686
        0x00010d5a:    e1c2        ..      B        0x110e2 ; am_util_stdio_vsprintf + 1590
        0x00010d5c:    2001        .       MOVS     r0,#1
        0x00010d5e:    f88d0041    ..A.    STRB     r0,[sp,#0x41]
        0x00010d62:    e7ff        ..      B        0x10d64 ; am_util_stdio_vsprintf + 696
        0x00010d64:    f89d0040    ..@.    LDRB     r0,[sp,#0x40]
        0x00010d68:    07c0        ..      LSLS     r0,r0,#31
        0x00010d6a:    b160        `.      CBZ      r0,0x10d86 ; am_util_stdio_vsprintf + 730
        0x00010d6c:    e7ff        ..      B        0x10d6e ; am_util_stdio_vsprintf + 706
        0x00010d6e:    981d        ..      LDR      r0,[sp,#0x74]
        0x00010d70:    3007        .0      ADDS     r0,#7
        0x00010d72:    f0200007     ...    BIC      r0,r0,#7
        0x00010d76:    f1000108    ....    ADD      r1,r0,#8
        0x00010d7a:    911d        ..      STR      r1,[sp,#0x74]
        0x00010d7c:    6801        .h      LDR      r1,[r0,#0]
        0x00010d7e:    6840        @h      LDR      r0,[r0,#4]
        0x00010d80:    9107        ..      STR      r1,[sp,#0x1c]
        0x00010d82:    9008        ..      STR      r0,[sp,#0x20]
        0x00010d84:    e007        ..      B        0x10d96 ; am_util_stdio_vsprintf + 746
        0x00010d86:    981d        ..      LDR      r0,[sp,#0x74]
        0x00010d88:    1d01        ..      ADDS     r1,r0,#4
        0x00010d8a:    911d        ..      STR      r1,[sp,#0x74]
        0x00010d8c:    6801        .h      LDR      r1,[r0,#0]
        0x00010d8e:    2000        .       MOVS     r0,#0
        0x00010d90:    9107        ..      STR      r1,[sp,#0x1c]
        0x00010d92:    9008        ..      STR      r0,[sp,#0x20]
        0x00010d94:    e7ff        ..      B        0x10d96 ; am_util_stdio_vsprintf + 746
        0x00010d96:    9907        ..      LDR      r1,[sp,#0x1c]
        0x00010d98:    9808        ..      LDR      r0,[sp,#0x20]
        0x00010d9a:    9118        ..      STR      r1,[sp,#0x60]
        0x00010d9c:    9019        ..      STR      r0,[sp,#0x64]
        0x00010d9e:    9813        ..      LDR      r0,[sp,#0x4c]
        0x00010da0:    b318        ..      CBZ      r0,0x10dea ; am_util_stdio_vsprintf + 830
        0x00010da2:    e7ff        ..      B        0x10da4 ; am_util_stdio_vsprintf + 760
        0x00010da4:    9818        ..      LDR      r0,[sp,#0x60]
        0x00010da6:    9919        ..      LDR      r1,[sp,#0x64]
        0x00010da8:    f001f95a    ..Z.    BL       ndigits_in_hex ; 0x12060
        0x00010dac:    4601        .F      MOV      r1,r0
        0x00010dae:    9813        ..      LDR      r0,[sp,#0x4c]
        0x00010db0:    1a40        @.      SUBS     r0,r0,r1
        0x00010db2:    9013        ..      STR      r0,[sp,#0x4c]
        0x00010db4:    981c        ..      LDR      r0,[sp,#0x70]
        0x00010db6:    f89d1042    ..B.    LDRB     r1,[sp,#0x42]
        0x00010dba:    9a13        ..      LDR      r2,[sp,#0x4c]
        0x00010dbc:    f001f9a6    ....    BL       padbuffer ; 0x1210c
        0x00010dc0:    9013        ..      STR      r0,[sp,#0x4c]
        0x00010dc2:    981c        ..      LDR      r0,[sp,#0x70]
        0x00010dc4:    b118        ..      CBZ      r0,0x10dce ; am_util_stdio_vsprintf + 802
        0x00010dc6:    e7ff        ..      B        0x10dc8 ; am_util_stdio_vsprintf + 796
        0x00010dc8:    9813        ..      LDR      r0,[sp,#0x4c]
        0x00010dca:    9006        ..      STR      r0,[sp,#0x18]
        0x00010dcc:    e002        ..      B        0x10dd4 ; am_util_stdio_vsprintf + 808
        0x00010dce:    2000        .       MOVS     r0,#0
        0x00010dd0:    9006        ..      STR      r0,[sp,#0x18]
        0x00010dd2:    e7ff        ..      B        0x10dd4 ; am_util_stdio_vsprintf + 808
        0x00010dd4:    9906        ..      LDR      r1,[sp,#0x18]
        0x00010dd6:    981c        ..      LDR      r0,[sp,#0x70]
        0x00010dd8:    4408        .D      ADD      r0,r0,r1
        0x00010dda:    901c        ..      STR      r0,[sp,#0x70]
        0x00010ddc:    9913        ..      LDR      r1,[sp,#0x4c]
        0x00010dde:    9814        ..      LDR      r0,[sp,#0x50]
        0x00010de0:    4408        .D      ADD      r0,r0,r1
        0x00010de2:    9014        ..      STR      r0,[sp,#0x50]
        0x00010de4:    2000        .       MOVS     r0,#0
        0x00010de6:    9013        ..      STR      r0,[sp,#0x4c]
        0x00010de8:    e7ff        ..      B        0x10dea ; am_util_stdio_vsprintf + 830
        0x00010dea:    9818        ..      LDR      r0,[sp,#0x60]
        0x00010dec:    9919        ..      LDR      r1,[sp,#0x64]
        0x00010dee:    9a1c        ..      LDR      r2,[sp,#0x70]
        0x00010df0:    f89d3041    ..A0    LDRB     r3,[sp,#0x41]
        0x00010df4:    f0030301    ....    AND      r3,r3,#1
        0x00010df8:    f001fb7c    ..|.    BL       uint64_to_hexstr ; 0x124f4
        0x00010dfc:    9012        ..      STR      r0,[sp,#0x48]
        0x00010dfe:    981c        ..      LDR      r0,[sp,#0x70]
        0x00010e00:    b128        (.      CBZ      r0,0x10e0e ; am_util_stdio_vsprintf + 866
        0x00010e02:    e7ff        ..      B        0x10e04 ; am_util_stdio_vsprintf + 856
        0x00010e04:    9912        ..      LDR      r1,[sp,#0x48]
        0x00010e06:    981c        ..      LDR      r0,[sp,#0x70]
        0x00010e08:    4408        .D      ADD      r0,r0,r1
        0x00010e0a:    901c        ..      STR      r0,[sp,#0x70]
        0x00010e0c:    e7ff        ..      B        0x10e0e ; am_util_stdio_vsprintf + 866
        0x00010e0e:    9912        ..      LDR      r1,[sp,#0x48]
        0x00010e10:    9814        ..      LDR      r0,[sp,#0x50]
        0x00010e12:    4408        .D      ADD      r0,r0,r1
        0x00010e14:    9014        ..      STR      r0,[sp,#0x50]
        0x00010e16:    e164        d.      B        0x110e2 ; am_util_stdio_vsprintf + 1590
        0x00010e18:    f89d0040    ..@.    LDRB     r0,[sp,#0x40]
        0x00010e1c:    07c0        ..      LSLS     r0,r0,#31
        0x00010e1e:    b160        `.      CBZ      r0,0x10e3a ; am_util_stdio_vsprintf + 910
        0x00010e20:    e7ff        ..      B        0x10e22 ; am_util_stdio_vsprintf + 886
        0x00010e22:    981d        ..      LDR      r0,[sp,#0x74]
        0x00010e24:    3007        .0      ADDS     r0,#7
        0x00010e26:    f0200007     ...    BIC      r0,r0,#7
        0x00010e2a:    f1000108    ....    ADD      r1,r0,#8
        0x00010e2e:    911d        ..      STR      r1,[sp,#0x74]
        0x00010e30:    6801        .h      LDR      r1,[r0,#0]
        0x00010e32:    6840        @h      LDR      r0,[r0,#4]
        0x00010e34:    9104        ..      STR      r1,[sp,#0x10]
        0x00010e36:    9005        ..      STR      r0,[sp,#0x14]
        0x00010e38:    e007        ..      B        0x10e4a ; am_util_stdio_vsprintf + 926
        0x00010e3a:    981d        ..      LDR      r0,[sp,#0x74]
        0x00010e3c:    1d01        ..      ADDS     r1,r0,#4
        0x00010e3e:    911d        ..      STR      r1,[sp,#0x74]
        0x00010e40:    6801        .h      LDR      r1,[r0,#0]
        0x00010e42:    2000        .       MOVS     r0,#0
        0x00010e44:    9104        ..      STR      r1,[sp,#0x10]
        0x00010e46:    9005        ..      STR      r0,[sp,#0x14]
        0x00010e48:    e7ff        ..      B        0x10e4a ; am_util_stdio_vsprintf + 926
        0x00010e4a:    9904        ..      LDR      r1,[sp,#0x10]
        0x00010e4c:    9805        ..      LDR      r0,[sp,#0x14]
        0x00010e4e:    9118        ..      STR      r1,[sp,#0x60]
        0x00010e50:    9019        ..      STR      r0,[sp,#0x64]
        0x00010e52:    9813        ..      LDR      r0,[sp,#0x4c]
        0x00010e54:    b318        ..      CBZ      r0,0x10e9e ; am_util_stdio_vsprintf + 1010
        0x00010e56:    e7ff        ..      B        0x10e58 ; am_util_stdio_vsprintf + 940
        0x00010e58:    9818        ..      LDR      r0,[sp,#0x60]
        0x00010e5a:    9919        ..      LDR      r1,[sp,#0x64]
        0x00010e5c:    f001f938    ..8.    BL       ndigits_in_u64 ; 0x120d0
        0x00010e60:    4601        .F      MOV      r1,r0
        0x00010e62:    9813        ..      LDR      r0,[sp,#0x4c]
        0x00010e64:    1a40        @.      SUBS     r0,r0,r1
        0x00010e66:    9013        ..      STR      r0,[sp,#0x4c]
        0x00010e68:    981c        ..      LDR      r0,[sp,#0x70]
        0x00010e6a:    f89d1042    ..B.    LDRB     r1,[sp,#0x42]
        0x00010e6e:    9a13        ..      LDR      r2,[sp,#0x4c]
        0x00010e70:    f001f94c    ..L.    BL       padbuffer ; 0x1210c
        0x00010e74:    9013        ..      STR      r0,[sp,#0x4c]
        0x00010e76:    981c        ..      LDR      r0,[sp,#0x70]
        0x00010e78:    b118        ..      CBZ      r0,0x10e82 ; am_util_stdio_vsprintf + 982
        0x00010e7a:    e7ff        ..      B        0x10e7c ; am_util_stdio_vsprintf + 976
        0x00010e7c:    9813        ..      LDR      r0,[sp,#0x4c]
        0x00010e7e:    9003        ..      STR      r0,[sp,#0xc]
        0x00010e80:    e002        ..      B        0x10e88 ; am_util_stdio_vsprintf + 988
        0x00010e82:    2000        .       MOVS     r0,#0
        0x00010e84:    9003        ..      STR      r0,[sp,#0xc]
        0x00010e86:    e7ff        ..      B        0x10e88 ; am_util_stdio_vsprintf + 988
        0x00010e88:    9903        ..      LDR      r1,[sp,#0xc]
        0x00010e8a:    981c        ..      LDR      r0,[sp,#0x70]
        0x00010e8c:    4408        .D      ADD      r0,r0,r1
        0x00010e8e:    901c        ..      STR      r0,[sp,#0x70]
        0x00010e90:    9913        ..      LDR      r1,[sp,#0x4c]
        0x00010e92:    9814        ..      LDR      r0,[sp,#0x50]
        0x00010e94:    4408        .D      ADD      r0,r0,r1
        0x00010e96:    9014        ..      STR      r0,[sp,#0x50]
        0x00010e98:    2000        .       MOVS     r0,#0
        0x00010e9a:    9013        ..      STR      r0,[sp,#0x4c]
        0x00010e9c:    e7ff        ..      B        0x10e9e ; am_util_stdio_vsprintf + 1010
        0x00010e9e:    9818        ..      LDR      r0,[sp,#0x60]
        0x00010ea0:    9919        ..      LDR      r1,[sp,#0x64]
        0x00010ea2:    9a1c        ..      LDR      r2,[sp,#0x70]
        0x00010ea4:    f001fb86    ....    BL       uint64_to_str ; 0x125b4
        0x00010ea8:    9012        ..      STR      r0,[sp,#0x48]
        0x00010eaa:    981c        ..      LDR      r0,[sp,#0x70]
        0x00010eac:    b128        (.      CBZ      r0,0x10eba ; am_util_stdio_vsprintf + 1038
        0x00010eae:    e7ff        ..      B        0x10eb0 ; am_util_stdio_vsprintf + 1028
        0x00010eb0:    9912        ..      LDR      r1,[sp,#0x48]
        0x00010eb2:    981c        ..      LDR      r0,[sp,#0x70]
        0x00010eb4:    4408        .D      ADD      r0,r0,r1
        0x00010eb6:    901c        ..      STR      r0,[sp,#0x70]
        0x00010eb8:    e7ff        ..      B        0x10eba ; am_util_stdio_vsprintf + 1038
        0x00010eba:    9912        ..      LDR      r1,[sp,#0x48]
        0x00010ebc:    9814        ..      LDR      r0,[sp,#0x50]
        0x00010ebe:    4408        .D      ADD      r0,r0,r1
        0x00010ec0:    9014        ..      STR      r0,[sp,#0x50]
        0x00010ec2:    e10e        ..      B        0x110e2 ; am_util_stdio_vsprintf + 1590
        0x00010ec4:    f89d0040    ..@.    LDRB     r0,[sp,#0x40]
        0x00010ec8:    07c0        ..      LSLS     r0,r0,#31
        0x00010eca:    b160        `.      CBZ      r0,0x10ee6 ; am_util_stdio_vsprintf + 1082
        0x00010ecc:    e7ff        ..      B        0x10ece ; am_util_stdio_vsprintf + 1058
        0x00010ece:    981d        ..      LDR      r0,[sp,#0x74]
        0x00010ed0:    3007        .0      ADDS     r0,#7
        0x00010ed2:    f0200007     ...    BIC      r0,r0,#7
        0x00010ed6:    f1000108    ....    ADD      r1,r0,#8
        0x00010eda:    911d        ..      STR      r1,[sp,#0x74]
        0x00010edc:    6801        .h      LDR      r1,[r0,#0]
        0x00010ede:    6840        @h      LDR      r0,[r0,#4]
        0x00010ee0:    9101        ..      STR      r1,[sp,#4]
        0x00010ee2:    9002        ..      STR      r0,[sp,#8]
        0x00010ee4:    e007        ..      B        0x10ef6 ; am_util_stdio_vsprintf + 1098
        0x00010ee6:    981d        ..      LDR      r0,[sp,#0x74]
        0x00010ee8:    1d01        ..      ADDS     r1,r0,#4
        0x00010eea:    911d        ..      STR      r1,[sp,#0x74]
        0x00010eec:    6801        .h      LDR      r1,[r0,#0]
        0x00010eee:    17c8        ..      ASRS     r0,r1,#31
        0x00010ef0:    9101        ..      STR      r1,[sp,#4]
        0x00010ef2:    9002        ..      STR      r0,[sp,#8]
        0x00010ef4:    e7ff        ..      B        0x10ef6 ; am_util_stdio_vsprintf + 1098
        0x00010ef6:    9901        ..      LDR      r1,[sp,#4]
        0x00010ef8:    9802        ..      LDR      r0,[sp,#8]
        0x00010efa:    9116        ..      STR      r1,[sp,#0x58]
        0x00010efc:    9017        ..      STR      r0,[sp,#0x5c]
        0x00010efe:    9817        ..      LDR      r0,[sp,#0x5c]
        0x00010f00:    f1b03fff    ...?    CMP      r0,#0xffffffff
        0x00010f04:    dc0c        ..      BGT      0x10f20 ; am_util_stdio_vsprintf + 1140
        0x00010f06:    e7ff        ..      B        0x10f08 ; am_util_stdio_vsprintf + 1116
        0x00010f08:    9816        ..      LDR      r0,[sp,#0x58]
        0x00010f0a:    9a17        ..      LDR      r2,[sp,#0x5c]
        0x00010f0c:    4241        AB      RSBS     r1,r0,#0
        0x00010f0e:    f04f0000    O...    MOV      r0,#0
        0x00010f12:    4190        .A      SBCS     r0,r0,r2
        0x00010f14:    9118        ..      STR      r1,[sp,#0x60]
        0x00010f16:    9019        ..      STR      r0,[sp,#0x64]
        0x00010f18:    2001        .       MOVS     r0,#1
        0x00010f1a:    f88d003f    ..?.    STRB     r0,[sp,#0x3f]
        0x00010f1e:    e007        ..      B        0x10f30 ; am_util_stdio_vsprintf + 1156
        0x00010f20:    9816        ..      LDR      r0,[sp,#0x58]
        0x00010f22:    9917        ..      LDR      r1,[sp,#0x5c]
        0x00010f24:    9119        ..      STR      r1,[sp,#0x64]
        0x00010f26:    9018        ..      STR      r0,[sp,#0x60]
        0x00010f28:    2000        .       MOVS     r0,#0
        0x00010f2a:    f88d003f    ..?.    STRB     r0,[sp,#0x3f]
        0x00010f2e:    e7ff        ..      B        0x10f30 ; am_util_stdio_vsprintf + 1156
        0x00010f30:    9813        ..      LDR      r0,[sp,#0x4c]
        0x00010f32:    2800        .(      CMP      r0,#0
        0x00010f34:    d055        U.      BEQ      0x10fe2 ; am_util_stdio_vsprintf + 1334
        0x00010f36:    e7ff        ..      B        0x10f38 ; am_util_stdio_vsprintf + 1164
        0x00010f38:    9818        ..      LDR      r0,[sp,#0x60]
        0x00010f3a:    9919        ..      LDR      r1,[sp,#0x64]
        0x00010f3c:    f001f8b0    ....    BL       ndigits_in_i64 ; 0x120a0
        0x00010f40:    4601        .F      MOV      r1,r0
        0x00010f42:    9813        ..      LDR      r0,[sp,#0x4c]
        0x00010f44:    1a40        @.      SUBS     r0,r0,r1
        0x00010f46:    9013        ..      STR      r0,[sp,#0x4c]
        0x00010f48:    f89d003f    ..?.    LDRB     r0,[sp,#0x3f]
        0x00010f4c:    07c0        ..      LSLS     r0,r0,#31
        0x00010f4e:    b1b0        ..      CBZ      r0,0x10f7e ; am_util_stdio_vsprintf + 1234
        0x00010f50:    e7ff        ..      B        0x10f52 ; am_util_stdio_vsprintf + 1190
        0x00010f52:    9813        ..      LDR      r0,[sp,#0x4c]
        0x00010f54:    3801        .8      SUBS     r0,#1
        0x00010f56:    9013        ..      STR      r0,[sp,#0x4c]
        0x00010f58:    f89d0042    ..B.    LDRB     r0,[sp,#0x42]
        0x00010f5c:    2830        0(      CMP      r0,#0x30
        0x00010f5e:    d10d        ..      BNE      0x10f7c ; am_util_stdio_vsprintf + 1232
        0x00010f60:    e7ff        ..      B        0x10f62 ; am_util_stdio_vsprintf + 1206
        0x00010f62:    981c        ..      LDR      r0,[sp,#0x70]
        0x00010f64:    b130        0.      CBZ      r0,0x10f74 ; am_util_stdio_vsprintf + 1224
        0x00010f66:    e7ff        ..      B        0x10f68 ; am_util_stdio_vsprintf + 1212
        0x00010f68:    991c        ..      LDR      r1,[sp,#0x70]
        0x00010f6a:    1c48        H.      ADDS     r0,r1,#1
        0x00010f6c:    901c        ..      STR      r0,[sp,#0x70]
        0x00010f6e:    202d        -       MOVS     r0,#0x2d
        0x00010f70:    7008        .p      STRB     r0,[r1,#0]
        0x00010f72:    e7ff        ..      B        0x10f74 ; am_util_stdio_vsprintf + 1224
        0x00010f74:    9814        ..      LDR      r0,[sp,#0x50]
        0x00010f76:    3001        .0      ADDS     r0,#1
        0x00010f78:    9014        ..      STR      r0,[sp,#0x50]
        0x00010f7a:    e7ff        ..      B        0x10f7c ; am_util_stdio_vsprintf + 1232
        0x00010f7c:    e7ff        ..      B        0x10f7e ; am_util_stdio_vsprintf + 1234
        0x00010f7e:    981c        ..      LDR      r0,[sp,#0x70]
        0x00010f80:    f89d1042    ..B.    LDRB     r1,[sp,#0x42]
        0x00010f84:    9a13        ..      LDR      r2,[sp,#0x4c]
        0x00010f86:    f001f8c1    ....    BL       padbuffer ; 0x1210c
        0x00010f8a:    9013        ..      STR      r0,[sp,#0x4c]
        0x00010f8c:    981c        ..      LDR      r0,[sp,#0x70]
        0x00010f8e:    b118        ..      CBZ      r0,0x10f98 ; am_util_stdio_vsprintf + 1260
        0x00010f90:    e7ff        ..      B        0x10f92 ; am_util_stdio_vsprintf + 1254
        0x00010f92:    9813        ..      LDR      r0,[sp,#0x4c]
        0x00010f94:    9000        ..      STR      r0,[sp,#0]
        0x00010f96:    e002        ..      B        0x10f9e ; am_util_stdio_vsprintf + 1266
        0x00010f98:    2000        .       MOVS     r0,#0
        0x00010f9a:    9000        ..      STR      r0,[sp,#0]
        0x00010f9c:    e7ff        ..      B        0x10f9e ; am_util_stdio_vsprintf + 1266
        0x00010f9e:    9900        ..      LDR      r1,[sp,#0]
        0x00010fa0:    981c        ..      LDR      r0,[sp,#0x70]
        0x00010fa2:    4408        .D      ADD      r0,r0,r1
        0x00010fa4:    901c        ..      STR      r0,[sp,#0x70]
        0x00010fa6:    9913        ..      LDR      r1,[sp,#0x4c]
        0x00010fa8:    9814        ..      LDR      r0,[sp,#0x50]
        0x00010faa:    4408        .D      ADD      r0,r0,r1
        0x00010fac:    9014        ..      STR      r0,[sp,#0x50]
        0x00010fae:    2000        .       MOVS     r0,#0
        0x00010fb0:    9013        ..      STR      r0,[sp,#0x4c]
        0x00010fb2:    f89d003f    ..?.    LDRB     r0,[sp,#0x3f]
        0x00010fb6:    07c0        ..      LSLS     r0,r0,#31
        0x00010fb8:    b190        ..      CBZ      r0,0x10fe0 ; am_util_stdio_vsprintf + 1332
        0x00010fba:    e7ff        ..      B        0x10fbc ; am_util_stdio_vsprintf + 1296
        0x00010fbc:    f89d0042    ..B.    LDRB     r0,[sp,#0x42]
        0x00010fc0:    2820         (      CMP      r0,#0x20
        0x00010fc2:    d10d        ..      BNE      0x10fe0 ; am_util_stdio_vsprintf + 1332
        0x00010fc4:    e7ff        ..      B        0x10fc6 ; am_util_stdio_vsprintf + 1306
        0x00010fc6:    981c        ..      LDR      r0,[sp,#0x70]
        0x00010fc8:    b130        0.      CBZ      r0,0x10fd8 ; am_util_stdio_vsprintf + 1324
        0x00010fca:    e7ff        ..      B        0x10fcc ; am_util_stdio_vsprintf + 1312
        0x00010fcc:    991c        ..      LDR      r1,[sp,#0x70]
        0x00010fce:    1c48        H.      ADDS     r0,r1,#1
        0x00010fd0:    901c        ..      STR      r0,[sp,#0x70]
        0x00010fd2:    202d        -       MOVS     r0,#0x2d
        0x00010fd4:    7008        .p      STRB     r0,[r1,#0]
        0x00010fd6:    e7ff        ..      B        0x10fd8 ; am_util_stdio_vsprintf + 1324
        0x00010fd8:    9814        ..      LDR      r0,[sp,#0x50]
        0x00010fda:    3001        .0      ADDS     r0,#1
        0x00010fdc:    9014        ..      STR      r0,[sp,#0x50]
        0x00010fde:    e7ff        ..      B        0x10fe0 ; am_util_stdio_vsprintf + 1332
        0x00010fe0:    e012        ..      B        0x11008 ; am_util_stdio_vsprintf + 1372
        0x00010fe2:    f89d003f    ..?.    LDRB     r0,[sp,#0x3f]
        0x00010fe6:    07c0        ..      LSLS     r0,r0,#31
        0x00010fe8:    b168        h.      CBZ      r0,0x11006 ; am_util_stdio_vsprintf + 1370
        0x00010fea:    e7ff        ..      B        0x10fec ; am_util_stdio_vsprintf + 1344
        0x00010fec:    981c        ..      LDR      r0,[sp,#0x70]
        0x00010fee:    b130        0.      CBZ      r0,0x10ffe ; am_util_stdio_vsprintf + 1362
        0x00010ff0:    e7ff        ..      B        0x10ff2 ; am_util_stdio_vsprintf + 1350
        0x00010ff2:    991c        ..      LDR      r1,[sp,#0x70]
        0x00010ff4:    1c48        H.      ADDS     r0,r1,#1
        0x00010ff6:    901c        ..      STR      r0,[sp,#0x70]
        0x00010ff8:    202d        -       MOVS     r0,#0x2d
        0x00010ffa:    7008        .p      STRB     r0,[r1,#0]
        0x00010ffc:    e7ff        ..      B        0x10ffe ; am_util_stdio_vsprintf + 1362
        0x00010ffe:    9814        ..      LDR      r0,[sp,#0x50]
        0x00011000:    3001        .0      ADDS     r0,#1
        0x00011002:    9014        ..      STR      r0,[sp,#0x50]
        0x00011004:    e7ff        ..      B        0x11006 ; am_util_stdio_vsprintf + 1370
        0x00011006:    e7ff        ..      B        0x11008 ; am_util_stdio_vsprintf + 1372
        0x00011008:    9818        ..      LDR      r0,[sp,#0x60]
        0x0001100a:    9919        ..      LDR      r1,[sp,#0x64]
        0x0001100c:    9a1c        ..      LDR      r2,[sp,#0x70]
        0x0001100e:    f001fad1    ....    BL       uint64_to_str ; 0x125b4
        0x00011012:    9012        ..      STR      r0,[sp,#0x48]
        0x00011014:    981c        ..      LDR      r0,[sp,#0x70]
        0x00011016:    b128        (.      CBZ      r0,0x11024 ; am_util_stdio_vsprintf + 1400
        0x00011018:    e7ff        ..      B        0x1101a ; am_util_stdio_vsprintf + 1390
        0x0001101a:    9912        ..      LDR      r1,[sp,#0x48]
        0x0001101c:    981c        ..      LDR      r0,[sp,#0x70]
        0x0001101e:    4408        .D      ADD      r0,r0,r1
        0x00011020:    901c        ..      STR      r0,[sp,#0x70]
        0x00011022:    e7ff        ..      B        0x11024 ; am_util_stdio_vsprintf + 1400
        0x00011024:    9912        ..      LDR      r1,[sp,#0x48]
        0x00011026:    9814        ..      LDR      r0,[sp,#0x50]
        0x00011028:    4408        .D      ADD      r0,r0,r1
        0x0001102a:    9014        ..      STR      r0,[sp,#0x50]
        0x0001102c:    e059        Y.      B        0x110e2 ; am_util_stdio_vsprintf + 1590
        0x0001102e:    981c        ..      LDR      r0,[sp,#0x70]
        0x00011030:    2800        .(      CMP      r0,#0
        0x00011032:    d047        G.      BEQ      0x110c4 ; am_util_stdio_vsprintf + 1560
        0x00011034:    e7ff        ..      B        0x11036 ; am_util_stdio_vsprintf + 1418
        0x00011036:    981d        ..      LDR      r0,[sp,#0x74]
        0x00011038:    3007        .0      ADDS     r0,#7
        0x0001103a:    f0200007     ...    BIC      r0,r0,#7
        0x0001103e:    f1000108    ....    ADD      r1,r0,#8
        0x00011042:    911d        ..      STR      r1,[sp,#0x74]
        0x00011044:    ed900b00    ....    VLDR     d0,[r0,#0]
        0x00011048:    ec510b10    Q...    VMOV     r0,r1,d0
        0x0001104c:    f001faf6    ....    BL       __aeabi_d2f ; 0x1263c
        0x00011050:    900d        ..      STR      r0,[sp,#0x34]
        0x00011052:    991c        ..      LDR      r1,[sp,#0x70]
        0x00011054:    2014        .       MOVS     r0,#0x14
        0x00011056:    6008        .`      STR      r0,[r1,#0]
        0x00011058:    ed9d0a0d    ....    VLDR     s0,[sp,#0x34]
        0x0001105c:    981c        ..      LDR      r0,[sp,#0x70]
        0x0001105e:    9911        ..      LDR      r1,[sp,#0x44]
        0x00011060:    f000f9f8    ....    BL       ftoa ; 0x11454
        0x00011064:    9012        ..      STR      r0,[sp,#0x48]
        0x00011066:    9812        ..      LDR      r0,[sp,#0x48]
        0x00011068:    f1b03fff    ...?    CMP      r0,#0xffffffff
        0x0001106c:    dc21        !.      BGT      0x110b2 ; am_util_stdio_vsprintf + 1542
        0x0001106e:    e7ff        ..      B        0x11070 ; am_util_stdio_vsprintf + 1476
        0x00011070:    9812        ..      LDR      r0,[sp,#0x48]
        0x00011072:    3001        .0      ADDS     r0,#1
        0x00011074:    b930        0.      CBNZ     r0,0x11084 ; am_util_stdio_vsprintf + 1496
        0x00011076:    e7ff        ..      B        0x11078 ; am_util_stdio_vsprintf + 1484
        0x00011078:    f6426030    B.0`    MOV      r0,#0x2e30
        0x0001107c:    f2c00030    ..0.    MOVT     r0,#0x30
        0x00011080:    900c        ..      STR      r0,[sp,#0x30]
        0x00011082:    e010        ..      B        0x110a6 ; am_util_stdio_vsprintf + 1530
        0x00011084:    9812        ..      LDR      r0,[sp,#0x48]
        0x00011086:    3002        .0      ADDS     r0,#2
        0x00011088:    b930        0.      CBNZ     r0,0x11098 ; am_util_stdio_vsprintf + 1516
        0x0001108a:    e7ff        ..      B        0x1108c ; am_util_stdio_vsprintf + 1504
        0x0001108c:    f6426023    B.#`    MOV      r0,#0x2e23
        0x00011090:    f2c00023    ..#.    MOVT     r0,#0x23
        0x00011094:    900c        ..      STR      r0,[sp,#0x30]
        0x00011096:    e005        ..      B        0x110a4 ; am_util_stdio_vsprintf + 1528
        0x00011098:    f642603f    B.?`    MOV      r0,#0x2e3f
        0x0001109c:    f2c0003f    ..?.    MOVT     r0,#0x3f
        0x000110a0:    900c        ..      STR      r0,[sp,#0x30]
        0x000110a2:    e7ff        ..      B        0x110a4 ; am_util_stdio_vsprintf + 1528
        0x000110a4:    e7ff        ..      B        0x110a6 ; am_util_stdio_vsprintf + 1530
        0x000110a6:    980c        ..      LDR      r0,[sp,#0x30]
        0x000110a8:    991c        ..      LDR      r1,[sp,#0x70]
        0x000110aa:    6008        .`      STR      r0,[r1,#0]
        0x000110ac:    2003        .       MOVS     r0,#3
        0x000110ae:    9012        ..      STR      r0,[sp,#0x48]
        0x000110b0:    e7ff        ..      B        0x110b2 ; am_util_stdio_vsprintf + 1542
        0x000110b2:    9912        ..      LDR      r1,[sp,#0x48]
        0x000110b4:    9814        ..      LDR      r0,[sp,#0x50]
        0x000110b6:    4408        .D      ADD      r0,r0,r1
        0x000110b8:    9014        ..      STR      r0,[sp,#0x50]
        0x000110ba:    9912        ..      LDR      r1,[sp,#0x48]
        0x000110bc:    981c        ..      LDR      r0,[sp,#0x70]
        0x000110be:    4408        .D      ADD      r0,r0,r1
        0x000110c0:    901c        ..      STR      r0,[sp,#0x70]
        0x000110c2:    e7ff        ..      B        0x110c4 ; am_util_stdio_vsprintf + 1560
        0x000110c4:    e00d        ..      B        0x110e2 ; am_util_stdio_vsprintf + 1590
        0x000110c6:    981c        ..      LDR      r0,[sp,#0x70]
        0x000110c8:    b138        8.      CBZ      r0,0x110da ; am_util_stdio_vsprintf + 1582
        0x000110ca:    e7ff        ..      B        0x110cc ; am_util_stdio_vsprintf + 1568
        0x000110cc:    981b        ..      LDR      r0,[sp,#0x6c]
        0x000110ce:    7800        .x      LDRB     r0,[r0,#0]
        0x000110d0:    991c        ..      LDR      r1,[sp,#0x70]
        0x000110d2:    1c4a        J.      ADDS     r2,r1,#1
        0x000110d4:    921c        ..      STR      r2,[sp,#0x70]
        0x000110d6:    7008        .p      STRB     r0,[r1,#0]
        0x000110d8:    e7ff        ..      B        0x110da ; am_util_stdio_vsprintf + 1582
        0x000110da:    9814        ..      LDR      r0,[sp,#0x50]
        0x000110dc:    3001        .0      ADDS     r0,#1
        0x000110de:    9014        ..      STR      r0,[sp,#0x50]
        0x000110e0:    e7ff        ..      B        0x110e2 ; am_util_stdio_vsprintf + 1590
        0x000110e2:    981b        ..      LDR      r0,[sp,#0x6c]
        0x000110e4:    3001        .0      ADDS     r0,#1
        0x000110e6:    901b        ..      STR      r0,[sp,#0x6c]
        0x000110e8:    f7ffbce9    ....    B.W      0x10abe ; am_util_stdio_vsprintf + 18
        0x000110ec:    981c        ..      LDR      r0,[sp,#0x70]
        0x000110ee:    b120         .      CBZ      r0,0x110fa ; am_util_stdio_vsprintf + 1614
        0x000110f0:    e7ff        ..      B        0x110f2 ; am_util_stdio_vsprintf + 1606
        0x000110f2:    991c        ..      LDR      r1,[sp,#0x70]
        0x000110f4:    2000        .       MOVS     r0,#0
        0x000110f6:    7008        .p      STRB     r0,[r1,#0]
        0x000110f8:    e7ff        ..      B        0x110fa ; am_util_stdio_vsprintf + 1614
        0x000110fa:    9814        ..      LDR      r0,[sp,#0x50]
        0x000110fc:    b01e        ..      ADD      sp,sp,#0x78
        0x000110fe:    bd80        ..      POP      {r7,pc}
    am_valid_sp
        0x00011100:    b082        ..      SUB      sp,sp,#8
        0x00011102:    9000        ..      STR      r0,[sp,#0]
        0x00011104:    9800        ..      LDR      r0,[sp,#0]
        0x00011106:    f1b05f80    ..._    CMP      r0,#0x10000000
        0x0001110a:    d30c        ..      BCC      0x11126 ; am_valid_sp + 38
        0x0001110c:    e7ff        ..      B        0x1110e ; am_valid_sp + 14
        0x0001110e:    9800        ..      LDR      r0,[sp,#0]
        0x00011110:    f64f71ff    O..q    MOV      r1,#0xffff
        0x00011114:    f2c1010b    ....    MOVT     r1,#0x100b
        0x00011118:    4288        .B      CMP      r0,r1
        0x0001111a:    d804        ..      BHI      0x11126 ; am_valid_sp + 38
        0x0001111c:    e7ff        ..      B        0x1111e ; am_valid_sp + 30
        0x0001111e:    2001        .       MOVS     r0,#1
        0x00011120:    f88d0007    ....    STRB     r0,[sp,#7]
        0x00011124:    e003        ..      B        0x1112e ; am_valid_sp + 46
        0x00011126:    2000        .       MOVS     r0,#0
        0x00011128:    f88d0007    ....    STRB     r0,[sp,#7]
        0x0001112c:    e7ff        ..      B        0x1112e ; am_valid_sp + 46
        0x0001112e:    f89d0007    ....    LDRB     r0,[sp,#7]
        0x00011132:    b002        ..      ADD      sp,sp,#8
        0x00011134:    4770        pG      BX       lr
        0x00011136:    0000        ..      MOVS     r0,r0
    build_dma_cmdlist
        0x00011138:    b5f0        ..      PUSH     {r4-r7,lr}
        0x0001113a:    f8d0e004    ....    LDR      lr,[r0,#4]
        0x0001113e:    2901        .)      CMP      r1,#1
        0x00011140:    f04f0c00    O...    MOV      r12,#0
        0x00011144:    d046        F.      BEQ      0x111d4 ; build_dma_cmdlist + 156
        0x00011146:    2900        .)      CMP      r1,#0
        0x00011148:    f04080a1    @...    BNE.W    0x1128e ; build_dma_cmdlist + 342
        0x0001114c:    6819        .h      LDR      r1,[r3,#0]
        0x0001114e:    2500        .%      MOVS     r5,#0
        0x00011150:    ebb54f11    ...O    CMP      r5,r1,LSR #16
        0x00011154:    d142        B.      BNE      0x111dc ; build_dma_cmdlist + 164
        0x00011156:    f2440500    D...    MOVW     r5,#0x4000
        0x0001115a:    f2c50501    ....    MOVT     r5,#0x5001
        0x0001115e:    eb05350e    ...5    ADD      r5,r5,lr,LSL #12
        0x00011162:    689c        .h      LDR      r4,[r3,#8]
        0x00011164:    f1050c08    ....    ADD      r12,r5,#8
        0x00011168:    e9c2c400    ....    STRD     r12,r4,[r2,#0]
        0x0001116c:    89dc        ..      LDRH     r4,[r3,#0xe]
        0x0001116e:    f1050c0c    ....    ADD      r12,r5,#0xc
        0x00011172:    e9c2c402    ....    STRD     r12,r4,[r2,#8]
        0x00011176:    795c        \y      LDRB     r4,[r3,#5]
        0x00011178:    6115        .a      STR      r5,[r2,#0x10]
        0x0001117a:    791d        .y      LDRB     r5,[r3,#4]
        0x0001117c:    0324        $.      LSLS     r4,r4,#12
        0x0001117e:    f893c006    ....    LDRB     r12,[r3,#6]
        0x00011182:    ea444101    D..A    ORR      r1,r4,r1,LSL #16
        0x00011186:    ea4121c5    A..!    ORR      r1,r1,r5,LSL #11
        0x0001118a:    7b1c        .{      LDRB     r4,[r3,#0xc]
        0x0001118c:    f893e007    ....    LDRB     lr,[r3,#7]
        0x00011190:    f36c218a    l..!    BFI      r1,r12,#10,#1
        0x00011194:    7c1d        .|      LDRB     r5,[r3,#0x10]
        0x00011196:    7a80        .z      LDRB     r0,[r0,#0xa]
        0x00011198:    ea412144    A.D!    ORR      r1,r1,r4,LSL #9
        0x0001119c:    ea41210e    A..!    ORR      r1,r1,lr,LSL #8
        0x000111a0:    f0050501    ....    AND      r5,r5,#1
        0x000111a4:    0180        ..      LSLS     r0,r0,#6
        0x000111a6:    ea4111c5    A...    ORR      r1,r1,r5,LSL #7
        0x000111aa:    7cdd        .|      LDRB     r5,[r3,#0x13]
        0x000111ac:    3001        .0      ADDS     r0,#1
        0x000111ae:    7c5c        \|      LDRB     r4,[r3,#0x11]
        0x000111b0:    b2c0        ..      UXTB     r0,r0
        0x000111b2:    f0050507    ....    AND      r5,r5,#7
        0x000111b6:    7c9b        .|      LDRB     r3,[r3,#0x12]
        0x000111b8:    4308        .C      ORRS     r0,r0,r1
        0x000111ba:    f004040f    ....    AND      r4,r4,#0xf
        0x000111be:    ea401045    @.E.    ORR      r0,r0,r5,LSL #5
        0x000111c2:    f003031f    ....    AND      r3,r3,#0x1f
        0x000111c6:    ea401004    @...    ORR      r0,r0,r4,LSL #4
        0x000111ca:    ea4000c3    @...    ORR      r0,r0,r3,LSL #3
        0x000111ce:    6150        Pa      STR      r0,[r2,#0x14]
        0x000111d0:    2000        .       MOVS     r0,#0
        0x000111d2:    bdf0        ..      POP      {r4-r7,pc}
        0x000111d4:    6859        Yh      LDR      r1,[r3,#4]
        0x000111d6:    ebbc6f11    ...o    CMP      r12,r1,LSR #24
        0x000111da:    d001        ..      BEQ      0x111e0 ; build_dma_cmdlist + 168
        0x000111dc:    2005        .       MOVS     r0,#5
        0x000111de:    bdf0        ..      POP      {r4-r7,pc}
        0x000111e0:    f8d07834    ..4x    LDR      r7,[r0,#0x834]
        0x000111e4:    f8d3c010    ....    LDR      r12,[r3,#0x10]
        0x000111e8:    b137        7.      CBZ      r7,0x111f8 ; build_dma_cmdlist + 192
        0x000111ea:    f1bc0f00    ....    CMP      r12,#0
        0x000111ee:    bf1c        ..      ITT      NE
        0x000111f0:    2007        .       MOVNE    r0,#7
        0x000111f2:    bdf0        ..      POPNE    {r4-r7,pc}
        0x000111f4:    f04f0c00    O...    MOV      r12,#0
        0x000111f8:    f2440400    D...    MOVW     r4,#0x4000
        0x000111fc:    f2c50401    ....    MOVT     r4,#0x5001
        0x00011200:    eb04340e    ...4    ADD      r4,r4,lr,LSL #12
        0x00011204:    f5047616    ...v    ADD      r6,r4,#0x258
        0x00011208:    6116        .a      STR      r6,[r2,#0x10]
        0x0001120a:    68de        .h      LDR      r6,[r3,#0xc]
        0x0001120c:    f5047514    ...u    ADD      r5,r4,#0x250
        0x00011210:    6156        Va      STR      r6,[r2,#0x14]
        0x00011212:    f5047617    ...v    ADD      r6,r4,#0x25c
        0x00011216:    6196        .a      STR      r6,[r2,#0x18]
        0x00011218:    689e        .h      LDR      r6,[r3,#8]
        0x0001121a:    6415        .d      STR      r5,[r2,#0x40]
        0x0001121c:    61d6        .a      STR      r6,[r2,#0x1c]
        0x0001121e:    f5047618    ...v    ADD      r6,r4,#0x260
        0x00011222:    6295        .b      STR      r5,[r2,#0x28]
        0x00011224:    785d        ]x      LDRB     r5,[r3,#1]
        0x00011226:    e9c26108    ...a    STRD     r6,r1,[r2,#0x20]
        0x0001122a:    7819        .x      LDRB     r1,[r3,#0]
        0x0001122c:    2604        .&      MOVS     r6,#4
        0x0001122e:    ea060585    ....    AND      r5,r6,r5,LSL #2
        0x00011232:    f36105c4    a...    BFI      r5,r1,#3,#2
        0x00011236:    1ce9        ..      ADDS     r1,r5,#3
        0x00011238:    f04f0e00    O...    MOV      lr,#0
        0x0001123c:    62d1        .b      STR      r1,[r2,#0x2c]
        0x0001123e:    f504712d    ..-q    ADD      r1,r4,#0x2b4
        0x00011242:    f504762e    ...v    ADD      r6,r4,#0x2b8
        0x00011246:    2f02        ./      CMP      r7,#2
        0x00011248:    f44f4480    O..D    MOV      r4,#0x4000
        0x0001124c:    f8c2e044    ..D.    STR      lr,[r2,#0x44]
        0x00011250:    e9c21e0c    ....    STRD     r1,lr,[r2,#0x30]
        0x00011254:    e9c21e0e    ....    STRD     r1,lr,[r2,#0x38]
        0x00011258:    6096        .`      STR      r6,[r2,#8]
        0x0001125a:    6016        .`      STR      r6,[r2,#0]
        0x0001125c:    d00a        ..      BEQ      0x11274 ; build_dma_cmdlist + 316
        0x0001125e:    2f01        ./      CMP      r7,#1
        0x00011260:    d10c        ..      BNE      0x1127c ; build_dma_cmdlist + 324
        0x00011262:    f24407a0    D...    MOV      r7,#0x40a0
        0x00011266:    ea4c0507    L...    ORR      r5,r12,r7
        0x0001126a:    2702        .'      MOVS     r7,#2
        0x0001126c:    f8c07834    ..4x    STR      r7,[r0,#0x834]
        0x00011270:    e006        ..      B        0x11280 ; build_dma_cmdlist + 328
        0x00011272:    bf00        ..      NOP      
        0x00011274:    f44f4580    O..E    MOV      r5,#0x4000
        0x00011278:    e002        ..      B        0x11280 ; build_dma_cmdlist + 328
        0x0001127a:    bf00        ..      NOP      
        0x0001127c:    f44c4581    L..E    ORR      r5,r12,#0x4080
        0x00011280:    6958        Xi      LDR      r0,[r3,#0x14]
        0x00011282:    f04f0c00    O...    MOV      r12,#0
        0x00011286:    6055        U`      STR      r5,[r2,#4]
        0x00011288:    60d4        .`      STR      r4,[r2,#0xc]
        0x0001128a:    e9c21012    ....    STRD     r1,r0,[r2,#0x48]
        0x0001128e:    4660        `F      MOV      r0,r12
        0x00011290:    bdf0        ..      POP      {r4-r7,pc}
        0x00011292:    0000        ..      MOVS     r0,r0
    decstr_to_int
        0x00011294:    b087        ..      SUB      sp,sp,#0x1c
        0x00011296:    9006        ..      STR      r0,[sp,#0x18]
        0x00011298:    9105        ..      STR      r1,[sp,#0x14]
        0x0001129a:    2000        .       MOVS     r0,#0
        0x0001129c:    f88d0013    ....    STRB     r0,[sp,#0x13]
        0x000112a0:    9003        ..      STR      r0,[sp,#0xc]
        0x000112a2:    9002        ..      STR      r0,[sp,#8]
        0x000112a4:    9806        ..      LDR      r0,[sp,#0x18]
        0x000112a6:    7800        .x      LDRB     r0,[r0,#0]
        0x000112a8:    282d        -(      CMP      r0,#0x2d
        0x000112aa:    d10a        ..      BNE      0x112c2 ; decstr_to_int + 46
        0x000112ac:    e7ff        ..      B        0x112ae ; decstr_to_int + 26
        0x000112ae:    2001        .       MOVS     r0,#1
        0x000112b0:    f88d0013    ....    STRB     r0,[sp,#0x13]
        0x000112b4:    9806        ..      LDR      r0,[sp,#0x18]
        0x000112b6:    3001        .0      ADDS     r0,#1
        0x000112b8:    9006        ..      STR      r0,[sp,#0x18]
        0x000112ba:    9802        ..      LDR      r0,[sp,#8]
        0x000112bc:    3001        .0      ADDS     r0,#1
        0x000112be:    9002        ..      STR      r0,[sp,#8]
        0x000112c0:    e7ff        ..      B        0x112c2 ; decstr_to_int + 46
        0x000112c2:    e7ff        ..      B        0x112c4 ; decstr_to_int + 48
        0x000112c4:    9806        ..      LDR      r0,[sp,#0x18]
        0x000112c6:    7801        .x      LDRB     r1,[r0,#0]
        0x000112c8:    2000        .       MOVS     r0,#0
        0x000112ca:    2930        0)      CMP      r1,#0x30
        0x000112cc:    9001        ..      STR      r0,[sp,#4]
        0x000112ce:    db08        ..      BLT      0x112e2 ; decstr_to_int + 78
        0x000112d0:    e7ff        ..      B        0x112d2 ; decstr_to_int + 62
        0x000112d2:    9806        ..      LDR      r0,[sp,#0x18]
        0x000112d4:    7801        .x      LDRB     r1,[r0,#0]
        0x000112d6:    2000        .       MOVS     r0,#0
        0x000112d8:    293a        :)      CMP      r1,#0x3a
        0x000112da:    bfb8        ..      IT       LT
        0x000112dc:    2001        .       MOVLT    r0,#1
        0x000112de:    9001        ..      STR      r0,[sp,#4]
        0x000112e0:    e7ff        ..      B        0x112e2 ; decstr_to_int + 78
        0x000112e2:    9801        ..      LDR      r0,[sp,#4]
        0x000112e4:    07c0        ..      LSLS     r0,r0,#31
        0x000112e6:    b190        ..      CBZ      r0,0x1130e ; decstr_to_int + 122
        0x000112e8:    e7ff        ..      B        0x112ea ; decstr_to_int + 86
        0x000112ea:    9802        ..      LDR      r0,[sp,#8]
        0x000112ec:    3001        .0      ADDS     r0,#1
        0x000112ee:    9002        ..      STR      r0,[sp,#8]
        0x000112f0:    9803        ..      LDR      r0,[sp,#0xc]
        0x000112f2:    eb000080    ....    ADD      r0,r0,r0,LSL #2
        0x000112f6:    0040        @.      LSLS     r0,r0,#1
        0x000112f8:    9003        ..      STR      r0,[sp,#0xc]
        0x000112fa:    9806        ..      LDR      r0,[sp,#0x18]
        0x000112fc:    7800        .x      LDRB     r0,[r0,#0]
        0x000112fe:    9903        ..      LDR      r1,[sp,#0xc]
        0x00011300:    4408        .D      ADD      r0,r0,r1
        0x00011302:    3830        08      SUBS     r0,r0,#0x30
        0x00011304:    9003        ..      STR      r0,[sp,#0xc]
        0x00011306:    9806        ..      LDR      r0,[sp,#0x18]
        0x00011308:    3001        .0      ADDS     r0,#1
        0x0001130a:    9006        ..      STR      r0,[sp,#0x18]
        0x0001130c:    e7da        ..      B        0x112c4 ; decstr_to_int + 48
        0x0001130e:    9805        ..      LDR      r0,[sp,#0x14]
        0x00011310:    b120         .      CBZ      r0,0x1131c ; decstr_to_int + 136
        0x00011312:    e7ff        ..      B        0x11314 ; decstr_to_int + 128
        0x00011314:    9802        ..      LDR      r0,[sp,#8]
        0x00011316:    9905        ..      LDR      r1,[sp,#0x14]
        0x00011318:    6008        .`      STR      r0,[r1,#0]
        0x0001131a:    e7ff        ..      B        0x1131c ; decstr_to_int + 136
        0x0001131c:    f89d0013    ....    LDRB     r0,[sp,#0x13]
        0x00011320:    07c0        ..      LSLS     r0,r0,#31
        0x00011322:    b120         .      CBZ      r0,0x1132e ; decstr_to_int + 154
        0x00011324:    e7ff        ..      B        0x11326 ; decstr_to_int + 146
        0x00011326:    9803        ..      LDR      r0,[sp,#0xc]
        0x00011328:    4240        @B      RSBS     r0,r0,#0
        0x0001132a:    9000        ..      STR      r0,[sp,#0]
        0x0001132c:    e002        ..      B        0x11334 ; decstr_to_int + 160
        0x0001132e:    9803        ..      LDR      r0,[sp,#0xc]
        0x00011330:    9000        ..      STR      r0,[sp,#0]
        0x00011332:    e7ff        ..      B        0x11334 ; decstr_to_int + 160
        0x00011334:    9800        ..      LDR      r0,[sp,#0]
        0x00011336:    b007        ..      ADD      sp,sp,#0x1c
        0x00011338:    4770        pG      BX       lr
        0x0001133a:    0000        ..      MOVS     r0,r0
    divu64_10
        0x0001133c:    b08c        ..      SUB      sp,sp,#0x30
        0x0001133e:    9109        ..      STR      r1,[sp,#0x24]
        0x00011340:    9008        ..      STR      r0,[sp,#0x20]
        0x00011342:    9809        ..      LDR      r0,[sp,#0x24]
        0x00011344:    2800        .(      CMP      r0,#0
        0x00011346:    d05b        [.      BEQ      0x11400 ; divu64_10 + 196
        0x00011348:    e7ff        ..      B        0x1134a ; divu64_10 + 14
        0x0001134a:    9b08        ..      LDR      r3,[sp,#0x20]
        0x0001134c:    9a09        ..      LDR      r2,[sp,#0x24]
        0x0001134e:    ea5f0052    _.R.    LSRS.W   r0,r2,#1
        0x00011352:    ea4f0133    O.3.    RRX      r1,r3
        0x00011356:    089b        ..      LSRS     r3,r3,#2
        0x00011358:    ea437382    C..s    ORR      r3,r3,r2,LSL #30
        0x0001135c:    18c9        ..      ADDS     r1,r1,r3
        0x0001135e:    eb400092    @...    ADC      r0,r0,r2,LSR #2
        0x00011362:    9106        ..      STR      r1,[sp,#0x18]
        0x00011364:    9007        ..      STR      r0,[sp,#0x1c]
        0x00011366:    9906        ..      LDR      r1,[sp,#0x18]
        0x00011368:    9807        ..      LDR      r0,[sp,#0x1c]
        0x0001136a:    090a        ..      LSRS     r2,r1,#4
        0x0001136c:    ea427200    B..r    ORR      r2,r2,r0,LSL #28
        0x00011370:    1889        ..      ADDS     r1,r1,r2
        0x00011372:    eb401010    @...    ADC      r0,r0,r0,LSR #4
        0x00011376:    9106        ..      STR      r1,[sp,#0x18]
        0x00011378:    9007        ..      STR      r0,[sp,#0x1c]
        0x0001137a:    9906        ..      LDR      r1,[sp,#0x18]
        0x0001137c:    9807        ..      LDR      r0,[sp,#0x1c]
        0x0001137e:    0a0a        ..      LSRS     r2,r1,#8
        0x00011380:    ea426200    B..b    ORR      r2,r2,r0,LSL #24
        0x00011384:    1889        ..      ADDS     r1,r1,r2
        0x00011386:    eb402010    @..     ADC      r0,r0,r0,LSR #8
        0x0001138a:    9106        ..      STR      r1,[sp,#0x18]
        0x0001138c:    9007        ..      STR      r0,[sp,#0x1c]
        0x0001138e:    9906        ..      LDR      r1,[sp,#0x18]
        0x00011390:    9807        ..      LDR      r0,[sp,#0x1c]
        0x00011392:    0c0a        ..      LSRS     r2,r1,#16
        0x00011394:    ea424200    B..B    ORR      r2,r2,r0,LSL #16
        0x00011398:    1889        ..      ADDS     r1,r1,r2
        0x0001139a:    eb404010    @..@    ADC      r0,r0,r0,LSR #16
        0x0001139e:    9106        ..      STR      r1,[sp,#0x18]
        0x000113a0:    9007        ..      STR      r0,[sp,#0x1c]
        0x000113a2:    9906        ..      LDR      r1,[sp,#0x18]
        0x000113a4:    9807        ..      LDR      r0,[sp,#0x1c]
        0x000113a6:    1809        ..      ADDS     r1,r1,r0
        0x000113a8:    f1400000    @...    ADC      r0,r0,#0
        0x000113ac:    9106        ..      STR      r1,[sp,#0x18]
        0x000113ae:    9007        ..      STR      r0,[sp,#0x1c]
        0x000113b0:    9806        ..      LDR      r0,[sp,#0x18]
        0x000113b2:    9907        ..      LDR      r1,[sp,#0x1c]
        0x000113b4:    08c0        ..      LSRS     r0,r0,#3
        0x000113b6:    ea407041    @.Ap    ORR      r0,r0,r1,LSL #29
        0x000113ba:    08c9        ..      LSRS     r1,r1,#3
        0x000113bc:    9107        ..      STR      r1,[sp,#0x1c]
        0x000113be:    9006        ..      STR      r0,[sp,#0x18]
        0x000113c0:    9908        ..      LDR      r1,[sp,#0x20]
        0x000113c2:    9809        ..      LDR      r0,[sp,#0x24]
        0x000113c4:    9a06        ..      LDR      r2,[sp,#0x18]
        0x000113c6:    f8ddc01c    ....    LDR      r12,[sp,#0x1c]
        0x000113ca:    230a        .#      MOVS     r3,#0xa
        0x000113cc:    fba23203    ...2    UMULL    r3,r2,r2,r3
        0x000113d0:    eb0c0c8c    ....    ADD      r12,r12,r12,LSL #2
        0x000113d4:    eb02024c    ..L.    ADD      r2,r2,r12,LSL #1
        0x000113d8:    1ac9        ..      SUBS     r1,r1,r3
        0x000113da:    4190        .A      SBCS     r0,r0,r2
        0x000113dc:    9104        ..      STR      r1,[sp,#0x10]
        0x000113de:    9005        ..      STR      r0,[sp,#0x14]
        0x000113e0:    9906        ..      LDR      r1,[sp,#0x18]
        0x000113e2:    9807        ..      LDR      r0,[sp,#0x1c]
        0x000113e4:    9b04        ..      LDR      r3,[sp,#0x10]
        0x000113e6:    9a05        ..      LDR      r2,[sp,#0x14]
        0x000113e8:    3306        .3      ADDS     r3,#6
        0x000113ea:    f1420200    B...    ADC      r2,r2,#0
        0x000113ee:    091b        ..      LSRS     r3,r3,#4
        0x000113f0:    ea437302    C..s    ORR      r3,r3,r2,LSL #28
        0x000113f4:    18c9        ..      ADDS     r1,r1,r3
        0x000113f6:    eb401012    @...    ADC      r0,r0,r2,LSR #4
        0x000113fa:    910a        ..      STR      r1,[sp,#0x28]
        0x000113fc:    900b        ..      STR      r0,[sp,#0x2c]
        0x000113fe:    e025        %.      B        0x1144c ; divu64_10 + 272
        0x00011400:    9808        ..      LDR      r0,[sp,#0x20]
        0x00011402:    9001        ..      STR      r0,[sp,#4]
        0x00011404:    9901        ..      LDR      r1,[sp,#4]
        0x00011406:    0848        H.      LSRS     r0,r1,#1
        0x00011408:    eb000091    ....    ADD      r0,r0,r1,LSR #2
        0x0001140c:    9003        ..      STR      r0,[sp,#0xc]
        0x0001140e:    9803        ..      LDR      r0,[sp,#0xc]
        0x00011410:    eb001010    ....    ADD      r0,r0,r0,LSR #4
        0x00011414:    9003        ..      STR      r0,[sp,#0xc]
        0x00011416:    9803        ..      LDR      r0,[sp,#0xc]
        0x00011418:    eb002010    ...     ADD      r0,r0,r0,LSR #8
        0x0001141c:    9003        ..      STR      r0,[sp,#0xc]
        0x0001141e:    9803        ..      LDR      r0,[sp,#0xc]
        0x00011420:    eb004010    ...@    ADD      r0,r0,r0,LSR #16
        0x00011424:    9003        ..      STR      r0,[sp,#0xc]
        0x00011426:    9803        ..      LDR      r0,[sp,#0xc]
        0x00011428:    08c0        ..      LSRS     r0,r0,#3
        0x0001142a:    9003        ..      STR      r0,[sp,#0xc]
        0x0001142c:    9801        ..      LDR      r0,[sp,#4]
        0x0001142e:    9903        ..      LDR      r1,[sp,#0xc]
        0x00011430:    eb010181    ....    ADD      r1,r1,r1,LSL #2
        0x00011434:    eba00041    ..A.    SUB      r0,r0,r1,LSL #1
        0x00011438:    9002        ..      STR      r0,[sp,#8]
        0x0001143a:    9803        ..      LDR      r0,[sp,#0xc]
        0x0001143c:    9902        ..      LDR      r1,[sp,#8]
        0x0001143e:    3106        .1      ADDS     r1,#6
        0x00011440:    eb001011    ....    ADD      r0,r0,r1,LSR #4
        0x00011444:    2100        .!      MOVS     r1,#0
        0x00011446:    910b        ..      STR      r1,[sp,#0x2c]
        0x00011448:    900a        ..      STR      r0,[sp,#0x28]
        0x0001144a:    e7ff        ..      B        0x1144c ; divu64_10 + 272
        0x0001144c:    980a        ..      LDR      r0,[sp,#0x28]
        0x0001144e:    990b        ..      LDR      r1,[sp,#0x2c]
        0x00011450:    b00c        ..      ADD      sp,sp,#0x30
        0x00011452:    4770        pG      BX       lr
    ftoa
        0x00011454:    b580        ..      PUSH     {r7,lr}
        0x00011456:    b090        ..      SUB      sp,sp,#0x40
        0x00011458:    ed8d0a0e    ....    VSTR     s0,[sp,#0x38]
        0x0001145c:    900d        ..      STR      r0,[sp,#0x34]
        0x0001145e:    910c        ..      STR      r1,[sp,#0x30]
        0x00011460:    980d        ..      LDR      r0,[sp,#0x34]
        0x00011462:    6800        .h      LDR      r0,[r0,#0]
        0x00011464:    9009        ..      STR      r0,[sp,#0x24]
        0x00011466:    9809        ..      LDR      r0,[sp,#0x24]
        0x00011468:    2803        .(      CMP      r0,#3
        0x0001146a:    dc04        ..      BGT      0x11476 ; ftoa + 34
        0x0001146c:    e7ff        ..      B        0x1146e ; ftoa + 26
        0x0001146e:    f06f0002    o...    MVN      r0,#2
        0x00011472:    900f        ..      STR      r0,[sp,#0x3c]
        0x00011474:    e103        ..      B        0x1167e ; ftoa + 554
        0x00011476:    ed9d0a0e    ....    VLDR     s0,[sp,#0x38]
        0x0001147a:    eeb50a40    ..@.    VCMP.F32 s0,#0.0
        0x0001147e:    eef1fa10    ....    VMRS     APSR_nzcv,FPSCR
        0x00011482:    d109        ..      BNE      0x11498 ; ftoa + 68
        0x00011484:    e7ff        ..      B        0x11486 ; ftoa + 50
        0x00011486:    990d        ..      LDR      r1,[sp,#0x34]
        0x00011488:    f6426030    B.0`    MOV      r0,#0x2e30
        0x0001148c:    f2c00030    ..0.    MOVT     r0,#0x30
        0x00011490:    6008        .`      STR      r0,[r1,#0]
        0x00011492:    2003        .       MOVS     r0,#3
        0x00011494:    900f        ..      STR      r0,[sp,#0x3c]
        0x00011496:    e0f2        ..      B        0x1167e ; ftoa + 554
        0x00011498:    980d        ..      LDR      r0,[sp,#0x34]
        0x0001149a:    9005        ..      STR      r0,[sp,#0x14]
        0x0001149c:    980e        ..      LDR      r0,[sp,#0x38]
        0x0001149e:    900b        ..      STR      r0,[sp,#0x2c]
        0x000114a0:    980b        ..      LDR      r0,[sp,#0x2c]
        0x000114a2:    0dc1        ..      LSRS     r1,r0,#23
        0x000114a4:    f06f007e    o.~.    MVN      r0,#0x7e
        0x000114a8:    fa50f081    P...    UXTAB    r0,r0,r1
        0x000114ac:    900a        ..      STR      r0,[sp,#0x28]
        0x000114ae:    980b        ..      LDR      r0,[sp,#0x2c]
        0x000114b0:    f4400000    @...    ORR      r0,r0,#0x800000
        0x000114b4:    f020407f     ..@    BIC      r0,r0,#0xff000000
        0x000114b8:    9008        ..      STR      r0,[sp,#0x20]
        0x000114ba:    2000        .       MOVS     r0,#0
        0x000114bc:    9006        ..      STR      r0,[sp,#0x18]
        0x000114be:    9007        ..      STR      r0,[sp,#0x1c]
        0x000114c0:    980a        ..      LDR      r0,[sp,#0x28]
        0x000114c2:    281f        .(      CMP      r0,#0x1f
        0x000114c4:    db04        ..      BLT      0x114d0 ; ftoa + 124
        0x000114c6:    e7ff        ..      B        0x114c8 ; ftoa + 116
        0x000114c8:    f06f0001    o...    MVN      r0,#1
        0x000114cc:    900f        ..      STR      r0,[sp,#0x3c]
        0x000114ce:    e0d6        ..      B        0x1167e ; ftoa + 554
        0x000114d0:    980a        ..      LDR      r0,[sp,#0x28]
        0x000114d2:    f1100f18    ....    CMN      r0,#0x18
        0x000114d6:    dc04        ..      BGT      0x114e2 ; ftoa + 142
        0x000114d8:    e7ff        ..      B        0x114da ; ftoa + 134
        0x000114da:    f04f30ff    O..0    MOV      r0,#0xffffffff
        0x000114de:    900f        ..      STR      r0,[sp,#0x3c]
        0x000114e0:    e0cd        ..      B        0x1167e ; ftoa + 554
        0x000114e2:    980a        ..      LDR      r0,[sp,#0x28]
        0x000114e4:    2817        .(      CMP      r0,#0x17
        0x000114e6:    db06        ..      BLT      0x114f6 ; ftoa + 162
        0x000114e8:    e7ff        ..      B        0x114ea ; ftoa + 150
        0x000114ea:    9808        ..      LDR      r0,[sp,#0x20]
        0x000114ec:    990a        ..      LDR      r1,[sp,#0x28]
        0x000114ee:    3917        .9      SUBS     r1,r1,#0x17
        0x000114f0:    4088        .@      LSLS     r0,r0,r1
        0x000114f2:    9007        ..      STR      r0,[sp,#0x1c]
        0x000114f4:    e01a        ..      B        0x1152c ; ftoa + 216
        0x000114f6:    980a        ..      LDR      r0,[sp,#0x28]
        0x000114f8:    2800        .(      CMP      r0,#0
        0x000114fa:    d40e        ..      BMI      0x1151a ; ftoa + 198
        0x000114fc:    e7ff        ..      B        0x114fe ; ftoa + 170
        0x000114fe:    9808        ..      LDR      r0,[sp,#0x20]
        0x00011500:    990a        ..      LDR      r1,[sp,#0x28]
        0x00011502:    f1c10117    ....    RSB      r1,r1,#0x17
        0x00011506:    4108        .A      ASRS     r0,r0,r1
        0x00011508:    9007        ..      STR      r0,[sp,#0x1c]
        0x0001150a:    9808        ..      LDR      r0,[sp,#0x20]
        0x0001150c:    990a        ..      LDR      r1,[sp,#0x28]
        0x0001150e:    3101        .1      ADDS     r1,#1
        0x00011510:    4088        .@      LSLS     r0,r0,r1
        0x00011512:    f020407f     ..@    BIC      r0,r0,#0xff000000
        0x00011516:    9006        ..      STR      r0,[sp,#0x18]
        0x00011518:    e007        ..      B        0x1152a ; ftoa + 214
        0x0001151a:    9808        ..      LDR      r0,[sp,#0x20]
        0x0001151c:    f020407f     ..@    BIC      r0,r0,#0xff000000
        0x00011520:    990a        ..      LDR      r1,[sp,#0x28]
        0x00011522:    43c9        .C      MVNS     r1,r1
        0x00011524:    40c8        .@      LSRS     r0,r0,r1
        0x00011526:    9006        ..      STR      r0,[sp,#0x18]
        0x00011528:    e7ff        ..      B        0x1152a ; ftoa + 214
        0x0001152a:    e7ff        ..      B        0x1152c ; ftoa + 216
        0x0001152c:    e7ff        ..      B        0x1152e ; ftoa + 218
        0x0001152e:    e7ff        ..      B        0x11530 ; ftoa + 220
        0x00011530:    980b        ..      LDR      r0,[sp,#0x2c]
        0x00011532:    f1b03fff    ...?    CMP      r0,#0xffffffff
        0x00011536:    dc06        ..      BGT      0x11546 ; ftoa + 242
        0x00011538:    e7ff        ..      B        0x1153a ; ftoa + 230
        0x0001153a:    990d        ..      LDR      r1,[sp,#0x34]
        0x0001153c:    1c48        H.      ADDS     r0,r1,#1
        0x0001153e:    900d        ..      STR      r0,[sp,#0x34]
        0x00011540:    202d        -       MOVS     r0,#0x2d
        0x00011542:    7008        .p      STRB     r0,[r1,#0]
        0x00011544:    e7ff        ..      B        0x11546 ; ftoa + 242
        0x00011546:    9807        ..      LDR      r0,[sp,#0x1c]
        0x00011548:    b930        0.      CBNZ     r0,0x11558 ; ftoa + 260
        0x0001154a:    e7ff        ..      B        0x1154c ; ftoa + 248
        0x0001154c:    990d        ..      LDR      r1,[sp,#0x34]
        0x0001154e:    1c48        H.      ADDS     r0,r1,#1
        0x00011550:    900d        ..      STR      r0,[sp,#0x34]
        0x00011552:    2030        0       MOVS     r0,#0x30
        0x00011554:    7008        .p      STRB     r0,[r1,#0]
        0x00011556:    e01f        ..      B        0x11598 ; ftoa + 324
        0x00011558:    9807        ..      LDR      r0,[sp,#0x1c]
        0x0001155a:    2801        .(      CMP      r0,#1
        0x0001155c:    db06        ..      BLT      0x1156c ; ftoa + 280
        0x0001155e:    e7ff        ..      B        0x11560 ; ftoa + 268
        0x00011560:    9807        ..      LDR      r0,[sp,#0x1c]
        0x00011562:    17c1        ..      ASRS     r1,r0,#31
        0x00011564:    9a0d        ..      LDR      r2,[sp,#0x34]
        0x00011566:    f001f825    ..%.    BL       uint64_to_str ; 0x125b4
        0x0001156a:    e00b        ..      B        0x11584 ; ftoa + 304
        0x0001156c:    990d        ..      LDR      r1,[sp,#0x34]
        0x0001156e:    1c48        H.      ADDS     r0,r1,#1
        0x00011570:    900d        ..      STR      r0,[sp,#0x34]
        0x00011572:    202d        -       MOVS     r0,#0x2d
        0x00011574:    7008        .p      STRB     r0,[r1,#0]
        0x00011576:    9807        ..      LDR      r0,[sp,#0x1c]
        0x00011578:    4240        @B      RSBS     r0,r0,#0
        0x0001157a:    17c1        ..      ASRS     r1,r0,#31
        0x0001157c:    9a0d        ..      LDR      r2,[sp,#0x34]
        0x0001157e:    f001f819    ....    BL       uint64_to_str ; 0x125b4
        0x00011582:    e7ff        ..      B        0x11584 ; ftoa + 304
        0x00011584:    e7ff        ..      B        0x11586 ; ftoa + 306
        0x00011586:    980d        ..      LDR      r0,[sp,#0x34]
        0x00011588:    7800        .x      LDRB     r0,[r0,#0]
        0x0001158a:    b120         .      CBZ      r0,0x11596 ; ftoa + 322
        0x0001158c:    e7ff        ..      B        0x1158e ; ftoa + 314
        0x0001158e:    980d        ..      LDR      r0,[sp,#0x34]
        0x00011590:    3001        .0      ADDS     r0,#1
        0x00011592:    900d        ..      STR      r0,[sp,#0x34]
        0x00011594:    e7f7        ..      B        0x11586 ; ftoa + 306
        0x00011596:    e7ff        ..      B        0x11598 ; ftoa + 324
        0x00011598:    990d        ..      LDR      r1,[sp,#0x34]
        0x0001159a:    1c48        H.      ADDS     r0,r1,#1
        0x0001159c:    900d        ..      STR      r0,[sp,#0x34]
        0x0001159e:    202e        .       MOVS     r0,#0x2e
        0x000115a0:    7008        .p      STRB     r0,[r1,#0]
        0x000115a2:    9806        ..      LDR      r0,[sp,#0x18]
        0x000115a4:    b930        0.      CBNZ     r0,0x115b4 ; ftoa + 352
        0x000115a6:    e7ff        ..      B        0x115a8 ; ftoa + 340
        0x000115a8:    990d        ..      LDR      r1,[sp,#0x34]
        0x000115aa:    1c48        H.      ADDS     r0,r1,#1
        0x000115ac:    900d        ..      STR      r0,[sp,#0x34]
        0x000115ae:    2030        0       MOVS     r0,#0x30
        0x000115b0:    7008        .p      STRB     r0,[r1,#0]
        0x000115b2:    e05c        \.      B        0x1166e ; ftoa + 538
        0x000115b4:    9909        ..      LDR      r1,[sp,#0x24]
        0x000115b6:    980d        ..      LDR      r0,[sp,#0x34]
        0x000115b8:    9a05        ..      LDR      r2,[sp,#0x14]
        0x000115ba:    1a80        ..      SUBS     r0,r0,r2
        0x000115bc:    43c0        .C      MVNS     r0,r0
        0x000115be:    4408        .D      ADD      r0,r0,r1
        0x000115c0:    9002        ..      STR      r0,[sp,#8]
        0x000115c2:    9802        ..      LDR      r0,[sp,#8]
        0x000115c4:    990c        ..      LDR      r1,[sp,#0x30]
        0x000115c6:    4288        .B      CMP      r0,r1
        0x000115c8:    dd03        ..      BLE      0x115d2 ; ftoa + 382
        0x000115ca:    e7ff        ..      B        0x115cc ; ftoa + 376
        0x000115cc:    980c        ..      LDR      r0,[sp,#0x30]
        0x000115ce:    9001        ..      STR      r0,[sp,#4]
        0x000115d0:    e002        ..      B        0x115d8 ; ftoa + 388
        0x000115d2:    9802        ..      LDR      r0,[sp,#8]
        0x000115d4:    9001        ..      STR      r0,[sp,#4]
        0x000115d6:    e7ff        ..      B        0x115d8 ; ftoa + 388
        0x000115d8:    9801        ..      LDR      r0,[sp,#4]
        0x000115da:    9002        ..      STR      r0,[sp,#8]
        0x000115dc:    2000        .       MOVS     r0,#0
        0x000115de:    9003        ..      STR      r0,[sp,#0xc]
        0x000115e0:    e7ff        ..      B        0x115e2 ; ftoa + 398
        0x000115e2:    9803        ..      LDR      r0,[sp,#0xc]
        0x000115e4:    9902        ..      LDR      r1,[sp,#8]
        0x000115e6:    4288        .B      CMP      r0,r1
        0x000115e8:    da15        ..      BGE      0x11616 ; ftoa + 450
        0x000115ea:    e7ff        ..      B        0x115ec ; ftoa + 408
        0x000115ec:    9806        ..      LDR      r0,[sp,#0x18]
        0x000115ee:    eb000080    ....    ADD      r0,r0,r0,LSL #2
        0x000115f2:    0040        @.      LSLS     r0,r0,#1
        0x000115f4:    9006        ..      STR      r0,[sp,#0x18]
        0x000115f6:    f89d001b    ....    LDRB     r0,[sp,#0x1b]
        0x000115fa:    3030        00      ADDS     r0,r0,#0x30
        0x000115fc:    990d        ..      LDR      r1,[sp,#0x34]
        0x000115fe:    1c4a        J.      ADDS     r2,r1,#1
        0x00011600:    920d        ..      STR      r2,[sp,#0x34]
        0x00011602:    7008        .p      STRB     r0,[r1,#0]
        0x00011604:    9806        ..      LDR      r0,[sp,#0x18]
        0x00011606:    f020407f     ..@    BIC      r0,r0,#0xff000000
        0x0001160a:    9006        ..      STR      r0,[sp,#0x18]
        0x0001160c:    e7ff        ..      B        0x1160e ; ftoa + 442
        0x0001160e:    9803        ..      LDR      r0,[sp,#0xc]
        0x00011610:    3001        .0      ADDS     r0,#1
        0x00011612:    9003        ..      STR      r0,[sp,#0xc]
        0x00011614:    e7e5        ..      B        0x115e2 ; ftoa + 398
        0x00011616:    9806        ..      LDR      r0,[sp,#0x18]
        0x00011618:    eb000080    ....    ADD      r0,r0,r0,LSL #2
        0x0001161c:    f34050c7    @..P    SBFX     r0,r0,#23,#8
        0x00011620:    2805        .(      CMP      r0,#5
        0x00011622:    db23        #.      BLT      0x1166c ; ftoa + 536
        0x00011624:    e7ff        ..      B        0x11626 ; ftoa + 466
        0x00011626:    980d        ..      LDR      r0,[sp,#0x34]
        0x00011628:    3801        .8      SUBS     r0,#1
        0x0001162a:    9004        ..      STR      r0,[sp,#0x10]
        0x0001162c:    e7ff        ..      B        0x1162e ; ftoa + 474
        0x0001162e:    9804        ..      LDR      r0,[sp,#0x10]
        0x00011630:    9905        ..      LDR      r1,[sp,#0x14]
        0x00011632:    4288        .B      CMP      r0,r1
        0x00011634:    d319        ..      BCC      0x1166a ; ftoa + 534
        0x00011636:    e7ff        ..      B        0x11638 ; ftoa + 484
        0x00011638:    9804        ..      LDR      r0,[sp,#0x10]
        0x0001163a:    7800        .x      LDRB     r0,[r0,#0]
        0x0001163c:    282e        .(      CMP      r0,#0x2e
        0x0001163e:    d101        ..      BNE      0x11644 ; ftoa + 496
        0x00011640:    e7ff        ..      B        0x11642 ; ftoa + 494
        0x00011642:    e00e        ..      B        0x11662 ; ftoa + 526
        0x00011644:    9804        ..      LDR      r0,[sp,#0x10]
        0x00011646:    7800        .x      LDRB     r0,[r0,#0]
        0x00011648:    2839        9(      CMP      r0,#0x39
        0x0001164a:    d104        ..      BNE      0x11656 ; ftoa + 514
        0x0001164c:    e7ff        ..      B        0x1164e ; ftoa + 506
        0x0001164e:    9904        ..      LDR      r1,[sp,#0x10]
        0x00011650:    2030        0       MOVS     r0,#0x30
        0x00011652:    7008        .p      STRB     r0,[r1,#0]
        0x00011654:    e004        ..      B        0x11660 ; ftoa + 524
        0x00011656:    9904        ..      LDR      r1,[sp,#0x10]
        0x00011658:    7808        .x      LDRB     r0,[r1,#0]
        0x0001165a:    3001        .0      ADDS     r0,#1
        0x0001165c:    7008        .p      STRB     r0,[r1,#0]
        0x0001165e:    e004        ..      B        0x1166a ; ftoa + 534
        0x00011660:    e7ff        ..      B        0x11662 ; ftoa + 526
        0x00011662:    9804        ..      LDR      r0,[sp,#0x10]
        0x00011664:    3801        .8      SUBS     r0,#1
        0x00011666:    9004        ..      STR      r0,[sp,#0x10]
        0x00011668:    e7e1        ..      B        0x1162e ; ftoa + 474
        0x0001166a:    e7ff        ..      B        0x1166c ; ftoa + 536
        0x0001166c:    e7ff        ..      B        0x1166e ; ftoa + 538
        0x0001166e:    990d        ..      LDR      r1,[sp,#0x34]
        0x00011670:    2000        .       MOVS     r0,#0
        0x00011672:    7008        .p      STRB     r0,[r1,#0]
        0x00011674:    980d        ..      LDR      r0,[sp,#0x34]
        0x00011676:    9905        ..      LDR      r1,[sp,#0x14]
        0x00011678:    1a40        @.      SUBS     r0,r0,r1
        0x0001167a:    900f        ..      STR      r0,[sp,#0x3c]
        0x0001167c:    e7ff        ..      B        0x1167e ; ftoa + 554
        0x0001167e:    980f        ..      LDR      r0,[sp,#0x3c]
        0x00011680:    b010        ..      ADD      sp,sp,#0x40
        0x00011682:    bd80        ..      POP      {r7,pc}
    main
        0x00011684:    b510        ..      PUSH     {r4,lr}
        0x00011686:    b096        ..      SUB      sp,sp,#0x58
        0x00011688:    2100        .!      MOVS     r1,#0
        0x0001168a:    9115        ..      STR      r1,[sp,#0x54]
        0x0001168c:    f2427e60    B.`~    MOV      lr,#0x2760
        0x00011690:    f2c00e01    ....    MOVT     lr,#1
        0x00011694:    f8de0000    ....    LDR      r0,[lr,#0]
        0x00011698:    f8de2004    ...     LDR      r2,[lr,#4]
        0x0001169c:    f8de3008    ...0    LDR      r3,[lr,#8]
        0x000116a0:    f8dec00c    ....    LDR      r12,[lr,#0xc]
        0x000116a4:    f8dee010    ....    LDR      lr,[lr,#0x10]
        0x000116a8:    f8cde048    ..H.    STR      lr,[sp,#0x48]
        0x000116ac:    f8cdc044    ..D.    STR      r12,[sp,#0x44]
        0x000116b0:    9310        ..      STR      r3,[sp,#0x40]
        0x000116b2:    920f        ..      STR      r2,[sp,#0x3c]
        0x000116b4:    900e        ..      STR      r0,[sp,#0x38]
        0x000116b6:    f88d1037    ..7.    STRB     r1,[sp,#0x37]
        0x000116ba:    f88d1036    ..6.    STRB     r1,[sp,#0x36]
        0x000116be:    4608        .F      MOV      r0,r1
        0x000116c0:    f7fcfb0a    ....    BL       am_hal_clkgen_control ; 0xdcd8
        0x000116c4:    f2427074    B.tp    MOV      r0,#0x2774
        0x000116c8:    f2c00001    ....    MOVT     r0,#1
        0x000116cc:    f7fcf9f4    ....    BL       am_hal_cachectrl_config ; 0xdab8
        0x000116d0:    f7fcfaf8    ....    BL       am_hal_cachectrl_enable ; 0xdcc4
        0x000116d4:    f7fafee0    ....    BL       am_bsp_low_power_init ; 0xc498
        0x000116d8:    f7fafebc    ....    BL       am_bsp_itm_printf_enable ; 0xc454
        0x000116dc:    f7fff9de    ....    BL       am_util_stdio_terminal_clear ; 0x10a9c
        0x000116e0:    f6425041    B.AP    MOV      r0,#0x2d41
        0x000116e4:    f2c00001    ....    MOVT     r0,#1
        0x000116e8:    f7fff9a0    ....    BL       am_util_stdio_printf ; 0x10a2c
        0x000116ec:    f24c00c8    L...    MOV      r0,#0xc0c8
        0x000116f0:    f2c00000    ....    MOVT     r0,#0
        0x000116f4:    6800        .h      LDR      r0,[r0,#0]
        0x000116f6:    b388        ..      CBZ      r0,0x1175c ; main + 216
        0x000116f8:    e7ff        ..      B        0x116fa ; main + 118
        0x000116fa:    f64270c1    B..p    MOV      r0,#0x2fc1
        0x000116fe:    f2c00001    ....    MOVT     r0,#1
        0x00011702:    f7fff993    ....    BL       am_util_stdio_printf ; 0x10a2c
        0x00011706:    f24c00c8    L...    MOV      r0,#0xc0c8
        0x0001170a:    f2c00000    ....    MOVT     r0,#0
        0x0001170e:    6801        .h      LDR      r1,[r0,#0]
        0x00011710:    910c        ..      STR      r1,[sp,#0x30]
        0x00011712:    6841        Ah      LDR      r1,[r0,#4]
        0x00011714:    910b        ..      STR      r1,[sp,#0x2c]
        0x00011716:    6881        .h      LDR      r1,[r0,#8]
        0x00011718:    910a        ..      STR      r1,[sp,#0x28]
        0x0001171a:    990b        ..      LDR      r1,[sp,#0x2c]
        0x0001171c:    f101417c    ..|A    ADD      r1,r1,#0xfc000000
        0x00011720:    9113        ..      STR      r1,[sp,#0x4c]
        0x00011722:    7b00        .{      LDRB     r0,[r0,#0xc]
        0x00011724:    07c0        ..      LSLS     r0,r0,#31
        0x00011726:    b158        X.      CBZ      r0,0x11740 ; main + 188
        0x00011728:    e7ff        ..      B        0x1172a ; main + 166
        0x0001172a:    9813        ..      LDR      r0,[sp,#0x4c]
        0x0001172c:    9011        ..      STR      r0,[sp,#0x44]
        0x0001172e:    9813        ..      LDR      r0,[sp,#0x4c]
        0x00011730:    990a        ..      LDR      r1,[sp,#0x28]
        0x00011732:    4408        .D      ADD      r0,r0,r1
        0x00011734:    3801        .8      SUBS     r0,#1
        0x00011736:    9012        ..      STR      r0,[sp,#0x48]
        0x00011738:    2001        .       MOVS     r0,#1
        0x0001173a:    f88d0037    ..7.    STRB     r0,[sp,#0x37]
        0x0001173e:    e7ff        ..      B        0x11740 ; main + 188
        0x00011740:    f24c00c8    L...    MOV      r0,#0xc0c8
        0x00011744:    f2c00000    ....    MOVT     r0,#0
        0x00011748:    7b00        .{      LDRB     r0,[r0,#0xc]
        0x0001174a:    0780        ..      LSLS     r0,r0,#30
        0x0001174c:    2800        .(      CMP      r0,#0
        0x0001174e:    d504        ..      BPL      0x1175a ; main + 214
        0x00011750:    e7ff        ..      B        0x11752 ; main + 206
        0x00011752:    2001        .       MOVS     r0,#1
        0x00011754:    f88d0036    ..6.    STRB     r0,[sp,#0x36]
        0x00011758:    e7ff        ..      B        0x1175a ; main + 214
        0x0001175a:    e00b        ..      B        0x11774 ; main + 240
        0x0001175c:    f44f3080    O..0    MOV      r0,#0x10000
        0x00011760:    900c        ..      STR      r0,[sp,#0x30]
        0x00011762:    f04f6080    O..`    MOV      r0,#0x4000000
        0x00011766:    900b        ..      STR      r0,[sp,#0x2c]
        0x00011768:    2000        .       MOVS     r0,#0
        0x0001176a:    9013        ..      STR      r0,[sp,#0x4c]
        0x0001176c:    f44f4000    O..@    MOV      r0,#0x8000
        0x00011770:    900a        ..      STR      r0,[sp,#0x28]
        0x00011772:    e7ff        ..      B        0x11774 ; main + 240
        0x00011774:    990c        ..      LDR      r1,[sp,#0x30]
        0x00011776:    f2430089    C...    MOV      r0,#0x3089
        0x0001177a:    f2c00001    ....    MOVT     r0,#1
        0x0001177e:    f7fff955    ..U.    BL       am_util_stdio_printf ; 0x10a2c
        0x00011782:    990b        ..      LDR      r1,[sp,#0x2c]
        0x00011784:    f24300af    C...    MOV      r0,#0x30af
        0x00011788:    f2c00001    ....    MOVT     r0,#1
        0x0001178c:    f7fff94e    ..N.    BL       am_util_stdio_printf ; 0x10a2c
        0x00011790:    990a        ..      LDR      r1,[sp,#0x28]
        0x00011792:    f2430078    C.x.    MOV      r0,#0x3078
        0x00011796:    f2c00001    ....    MOVT     r0,#1
        0x0001179a:    f7fff947    ..G.    BL       am_util_stdio_printf ; 0x10a2c
        0x0001179e:    f89d0037    ..7.    LDRB     r0,[sp,#0x37]
        0x000117a2:    07c2        ..      LSLS     r2,r0,#31
        0x000117a4:    f24300dd    C...    MOV      r0,#0x30dd
        0x000117a8:    f2c00001    ....    MOVT     r0,#1
        0x000117ac:    f24301e5    C...    MOV      r1,#0x30e5
        0x000117b0:    f2c00101    ....    MOVT     r1,#1
        0x000117b4:    2a00        .*      CMP      r2,#0
        0x000117b6:    bf18        ..      IT       NE
        0x000117b8:    4601        .F      MOVNE    r1,r0
        0x000117ba:    f2430066    C.f.    MOV      r0,#0x3066
        0x000117be:    f2c00001    ....    MOVT     r0,#1
        0x000117c2:    f7fff933    ..3.    BL       am_util_stdio_printf ; 0x10a2c
        0x000117c6:    f2411000    A...    MOVW     r0,#0x1100
        0x000117ca:    f2c10001    ....    MOVT     r0,#0x1001
        0x000117ce:    f8d0c014    ....    LDR      r12,[r0,#0x14]
        0x000117d2:    f64352c8    C..R    MOV      r2,#0x3dc8
        0x000117d6:    f2c10201    ....    MOVT     r2,#0x1001
        0x000117da:    f64353cc    C..S    MOV      r3,#0x3dcc
        0x000117de:    f2c10301    ....    MOVT     r3,#0x1001
        0x000117e2:    2001        .       MOVS     r0,#1
        0x000117e4:    a90e        ..      ADD      r1,sp,#0x38
        0x000117e6:    47e0        .G      BLX      r12
        0x000117e8:    9014        ..      STR      r0,[sp,#0x50]
        0x000117ea:    9814        ..      LDR      r0,[sp,#0x50]
        0x000117ec:    b150        P.      CBZ      r0,0x11804 ; main + 384
        0x000117ee:    e7ff        ..      B        0x117f0 ; main + 364
        0x000117f0:    f6427061    B.ap    MOV      r0,#0x2f61
        0x000117f4:    f2c00001    ....    MOVT     r0,#1
        0x000117f8:    f7fff918    ....    BL       am_util_stdio_printf ; 0x10a2c
        0x000117fc:    f04f30ff    O..0    MOV      r0,#0xffffffff
        0x00011800:    9015        ..      STR      r0,[sp,#0x54]
        0x00011802:    e1c9        ..      B        0x11b98 ; main + 1300
        0x00011804:    f642503e    B.>P    MOV      r0,#0x2d3e
        0x00011808:    f2c00001    ....    MOVT     r0,#1
        0x0001180c:    f9900001    ....    LDRSB    r0,[r0,#1]
        0x00011810:    f7fafe08    ....    BL       __NVIC_EnableIRQ ; 0xc424
        0x00011814:    f7fcffc0    ....    BL       am_hal_interrupt_master_enable ; 0xe798
        0x00011818:    f64250b7    B..P    MOV      r0,#0x2db7
        0x0001181c:    f2c00001    ....    MOVT     r0,#1
        0x00011820:    f7fff904    ....    BL       am_util_stdio_printf ; 0x10a2c
        0x00011824:    9813        ..      LDR      r0,[sp,#0x4c]
        0x00011826:    9009        ..      STR      r0,[sp,#0x24]
        0x00011828:    e7ff        ..      B        0x1182a ; main + 422
        0x0001182a:    9809        ..      LDR      r0,[sp,#0x24]
        0x0001182c:    9913        ..      LDR      r1,[sp,#0x4c]
        0x0001182e:    9a0a        ..      LDR      r2,[sp,#0x28]
        0x00011830:    4411        .D      ADD      r1,r1,r2
        0x00011832:    4288        .B      CMP      r0,r1
        0x00011834:    d22b        +.      BCS      0x1188e ; main + 522
        0x00011836:    e7ff        ..      B        0x11838 ; main + 436
        0x00011838:    f8bd0026    ..&.    LDRH     r0,[sp,#0x26]
        0x0001183c:    9008        ..      STR      r0,[sp,#0x20]
        0x0001183e:    9908        ..      LDR      r1,[sp,#0x20]
        0x00011840:    f642709b    B..p    MOV      r0,#0x2f9b
        0x00011844:    f2c00001    ....    MOVT     r0,#1
        0x00011848:    f7fff8f0    ....    BL       am_util_stdio_printf ; 0x10a2c
        0x0001184c:    f2411000    A...    MOVW     r0,#0x1100
        0x00011850:    f2c10001    ....    MOVT     r0,#0x1001
        0x00011854:    6ac2        .j      LDR      r2,[r0,#0x2c]
        0x00011856:    f64350c8    C..P    MOV      r0,#0x3dc8
        0x0001185a:    f2c10001    ....    MOVT     r0,#0x1001
        0x0001185e:    6800        .h      LDR      r0,[r0,#0]
        0x00011860:    9908        ..      LDR      r1,[sp,#0x20]
        0x00011862:    0409        ..      LSLS     r1,r1,#16
        0x00011864:    4790        .G      BLX      r2
        0x00011866:    9014        ..      STR      r0,[sp,#0x50]
        0x00011868:    9814        ..      LDR      r0,[sp,#0x50]
        0x0001186a:    b150        P.      CBZ      r0,0x11882 ; main + 510
        0x0001186c:    e7ff        ..      B        0x1186e ; main + 490
        0x0001186e:    f64260ea    B..`    MOV      r0,#0x2eea
        0x00011872:    f2c00001    ....    MOVT     r0,#1
        0x00011876:    f7fff8d9    ....    BL       am_util_stdio_printf ; 0x10a2c
        0x0001187a:    f04f30ff    O..0    MOV      r0,#0xffffffff
        0x0001187e:    9015        ..      STR      r0,[sp,#0x54]
        0x00011880:    e18a        ..      B        0x11b98 ; main + 1300
        0x00011882:    e7ff        ..      B        0x11884 ; main + 512
        0x00011884:    9809        ..      LDR      r0,[sp,#0x24]
        0x00011886:    f5003080    ...0    ADD      r0,r0,#0x10000
        0x0001188a:    9009        ..      STR      r0,[sp,#0x24]
        0x0001188c:    e7cd        ..      B        0x1182a ; main + 422
        0x0001188e:    f64260ba    B..`    MOV      r0,#0x2eba
        0x00011892:    f2c00001    ....    MOVT     r0,#1
        0x00011896:    f7fff8c9    ....    BL       am_util_stdio_printf ; 0x10a2c
        0x0001189a:    f2411000    A...    MOVW     r0,#0x1100
        0x0001189e:    f2c10001    ....    MOVT     r0,#0x1001
        0x000118a2:    6b01        .k      LDR      r1,[r0,#0x30]
        0x000118a4:    f64350c8    C..P    MOV      r0,#0x3dc8
        0x000118a8:    f2c10001    ....    MOVT     r0,#0x1001
        0x000118ac:    6800        .h      LDR      r0,[r0,#0]
        0x000118ae:    4788        .G      BLX      r1
        0x000118b0:    9014        ..      STR      r0,[sp,#0x50]
        0x000118b2:    9814        ..      LDR      r0,[sp,#0x50]
        0x000118b4:    b138        8.      CBZ      r0,0x118c6 ; main + 578
        0x000118b6:    e7ff        ..      B        0x118b8 ; main + 564
        0x000118b8:    f6425066    B.fP    MOV      r0,#0x2d66
        0x000118bc:    f2c00001    ....    MOVT     r0,#1
        0x000118c0:    f7fff8b4    ....    BL       am_util_stdio_printf ; 0x10a2c
        0x000118c4:    e7ff        ..      B        0x118c6 ; main + 578
        0x000118c6:    9813        ..      LDR      r0,[sp,#0x4c]
        0x000118c8:    f1006080    ...`    ADD      r0,r0,#0x4000000
        0x000118cc:    9007        ..      STR      r0,[sp,#0x1c]
        0x000118ce:    2000        .       MOVS     r0,#0
        0x000118d0:    9006        ..      STR      r0,[sp,#0x18]
        0x000118d2:    e7ff        ..      B        0x118d4 ; main + 592
        0x000118d4:    9806        ..      LDR      r0,[sp,#0x18]
        0x000118d6:    990a        ..      LDR      r1,[sp,#0x28]
        0x000118d8:    ebb00f91    ....    CMP      r0,r1,LSR #2
        0x000118dc:    d216        ..      BCS      0x1190c ; main + 648
        0x000118de:    e7ff        ..      B        0x118e0 ; main + 604
        0x000118e0:    9807        ..      LDR      r0,[sp,#0x1c]
        0x000118e2:    9906        ..      LDR      r1,[sp,#0x18]
        0x000118e4:    f8500021    P.!.    LDR      r0,[r0,r1,LSL #2]
        0x000118e8:    3001        .0      ADDS     r0,#1
        0x000118ea:    b150        P.      CBZ      r0,0x11902 ; main + 638
        0x000118ec:    e7ff        ..      B        0x118ee ; main + 618
        0x000118ee:    f64260ea    B..`    MOV      r0,#0x2eea
        0x000118f2:    f2c00001    ....    MOVT     r0,#1
        0x000118f6:    f7fff899    ....    BL       am_util_stdio_printf ; 0x10a2c
        0x000118fa:    f04f30ff    O..0    MOV      r0,#0xffffffff
        0x000118fe:    9015        ..      STR      r0,[sp,#0x54]
        0x00011900:    e14a        J.      B        0x11b98 ; main + 1300
        0x00011902:    e7ff        ..      B        0x11904 ; main + 640
        0x00011904:    9806        ..      LDR      r0,[sp,#0x18]
        0x00011906:    3001        .0      ADDS     r0,#1
        0x00011908:    9006        ..      STR      r0,[sp,#0x18]
        0x0001190a:    e7e3        ..      B        0x118d4 ; main + 592
        0x0001190c:    f2411000    A...    MOVW     r0,#0x1100
        0x00011910:    f2c10001    ....    MOVT     r0,#0x1001
        0x00011914:    6b41        Ak      LDR      r1,[r0,#0x34]
        0x00011916:    f64350c8    C..P    MOV      r0,#0x3dc8
        0x0001191a:    f2c10001    ....    MOVT     r0,#0x1001
        0x0001191e:    6800        .h      LDR      r0,[r0,#0]
        0x00011920:    4788        .G      BLX      r1
        0x00011922:    9014        ..      STR      r0,[sp,#0x50]
        0x00011924:    9814        ..      LDR      r0,[sp,#0x50]
        0x00011926:    b150        P.      CBZ      r0,0x1193e ; main + 698
        0x00011928:    e7ff        ..      B        0x1192a ; main + 678
        0x0001192a:    f642508e    B..P    MOV      r0,#0x2d8e
        0x0001192e:    f2c00001    ....    MOVT     r0,#1
        0x00011932:    f7fff87b    ..{.    BL       am_util_stdio_printf ; 0x10a2c
        0x00011936:    f04f30ff    O..0    MOV      r0,#0xffffffff
        0x0001193a:    9015        ..      STR      r0,[sp,#0x54]
        0x0001193c:    e12c        ,.      B        0x11b98 ; main + 1300
        0x0001193e:    f89d0037    ..7.    LDRB     r0,[sp,#0x37]
        0x00011942:    07c0        ..      LSLS     r0,r0,#31
        0x00011944:    b1e8        ..      CBZ      r0,0x11982 ; main + 766
        0x00011946:    e7ff        ..      B        0x11948 ; main + 708
        0x00011948:    f2430015    C...    MOV      r0,#0x3015
        0x0001194c:    f2c00001    ....    MOVT     r0,#1
        0x00011950:    f7fff86c    ..l.    BL       am_util_stdio_printf ; 0x10a2c
        0x00011954:    f2411000    A...    MOVW     r0,#0x1100
        0x00011958:    f2c10001    ....    MOVT     r0,#0x1001
        0x0001195c:    6b81        .k      LDR      r1,[r0,#0x38]
        0x0001195e:    f64350c8    C..P    MOV      r0,#0x3dc8
        0x00011962:    f2c10001    ....    MOVT     r0,#0x1001
        0x00011966:    6800        .h      LDR      r0,[r0,#0]
        0x00011968:    4788        .G      BLX      r1
        0x0001196a:    9014        ..      STR      r0,[sp,#0x50]
        0x0001196c:    9814        ..      LDR      r0,[sp,#0x50]
        0x0001196e:    b138        8.      CBZ      r0,0x11980 ; main + 764
        0x00011970:    e7ff        ..      B        0x11972 ; main + 750
        0x00011972:    f64260c7    B..`    MOV      r0,#0x2ec7
        0x00011976:    f2c00001    ....    MOVT     r0,#1
        0x0001197a:    f7fff857    ..W.    BL       am_util_stdio_printf ; 0x10a2c
        0x0001197e:    e7ff        ..      B        0x11980 ; main + 764
        0x00011980:    e7ff        ..      B        0x11982 ; main + 766
        0x00011982:    f6426019    B..`    MOV      r0,#0x2e19
        0x00011986:    f2c00001    ....    MOVT     r0,#1
        0x0001198a:    f7fff84f    ..O.    BL       am_util_stdio_printf ; 0x10a2c
        0x0001198e:    f2411000    A...    MOVW     r0,#0x1100
        0x00011992:    f2c10001    ....    MOVT     r0,#0x1001
        0x00011996:    f8d0c020    .. .    LDR      r12,[r0,#0x20]
        0x0001199a:    f64350c8    C..P    MOV      r0,#0x3dc8
        0x0001199e:    f2c10001    ....    MOVT     r0,#0x1001
        0x000119a2:    6800        .h      LDR      r0,[r0,#0]
        0x000119a4:    990c        ..      LDR      r1,[sp,#0x30]
        0x000119a6:    9a13        ..      LDR      r2,[sp,#0x4c]
        0x000119a8:    9b0a        ..      LDR      r3,[sp,#0x28]
        0x000119aa:    466c        lF      MOV      r4,sp
        0x000119ac:    f04f0e01    O...    MOV      lr,#1
        0x000119b0:    f8c4e000    ....    STR      lr,[r4,#0]
        0x000119b4:    47e0        .G      BLX      r12
        0x000119b6:    9014        ..      STR      r0,[sp,#0x50]
        0x000119b8:    9814        ..      LDR      r0,[sp,#0x50]
        0x000119ba:    b150        P.      CBZ      r0,0x119d2 ; main + 846
        0x000119bc:    e7ff        ..      B        0x119be ; main + 826
        0x000119be:    f642606a    B.j`    MOV      r0,#0x2e6a
        0x000119c2:    f2c00001    ....    MOVT     r0,#1
        0x000119c6:    f7fff831    ..1.    BL       am_util_stdio_printf ; 0x10a2c
        0x000119ca:    f04f30ff    O..0    MOV      r0,#0xffffffff
        0x000119ce:    9015        ..      STR      r0,[sp,#0x54]
        0x000119d0:    e0e2        ..      B        0x11b98 ; main + 1300
        0x000119d2:    2001        .       MOVS     r0,#1
        0x000119d4:    2100        .!      MOVS     r1,#0
        0x000119d6:    f7fcf893    ....    BL       am_hal_cachectrl_control ; 0xdb00
        0x000119da:    f64250ee    B..P    MOV      r0,#0x2dee
        0x000119de:    f2c00001    ....    MOVT     r0,#1
        0x000119e2:    f7fff823    ..#.    BL       am_util_stdio_printf ; 0x10a2c
        0x000119e6:    9813        ..      LDR      r0,[sp,#0x4c]
        0x000119e8:    9005        ..      STR      r0,[sp,#0x14]
        0x000119ea:    e7ff        ..      B        0x119ec ; main + 872
        0x000119ec:    9805        ..      LDR      r0,[sp,#0x14]
        0x000119ee:    9913        ..      LDR      r1,[sp,#0x4c]
        0x000119f0:    9a0a        ..      LDR      r2,[sp,#0x28]
        0x000119f2:    4411        .D      ADD      r1,r1,r2
        0x000119f4:    4288        .B      CMP      r0,r1
        0x000119f6:    d274        t.      BCS      0x11ae2 ; main + 1118
        0x000119f8:    e7ff        ..      B        0x119fa ; main + 886
        0x000119fa:    f2411000    A...    MOVW     r0,#0x1100
        0x000119fe:    f2c10001    ....    MOVT     r0,#0x1001
        0x00011a02:    f8d0c024    ..$.    LDR      r12,[r0,#0x24]
        0x00011a06:    f64350c8    C..P    MOV      r0,#0x3dc8
        0x00011a0a:    f2c10001    ....    MOVT     r0,#0x1001
        0x00011a0e:    6800        .h      LDR      r0,[r0,#0]
        0x00011a10:    9a05        ..      LDR      r2,[sp,#0x14]
        0x00011a12:    466b        kF      MOV      r3,sp
        0x00011a14:    2101        .!      MOVS     r1,#1
        0x00011a16:    6019        .`      STR      r1,[r3,#0]
        0x00011a18:    f24571c8    E..q    MOV      r1,#0x57c8
        0x00011a1c:    f2c10101    ....    MOVT     r1,#0x1001
        0x00011a20:    f44f6300    O..c    MOV      r3,#0x800
        0x00011a24:    47e0        .G      BLX      r12
        0x00011a26:    9014        ..      STR      r0,[sp,#0x50]
        0x00011a28:    9814        ..      LDR      r0,[sp,#0x50]
        0x00011a2a:    b150        P.      CBZ      r0,0x11a42 ; main + 958
        0x00011a2c:    e7ff        ..      B        0x11a2e ; main + 938
        0x00011a2e:    f6426042    B.B`    MOV      r0,#0x2e42
        0x00011a32:    f2c00001    ....    MOVT     r0,#1
        0x00011a36:    f7fefff9    ....    BL       am_util_stdio_printf ; 0x10a2c
        0x00011a3a:    f04f30ff    O..0    MOV      r0,#0xffffffff
        0x00011a3e:    9015        ..      STR      r0,[sp,#0x54]
        0x00011a40:    e0aa        ..      B        0x11b98 ; main + 1300
        0x00011a42:    2000        .       MOVS     r0,#0
        0x00011a44:    9004        ..      STR      r0,[sp,#0x10]
        0x00011a46:    e7ff        ..      B        0x11a48 ; main + 964
        0x00011a48:    9a04        ..      LDR      r2,[sp,#0x10]
        0x00011a4a:    2100        .!      MOVS     r1,#0
        0x00011a4c:    4608        .F      MOV      r0,r1
        0x00011a4e:    ebb12f52    ..R/    CMP      r1,r2,LSR #9
        0x00011a52:    9002        ..      STR      r0,[sp,#8]
        0x00011a54:    d10b        ..      BNE      0x11a6e ; main + 1002
        0x00011a56:    e7ff        ..      B        0x11a58 ; main + 980
        0x00011a58:    9805        ..      LDR      r0,[sp,#0x14]
        0x00011a5a:    9904        ..      LDR      r1,[sp,#0x10]
        0x00011a5c:    eb000181    ....    ADD      r1,r0,r1,LSL #2
        0x00011a60:    9a0a        ..      LDR      r2,[sp,#0x28]
        0x00011a62:    2000        .       MOVS     r0,#0
        0x00011a64:    4291        .B      CMP      r1,r2
        0x00011a66:    bf38        8.      IT       CC
        0x00011a68:    2001        .       MOVCC    r0,#1
        0x00011a6a:    9002        ..      STR      r0,[sp,#8]
        0x00011a6c:    e7ff        ..      B        0x11a6e ; main + 1002
        0x00011a6e:    9802        ..      LDR      r0,[sp,#8]
        0x00011a70:    07c0        ..      LSLS     r0,r0,#31
        0x00011a72:    b380        ..      CBZ      r0,0x11ad6 ; main + 1106
        0x00011a74:    e7ff        ..      B        0x11a76 ; main + 1010
        0x00011a76:    9a04        ..      LDR      r2,[sp,#0x10]
        0x00011a78:    f24570c8    E..p    MOV      r0,#0x57c8
        0x00011a7c:    f2c10001    ....    MOVT     r0,#0x1001
        0x00011a80:    f8500022    P.".    LDR      r0,[r0,r2,LSL #2]
        0x00011a84:    990c        ..      LDR      r1,[sp,#0x30]
        0x00011a86:    9b05        ..      LDR      r3,[sp,#0x14]
        0x00011a88:    4419        .D      ADD      r1,r1,r3
        0x00011a8a:    eb010182    ....    ADD      r1,r1,r2,LSL #2
        0x00011a8e:    9a13        ..      LDR      r2,[sp,#0x4c]
        0x00011a90:    1a89        ..      SUBS     r1,r1,r2
        0x00011a92:    6809        .h      LDR      r1,[r1,#0]
        0x00011a94:    4288        .B      CMP      r0,r1
        0x00011a96:    d019        ..      BEQ      0x11acc ; main + 1096
        0x00011a98:    e7ff        ..      B        0x11a9a ; main + 1046
        0x00011a9a:    9805        ..      LDR      r0,[sp,#0x14]
        0x00011a9c:    9b04        ..      LDR      r3,[sp,#0x10]
        0x00011a9e:    eb000183    ....    ADD      r1,r0,r3,LSL #2
        0x00011aa2:    980c        ..      LDR      r0,[sp,#0x30]
        0x00011aa4:    4408        .D      ADD      r0,r0,r1
        0x00011aa6:    9a13        ..      LDR      r2,[sp,#0x4c]
        0x00011aa8:    1a80        ..      SUBS     r0,r0,r2
        0x00011aaa:    6802        .h      LDR      r2,[r0,#0]
        0x00011aac:    f24570c8    E..p    MOV      r0,#0x57c8
        0x00011ab0:    f2c10001    ....    MOVT     r0,#0x1001
        0x00011ab4:    f8503023    P.#0    LDR      r3,[r0,r3,LSL #2]
        0x00011ab8:    f6427010    B..p    MOV      r0,#0x2f10
        0x00011abc:    f2c00001    ....    MOVT     r0,#1
        0x00011ac0:    f7feffb4    ....    BL       am_util_stdio_printf ; 0x10a2c
        0x00011ac4:    f04f30ff    O..0    MOV      r0,#0xffffffff
        0x00011ac8:    9015        ..      STR      r0,[sp,#0x54]
        0x00011aca:    e065        e.      B        0x11b98 ; main + 1300
        0x00011acc:    e7ff        ..      B        0x11ace ; main + 1098
        0x00011ace:    9804        ..      LDR      r0,[sp,#0x10]
        0x00011ad0:    3001        .0      ADDS     r0,#1
        0x00011ad2:    9004        ..      STR      r0,[sp,#0x10]
        0x00011ad4:    e7b8        ..      B        0x11a48 ; main + 964
        0x00011ad6:    e7ff        ..      B        0x11ad8 ; main + 1108
        0x00011ad8:    9805        ..      LDR      r0,[sp,#0x14]
        0x00011ada:    f5006000    ...`    ADD      r0,r0,#0x800
        0x00011ade:    9005        ..      STR      r0,[sp,#0x14]
        0x00011ae0:    e784        ..      B        0x119ec ; main + 872
        0x00011ae2:    f89d0036    ..6.    LDRB     r0,[sp,#0x36]
        0x00011ae6:    07c0        ..      LSLS     r0,r0,#31
        0x00011ae8:    2800        .(      CMP      r0,#0
        0x00011aea:    d04d        M.      BEQ      0x11b88 ; main + 1284
        0x00011aec:    e7ff        ..      B        0x11aee ; main + 1130
        0x00011aee:    f64270e2    B..p    MOV      r0,#0x2fe2
        0x00011af2:    f2c00001    ....    MOVT     r0,#1
        0x00011af6:    f7feff99    ....    BL       am_util_stdio_printf ; 0x10a2c
        0x00011afa:    f2411000    A...    MOVW     r0,#0x1100
        0x00011afe:    f2c10001    ....    MOVT     r0,#0x1001
        0x00011b02:    6b01        .k      LDR      r1,[r0,#0x30]
        0x00011b04:    f64350c8    C..P    MOV      r0,#0x3dc8
        0x00011b08:    f2c10001    ....    MOVT     r0,#0x1001
        0x00011b0c:    6800        .h      LDR      r0,[r0,#0]
        0x00011b0e:    4788        .G      BLX      r1
        0x00011b10:    9014        ..      STR      r0,[sp,#0x50]
        0x00011b12:    f89d0037    ..7.    LDRB     r0,[sp,#0x37]
        0x00011b16:    07c0        ..      LSLS     r0,r0,#31
        0x00011b18:    b168        h.      CBZ      r0,0x11b36 ; main + 1202
        0x00011b1a:    e7ff        ..      B        0x11b1c ; main + 1176
        0x00011b1c:    f2411000    A...    MOVW     r0,#0x1100
        0x00011b20:    f2c10001    ....    MOVT     r0,#0x1001
        0x00011b24:    6b81        .k      LDR      r1,[r0,#0x38]
        0x00011b26:    f64350c8    C..P    MOV      r0,#0x3dc8
        0x00011b2a:    f2c10001    ....    MOVT     r0,#0x1001
        0x00011b2e:    6800        .h      LDR      r0,[r0,#0]
        0x00011b30:    4788        .G      BLX      r1
        0x00011b32:    9014        ..      STR      r0,[sp,#0x50]
        0x00011b34:    e00c        ..      B        0x11b50 ; main + 1228
        0x00011b36:    f2411000    A...    MOVW     r0,#0x1100
        0x00011b3a:    f2c10001    ....    MOVT     r0,#0x1001
        0x00011b3e:    6bc1        .k      LDR      r1,[r0,#0x3c]
        0x00011b40:    f64350c8    C..P    MOV      r0,#0x3dc8
        0x00011b44:    f2c10001    ....    MOVT     r0,#0x1001
        0x00011b48:    6800        .h      LDR      r0,[r0,#0]
        0x00011b4a:    4788        .G      BLX      r1
        0x00011b4c:    9014        ..      STR      r0,[sp,#0x50]
        0x00011b4e:    e7ff        ..      B        0x11b50 ; main + 1228
        0x00011b50:    9814        ..      LDR      r0,[sp,#0x50]
        0x00011b52:    b150        P.      CBZ      r0,0x11b6a ; main + 1254
        0x00011b54:    e7ff        ..      B        0x11b56 ; main + 1234
        0x00011b56:    f6426093    B..`    MOV      r0,#0x2e93
        0x00011b5a:    f2c00001    ....    MOVT     r0,#1
        0x00011b5e:    f7feff65    ..e.    BL       am_util_stdio_printf ; 0x10a2c
        0x00011b62:    f04f30ff    O..0    MOV      r0,#0xffffffff
        0x00011b66:    9015        ..      STR      r0,[sp,#0x54]
        0x00011b68:    e016        ..      B        0x11b98 ; main + 1300
        0x00011b6a:    980b        ..      LDR      r0,[sp,#0x2c]
        0x00011b6c:    9003        ..      STR      r0,[sp,#0xc]
        0x00011b6e:    f243003c    C.<.    MOV      r0,#0x303c
        0x00011b72:    f2c00001    ....    MOVT     r0,#1
        0x00011b76:    f7feff59    ..Y.    BL       am_util_stdio_printf ; 0x10a2c
        0x00011b7a:    2064        d       MOVS     r0,#0x64
        0x00011b7c:    f7fefd90    ....    BL       am_util_delay_ms ; 0x106a0
        0x00011b80:    9803        ..      LDR      r0,[sp,#0xc]
        0x00011b82:    f000faf3    ....    BL       run_new_image ; 0x1216c
        0x00011b86:    e007        ..      B        0x11b98 ; main + 1300
        0x00011b88:    f64270ae    B..p    MOV      r0,#0x2fae
        0x00011b8c:    f2c00001    ....    MOVT     r0,#1
        0x00011b90:    f7feff4c    ..L.    BL       am_util_stdio_printf ; 0x10a2c
        0x00011b94:    e7ff        ..      B        0x11b96 ; main + 1298
        0x00011b96:    e7fe        ..      B        0x11b96 ; main + 1298
        0x00011b98:    9815        ..      LDR      r0,[sp,#0x54]
        0x00011b9a:    b016        ..      ADD      sp,sp,#0x58
        0x00011b9c:    bd10        ..      POP      {r4,pc}
        0x00011b9e:    0000        ..      MOVS     r0,r0
    mspi_cq_pause
        0x00011ba0:    b570        p.      PUSH     {r4-r6,lr}
        0x00011ba2:    b082        ..      SUB      sp,sp,#8
        0x00011ba4:    4604        .F      MOV      r4,r0
        0x00011ba6:    6840        @h      LDR      r0,[r0,#4]
        0x00011ba8:    f2440500    D...    MOVW     r5,#0x4000
        0x00011bac:    f2c50501    ....    MOVT     r5,#0x5001
        0x00011bb0:    eb053000    ...0    ADD      r0,r5,r0,LSL #12
        0x00011bb4:    f44f0100    O...    MOV      r1,#0x800000
        0x00011bb8:    f8c012b4    ....    STR      r1,[r0,#0x2b4]
        0x00011bbc:    6860        `h      LDR      r0,[r4,#4]
        0x00011bbe:    eb053000    ...0    ADD      r0,r5,r0,LSL #12
        0x00011bc2:    f8d012a0    ....    LDR      r1,[r0,#0x2a0]
        0x00011bc6:    07c9        ..      LSLS     r1,r1,#31
        0x00011bc8:    d019        ..      BEQ      0x11bfe ; mspi_cq_pause + 94
        0x00011bca:    f647165f    G._.    MOV      r6,#0x795f
        0x00011bce:    f6cf76fe    ...v    MOVT     r6,#0xfffe
        0x00011bd2:    bf00        ..      NOP      
        0x00011bd4:    f8d012ac    ....    LDR      r1,[r0,#0x2ac]
        0x00011bd8:    0709        ..      LSLS     r1,r1,#28
        0x00011bda:    bf44        D.      ITT      MI
        0x00011bdc:    f8d012b8    ....    LDRMI    r1,[r0,#0x2b8]
        0x00011be0:    ea5f6101    _..a    LSLSMI   r1,r1,#24
        0x00011be4:    d40b        ..      BMI      0x11bfe ; mspi_cq_pause + 94
        0x00011be6:    3601        .6      ADDS     r6,#1
        0x00011be8:    d218        ..      BCS      0x11c1c ; mspi_cq_pause + 124
        0x00011bea:    2010        .       MOVS     r0,#0x10
        0x00011bec:    f7fcfbb4    ....    BL       am_hal_flash_delay ; 0xe358
        0x00011bf0:    6860        `h      LDR      r0,[r4,#4]
        0x00011bf2:    eb053000    ...0    ADD      r0,r5,r0,LSL #12
        0x00011bf6:    f8d012a0    ....    LDR      r1,[r0,#0x2a0]
        0x00011bfa:    07c9        ..      LSLS     r1,r1,#31
        0x00011bfc:    d1ea        ..      BNE      0x11bd4 ; mspi_cq_pause + 52
        0x00011bfe:    f5007115    ...q    ADD      r1,r0,#0x254
        0x00011c02:    f24860a0    H..`    MOV      r0,#0x86a0
        0x00011c06:    2601        .&      MOVS     r6,#1
        0x00011c08:    f2c00001    ....    MOVT     r0,#1
        0x00011c0c:    2201        ."      MOVS     r2,#1
        0x00011c0e:    2300        .#      MOVS     r3,#0
        0x00011c10:    9600        ..      STR      r6,[sp,#0]
        0x00011c12:    f7fcfbb7    ....    BL       am_hal_flash_delay_status_check ; 0xe384
        0x00011c16:    b002        ..      ADD      sp,sp,#8
        0x00011c18:    bd70        p.      POP      {r4-r6,pc}
        0x00011c1a:    bf00        ..      NOP      
        0x00011c1c:    2004        .       MOVS     r0,#4
        0x00011c1e:    b002        ..      ADD      sp,sp,#8
        0x00011c20:    bd70        p.      POP      {r4-r6,pc}
        0x00011c22:    0000        ..      MOVS     r0,r0
    mspi_device_configure
        0x00011c24:    2913        .)      CMP      r1,#0x13
        0x00011c26:    f200816f    ..o.    BHI.W    0x11f08 ; mspi_device_configure + 740
        0x00011c2a:    2206        ."      MOVS     r2,#6
        0x00011c2c:    e8dff011    ....    TBH      [pc,r1,LSL #1]
    $d.7
        0x00011c30:    00260016    ..&.    DCD    2490390
        0x00011c34:    00400036    6.@.    DCD    4194358
        0x00011c38:    005e004a    J.^.    DCD    6160458
        0x00011c3c:    007c0072    r.|.    DCD    8126578
        0x00011c40:    00140014    ....    DCD    1310740
        0x00011c44:    00a20094    ....    DCD    10616980
        0x00011c48:    00c600b0    ....    DCD    12976304
        0x00011c4c:    00f200dc    ....    DCD    15859932
        0x00011c50:    01200108    .. .    DCD    18874632
        0x00011c54:    01500138    8.P.    DCD    22020408
    $t.8
        0x00011c58:    4610        .F      MOV      r0,r2
        0x00011c5a:    4770        pG      BX       lr
        0x00011c5c:    f2440100    D...    MOVW     r1,#0x4000
        0x00011c60:    f2c50101    ....    MOVT     r1,#0x5001
        0x00011c64:    eb013000    ...0    ADD      r0,r1,r0,LSL #12
        0x00011c68:    6841        Ah      LDR      r1,[r0,#4]
        0x00011c6a:    2201        ."      MOVS     r2,#1
        0x00011c6c:    f3620103    b...    BFI      r1,r2,#0,#4
        0x00011c70:    6041        A`      STR      r1,[r0,#4]
        0x00011c72:    6841        Ah      LDR      r1,[r0,#4]
        0x00011c74:    f0410180    A...    ORR      r1,r1,#0x80
        0x00011c78:    e120         .      B        0x11ebc ; mspi_device_configure + 664
        0x00011c7a:    bf00        ..      NOP      
        0x00011c7c:    f2440100    D...    MOVW     r1,#0x4000
        0x00011c80:    f2c50101    ....    MOVT     r1,#0x5001
        0x00011c84:    eb013000    ...0    ADD      r0,r1,r0,LSL #12
        0x00011c88:    6841        Ah      LDR      r1,[r0,#4]
        0x00011c8a:    2202        ."      MOVS     r2,#2
        0x00011c8c:    f3620103    b...    BFI      r1,r2,#0,#4
        0x00011c90:    6041        A`      STR      r1,[r0,#4]
        0x00011c92:    6841        Ah      LDR      r1,[r0,#4]
        0x00011c94:    f0410180    A...    ORR      r1,r1,#0x80
        0x00011c98:    e128        (.      B        0x11eec ; mspi_device_configure + 712
        0x00011c9a:    bf00        ..      NOP      
        0x00011c9c:    f2440100    D...    MOVW     r1,#0x4000
        0x00011ca0:    f2c50101    ....    MOVT     r1,#0x5001
        0x00011ca4:    eb013000    ...0    ADD      r0,r1,r0,LSL #12
        0x00011ca8:    6841        Ah      LDR      r1,[r0,#4]
        0x00011caa:    2205        ."      MOVS     r2,#5
        0x00011cac:    e100        ..      B        0x11eb0 ; mspi_device_configure + 652
        0x00011cae:    bf00        ..      NOP      
        0x00011cb0:    f2440100    D...    MOVW     r1,#0x4000
        0x00011cb4:    f2c50101    ....    MOVT     r1,#0x5001
        0x00011cb8:    eb013000    ...0    ADD      r0,r1,r0,LSL #12
        0x00011cbc:    6841        Ah      LDR      r1,[r0,#4]
        0x00011cbe:    2206        ."      MOVS     r2,#6
        0x00011cc0:    e10e        ..      B        0x11ee0 ; mspi_device_configure + 700
        0x00011cc2:    bf00        ..      NOP      
        0x00011cc4:    f2440100    D...    MOVW     r1,#0x4000
        0x00011cc8:    f2c50101    ....    MOVT     r1,#0x5001
        0x00011ccc:    eb013000    ...0    ADD      r0,r1,r0,LSL #12
        0x00011cd0:    6841        Ah      LDR      r1,[r0,#4]
        0x00011cd2:    2209        ."      MOVS     r2,#9
        0x00011cd4:    f3620103    b...    BFI      r1,r2,#0,#4
        0x00011cd8:    6041        A`      STR      r1,[r0,#4]
        0x00011cda:    6841        Ah      LDR      r1,[r0,#4]
        0x00011cdc:    f0210180    !...    BIC      r1,r1,#0x80
        0x00011ce0:    6041        A`      STR      r1,[r0,#4]
        0x00011ce2:    f8d01120    .. .    LDR      r1,[r0,#0x120]
        0x00011ce6:    f42161e0    !..a    BIC      r1,r1,#0x700
        0x00011cea:    e0bc        ..      B        0x11e66 ; mspi_device_configure + 578
        0x00011cec:    f2440100    D...    MOVW     r1,#0x4000
        0x00011cf0:    f2c50101    ....    MOVT     r1,#0x5001
        0x00011cf4:    eb013000    ...0    ADD      r0,r1,r0,LSL #12
        0x00011cf8:    6841        Ah      LDR      r1,[r0,#4]
        0x00011cfa:    220a        ."      MOVS     r2,#0xa
        0x00011cfc:    f3620103    b...    BFI      r1,r2,#0,#4
        0x00011d00:    6041        A`      STR      r1,[r0,#4]
        0x00011d02:    6841        Ah      LDR      r1,[r0,#4]
        0x00011d04:    f0210180    !...    BIC      r1,r1,#0x80
        0x00011d08:    6041        A`      STR      r1,[r0,#4]
        0x00011d0a:    f8d01120    .. .    LDR      r1,[r0,#0x120]
        0x00011d0e:    f42161e0    !..a    BIC      r1,r1,#0x700
        0x00011d12:    e0c0        ..      B        0x11e96 ; mspi_device_configure + 626
        0x00011d14:    f2440100    D...    MOVW     r1,#0x4000
        0x00011d18:    f2c50101    ....    MOVT     r1,#0x5001
        0x00011d1c:    eb013000    ...0    ADD      r0,r1,r0,LSL #12
        0x00011d20:    6841        Ah      LDR      r1,[r0,#4]
        0x00011d22:    220d        ."      MOVS     r2,#0xd
        0x00011d24:    e008        ..      B        0x11d38 ; mspi_device_configure + 276
        0x00011d26:    bf00        ..      NOP      
        0x00011d28:    f2440100    D...    MOVW     r1,#0x4000
        0x00011d2c:    f2c50101    ....    MOVT     r1,#0x5001
        0x00011d30:    eb013000    ...0    ADD      r0,r1,r0,LSL #12
        0x00011d34:    6841        Ah      LDR      r1,[r0,#4]
        0x00011d36:    220e        ."      MOVS     r2,#0xe
        0x00011d38:    f3620103    b...    BFI      r1,r2,#0,#4
        0x00011d3c:    6041        A`      STR      r1,[r0,#4]
        0x00011d3e:    6841        Ah      LDR      r1,[r0,#4]
        0x00011d40:    f0210180    !...    BIC      r1,r1,#0x80
        0x00011d44:    6041        A`      STR      r1,[r0,#4]
        0x00011d46:    f8d01120    .. .    LDR      r1,[r0,#0x120]
        0x00011d4a:    f42161e0    !..a    BIC      r1,r1,#0x700
        0x00011d4e:    f8c01120    .. .    STR      r1,[r0,#0x120]
        0x00011d52:    f24031ff    @..1    MOV      r1,#0x3ff
        0x00011d56:    e0d2        ..      B        0x11efe ; mspi_device_configure + 730
        0x00011d58:    f2440100    D...    MOVW     r1,#0x4000
        0x00011d5c:    f2c50101    ....    MOVT     r1,#0x5001
        0x00011d60:    eb013000    ...0    ADD      r0,r1,r0,LSL #12
        0x00011d64:    6841        Ah      LDR      r1,[r0,#4]
        0x00011d66:    2201        ."      MOVS     r2,#1
        0x00011d68:    f3620103    b...    BFI      r1,r2,#0,#4
        0x00011d6c:    6041        A`      STR      r1,[r0,#4]
        0x00011d6e:    6841        Ah      LDR      r1,[r0,#4]
        0x00011d70:    e01b        ..      B        0x11daa ; mspi_device_configure + 390
        0x00011d72:    bf00        ..      NOP      
        0x00011d74:    f2440100    D...    MOVW     r1,#0x4000
        0x00011d78:    f2c50101    ....    MOVT     r1,#0x5001
        0x00011d7c:    eb013000    ...0    ADD      r0,r1,r0,LSL #12
        0x00011d80:    6841        Ah      LDR      r1,[r0,#4]
        0x00011d82:    2202        ."      MOVS     r2,#2
        0x00011d84:    f3620103    b...    BFI      r1,r2,#0,#4
        0x00011d88:    6041        A`      STR      r1,[r0,#4]
        0x00011d8a:    6841        Ah      LDR      r1,[r0,#4]
        0x00011d8c:    2201        ."      MOVS     r2,#1
        0x00011d8e:    e022        ".      B        0x11dd6 ; mspi_device_configure + 434
        0x00011d90:    f2440100    D...    MOVW     r1,#0x4000
        0x00011d94:    f2c50101    ....    MOVT     r1,#0x5001
        0x00011d98:    eb013000    ...0    ADD      r0,r1,r0,LSL #12
        0x00011d9c:    6841        Ah      LDR      r1,[r0,#4]
        0x00011d9e:    2201        ."      MOVS     r2,#1
        0x00011da0:    f3620103    b...    BFI      r1,r2,#0,#4
        0x00011da4:    6041        A`      STR      r1,[r0,#4]
        0x00011da6:    6841        Ah      LDR      r1,[r0,#4]
        0x00011da8:    2203        ."      MOVS     r2,#3
        0x00011daa:    f0210180    !...    BIC      r1,r1,#0x80
        0x00011dae:    6041        A`      STR      r1,[r0,#4]
        0x00011db0:    f8d01120    .. .    LDR      r1,[r0,#0x120]
        0x00011db4:    f362210a    b..!    BFI      r1,r2,#8,#3
        0x00011db8:    e085        ..      B        0x11ec6 ; mspi_device_configure + 674
        0x00011dba:    bf00        ..      NOP      
        0x00011dbc:    f2440100    D...    MOVW     r1,#0x4000
        0x00011dc0:    f2c50101    ....    MOVT     r1,#0x5001
        0x00011dc4:    eb013000    ...0    ADD      r0,r1,r0,LSL #12
        0x00011dc8:    6841        Ah      LDR      r1,[r0,#4]
        0x00011dca:    2202        ."      MOVS     r2,#2
        0x00011dcc:    f3620103    b...    BFI      r1,r2,#0,#4
        0x00011dd0:    6041        A`      STR      r1,[r0,#4]
        0x00011dd2:    6841        Ah      LDR      r1,[r0,#4]
        0x00011dd4:    2203        ."      MOVS     r2,#3
        0x00011dd6:    f0210180    !...    BIC      r1,r1,#0x80
        0x00011dda:    6041        A`      STR      r1,[r0,#4]
        0x00011ddc:    f8d01120    .. .    LDR      r1,[r0,#0x120]
        0x00011de0:    f362210a    b..!    BFI      r1,r2,#8,#3
        0x00011de4:    e087        ..      B        0x11ef6 ; mspi_device_configure + 722
        0x00011de6:    bf00        ..      NOP      
        0x00011de8:    f2440100    D...    MOVW     r1,#0x4000
        0x00011dec:    f2c50101    ....    MOVT     r1,#0x5001
        0x00011df0:    eb013000    ...0    ADD      r0,r1,r0,LSL #12
        0x00011df4:    6841        Ah      LDR      r1,[r0,#4]
        0x00011df6:    2201        ."      MOVS     r2,#1
        0x00011df8:    f3620103    b...    BFI      r1,r2,#0,#4
        0x00011dfc:    6041        A`      STR      r1,[r0,#4]
        0x00011dfe:    6841        Ah      LDR      r1,[r0,#4]
        0x00011e00:    2205        ."      MOVS     r2,#5
        0x00011e02:    f0210180    !...    BIC      r1,r1,#0x80
        0x00011e06:    6041        A`      STR      r1,[r0,#4]
        0x00011e08:    f8d01120    .. .    LDR      r1,[r0,#0x120]
        0x00011e0c:    f362210a    b..!    BFI      r1,r2,#8,#3
        0x00011e10:    e029        ).      B        0x11e66 ; mspi_device_configure + 578
        0x00011e12:    bf00        ..      NOP      
        0x00011e14:    f2440100    D...    MOVW     r1,#0x4000
        0x00011e18:    f2c50101    ....    MOVT     r1,#0x5001
        0x00011e1c:    eb013000    ...0    ADD      r0,r1,r0,LSL #12
        0x00011e20:    6841        Ah      LDR      r1,[r0,#4]
        0x00011e22:    2202        ."      MOVS     r2,#2
        0x00011e24:    f3620103    b...    BFI      r1,r2,#0,#4
        0x00011e28:    6041        A`      STR      r1,[r0,#4]
        0x00011e2a:    6841        Ah      LDR      r1,[r0,#4]
        0x00011e2c:    2205        ."      MOVS     r2,#5
        0x00011e2e:    f0210180    !...    BIC      r1,r1,#0x80
        0x00011e32:    6041        A`      STR      r1,[r0,#4]
        0x00011e34:    f8d01120    .. .    LDR      r1,[r0,#0x120]
        0x00011e38:    f362210a    b..!    BFI      r1,r2,#8,#3
        0x00011e3c:    e02b        +.      B        0x11e96 ; mspi_device_configure + 626
        0x00011e3e:    bf00        ..      NOP      
        0x00011e40:    f2440100    D...    MOVW     r1,#0x4000
        0x00011e44:    f2c50101    ....    MOVT     r1,#0x5001
        0x00011e48:    eb013000    ...0    ADD      r0,r1,r0,LSL #12
        0x00011e4c:    6841        Ah      LDR      r1,[r0,#4]
        0x00011e4e:    2201        ."      MOVS     r2,#1
        0x00011e50:    f3620103    b...    BFI      r1,r2,#0,#4
        0x00011e54:    6041        A`      STR      r1,[r0,#4]
        0x00011e56:    6841        Ah      LDR      r1,[r0,#4]
        0x00011e58:    f0210180    !...    BIC      r1,r1,#0x80
        0x00011e5c:    6041        A`      STR      r1,[r0,#4]
        0x00011e5e:    f8d01120    .. .    LDR      r1,[r0,#0x120]
        0x00011e62:    f44161e0    A..a    ORR      r1,r1,#0x700
        0x00011e66:    f8c01120    .. .    STR      r1,[r0,#0x120]
        0x00011e6a:    f240110f    @...    MOV      r1,#0x10f
        0x00011e6e:    e046        F.      B        0x11efe ; mspi_device_configure + 730
        0x00011e70:    f2440100    D...    MOVW     r1,#0x4000
        0x00011e74:    f2c50101    ....    MOVT     r1,#0x5001
        0x00011e78:    eb013000    ...0    ADD      r0,r1,r0,LSL #12
        0x00011e7c:    6841        Ah      LDR      r1,[r0,#4]
        0x00011e7e:    2202        ."      MOVS     r2,#2
        0x00011e80:    f3620103    b...    BFI      r1,r2,#0,#4
        0x00011e84:    6041        A`      STR      r1,[r0,#4]
        0x00011e86:    6841        Ah      LDR      r1,[r0,#4]
        0x00011e88:    f0210180    !...    BIC      r1,r1,#0x80
        0x00011e8c:    6041        A`      STR      r1,[r0,#4]
        0x00011e8e:    f8d01120    .. .    LDR      r1,[r0,#0x120]
        0x00011e92:    f44161e0    A..a    ORR      r1,r1,#0x700
        0x00011e96:    f8c01120    .. .    STR      r1,[r0,#0x120]
        0x00011e9a:    f44f71f8    O..q    MOV      r1,#0x1f0
        0x00011e9e:    e02e        ..      B        0x11efe ; mspi_device_configure + 730
        0x00011ea0:    f2440100    D...    MOVW     r1,#0x4000
        0x00011ea4:    f2c50101    ....    MOVT     r1,#0x5001
        0x00011ea8:    eb013000    ...0    ADD      r0,r1,r0,LSL #12
        0x00011eac:    6841        Ah      LDR      r1,[r0,#4]
        0x00011eae:    2201        ."      MOVS     r2,#1
        0x00011eb0:    f3620103    b...    BFI      r1,r2,#0,#4
        0x00011eb4:    6041        A`      STR      r1,[r0,#4]
        0x00011eb6:    6841        Ah      LDR      r1,[r0,#4]
        0x00011eb8:    f0210180    !...    BIC      r1,r1,#0x80
        0x00011ebc:    6041        A`      STR      r1,[r0,#4]
        0x00011ebe:    f8d01120    .. .    LDR      r1,[r0,#0x120]
        0x00011ec2:    f42161e0    !..a    BIC      r1,r1,#0x700
        0x00011ec6:    f8c01120    .. .    STR      r1,[r0,#0x120]
        0x00011eca:    f2401103    @...    MOV      r1,#0x103
        0x00011ece:    e016        ..      B        0x11efe ; mspi_device_configure + 730
        0x00011ed0:    f2440100    D...    MOVW     r1,#0x4000
        0x00011ed4:    f2c50101    ....    MOVT     r1,#0x5001
        0x00011ed8:    eb013000    ...0    ADD      r0,r1,r0,LSL #12
        0x00011edc:    6841        Ah      LDR      r1,[r0,#4]
        0x00011ede:    2202        ."      MOVS     r2,#2
        0x00011ee0:    f3620103    b...    BFI      r1,r2,#0,#4
        0x00011ee4:    6041        A`      STR      r1,[r0,#4]
        0x00011ee6:    6841        Ah      LDR      r1,[r0,#4]
        0x00011ee8:    f0210180    !...    BIC      r1,r1,#0x80
        0x00011eec:    6041        A`      STR      r1,[r0,#4]
        0x00011eee:    f8d01120    .. .    LDR      r1,[r0,#0x120]
        0x00011ef2:    f42161e0    !..a    BIC      r1,r1,#0x700
        0x00011ef6:    f8c01120    .. .    STR      r1,[r0,#0x120]
        0x00011efa:    f44f7198    O..q    MOV      r1,#0x130
        0x00011efe:    2200        ."      MOVS     r2,#0
        0x00011f00:    f8c02110    ...!    STR      r2,[r0,#0x110]
        0x00011f04:    f8c01114    ....    STR      r1,[r0,#0x114]
        0x00011f08:    2200        ."      MOVS     r2,#0
        0x00011f0a:    4610        .F      MOV      r0,r2
        0x00011f0c:    4770        pG      BX       lr
        0x00011f0e:    0000        ..      MOVS     r0,r0
    mspi_dummy_callback
        0x00011f10:    4770        pG      BX       lr
        0x00011f12:    0000        ..      MOVS     r0,r0
    mspi_fifo_read
        0x00011f14:    e92d4ff0    -..O    PUSH     {r4-r11,lr}
        0x00011f18:    b085        ..      SUB      sp,sp,#0x14
        0x00011f1a:    2802        .(      CMP      r0,#2
        0x00011f1c:    d904        ..      BLS      0x11f28 ; mspi_fifo_read + 20
        0x00011f1e:    2405        .$      MOVS     r4,#5
        0x00011f20:    4620         F      MOV      r0,r4
        0x00011f22:    b005        ..      ADD      sp,sp,#0x14
        0x00011f24:    e8bd8ff0    ....    POP      {r4-r11,pc}
        0x00011f28:    461d        .F      MOV      r5,r3
        0x00011f2a:    f2440300    D...    MOVW     r3,#0x4000
        0x00011f2e:    4691        .F      MOV      r9,r2
        0x00011f30:    4688        .F      MOV      r8,r1
        0x00011f32:    990e        ..      LDR      r1,[sp,#0x38]
        0x00011f34:    f2c50301    ....    MOVT     r3,#0x5001
        0x00011f38:    0302        ..      LSLS     r2,r0,#12
        0x00011f3a:    eb033600    ...6    ADD      r6,r3,r0,LSL #12
        0x00011f3e:    ea5f0a99    _...    LSRS     r10,r9,#2
        0x00011f42:    f04f0b00    O...    MOV      r11,#0
        0x00011f46:    5099        .P      STR      r1,[r3,r2]
        0x00011f48:    d01c        ..      BEQ      0x11f84 ; mspi_fifo_read + 112
        0x00011f4a:    f106071c    ....    ADD      r7,r6,#0x1c
        0x00011f4e:    e9cda802    ....    STRD     r10,r8,[sp,#8]
        0x00011f52:    bf00        ..      NOP      
        0x00011f54:    4628        (F      MOV      r0,r5
        0x00011f56:    4639        9F      MOV      r1,r7
        0x00011f58:    223f        ?"      MOVS     r2,#0x3f
        0x00011f5a:    2300        .#      MOVS     r3,#0
        0x00011f5c:    f8cdb000    ....    STR      r11,[sp,#0]
        0x00011f60:    f7fcfa10    ....    BL       am_hal_flash_delay_status_check ; 0xe384
        0x00011f64:    bb70        p.      CBNZ     r0,0x11fc4 ; mspi_fifo_read + 176
        0x00011f66:    6970        pi      LDR      r0,[r6,#0x14]
        0x00011f68:    f1ba0a01    ....    SUBS     r10,r10,#1
        0x00011f6c:    f8480b04    H...    STR      r0,[r8],#4
        0x00011f70:    d1f0        ..      BNE      0x11f54 ; mspi_fifo_read + 64
        0x00011f72:    e9dda802    ....    LDRD     r10,r8,[sp,#8]
        0x00011f76:    f0190703    ....    ANDS     r7,r9,#3
        0x00011f7a:    f04f0400    O...    MOV      r4,#0
        0x00011f7e:    d108        ..      BNE      0x11f92 ; mspi_fifo_read + 126
        0x00011f80:    e7ce        ..      B        0x11f20 ; mspi_fifo_read + 12
        0x00011f82:    bf00        ..      NOP      
        0x00011f84:    f04f0a00    O...    MOV      r10,#0
        0x00011f88:    f0190703    ....    ANDS     r7,r9,#3
        0x00011f8c:    f04f0400    O...    MOV      r4,#0
        0x00011f90:    d0c6        ..      BEQ      0x11f20 ; mspi_fifo_read + 12
        0x00011f92:    f106011c    ....    ADD      r1,r6,#0x1c
        0x00011f96:    4628        (F      MOV      r0,r5
        0x00011f98:    223f        ?"      MOVS     r2,#0x3f
        0x00011f9a:    2300        .#      MOVS     r3,#0
        0x00011f9c:    9400        ..      STR      r4,[sp,#0]
        0x00011f9e:    f7fcf9f1    ....    BL       am_hal_flash_delay_status_check ; 0xe384
        0x00011fa2:    4604        .F      MOV      r4,r0
        0x00011fa4:    2800        .(      CMP      r0,#0
        0x00011fa6:    d1bb        ..      BNE      0x11f20 ; mspi_fifo_read + 12
        0x00011fa8:    6970        pi      LDR      r0,[r6,#0x14]
        0x00011faa:    a904        ..      ADD      r1,sp,#0x10
        0x00011fac:    9004        ..      STR      r0,[sp,#0x10]
        0x00011fae:    eb08008a    ....    ADD      r0,r8,r10,LSL #2
        0x00011fb2:    463a        :F      MOV      r2,r7
        0x00011fb4:    f7faf948    ..H.    BL       __aeabi_memcpy ; 0xc248
        0x00011fb8:    2400        .$      MOVS     r4,#0
        0x00011fba:    4620         F      MOV      r0,r4
        0x00011fbc:    b005        ..      ADD      sp,sp,#0x14
        0x00011fbe:    e8bd8ff0    ....    POP      {r4-r11,pc}
        0x00011fc2:    bf00        ..      NOP      
        0x00011fc4:    4604        .F      MOV      r4,r0
        0x00011fc6:    4620         F      MOV      r0,r4
        0x00011fc8:    b005        ..      ADD      sp,sp,#0x14
        0x00011fca:    e8bd8ff0    ....    POP      {r4-r11,pc}
        0x00011fce:    0000        ..      MOVS     r0,r0
    mspi_fifo_write
        0x00011fd0:    e92d47f0    -..G    PUSH     {r4-r10,lr}
        0x00011fd4:    b082        ..      SUB      sp,sp,#8
        0x00011fd6:    2802        .(      CMP      r0,#2
        0x00011fd8:    d904        ..      BLS      0x11fe4 ; mspi_fifo_write + 20
        0x00011fda:    2605        .&      MOVS     r6,#5
        0x00011fdc:    4630        0F      MOV      r0,r6
        0x00011fde:    b002        ..      ADD      sp,sp,#8
        0x00011fe0:    e8bd87f0    ....    POP      {r4-r10,pc}
        0x00011fe4:    4691        .F      MOV      r9,r2
        0x00011fe6:    468a        .F      MOV      r10,r1
        0x00011fe8:    9a0a        ..      LDR      r2,[sp,#0x28]
        0x00011fea:    f2440100    D...    MOVW     r1,#0x4000
        0x00011fee:    4698        .F      MOV      r8,r3
        0x00011ff0:    0303        ..      LSLS     r3,r0,#12
        0x00011ff2:    f2c50101    ....    MOVT     r1,#0x5001
        0x00011ff6:    f1b90f00    ....    CMP      r9,#0
        0x00011ffa:    f04f0600    O...    MOV      r6,#0
        0x00011ffe:    50ca        .P      STR      r2,[r1,r3]
        0x00012000:    d0ec        ..      BEQ      0x11fdc ; mspi_fifo_write + 12
        0x00012002:    eb013500    ...5    ADD      r5,r1,r0,LSL #12
        0x00012006:    f1050418    ....    ADD      r4,r5,#0x18
        0x0001200a:    f06f0703    o...    MVN      r7,#3
        0x0001200e:    bf00        ..      NOP      
        0x00012010:    eb0a0007    ....    ADD      r0,r10,r7
        0x00012014:    6840        @h      LDR      r0,[r0,#4]
        0x00012016:    4621        !F      MOV      r1,r4
        0x00012018:    6128        (a      STR      r0,[r5,#0x10]
        0x0001201a:    4640        @F      MOV      r0,r8
        0x0001201c:    223f        ?"      MOVS     r2,#0x3f
        0x0001201e:    2310        .#      MOVS     r3,#0x10
        0x00012020:    9600        ..      STR      r6,[sp,#0]
        0x00012022:    f7fcf9af    ....    BL       am_hal_flash_delay_status_check ; 0xe384
        0x00012026:    f1070108    ....    ADD      r1,r7,#8
        0x0001202a:    3704        .7      ADDS     r7,#4
        0x0001202c:    4549        IE      CMP      r1,r9
        0x0001202e:    d3ef        ..      BCC      0x12010 ; mspi_fifo_write + 64
        0x00012030:    4606        .F      MOV      r6,r0
        0x00012032:    4630        0F      MOV      r0,r6
        0x00012034:    b002        ..      ADD      sp,sp,#8
        0x00012036:    e8bd87f0    ....    POP      {r4-r10,pc}
        0x0001203a:    0000        ..      MOVS     r0,r0
    mspi_seq_loopback
        0x0001203c:    f8d0182c    ..,.    LDR      r1,[r0,#0x82c]
        0x00012040:    2200        ."      MOVS     r2,#0
        0x00012042:    3101        .1      ADDS     r1,#1
        0x00012044:    e9c02106    ...!    STRD     r2,r1,[r0,#0x18]
        0x00012048:    2101        .!      MOVS     r1,#1
        0x0001204a:    f8801830    ..0.    STRB     r1,[r0,#0x830]
        0x0001204e:    6840        @h      LDR      r0,[r0,#4]
        0x00012050:    f24421b4    D..!    MOV      r1,#0x42b4
        0x00012054:    0300        ..      LSLS     r0,r0,#12
        0x00012056:    f2c50101    ....    MOVT     r1,#0x5001
        0x0001205a:    2240        @"      MOVS     r2,#0x40
        0x0001205c:    500a        .P      STR      r2,[r1,r0]
        0x0001205e:    4770        pG      BX       lr
    ndigits_in_hex
        0x00012060:    b084        ..      SUB      sp,sp,#0x10
        0x00012062:    9103        ..      STR      r1,[sp,#0xc]
        0x00012064:    9002        ..      STR      r0,[sp,#8]
        0x00012066:    9802        ..      LDR      r0,[sp,#8]
        0x00012068:    9903        ..      LDR      r1,[sp,#0xc]
        0x0001206a:    4308        .C      ORRS     r0,r0,r1
        0x0001206c:    fab0f080    ....    CLZ      r0,r0
        0x00012070:    0940        @.      LSRS     r0,r0,#5
        0x00012072:    9001        ..      STR      r0,[sp,#4]
        0x00012074:    e7ff        ..      B        0x12076 ; ndigits_in_hex + 22
        0x00012076:    9802        ..      LDR      r0,[sp,#8]
        0x00012078:    9903        ..      LDR      r1,[sp,#0xc]
        0x0001207a:    4308        .C      ORRS     r0,r0,r1
        0x0001207c:    b160        `.      CBZ      r0,0x12098 ; ndigits_in_hex + 56
        0x0001207e:    e7ff        ..      B        0x12080 ; ndigits_in_hex + 32
        0x00012080:    9802        ..      LDR      r0,[sp,#8]
        0x00012082:    9903        ..      LDR      r1,[sp,#0xc]
        0x00012084:    0900        ..      LSRS     r0,r0,#4
        0x00012086:    ea407001    @..p    ORR      r0,r0,r1,LSL #28
        0x0001208a:    0909        ..      LSRS     r1,r1,#4
        0x0001208c:    9103        ..      STR      r1,[sp,#0xc]
        0x0001208e:    9002        ..      STR      r0,[sp,#8]
        0x00012090:    9801        ..      LDR      r0,[sp,#4]
        0x00012092:    3001        .0      ADDS     r0,#1
        0x00012094:    9001        ..      STR      r0,[sp,#4]
        0x00012096:    e7ee        ..      B        0x12076 ; ndigits_in_hex + 22
        0x00012098:    9801        ..      LDR      r0,[sp,#4]
        0x0001209a:    b004        ..      ADD      sp,sp,#0x10
        0x0001209c:    4770        pG      BX       lr
        0x0001209e:    0000        ..      MOVS     r0,r0
    ndigits_in_i64
        0x000120a0:    b580        ..      PUSH     {r7,lr}
        0x000120a2:    b082        ..      SUB      sp,sp,#8
        0x000120a4:    9101        ..      STR      r1,[sp,#4]
        0x000120a6:    9000        ..      STR      r0,[sp,#0]
        0x000120a8:    9801        ..      LDR      r0,[sp,#4]
        0x000120aa:    f1b03fff    ...?    CMP      r0,#0xffffffff
        0x000120ae:    dc09        ..      BGT      0x120c4 ; ndigits_in_i64 + 36
        0x000120b0:    e7ff        ..      B        0x120b2 ; ndigits_in_i64 + 18
        0x000120b2:    9800        ..      LDR      r0,[sp,#0]
        0x000120b4:    9a01        ..      LDR      r2,[sp,#4]
        0x000120b6:    4241        AB      RSBS     r1,r0,#0
        0x000120b8:    f04f0000    O...    MOV      r0,#0
        0x000120bc:    4190        .A      SBCS     r0,r0,r2
        0x000120be:    9100        ..      STR      r1,[sp,#0]
        0x000120c0:    9001        ..      STR      r0,[sp,#4]
        0x000120c2:    e7ff        ..      B        0x120c4 ; ndigits_in_i64 + 36
        0x000120c4:    9800        ..      LDR      r0,[sp,#0]
        0x000120c6:    9901        ..      LDR      r1,[sp,#4]
        0x000120c8:    f000f802    ....    BL       ndigits_in_u64 ; 0x120d0
        0x000120cc:    b002        ..      ADD      sp,sp,#8
        0x000120ce:    bd80        ..      POP      {r7,pc}
    ndigits_in_u64
        0x000120d0:    b580        ..      PUSH     {r7,lr}
        0x000120d2:    b084        ..      SUB      sp,sp,#0x10
        0x000120d4:    9103        ..      STR      r1,[sp,#0xc]
        0x000120d6:    9002        ..      STR      r0,[sp,#8]
        0x000120d8:    9802        ..      LDR      r0,[sp,#8]
        0x000120da:    9903        ..      LDR      r1,[sp,#0xc]
        0x000120dc:    4308        .C      ORRS     r0,r0,r1
        0x000120de:    fab0f080    ....    CLZ      r0,r0
        0x000120e2:    0940        @.      LSRS     r0,r0,#5
        0x000120e4:    9001        ..      STR      r0,[sp,#4]
        0x000120e6:    e7ff        ..      B        0x120e8 ; ndigits_in_u64 + 24
        0x000120e8:    9802        ..      LDR      r0,[sp,#8]
        0x000120ea:    9903        ..      LDR      r1,[sp,#0xc]
        0x000120ec:    4308        .C      ORRS     r0,r0,r1
        0x000120ee:    b150        P.      CBZ      r0,0x12106 ; ndigits_in_u64 + 54
        0x000120f0:    e7ff        ..      B        0x120f2 ; ndigits_in_u64 + 34
        0x000120f2:    9802        ..      LDR      r0,[sp,#8]
        0x000120f4:    9903        ..      LDR      r1,[sp,#0xc]
        0x000120f6:    f7fff921    ..!.    BL       divu64_10 ; 0x1133c
        0x000120fa:    9103        ..      STR      r1,[sp,#0xc]
        0x000120fc:    9002        ..      STR      r0,[sp,#8]
        0x000120fe:    9801        ..      LDR      r0,[sp,#4]
        0x00012100:    3001        .0      ADDS     r0,#1
        0x00012102:    9001        ..      STR      r0,[sp,#4]
        0x00012104:    e7f0        ..      B        0x120e8 ; ndigits_in_u64 + 24
        0x00012106:    9801        ..      LDR      r0,[sp,#4]
        0x00012108:    b004        ..      ADD      sp,sp,#0x10
        0x0001210a:    bd80        ..      POP      {r7,pc}
    padbuffer
        0x0001210c:    b085        ..      SUB      sp,sp,#0x14
        0x0001210e:    9003        ..      STR      r0,[sp,#0xc]
        0x00012110:    f88d100b    ....    STRB     r1,[sp,#0xb]
        0x00012114:    9201        ..      STR      r2,[sp,#4]
        0x00012116:    2000        .       MOVS     r0,#0
        0x00012118:    9000        ..      STR      r0,[sp,#0]
        0x0001211a:    9801        ..      LDR      r0,[sp,#4]
        0x0001211c:    2800        .(      CMP      r0,#0
        0x0001211e:    dc03        ..      BGT      0x12128 ; padbuffer + 28
        0x00012120:    e7ff        ..      B        0x12122 ; padbuffer + 22
        0x00012122:    9800        ..      LDR      r0,[sp,#0]
        0x00012124:    9004        ..      STR      r0,[sp,#0x10]
        0x00012126:    e016        ..      B        0x12156 ; padbuffer + 74
        0x00012128:    e7ff        ..      B        0x1212a ; padbuffer + 30
        0x0001212a:    9801        ..      LDR      r0,[sp,#4]
        0x0001212c:    1e41        A.      SUBS     r1,r0,#1
        0x0001212e:    9101        ..      STR      r1,[sp,#4]
        0x00012130:    b170        p.      CBZ      r0,0x12150 ; padbuffer + 68
        0x00012132:    e7ff        ..      B        0x12134 ; padbuffer + 40
        0x00012134:    9803        ..      LDR      r0,[sp,#0xc]
        0x00012136:    b138        8.      CBZ      r0,0x12148 ; padbuffer + 60
        0x00012138:    e7ff        ..      B        0x1213a ; padbuffer + 46
        0x0001213a:    f89d000b    ....    LDRB     r0,[sp,#0xb]
        0x0001213e:    9903        ..      LDR      r1,[sp,#0xc]
        0x00012140:    1c4a        J.      ADDS     r2,r1,#1
        0x00012142:    9203        ..      STR      r2,[sp,#0xc]
        0x00012144:    7008        .p      STRB     r0,[r1,#0]
        0x00012146:    e7ff        ..      B        0x12148 ; padbuffer + 60
        0x00012148:    9800        ..      LDR      r0,[sp,#0]
        0x0001214a:    3001        .0      ADDS     r0,#1
        0x0001214c:    9000        ..      STR      r0,[sp,#0]
        0x0001214e:    e7ec        ..      B        0x1212a ; padbuffer + 30
        0x00012150:    9800        ..      LDR      r0,[sp,#0]
        0x00012152:    9004        ..      STR      r0,[sp,#0x10]
        0x00012154:    e7ff        ..      B        0x12156 ; padbuffer + 74
        0x00012156:    9804        ..      LDR      r0,[sp,#0x10]
        0x00012158:    b005        ..      ADD      sp,sp,#0x14
        0x0001215a:    4770        pG      BX       lr
    pfnMSPI_ATXP032_Callback
        0x0001215c:    b082        ..      SUB      sp,sp,#8
        0x0001215e:    9001        ..      STR      r0,[sp,#4]
        0x00012160:    9100        ..      STR      r1,[sp,#0]
        0x00012162:    9800        ..      LDR      r0,[sp,#0]
        0x00012164:    9901        ..      LDR      r1,[sp,#4]
        0x00012166:    6008        .`      STR      r0,[r1,#0]
        0x00012168:    b002        ..      ADD      sp,sp,#8
        0x0001216a:    4770        pG      BX       lr
    run_new_image
        0x0001216c:    f64e5308    N..S    MOV      r3,#0xed08
        0x00012170:    f2ce0300    ....    MOVT     r3,#0xe000
        0x00012174:    6018        .`      STR      r0,[r3,#0]
        0x00012176:    6803        .h      LDR      r3,[r0,#0]
        0x00012178:    6842        Bh      LDR      r2,[r0,#4]
        0x0001217a:    469d        .F      MOV      sp,r3
        0x0001217c:    4710        .G      BX       r2
        0x0001217e:    0000        ..      MOVS     r0,r0
    sched_hiprio
        0x00012180:    b5f0        ..      PUSH     {r4-r7,lr}
        0x00012182:    b083        ..      SUB      sp,sp,#0xc
        0x00012184:    460d        .F      MOV      r5,r1
        0x00012186:    4604        .F      MOV      r4,r0
        0x00012188:    f7fcfb02    ....    BL       am_hal_interrupt_master_disable ; 0xe790
        0x0001218c:    9002        ..      STR      r0,[sp,#8]
        0x0001218e:    f8d4683c    ..<h    LDR      r6,[r4,#0x83c]
        0x00012192:    1970        p.      ADDS     r0,r6,r5
        0x00012194:    f8c4083c    ..<.    STR      r0,[r4,#0x83c]
        0x00012198:    9802        ..      LDR      r0,[sp,#8]
        0x0001219a:    f7fcfb01    ....    BL       am_hal_interrupt_master_set ; 0xe7a0
        0x0001219e:    b11e        ..      CBZ      r6,0x121a8 ; sched_hiprio + 40
        0x000121a0:    2000        .       MOVS     r0,#0
        0x000121a2:    b003        ..      ADD      sp,sp,#0xc
        0x000121a4:    bdf0        ..      POP      {r4-r7,pc}
        0x000121a6:    bf00        ..      NOP      
        0x000121a8:    6860        `h      LDR      r0,[r4,#4]
        0x000121aa:    f2440500    D...    MOVW     r5,#0x4000
        0x000121ae:    f2c50501    ....    MOVT     r5,#0x5001
        0x000121b2:    eb053000    ...0    ADD      r0,r5,r0,LSL #12
        0x000121b6:    f44f0100    O...    MOV      r1,#0x800000
        0x000121ba:    f8c012b4    ....    STR      r1,[r0,#0x2b4]
        0x000121be:    6860        `h      LDR      r0,[r4,#4]
        0x000121c0:    eb053000    ...0    ADD      r0,r5,r0,LSL #12
        0x000121c4:    f8d012a0    ....    LDR      r1,[r0,#0x2a0]
        0x000121c8:    07c9        ..      LSLS     r1,r1,#31
        0x000121ca:    d018        ..      BEQ      0x121fe ; sched_hiprio + 126
        0x000121cc:    f647165f    G._.    MOV      r6,#0x795f
        0x000121d0:    f6cf76fe    ...v    MOVT     r6,#0xfffe
        0x000121d4:    f8d012ac    ....    LDR      r1,[r0,#0x2ac]
        0x000121d8:    0709        ..      LSLS     r1,r1,#28
        0x000121da:    bf44        D.      ITT      MI
        0x000121dc:    f8d012b8    ....    LDRMI    r1,[r0,#0x2b8]
        0x000121e0:    ea5f6101    _..a    LSLSMI   r1,r1,#24
        0x000121e4:    d40b        ..      BMI      0x121fe ; sched_hiprio + 126
        0x000121e6:    3601        .6      ADDS     r6,#1
        0x000121e8:    d250        P.      BCS      0x1228c ; sched_hiprio + 268
        0x000121ea:    2010        .       MOVS     r0,#0x10
        0x000121ec:    f7fcf8b4    ....    BL       am_hal_flash_delay ; 0xe358
        0x000121f0:    6860        `h      LDR      r0,[r4,#4]
        0x000121f2:    eb053000    ...0    ADD      r0,r5,r0,LSL #12
        0x000121f6:    f8d012a0    ....    LDR      r1,[r0,#0x2a0]
        0x000121fa:    07c9        ..      LSLS     r1,r1,#31
        0x000121fc:    d1ea        ..      BNE      0x121d4 ; sched_hiprio + 84
        0x000121fe:    f5007115    ...q    ADD      r1,r0,#0x254
        0x00012202:    f24860a0    H..`    MOV      r0,#0x86a0
        0x00012206:    2701        .'      MOVS     r7,#1
        0x00012208:    f2c00001    ....    MOVT     r0,#1
        0x0001220c:    2201        ."      MOVS     r2,#1
        0x0001220e:    2300        .#      MOVS     r3,#0
        0x00012210:    9700        ..      STR      r7,[sp,#0]
        0x00012212:    2600        .&      MOVS     r6,#0
        0x00012214:    f7fcf8b6    ....    BL       am_hal_flash_delay_status_check ; 0xe384
        0x00012218:    b110        ..      CBZ      r0,0x12220 ; sched_hiprio + 160
        0x0001221a:    b003        ..      ADD      sp,sp,#0xc
        0x0001221c:    bdf0        ..      POP      {r4-r7,pc}
        0x0001221e:    bf00        ..      NOP      
        0x00012220:    6860        `h      LDR      r0,[r4,#4]
        0x00012222:    2140        @!      MOVS     r1,#0x40
        0x00012224:    eb053000    ...0    ADD      r0,r5,r0,LSL #12
        0x00012228:    6226        &b      STR      r6,[r4,#0x20]
        0x0001222a:    f8c01208    ....    STR      r1,[r0,#0x208]
        0x0001222e:    6860        `h      LDR      r0,[r4,#4]
        0x00012230:    eb053000    ...0    ADD      r0,r5,r0,LSL #12
        0x00012234:    f8d01200    ....    LDR      r1,[r0,#0x200]
        0x00012238:    f0410140    A.@.    ORR      r1,r1,#0x40
        0x0001223c:    f8c01200    ....    STR      r1,[r0,#0x200]
        0x00012240:    f8847838    ..8x    STRB     r7,[r4,#0x838]
        0x00012244:    f8d4084c    ..L.    LDR      r0,[r4,#0x84c]
        0x00012248:    f8d41844    ..D.    LDR      r1,[r4,#0x844]
        0x0001224c:    3001        .0      ADDS     r0,#1
        0x0001224e:    fbb0f2f1    ....    UDIV     r2,r0,r1
        0x00012252:    6863        ch      LDR      r3,[r4,#4]
        0x00012254:    fb020011    ....    MLS      r0,r2,r1,r0
        0x00012258:    f8d41850    ..P.    LDR      r1,[r4,#0x850]
        0x0001225c:    eb053203    ...2    ADD      r2,r5,r3,LSL #12
        0x00012260:    eb000040    ..@.    ADD      r0,r0,r0,LSL #1
        0x00012264:    f8c26250    ..Pb    STR      r6,[r2,#0x250]
        0x00012268:    f8513030    Q.00    LDR      r3,[r1,r0,LSL #3]
        0x0001226c:    eb0100c0    ....    ADD      r0,r1,r0,LSL #3
        0x00012270:    f8c23258    ..X2    STR      r3,[r2,#0x258]
        0x00012274:    6841        Ah      LDR      r1,[r0,#4]
        0x00012276:    f8c2125c    ..\.    STR      r1,[r2,#0x25c]
        0x0001227a:    6881        .h      LDR      r1,[r0,#8]
        0x0001227c:    f8c21260    ..`.    STR      r1,[r2,#0x260]
        0x00012280:    68c0        .h      LDR      r0,[r0,#0xc]
        0x00012282:    f8c20250    ..P.    STR      r0,[r2,#0x250]
        0x00012286:    2000        .       MOVS     r0,#0
        0x00012288:    b003        ..      ADD      sp,sp,#0xc
        0x0001228a:    bdf0        ..      POP      {r4-r7,pc}
        0x0001228c:    2004        .       MOVS     r0,#4
        0x0001228e:    b003        ..      ADD      sp,sp,#0xc
        0x00012290:    bdf0        ..      POP      {r4-r7,pc}
        0x00012292:    0000        ..      MOVS     r0,r0
    set_LPMMODE
        0x00012294:    b5f0        ..      PUSH     {r4-r7,lr}
        0x00012296:    b081        ..      SUB      sp,sp,#4
        0x00012298:    4604        .F      MOV      r4,r0
        0x0001229a:    2803        .(      CMP      r0,#3
        0x0001229c:    d851        Q.      BHI      0x12342 ; set_LPMMODE + 174
        0x0001229e:    f0040703    ....    AND      r7,r4,#3
        0x000122a2:    f7fcfa75    ..u.    BL       am_hal_interrupt_master_disable ; 0xe790
        0x000122a6:    f2481500    H...    MOVW     r5,#0x8100
        0x000122aa:    f2c40501    ....    MOVT     r5,#0x4001
        0x000122ae:    9000        ..      STR      r0,[sp,#0]
        0x000122b0:    4628        (F      MOV      r0,r5
        0x000122b2:    f7fcf8c3    ....    BL       am_hal_flash_load_ui32 ; 0xe43c
        0x000122b6:    f420507c     .|P    BIC      r0,r0,#0x3f00
        0x000122ba:    ea403007    @..0    ORR      r0,r0,r7,LSL #12
        0x000122be:    f50061e0    ...a    ADD      r1,r0,#0x700
        0x000122c2:    4628        (F      MOV      r0,r5
        0x000122c4:    f7fcf8be    ....    BL       am_hal_flash_store_ui32 ; 0xe444
        0x000122c8:    9800        ..      LDR      r0,[sp,#0]
        0x000122ca:    f7fcfa69    ..i.    BL       am_hal_interrupt_master_set ; 0xe7a0
        0x000122ce:    f7fcfa5f    .._.    BL       am_hal_interrupt_master_disable ; 0xe790
        0x000122d2:    1d2e        ..      ADDS     r6,r5,#4
        0x000122d4:    9000        ..      STR      r0,[sp,#0]
        0x000122d6:    4630        0F      MOV      r0,r6
        0x000122d8:    f7fcf8b0    ....    BL       am_hal_flash_load_ui32 ; 0xe43c
        0x000122dc:    f420507c     .|P    BIC      r0,r0,#0x3f00
        0x000122e0:    ea403007    @..0    ORR      r0,r0,r7,LSL #12
        0x000122e4:    f50061e0    ...a    ADD      r1,r0,#0x700
        0x000122e8:    4630        0F      MOV      r0,r6
        0x000122ea:    f7fcf8ab    ....    BL       am_hal_flash_store_ui32 ; 0xe444
        0x000122ee:    9800        ..      LDR      r0,[sp,#0]
        0x000122f0:    f7fcfa56    ..V.    BL       am_hal_interrupt_master_set ; 0xe7a0
        0x000122f4:    f7fcfa4c    ..L.    BL       am_hal_interrupt_master_disable ; 0xe790
        0x000122f8:    f1050608    ....    ADD      r6,r5,#8
        0x000122fc:    9000        ..      STR      r0,[sp,#0]
        0x000122fe:    4630        0F      MOV      r0,r6
        0x00012300:    f7fcf89c    ....    BL       am_hal_flash_load_ui32 ; 0xe43c
        0x00012304:    f420507c     .|P    BIC      r0,r0,#0x3f00
        0x00012308:    ea403007    @..0    ORR      r0,r0,r7,LSL #12
        0x0001230c:    f50061e0    ...a    ADD      r1,r0,#0x700
        0x00012310:    4630        0F      MOV      r0,r6
        0x00012312:    f7fcf897    ....    BL       am_hal_flash_store_ui32 ; 0xe444
        0x00012316:    9800        ..      LDR      r0,[sp,#0]
        0x00012318:    f7fcfa42    ..B.    BL       am_hal_interrupt_master_set ; 0xe7a0
        0x0001231c:    f7fcfa38    ..8.    BL       am_hal_interrupt_master_disable ; 0xe790
        0x00012320:    350c        .5      ADDS     r5,r5,#0xc
        0x00012322:    9000        ..      STR      r0,[sp,#0]
        0x00012324:    4628        (F      MOV      r0,r5
        0x00012326:    f7fcf889    ....    BL       am_hal_flash_load_ui32 ; 0xe43c
        0x0001232a:    f420507c     .|P    BIC      r0,r0,#0x3f00
        0x0001232e:    ea403007    @..0    ORR      r0,r0,r7,LSL #12
        0x00012332:    f50061e0    ...a    ADD      r1,r0,#0x700
        0x00012336:    4628        (F      MOV      r0,r5
        0x00012338:    f7fcf884    ....    BL       am_hal_flash_store_ui32 ; 0xe444
        0x0001233c:    9800        ..      LDR      r0,[sp,#0]
        0x0001233e:    f7fcfa2f    ../.    BL       am_hal_interrupt_master_set ; 0xe7a0
        0x00012342:    2000        .       MOVS     r0,#0
        0x00012344:    2c04        .,      CMP      r4,#4
        0x00012346:    bf38        8.      IT       CC
        0x00012348:    2001        .       MOVCC    r0,#1
        0x0001234a:    b001        ..      ADD      sp,sp,#4
        0x0001234c:    bdf0        ..      POP      {r4-r7,pc}
        0x0001234e:    0000        ..      MOVS     r0,r0
    set_RDWAIT
        0x00012350:    b5f0        ..      PUSH     {r4-r7,lr}
        0x00012352:    b081        ..      SUB      sp,sp,#4
        0x00012354:    4604        .F      MOV      r4,r0
        0x00012356:    280f        .(      CMP      r0,#0xf
        0x00012358:    d84b        K.      BHI      0x123f2 ; set_RDWAIT + 162
        0x0001235a:    f7fcfa19    ....    BL       am_hal_interrupt_master_disable ; 0xe790
        0x0001235e:    f2481500    H...    MOVW     r5,#0x8100
        0x00012362:    f2c40501    ....    MOVT     r5,#0x4001
        0x00012366:    9000        ..      STR      r0,[sp,#0]
        0x00012368:    4628        (F      MOV      r0,r5
        0x0001236a:    f7fcf867    ..g.    BL       am_hal_flash_load_ui32 ; 0xe43c
        0x0001236e:    f24f07f0    O...    MOV      r7,#0xf0f0
        0x00012372:    f6cf77ff    ...w    MOVT     r7,#0xffff
        0x00012376:    4038        8@      ANDS     r0,r0,r7
        0x00012378:    4320         C      ORRS     r0,r0,r4
        0x0001237a:    f44061e0    @..a    ORR      r1,r0,#0x700
        0x0001237e:    4628        (F      MOV      r0,r5
        0x00012380:    f7fcf860    ..`.    BL       am_hal_flash_store_ui32 ; 0xe444
        0x00012384:    9800        ..      LDR      r0,[sp,#0]
        0x00012386:    f7fcfa0b    ....    BL       am_hal_interrupt_master_set ; 0xe7a0
        0x0001238a:    f7fcfa01    ....    BL       am_hal_interrupt_master_disable ; 0xe790
        0x0001238e:    1d2e        ..      ADDS     r6,r5,#4
        0x00012390:    9000        ..      STR      r0,[sp,#0]
        0x00012392:    4630        0F      MOV      r0,r6
        0x00012394:    f7fcf852    ..R.    BL       am_hal_flash_load_ui32 ; 0xe43c
        0x00012398:    4038        8@      ANDS     r0,r0,r7
        0x0001239a:    4320         C      ORRS     r0,r0,r4
        0x0001239c:    f44061e0    @..a    ORR      r1,r0,#0x700
        0x000123a0:    4630        0F      MOV      r0,r6
        0x000123a2:    f7fcf84f    ..O.    BL       am_hal_flash_store_ui32 ; 0xe444
        0x000123a6:    9800        ..      LDR      r0,[sp,#0]
        0x000123a8:    f7fcf9fa    ....    BL       am_hal_interrupt_master_set ; 0xe7a0
        0x000123ac:    f7fcf9f0    ....    BL       am_hal_interrupt_master_disable ; 0xe790
        0x000123b0:    f1050608    ....    ADD      r6,r5,#8
        0x000123b4:    9000        ..      STR      r0,[sp,#0]
        0x000123b6:    4630        0F      MOV      r0,r6
        0x000123b8:    f7fcf840    ..@.    BL       am_hal_flash_load_ui32 ; 0xe43c
        0x000123bc:    4038        8@      ANDS     r0,r0,r7
        0x000123be:    4320         C      ORRS     r0,r0,r4
        0x000123c0:    f44061e0    @..a    ORR      r1,r0,#0x700
        0x000123c4:    4630        0F      MOV      r0,r6
        0x000123c6:    f7fcf83d    ..=.    BL       am_hal_flash_store_ui32 ; 0xe444
        0x000123ca:    9800        ..      LDR      r0,[sp,#0]
        0x000123cc:    f7fcf9e8    ....    BL       am_hal_interrupt_master_set ; 0xe7a0
        0x000123d0:    f7fcf9de    ....    BL       am_hal_interrupt_master_disable ; 0xe790
        0x000123d4:    350c        .5      ADDS     r5,r5,#0xc
        0x000123d6:    9000        ..      STR      r0,[sp,#0]
        0x000123d8:    4628        (F      MOV      r0,r5
        0x000123da:    f7fcf82f    ../.    BL       am_hal_flash_load_ui32 ; 0xe43c
        0x000123de:    4038        8@      ANDS     r0,r0,r7
        0x000123e0:    4320         C      ORRS     r0,r0,r4
        0x000123e2:    f44061e0    @..a    ORR      r1,r0,#0x700
        0x000123e6:    4628        (F      MOV      r0,r5
        0x000123e8:    f7fcf82c    ..,.    BL       am_hal_flash_store_ui32 ; 0xe444
        0x000123ec:    9800        ..      LDR      r0,[sp,#0]
        0x000123ee:    f7fcf9d7    ....    BL       am_hal_interrupt_master_set ; 0xe7a0
        0x000123f2:    2000        .       MOVS     r0,#0
        0x000123f4:    2c10        .,      CMP      r4,#0x10
        0x000123f6:    bf38        8.      IT       CC
        0x000123f8:    2001        .       MOVCC    r0,#1
        0x000123fa:    b001        ..      ADD      sp,sp,#4
        0x000123fc:    bdf0        ..      POP      {r4-r7,pc}
        0x000123fe:    0000        ..      MOVS     r0,r0
    set_SEDELAY
        0x00012400:    b5f0        ..      PUSH     {r4-r7,lr}
        0x00012402:    b081        ..      SUB      sp,sp,#4
        0x00012404:    4604        .F      MOV      r4,r0
        0x00012406:    2807        .(      CMP      r0,#7
        0x00012408:    d851        Q.      BHI      0x124ae ; set_SEDELAY + 174
        0x0001240a:    f0040707    ....    AND      r7,r4,#7
        0x0001240e:    f7fcf9bf    ....    BL       am_hal_interrupt_master_disable ; 0xe790
        0x00012412:    f2481500    H...    MOVW     r5,#0x8100
        0x00012416:    f2c40501    ....    MOVT     r5,#0x4001
        0x0001241a:    9000        ..      STR      r0,[sp,#0]
        0x0001241c:    4628        (F      MOV      r0,r5
        0x0001241e:    f7fcf80d    ....    BL       am_hal_flash_load_ui32 ; 0xe43c
        0x00012422:    f4206077     .w`    BIC      r0,r0,#0xf70
        0x00012426:    ea401007    @...    ORR      r0,r0,r7,LSL #4
        0x0001242a:    f50061e0    ...a    ADD      r1,r0,#0x700
        0x0001242e:    4628        (F      MOV      r0,r5
        0x00012430:    f7fcf808    ....    BL       am_hal_flash_store_ui32 ; 0xe444
        0x00012434:    9800        ..      LDR      r0,[sp,#0]
        0x00012436:    f7fcf9b3    ....    BL       am_hal_interrupt_master_set ; 0xe7a0
        0x0001243a:    f7fcf9a9    ....    BL       am_hal_interrupt_master_disable ; 0xe790
        0x0001243e:    1d2e        ..      ADDS     r6,r5,#4
        0x00012440:    9000        ..      STR      r0,[sp,#0]
        0x00012442:    4630        0F      MOV      r0,r6
        0x00012444:    f7fbfffa    ....    BL       am_hal_flash_load_ui32 ; 0xe43c
        0x00012448:    f4206077     .w`    BIC      r0,r0,#0xf70
        0x0001244c:    ea401007    @...    ORR      r0,r0,r7,LSL #4
        0x00012450:    f50061e0    ...a    ADD      r1,r0,#0x700
        0x00012454:    4630        0F      MOV      r0,r6
        0x00012456:    f7fbfff5    ....    BL       am_hal_flash_store_ui32 ; 0xe444
        0x0001245a:    9800        ..      LDR      r0,[sp,#0]
        0x0001245c:    f7fcf9a0    ....    BL       am_hal_interrupt_master_set ; 0xe7a0
        0x00012460:    f7fcf996    ....    BL       am_hal_interrupt_master_disable ; 0xe790
        0x00012464:    f1050608    ....    ADD      r6,r5,#8
        0x00012468:    9000        ..      STR      r0,[sp,#0]
        0x0001246a:    4630        0F      MOV      r0,r6
        0x0001246c:    f7fbffe6    ....    BL       am_hal_flash_load_ui32 ; 0xe43c
        0x00012470:    f4206077     .w`    BIC      r0,r0,#0xf70
        0x00012474:    ea401007    @...    ORR      r0,r0,r7,LSL #4
        0x00012478:    f50061e0    ...a    ADD      r1,r0,#0x700
        0x0001247c:    4630        0F      MOV      r0,r6
        0x0001247e:    f7fbffe1    ....    BL       am_hal_flash_store_ui32 ; 0xe444
        0x00012482:    9800        ..      LDR      r0,[sp,#0]
        0x00012484:    f7fcf98c    ....    BL       am_hal_interrupt_master_set ; 0xe7a0
        0x00012488:    f7fcf982    ....    BL       am_hal_interrupt_master_disable ; 0xe790
        0x0001248c:    350c        .5      ADDS     r5,r5,#0xc
        0x0001248e:    9000        ..      STR      r0,[sp,#0]
        0x00012490:    4628        (F      MOV      r0,r5
        0x00012492:    f7fbffd3    ....    BL       am_hal_flash_load_ui32 ; 0xe43c
        0x00012496:    f4206077     .w`    BIC      r0,r0,#0xf70
        0x0001249a:    ea401007    @...    ORR      r0,r0,r7,LSL #4
        0x0001249e:    f50061e0    ...a    ADD      r1,r0,#0x700
        0x000124a2:    4628        (F      MOV      r0,r5
        0x000124a4:    f7fbffce    ....    BL       am_hal_flash_store_ui32 ; 0xe444
        0x000124a8:    9800        ..      LDR      r0,[sp,#0]
        0x000124aa:    f7fcf979    ..y.    BL       am_hal_interrupt_master_set ; 0xe7a0
        0x000124ae:    2000        .       MOVS     r0,#0
        0x000124b0:    2c08        .,      CMP      r4,#8
        0x000124b2:    bf38        8.      IT       CC
        0x000124b4:    2001        .       MOVCC    r0,#1
        0x000124b6:    b001        ..      ADD      sp,sp,#4
        0x000124b8:    bdf0        ..      POP      {r4-r7,pc}
        0x000124ba:    0000        ..      MOVS     r0,r0
    simple_strlen
        0x000124bc:    b083        ..      SUB      sp,sp,#0xc
        0x000124be:    9001        ..      STR      r0,[sp,#4]
        0x000124c0:    2000        .       MOVS     r0,#0
        0x000124c2:    9000        ..      STR      r0,[sp,#0]
        0x000124c4:    9801        ..      LDR      r0,[sp,#4]
        0x000124c6:    b918        ..      CBNZ     r0,0x124d0 ; simple_strlen + 20
        0x000124c8:    e7ff        ..      B        0x124ca ; simple_strlen + 14
        0x000124ca:    9800        ..      LDR      r0,[sp,#0]
        0x000124cc:    9002        ..      STR      r0,[sp,#8]
        0x000124ce:    e00d        ..      B        0x124ec ; simple_strlen + 48
        0x000124d0:    e7ff        ..      B        0x124d2 ; simple_strlen + 22
        0x000124d2:    9801        ..      LDR      r0,[sp,#4]
        0x000124d4:    1c41        A.      ADDS     r1,r0,#1
        0x000124d6:    9101        ..      STR      r1,[sp,#4]
        0x000124d8:    7800        .x      LDRB     r0,[r0,#0]
        0x000124da:    b120         .      CBZ      r0,0x124e6 ; simple_strlen + 42
        0x000124dc:    e7ff        ..      B        0x124de ; simple_strlen + 34
        0x000124de:    9800        ..      LDR      r0,[sp,#0]
        0x000124e0:    3001        .0      ADDS     r0,#1
        0x000124e2:    9000        ..      STR      r0,[sp,#0]
        0x000124e4:    e7f5        ..      B        0x124d2 ; simple_strlen + 22
        0x000124e6:    9800        ..      LDR      r0,[sp,#0]
        0x000124e8:    9002        ..      STR      r0,[sp,#8]
        0x000124ea:    e7ff        ..      B        0x124ec ; simple_strlen + 48
        0x000124ec:    9802        ..      LDR      r0,[sp,#8]
        0x000124ee:    b003        ..      ADD      sp,sp,#0xc
        0x000124f0:    4770        pG      BX       lr
        0x000124f2:    0000        ..      MOVS     r0,r0
    uint64_to_hexstr
        0x000124f4:    b08c        ..      SUB      sp,sp,#0x30
        0x000124f6:    910b        ..      STR      r1,[sp,#0x2c]
        0x000124f8:    900a        ..      STR      r0,[sp,#0x28]
        0x000124fa:    9209        ..      STR      r2,[sp,#0x24]
        0x000124fc:    f88d3023    ..#0    STRB     r3,[sp,#0x23]
        0x00012500:    2000        .       MOVS     r0,#0
        0x00012502:    9006        ..      STR      r0,[sp,#0x18]
        0x00012504:    980a        ..      LDR      r0,[sp,#0x28]
        0x00012506:    990b        ..      LDR      r1,[sp,#0x2c]
        0x00012508:    4308        .C      ORRS     r0,r0,r1
        0x0001250a:    b940        @.      CBNZ     r0,0x1251e ; uint64_to_hexstr + 42
        0x0001250c:    e7ff        ..      B        0x1250e ; uint64_to_hexstr + 26
        0x0001250e:    9a06        ..      LDR      r2,[sp,#0x18]
        0x00012510:    1c50        P.      ADDS     r0,r2,#1
        0x00012512:    9006        ..      STR      r0,[sp,#0x18]
        0x00012514:    f10d0103    ....    ADD      r1,sp,#3
        0x00012518:    2030        0       MOVS     r0,#0x30
        0x0001251a:    5488        .T      STRB     r0,[r1,r2]
        0x0001251c:    e7ff        ..      B        0x1251e ; uint64_to_hexstr + 42
        0x0001251e:    e7ff        ..      B        0x12520 ; uint64_to_hexstr + 44
        0x00012520:    980a        ..      LDR      r0,[sp,#0x28]
        0x00012522:    990b        ..      LDR      r1,[sp,#0x2c]
        0x00012524:    4308        .C      ORRS     r0,r0,r1
        0x00012526:    b350        P.      CBZ      r0,0x1257e ; uint64_to_hexstr + 138
        0x00012528:    e7ff        ..      B        0x1252a ; uint64_to_hexstr + 54
        0x0001252a:    f89d0028    ..(.    LDRB     r0,[sp,#0x28]
        0x0001252e:    f000000f    ....    AND      r0,r0,#0xf
        0x00012532:    f88d0017    ....    STRB     r0,[sp,#0x17]
        0x00012536:    f89d0017    ....    LDRB     r0,[sp,#0x17]
        0x0001253a:    280a        .(      CMP      r0,#0xa
        0x0001253c:    db0d        ..      BLT      0x1255a ; uint64_to_hexstr + 102
        0x0001253e:    e7ff        ..      B        0x12540 ; uint64_to_hexstr + 76
        0x00012540:    f89d0023    ..#.    LDRB     r0,[sp,#0x23]
        0x00012544:    07c0        ..      LSLS     r0,r0,#31
        0x00012546:    2107        .!      MOVS     r1,#7
        0x00012548:    2800        .(      CMP      r0,#0
        0x0001254a:    bf18        ..      IT       NE
        0x0001254c:    2127        '!      MOVNE    r1,#0x27
        0x0001254e:    f89d0017    ....    LDRB     r0,[sp,#0x17]
        0x00012552:    4408        .D      ADD      r0,r0,r1
        0x00012554:    f88d0017    ....    STRB     r0,[sp,#0x17]
        0x00012558:    e7ff        ..      B        0x1255a ; uint64_to_hexstr + 102
        0x0001255a:    f89d0017    ....    LDRB     r0,[sp,#0x17]
        0x0001255e:    3030        00      ADDS     r0,r0,#0x30
        0x00012560:    9a06        ..      LDR      r2,[sp,#0x18]
        0x00012562:    1c51        Q.      ADDS     r1,r2,#1
        0x00012564:    9106        ..      STR      r1,[sp,#0x18]
        0x00012566:    f10d0103    ....    ADD      r1,sp,#3
        0x0001256a:    5488        .T      STRB     r0,[r1,r2]
        0x0001256c:    980a        ..      LDR      r0,[sp,#0x28]
        0x0001256e:    990b        ..      LDR      r1,[sp,#0x2c]
        0x00012570:    0900        ..      LSRS     r0,r0,#4
        0x00012572:    ea407001    @..p    ORR      r0,r0,r1,LSL #28
        0x00012576:    0909        ..      LSRS     r1,r1,#4
        0x00012578:    910b        ..      STR      r1,[sp,#0x2c]
        0x0001257a:    900a        ..      STR      r0,[sp,#0x28]
        0x0001257c:    e7d0        ..      B        0x12520 ; uint64_to_hexstr + 44
        0x0001257e:    9806        ..      LDR      r0,[sp,#0x18]
        0x00012580:    9007        ..      STR      r0,[sp,#0x1c]
        0x00012582:    9809        ..      LDR      r0,[sp,#0x24]
        0x00012584:    b198        ..      CBZ      r0,0x125ae ; uint64_to_hexstr + 186
        0x00012586:    e7ff        ..      B        0x12588 ; uint64_to_hexstr + 148
        0x00012588:    e7ff        ..      B        0x1258a ; uint64_to_hexstr + 150
        0x0001258a:    9806        ..      LDR      r0,[sp,#0x18]
        0x0001258c:    1e41        A.      SUBS     r1,r0,#1
        0x0001258e:    9106        ..      STR      r1,[sp,#0x18]
        0x00012590:    b148        H.      CBZ      r0,0x125a6 ; uint64_to_hexstr + 178
        0x00012592:    e7ff        ..      B        0x12594 ; uint64_to_hexstr + 160
        0x00012594:    9906        ..      LDR      r1,[sp,#0x18]
        0x00012596:    f10d0003    ....    ADD      r0,sp,#3
        0x0001259a:    5c40        @\      LDRB     r0,[r0,r1]
        0x0001259c:    9909        ..      LDR      r1,[sp,#0x24]
        0x0001259e:    1c4a        J.      ADDS     r2,r1,#1
        0x000125a0:    9209        ..      STR      r2,[sp,#0x24]
        0x000125a2:    7008        .p      STRB     r0,[r1,#0]
        0x000125a4:    e7f1        ..      B        0x1258a ; uint64_to_hexstr + 150
        0x000125a6:    9909        ..      LDR      r1,[sp,#0x24]
        0x000125a8:    2000        .       MOVS     r0,#0
        0x000125aa:    7008        .p      STRB     r0,[r1,#0]
        0x000125ac:    e7ff        ..      B        0x125ae ; uint64_to_hexstr + 186
        0x000125ae:    9807        ..      LDR      r0,[sp,#0x1c]
        0x000125b0:    b00c        ..      ADD      sp,sp,#0x30
        0x000125b2:    4770        pG      BX       lr
    uint64_to_str
        0x000125b4:    b580        ..      PUSH     {r7,lr}
        0x000125b6:    b090        ..      SUB      sp,sp,#0x40
        0x000125b8:    910f        ..      STR      r1,[sp,#0x3c]
        0x000125ba:    900e        ..      STR      r0,[sp,#0x38]
        0x000125bc:    920d        ..      STR      r2,[sp,#0x34]
        0x000125be:    2000        .       MOVS     r0,#0
        0x000125c0:    9005        ..      STR      r0,[sp,#0x14]
        0x000125c2:    9004        ..      STR      r0,[sp,#0x10]
        0x000125c4:    e7ff        ..      B        0x125c6 ; uint64_to_str + 18
        0x000125c6:    980e        ..      LDR      r0,[sp,#0x38]
        0x000125c8:    990f        ..      LDR      r1,[sp,#0x3c]
        0x000125ca:    f7fefeb7    ....    BL       divu64_10 ; 0x1133c
        0x000125ce:    9101        ..      STR      r1,[sp,#4]
        0x000125d0:    9000        ..      STR      r0,[sp,#0]
        0x000125d2:    980e        ..      LDR      r0,[sp,#0x38]
        0x000125d4:    9900        ..      LDR      r1,[sp,#0]
        0x000125d6:    eb010181    ....    ADD      r1,r1,r1,LSL #2
        0x000125da:    eba00041    ..A.    SUB      r0,r0,r1,LSL #1
        0x000125de:    9003        ..      STR      r0,[sp,#0xc]
        0x000125e0:    9803        ..      LDR      r0,[sp,#0xc]
        0x000125e2:    3030        00      ADDS     r0,r0,#0x30
        0x000125e4:    9a05        ..      LDR      r2,[sp,#0x14]
        0x000125e6:    1c51        Q.      ADDS     r1,r2,#1
        0x000125e8:    9105        ..      STR      r1,[sp,#0x14]
        0x000125ea:    f10d011b    ....    ADD      r1,sp,#0x1b
        0x000125ee:    5488        .T      STRB     r0,[r1,r2]
        0x000125f0:    9800        ..      LDR      r0,[sp,#0]
        0x000125f2:    9901        ..      LDR      r1,[sp,#4]
        0x000125f4:    910f        ..      STR      r1,[sp,#0x3c]
        0x000125f6:    900e        ..      STR      r0,[sp,#0x38]
        0x000125f8:    e7ff        ..      B        0x125fa ; uint64_to_str + 70
        0x000125fa:    980e        ..      LDR      r0,[sp,#0x38]
        0x000125fc:    990f        ..      LDR      r1,[sp,#0x3c]
        0x000125fe:    4308        .C      ORRS     r0,r0,r1
        0x00012600:    2800        .(      CMP      r0,#0
        0x00012602:    d1e0        ..      BNE      0x125c6 ; uint64_to_str + 18
        0x00012604:    e7ff        ..      B        0x12606 ; uint64_to_str + 82
        0x00012606:    9805        ..      LDR      r0,[sp,#0x14]
        0x00012608:    9004        ..      STR      r0,[sp,#0x10]
        0x0001260a:    980d        ..      LDR      r0,[sp,#0x34]
        0x0001260c:    b198        ..      CBZ      r0,0x12636 ; uint64_to_str + 130
        0x0001260e:    e7ff        ..      B        0x12610 ; uint64_to_str + 92
        0x00012610:    e7ff        ..      B        0x12612 ; uint64_to_str + 94
        0x00012612:    9805        ..      LDR      r0,[sp,#0x14]
        0x00012614:    1e41        A.      SUBS     r1,r0,#1
        0x00012616:    9105        ..      STR      r1,[sp,#0x14]
        0x00012618:    b148        H.      CBZ      r0,0x1262e ; uint64_to_str + 122
        0x0001261a:    e7ff        ..      B        0x1261c ; uint64_to_str + 104
        0x0001261c:    9905        ..      LDR      r1,[sp,#0x14]
        0x0001261e:    f10d001b    ....    ADD      r0,sp,#0x1b
        0x00012622:    5c40        @\      LDRB     r0,[r0,r1]
        0x00012624:    990d        ..      LDR      r1,[sp,#0x34]
        0x00012626:    1c4a        J.      ADDS     r2,r1,#1
        0x00012628:    920d        ..      STR      r2,[sp,#0x34]
        0x0001262a:    7008        .p      STRB     r0,[r1,#0]
        0x0001262c:    e7f1        ..      B        0x12612 ; uint64_to_str + 94
        0x0001262e:    990d        ..      LDR      r1,[sp,#0x34]
        0x00012630:    2000        .       MOVS     r0,#0
        0x00012632:    7008        .p      STRB     r0,[r1,#0]
        0x00012634:    e7ff        ..      B        0x12636 ; uint64_to_str + 130
        0x00012636:    9804        ..      LDR      r0,[sp,#0x10]
        0x00012638:    b010        ..      ADD      sp,sp,#0x40
        0x0001263a:    bd80        ..      POP      {r7,pc}
    $t
    x$fpl$d2f
    $v0
    __aeabi_d2f
    _d2f
        0x0001263c:    f0214200    !..B    BIC      r2,r1,#0x80000000
        0x00012640:    f0014300    ...C    AND      r3,r1,#0x80000000
        0x00012644:    f1a25260    ..`R    SUB      r2,r2,#0x38000000
        0x00012648:    f5b21f80    ....    CMP      r2,#0x100000
        0x0001264c:    bf28        (.      IT       CS
        0x0001264e:    f1d26c7f    ...l    RSBSCS   r12,r2,#0xff00000
        0x00012652:    d90b        ..      BLS      0x1266c ; __aeabi_d2f + 48
        0x00012654:    ea5f1c00    _...    LSLS     r12,r0,#4
        0x00012658:    ea4302c2    C...    ORR      r2,r3,r2,LSL #3
        0x0001265c:    eb427050    B.Pp    ADC      r0,r2,r0,LSR #29
        0x00012660:    bf18        ..      IT       NE
        0x00012662:    4770        pG      BXNE     lr
        0x00012664:    bf28        (.      IT       CS
        0x00012666:    f0200001     ...    BICCS    r0,r0,#1
        0x0001266a:    4770        pG      BX       lr
        0x0001266c:    f5b21f80    ....    CMP      r2,#0x100000
        0x00012670:    bfbc        ..      ITT      LT
        0x00012672:    4618        .F      MOVLT    r0,r3
        0x00012674:    4770        pG      BXLT     lr
        0x00012676:    ea4f0c41    O.A.    LSL      r12,r1,#1
        0x0001267a:    f51c1f00    ....    CMN      r12,#0x200000
        0x0001267e:    d202        ..      BCS      0x12686 ; __aeabi_d2f + 74
        0x00012680:    4608        .F      MOV      r0,r1
        0x00012682:    f000b867    ..g.    B.W      __fpl_fretinf ; 0x12754
        0x00012686:    b570        p.      PUSH     {r4-r6,lr}
        0x00012688:    f000f809    ....    BL       __fpl_dnaninf ; 0x1269e
    $d
        0x0001268c:    89000000    ....    DCD    2298478592
    $t
        0x00012690:    f7ffbff6    ....    B.W      0x12680 ; __aeabi_d2f + 68
        0x00012694:    f04f4000    O..@    MOV      r0,#0x80000000
        0x00012698:    f5a00080    ....    SUB      r0,r0,#0x400000
        0x0001269c:    4770        pG      BX       lr
    x$fpl$dnaninf
    $v0
    __fpl_dnaninf
        0x0001269e:    f10e0e02    ....    ADD      lr,lr,#2
        0x000126a2:    f02e0e03    ....    BIC      lr,lr,#3
        0x000126a6:    f85e6b04    ^..k    LDR      r6,[lr],#4
        0x000126aa:    4236        6B      TST      r6,r6
        0x000126ac:    d405        ..      BMI      0x126ba ; __fpl_dnaninf + 28
        0x000126ae:    2a01        .*      CMP      r2,#1
        0x000126b0:    eb430503    C...    ADC      r5,r3,r3
        0x000126b4:    f5151f00    ....    CMN      r5,#0x200000
        0x000126b8:    d812        ..      BHI      0x126e0 ; __fpl_dnaninf + 66
        0x000126ba:    2801        .(      CMP      r0,#1
        0x000126bc:    eb410c01    A...    ADC      r12,r1,r1
        0x000126c0:    f51c1f00    ....    CMN      r12,#0x200000
        0x000126c4:    d80c        ..      BHI      0x126e0 ; __fpl_dnaninf + 66
        0x000126c6:    d10e        ..      BNE      0x126e6 ; __fpl_dnaninf + 72
        0x000126c8:    ea4f7cd1    O..|    LSR      r12,r1,#31
        0x000126cc:    eb0c0c4c    ..L.    ADD      r12,r12,r12,LSL #1
        0x000126d0:    f10c0c02    ....    ADD      r12,r12,#2
        0x000126d4:    f5151f00    ....    CMN      r5,#0x200000
        0x000126d8:    bf08        ..      IT       EQ
        0x000126da:    eb4c7cd3    L..|    ADCEQ    r12,r12,r3,LSR #31
        0x000126de:    e004        ..      B        0x126ea ; __fpl_dnaninf + 76
        0x000126e0:    f04f0c08    O...    MOV      r12,#8
        0x000126e4:    e001        ..      B        0x126ea ; __fpl_dnaninf + 76
        0x000126e6:    ea4f7cd3    O..|    LSR      r12,r3,#31
        0x000126ea:    eb0c054c    ..L.    ADD      r5,r12,r12,LSL #1
        0x000126ee:    fa26f605    &...    LSR      r6,r6,r5
        0x000126f2:    f0060607    ....    AND      r6,r6,#7
        0x000126f6:    f1b60c04    ....    SUBS     r12,r6,#4
        0x000126fa:    d206        ..      BCS      0x1270a ; __fpl_dnaninf + 108
        0x000126fc:    eb0e0c86    ....    ADD      r12,lr,r6,LSL #2
        0x00012700:    e8bd4070    ..p@    POP      {r4-r6,lr}
        0x00012704:    f04c0c01    L...    ORR      r12,r12,#1
        0x00012708:    4760        `G      BX       r12
        0x0001270a:    e8dff00c    ....    TBB      [pc,r12]
    $d
        0x0001270e:    0b09        ..      DCW    2825
        0x00012710:    0202        ..      DCW    514
    $t
        0x00012712:    f04f4100    O..A    MOV      r1,#0x80000000
        0x00012716:    f5a12100    ...!    SUB      r1,r1,#0x80000
        0x0001271a:    f04f0000    O...    MOV      r0,#0
        0x0001271e:    bd70        p.      POP      {r4-r6,pc}
        0x00012720:    4619        .F      MOV      r1,r3
        0x00012722:    4610        .F      MOV      r0,r2
        0x00012724:    2801        .(      CMP      r0,#1
        0x00012726:    eb510401    Q...    ADCS     r4,r1,r1
        0x0001272a:    bf18        ..      IT       NE
        0x0001272c:    f5d41400    ....    RSBSNE   r4,r4,#0x200000
        0x00012730:    bf84        ..      ITT      HI
        0x00012732:    2000        .       MOVHI    r0,#0
        0x00012734:    f0014100    ...A    ANDHI    r1,r1,#0x80000000
        0x00012738:    bd70        p.      POP      {r4-r6,pc}
    x$fpl$fpinit
    $v0
    _fp_init
        0x0001273a:    eef10a10    ....    VMRS     r0,FPSCR
        0x0001273e:    f64f71ff    O..q    MOV      r1,#0xffff
        0x00012742:    f2c031c0    ...1    MOVT     r1,#0x3c0
        0x00012746:    ea200001     ...    BIC      r0,r0,r1
        0x0001274a:    f0407040    @.@p    ORR      r0,r0,#0x3000000
        0x0001274e:    eee10a10    ....    VMSR     FPSCR,r0
    __fplib_config_fpu_vfp
    __fplib_config_pureend_doubles
        0x00012752:    4770        pG      BX       lr
    x$fpl$fretinf
    $v0
    __fpl_fretinf
        0x00012754:    21ff        .!      MOVS     r1,#0xff
        0x00012756:    ea4150d0    A..P    ORR      r0,r1,r0,LSR #23
        0x0001275a:    05c0        ..      LSLS     r0,r0,#23
        0x0001275c:    4770        pG      BX       lr
    x$fpl$usenofp
    __I$use$fp
        0x0001275e:    0000        ..      MOVS     r0,r0
    $d.realdata
    MSPI_Flash_Config
        0x00012760:    00000206    ....    DCD    518
        0x00012764:    100111dc    ....    DCD    268505564
        0x00012768:    00000a00    ....    DCD    2560
        0x0001276c:    00000000    ....    DCD    0
        0x00012770:    00000000    ....    DCD    0
    am_hal_cachectrl_defaults
        0x00012774:    00000308    ....    DCD    776
    am_hal_pwrctrl_peripheral_control
        0x00012778:    00000000    ....    DCD    0
        0x0001277c:    00000000    ....    DCD    0
        0x00012780:    00000000    ....    DCD    0
        0x00012784:    00000001    ....    DCD    1
        0x00012788:    00000004    ....    DCD    4
        0x0001278c:    00000004    ....    DCD    4
        0x00012790:    00000002    ....    DCD    2
        0x00012794:    00000008    ....    DCD    8
        0x00012798:    00000008    ....    DCD    8
        0x0001279c:    00000004    ....    DCD    4
        0x000127a0:    00000008    ....    DCD    8
        0x000127a4:    00000008    ....    DCD    8
        0x000127a8:    00000008    ....    DCD    8
        0x000127ac:    00000008    ....    DCD    8
        0x000127b0:    00000008    ....    DCD    8
        0x000127b4:    00000010    ....    DCD    16
        0x000127b8:    00000010    ....    DCD    16
        0x000127bc:    00000010    ....    DCD    16
        0x000127c0:    00000020     ...    DCD    32
        0x000127c4:    00000010    ....    DCD    16
        0x000127c8:    00000010    ....    DCD    16
        0x000127cc:    00000040    @...    DCD    64
        0x000127d0:    00000010    ....    DCD    16
        0x000127d4:    00000010    ....    DCD    16
        0x000127d8:    00000080    ....    DCD    128
        0x000127dc:    00000004    ....    DCD    4
        0x000127e0:    00000004    ....    DCD    4
        0x000127e4:    00000100    ....    DCD    256
        0x000127e8:    00000004    ....    DCD    4
        0x000127ec:    00000004    ....    DCD    4
        0x000127f0:    00000200    ....    DCD    512
        0x000127f4:    00000020     ...    DCD    32
        0x000127f8:    00000020     ...    DCD    32
        0x000127fc:    00000400    ....    DCD    1024
        0x00012800:    00000004    ....    DCD    4
        0x00012804:    00000004    ....    DCD    4
        0x00012808:    00000800    ....    DCD    2048
        0x0001280c:    00000040    @...    DCD    64
        0x00012810:    00000040    @...    DCD    64
        0x00012814:    00001000    ....    DCD    4096
        0x00012818:    00000040    @...    DCD    64
        0x0001281c:    00000040    @...    DCD    64
        0x00012820:    00002000    . ..    DCD    8192
        0x00012824:    00000040    @...    DCD    64
        0x00012828:    00000040    @...    DCD    64
        0x0001282c:    00004000    .@..    DCD    16384
        0x00012830:    00000080    ....    DCD    128
        0x00012834:    00000080    ....    DCD    128
        0x00012838:    00008000    ....    DCD    32768
        0x0001283c:    00000100    ....    DCD    256
        0x00012840:    00000100    ....    DCD    256
    gAmHalCmdQReg
        0x00012844:    50004294    .B.P    DCD    1342194324
        0x00012848:    50004298    .B.P    DCD    1342194328
        0x0001284c:    500042ac    .B.P    DCD    1342194348
        0x00012850:    500042b0    .B.P    DCD    1342194352
        0x00012854:    500042a8    .B.P    DCD    1342194344
        0x00012858:    00008000    ....    DCD    32768
        0x0001285c:    5000429c    .B.P    DCD    1342194332
        0x00012860:    00000001    ....    DCD    1
        0x00012864:    00000004    ....    DCD    4
        0x00012868:    00000002    ....    DCD    2
        0x0001286c:    50005294    .R.P    DCD    1342198420
        0x00012870:    50005298    .R.P    DCD    1342198424
        0x00012874:    500052ac    .R.P    DCD    1342198444
        0x00012878:    500052b0    .R.P    DCD    1342198448
        0x0001287c:    500052a8    .R.P    DCD    1342198440
        0x00012880:    00008000    ....    DCD    32768
        0x00012884:    5000529c    .R.P    DCD    1342198428
        0x00012888:    00000001    ....    DCD    1
        0x0001288c:    00000004    ....    DCD    4
        0x00012890:    00000002    ....    DCD    2
        0x00012894:    50006294    .b.P    DCD    1342202516
        0x00012898:    50006298    .b.P    DCD    1342202520
        0x0001289c:    500062ac    .b.P    DCD    1342202540
        0x000128a0:    500062b0    .b.P    DCD    1342202544
        0x000128a4:    500062a8    .b.P    DCD    1342202536
        0x000128a8:    00008000    ....    DCD    32768
        0x000128ac:    5000629c    .b.P    DCD    1342202524
        0x000128b0:    00000001    ....    DCD    1
        0x000128b4:    00000004    ....    DCD    4
        0x000128b8:    00000002    ....    DCD    2
        0x000128bc:    50007294    .r.P    DCD    1342206612
        0x000128c0:    50007298    .r.P    DCD    1342206616
        0x000128c4:    500072ac    .r.P    DCD    1342206636
        0x000128c8:    500072b0    .r.P    DCD    1342206640
        0x000128cc:    500072a8    .r.P    DCD    1342206632
        0x000128d0:    00008000    ....    DCD    32768
        0x000128d4:    5000729c    .r.P    DCD    1342206620
        0x000128d8:    00000001    ....    DCD    1
        0x000128dc:    00000004    ....    DCD    4
        0x000128e0:    00000002    ....    DCD    2
        0x000128e4:    50008294    ...P    DCD    1342210708
        0x000128e8:    50008298    ...P    DCD    1342210712
        0x000128ec:    500082ac    ...P    DCD    1342210732
        0x000128f0:    500082b0    ...P    DCD    1342210736
        0x000128f4:    500082a8    ...P    DCD    1342210728
        0x000128f8:    00008000    ....    DCD    32768
        0x000128fc:    5000829c    ...P    DCD    1342210716
        0x00012900:    00000001    ....    DCD    1
        0x00012904:    00000004    ....    DCD    4
        0x00012908:    00000002    ....    DCD    2
        0x0001290c:    50009294    ...P    DCD    1342214804
        0x00012910:    50009298    ...P    DCD    1342214808
        0x00012914:    500092ac    ...P    DCD    1342214828
        0x00012918:    500092b0    ...P    DCD    1342214832
        0x0001291c:    500092a8    ...P    DCD    1342214824
        0x00012920:    00008000    ....    DCD    32768
        0x00012924:    5000929c    ...P    DCD    1342214812
        0x00012928:    00000001    ....    DCD    1
        0x0001292c:    00000004    ....    DCD    4
        0x00012930:    00000002    ....    DCD    2
        0x00012934:    500142a0    .B.P    DCD    1342259872
        0x00012938:    500142a8    .B.P    DCD    1342259880
        0x0001293c:    500142c0    .B.P    DCD    1342259904
        0x00012940:    500142c4    .B.P    DCD    1342259908
        0x00012944:    500142b8    .B.P    DCD    1342259896
        0x00012948:    00004000    .@..    DCD    16384
        0x0001294c:    500142ac    .B.P    DCD    1342259884
        0x00012950:    00000001    ....    DCD    1
        0x00012954:    00000004    ....    DCD    4
        0x00012958:    00000008    ....    DCD    8
        0x0001295c:    500152a0    .R.P    DCD    1342263968
        0x00012960:    500152a8    .R.P    DCD    1342263976
        0x00012964:    500152c0    .R.P    DCD    1342264000
        0x00012968:    500152c4    .R.P    DCD    1342264004
        0x0001296c:    500152b8    .R.P    DCD    1342263992
        0x00012970:    00004000    .@..    DCD    16384
        0x00012974:    500152ac    .R.P    DCD    1342263980
        0x00012978:    00000001    ....    DCD    1
        0x0001297c:    00000004    ....    DCD    4
        0x00012980:    00000008    ....    DCD    8
        0x00012984:    500162a0    .b.P    DCD    1342268064
        0x00012988:    500162a8    .b.P    DCD    1342268072
        0x0001298c:    500162c0    .b.P    DCD    1342268096
        0x00012990:    500162c4    .b.P    DCD    1342268100
        0x00012994:    500162b8    .b.P    DCD    1342268088
        0x00012998:    00004000    .@..    DCD    16384
        0x0001299c:    500162ac    .b.P    DCD    1342268076
        0x000129a0:    00000001    ....    DCD    1
        0x000129a4:    00000004    ....    DCD    4
        0x000129a8:    00000008    ....    DCD    8
        0x000129ac:    5000c248    H..P    DCD    1342227016
        0x000129b0:    5000c24c    L..P    DCD    1342227020
        0x000129b4:    5000c260    `..P    DCD    1342227040
        0x000129b8:    5000c264    d..P    DCD    1342227044
        0x000129bc:    5000c25c    \..P    DCD    1342227036
        0x000129c0:    00008000    ....    DCD    32768
        0x000129c4:    5000c250    P..P    DCD    1342227024
        0x000129c8:    00000001    ....    DCD    1
        0x000129cc:    00000004    ....    DCD    4
        0x000129d0:    00000002    ....    DCD    2
    g_AM_BSP_GPIO_DSPL0_CE0
        0x000129d4:    00000701    ....    DCD    1793
    g_AM_BSP_GPIO_DSPL0_D0
        0x000129d8:    00000206    ....    DCD    518
    g_AM_BSP_GPIO_DSPL0_D1
        0x000129dc:    00000205    ....    DCD    517
    g_AM_BSP_GPIO_DSPL0_D2
        0x000129e0:    00000207    ....    DCD    519
    g_AM_BSP_GPIO_DSPL0_D3
        0x000129e4:    00000206    ....    DCD    518
    g_AM_BSP_GPIO_DSPL0_SCK
        0x000129e8:    00000202    ....    DCD    514
    g_AM_BSP_GPIO_FLASH0_CE0
        0x000129ec:    00040701    ....    DCD    263937
    g_AM_BSP_GPIO_FLASH0_D0
        0x000129f0:    00040200    ....    DCD    262656
    g_AM_BSP_GPIO_FLASH0_D1
        0x000129f4:    00040200    ....    DCD    262656
    g_AM_BSP_GPIO_FLASH0_D2
        0x000129f8:    00040200    ....    DCD    262656
    g_AM_BSP_GPIO_FLASH0_D3
        0x000129fc:    00040200    ....    DCD    262656
    g_AM_BSP_GPIO_FLASH0_SCK
        0x00012a00:    00040200    ....    DCD    262656
    g_AM_BSP_GPIO_FLASH1_CE0
        0x00012a04:    00020701    ....    DCD    132865
    g_AM_BSP_GPIO_FLASH1_D0
        0x00012a08:    00020200    ....    DCD    131584
    g_AM_BSP_GPIO_FLASH1_D1
        0x00012a0c:    00020200    ....    DCD    131584
    g_AM_BSP_GPIO_FLASH1_D2
        0x00012a10:    00020200    ....    DCD    131584
    g_AM_BSP_GPIO_FLASH1_D3
        0x00012a14:    00020200    ....    DCD    131584
    g_AM_BSP_GPIO_FLASH1_D4
        0x00012a18:    00020200    ....    DCD    131584
    g_AM_BSP_GPIO_FLASH1_D5
        0x00012a1c:    00020200    ....    DCD    131584
    g_AM_BSP_GPIO_FLASH1_D6
        0x00012a20:    00020200    ....    DCD    131584
    g_AM_BSP_GPIO_FLASH1_D7
        0x00012a24:    00020200    ....    DCD    131584
    g_AM_BSP_GPIO_FLASH1_DS
        0x00012a28:    00020200    ....    DCD    131584
    g_AM_BSP_GPIO_FLASH1_SCK
        0x00012a2c:    00020200    ....    DCD    131584
    g_AM_BSP_GPIO_ITM_SWO
        0x00012a30:    00000002    ....    DCD    2
    g_AM_BSP_GPIO_MSPI0_CE0
        0x00012a34:    00000701    ....    DCD    1793
    g_AM_BSP_GPIO_MSPI0_CE1
        0x00012a38:    00000701    ....    DCD    1793
    g_AM_BSP_GPIO_MSPI0_D0
        0x00012a3c:    00000206    ....    DCD    518
    g_AM_BSP_GPIO_MSPI0_D1
        0x00012a40:    00000205    ....    DCD    517
    g_AM_BSP_GPIO_MSPI0_D2
        0x00012a44:    00000207    ....    DCD    519
    g_AM_BSP_GPIO_MSPI0_D3
        0x00012a48:    00000206    ....    DCD    518
    g_AM_BSP_GPIO_MSPI0_SCK
        0x00012a4c:    00000302    ....    DCD    770
    g_AM_BSP_GPIO_MSPI1_CE0
        0x00012a50:    00020701    ....    DCD    132865
    g_AM_BSP_GPIO_MSPI1_CE1
        0x00012a54:    00000701    ....    DCD    1793
    g_AM_BSP_GPIO_MSPI1_D0
        0x00012a58:    00020200    ....    DCD    131584
    g_AM_BSP_GPIO_MSPI1_D1
        0x00012a5c:    00020200    ....    DCD    131584
    g_AM_BSP_GPIO_MSPI1_D2
        0x00012a60:    00020200    ....    DCD    131584
    g_AM_BSP_GPIO_MSPI1_D3
        0x00012a64:    00020200    ....    DCD    131584
    g_AM_BSP_GPIO_MSPI1_D4
        0x00012a68:    00020200    ....    DCD    131584
    g_AM_BSP_GPIO_MSPI1_D5
        0x00012a6c:    00020200    ....    DCD    131584
    g_AM_BSP_GPIO_MSPI1_D6
        0x00012a70:    00020200    ....    DCD    131584
    g_AM_BSP_GPIO_MSPI1_D7
        0x00012a74:    00020200    ....    DCD    131584
    g_AM_BSP_GPIO_MSPI1_DMDQS
        0x00012a78:    00020300    ....    DCD    131840
    g_AM_BSP_GPIO_MSPI1_SCK
        0x00012a7c:    00020300    ....    DCD    131840
    g_AM_BSP_GPIO_MSPI2_CE0
        0x00012a80:    00040701    ....    DCD    263937
    g_AM_BSP_GPIO_MSPI2_CE1
        0x00012a84:    00000701    ....    DCD    1793
    g_AM_BSP_GPIO_MSPI2_D0
        0x00012a88:    00040200    ....    DCD    262656
    g_AM_BSP_GPIO_MSPI2_D1
        0x00012a8c:    00040200    ....    DCD    262656
    g_AM_BSP_GPIO_MSPI2_D2
        0x00012a90:    00040200    ....    DCD    262656
    g_AM_BSP_GPIO_MSPI2_D3
        0x00012a94:    00040200    ....    DCD    262656
    g_AM_BSP_GPIO_MSPI2_SCK
        0x00012a98:    00040200    ....    DCD    262656
    g_AM_BSP_GPIO_PSRAM_CE0
        0x00012a9c:    00020701    ....    DCD    132865
    g_AM_BSP_GPIO_PSRAM_D0
        0x00012aa0:    00020200    ....    DCD    131584
    g_AM_BSP_GPIO_PSRAM_D1
        0x00012aa4:    00020200    ....    DCD    131584
    g_AM_BSP_GPIO_PSRAM_D2
        0x00012aa8:    00020200    ....    DCD    131584
    g_AM_BSP_GPIO_PSRAM_D3
        0x00012aac:    00020200    ....    DCD    131584
    g_AM_BSP_GPIO_PSRAM_SCK
        0x00012ab0:    00040200    ....    DCD    262656
    g_AM_HAL_GPIO_OUTPUT
        0x00012ab4:    00000403    ....    DCD    1027
    g_am_hal_mcuctrl_flash_size
        0x00012ab8:    00004000    .@..    DCD    16384
        0x00012abc:    00008000    ....    DCD    32768
        0x00012ac0:    00010000    ....    DCD    65536
        0x00012ac4:    00020000    ....    DCD    131072
        0x00012ac8:    00040000    ....    DCD    262144
        0x00012acc:    00080000    ....    DCD    524288
        0x00012ad0:    00100000    ....    DCD    1048576
        0x00012ad4:    00200000    .. .    DCD    2097152
        0x00012ad8:    00180000    ....    DCD    1572864
        0x00012adc:    00000000    ....    DCD    0
        0x00012ae0:    00000000    ....    DCD    0
        0x00012ae4:    00000000    ....    DCD    0
        0x00012ae8:    00000000    ....    DCD    0
        0x00012aec:    00000000    ....    DCD    0
        0x00012af0:    00000000    ....    DCD    0
        0x00012af4:    00000000    ....    DCD    0
    g_am_hal_mcuctrl_sram_size
        0x00012af8:    00004000    .@..    DCD    16384
        0x00012afc:    00008000    ....    DCD    32768
        0x00012b00:    00010000    ....    DCD    65536
        0x00012b04:    00020000    ....    DCD    131072
        0x00012b08:    00040000    ....    DCD    262144
        0x00012b0c:    00080000    ....    DCD    524288
        0x00012b10:    00100000    ....    DCD    1048576
        0x00012b14:    00060000    ....    DCD    393216
        0x00012b18:    000c0000    ....    DCD    786432
        0x00012b1c:    00000000    ....    DCD    0
        0x00012b20:    00000000    ....    DCD    0
        0x00012b24:    00000000    ....    DCD    0
        0x00012b28:    00000000    ....    DCD    0
        0x00012b2c:    00000000    ....    DCD    0
        0x00012b30:    00000000    ....    DCD    0
        0x00012b34:    00000000    ....    DCD    0
    g_ui8Bit76Capabilities
        0x00012b38:    02800101    ....    DCD    41943297
        0x00012b3c:    80010180    ....    DCD    2147549568
        0x00012b40:    80800101    ....    DCD    2155872513
        0x00012b44:    80808080    ....    DCD    2155905152
        0x00012b48:    80808080    ....    DCD    2155905152
        0x00012b4c:    80808008    ....    DCD    2155905032
        0x00012b50:    01800180    ....    DCD    25166208
        0x00012b54:    80808080    ....    DCD    2155905152
        0x00012b58:    80808080    ....    DCD    2155905152
        0x00012b5c:    01800402    ....    DCD    25166850
        0x00012b60:    01010401    ....    DCD    16843777
        0x00012b64:    80808080    ....    DCD    2155905152
        0x00012b68:    80800101    ....    DCD    2155872513
        0x00012b6c:    80808080    ....    DCD    2155905152
        0x00012b70:    80808080    ....    DCD    2155905152
        0x00012b74:    80808080    ....    DCD    2155905152
        0x00012b78:    80808080    ....    DCD    2155905152
        0x00012b7c:    80808080    ....    DCD    2155905152
        0x00012b80:    8080        ..      DCW    32896
    g_ui8Inpen
        0x00012b82:    2323        ##      DCW    8995
        0x00012b84:    03a16227    'b..    DCD    60908071
        0x00012b88:    53031087    ...S    DCD    1392709767
        0x00012b8c:    8151e100    ..Q.    DCD    2169626880
        0x00012b90:    c4055541    AU..    DCD    3288683841
        0x00012b94:    b1014080    .@..    DCD    2969649280
        0x00012b98:    31144140    @A.1    DCD    823411008
        0x00012b9c:    f10031a0    .1..    DCD    4043321760
        0x00012ba0:    21911180    ...!    DCD    563155328
        0x00012ba4:    11e511c1    ....    DCD    300224961
        0x00012ba8:    00373045    E07.    DCD    3616837
        0x00012bac:    71003130    01.q    DCD    1895838000
        0x00012bb0:    31304000    .@01    DCD    825245696
        0x00012bb4:    01010100    ....    DCD    16843008
        0x00012bb8:    01010101    ....    DCD    16843009
        0x00012bbc:    a0010101    ....    DCD    2684420353
        0x00012bc0:    0101a050    P...    DCD    16883792
        0x00012bc4:    a0010101    ....    DCD    2684420353
        0x00012bc8:    50a0a0a0    ...P    DCD    1352704160
    g_ui8NCEtable
        0x00012bcc:    0112a4a3    ....    DCD    17999011
        0x00012bd0:    a4a2a1a0    ....    DCD    2762121632
        0x00012bd4:    92b502b3    ....    DCD    2461336243
        0x00012bd8:    82858483    ....    DCD    2189788291
        0x00012bdc:    91019493    ....    DCD    2432799891
        0x00012be0:    ffffffff    ....    DCD    4294967295
        0x00012be4:    ffffffff    ....    DCD    4294967295
        0x00012be8:    00951201    ....    DCD    9769473
        0x00012bec:    80028483    ....    DCD    2147648643
        0x00012bf0:    b2b5b401    ....    DCD    2998252545
        0x00012bf4:    0011a4a3    ....    DCD    1156259
        0x00012bf8:    83828180    ....    DCD    2206368128
        0x00012bfc:    10850283    ....    DCD    277152387
        0x00012c00:    90959493    ....    DCD    2425722003
        0x00012c04:    a4a212a0    ....    DCD    2762085024
        0x00012c08:    00b2b101    ....    DCD    11710721
        0x00012c0c:    85b20280    ....    DCD    2243035776
        0x00012c10:    94029190    ....    DCD    2483196304
        0x00012c14:    a3a2a102    ....    DCD    2745344258
        0x00012c18:    00b311b0    ....    DCD    11735472
        0x00012c1c:    92950012    ....    DCD    2459238418
        0x00012c20:    0102a4a3    ....    DCD    16950435
        0x00012c24:    02b5b4b3    ....    DCD    45462707
        0x00012c28:    84828180    ....    DCD    2223145344
        0x00012c2c:    95920190    ....    DCD    2509373840
        0x00012c30:    a0a501a3    ....    DCD    2695168419
        0x00012c34:    b1b5b4b3    ....    DCD    2981475507
        0x00012c38:    81008402    ....    DCD    2164294658
        0x00012c3c:    00959493    ....    DCD    9802899
        0x00012c40:    a1a512a3    ....    DCD    2711949987
        0x00012c44:    b002b400    ....    DCD    2952967168
        0x00012c48:    84820201    ....    DCD    2223112705
        0x00012c4c:    1001b190    ....    DCD    268546448
        0x00012c50:    a59211a0    ....    DCD    2777813408
        0x00012c54:    11b202b0    ....    DCD    296878768
        0x00012c58:    02828101    ....    DCD    42107137
        0x00012c5c:    10959493    ....    DCD    278238355
        0x00012c60:    00a5a493    ....    DCD    10855571
        0x00012c64:    b512b1b0    ....    DCD    3037901232
        0x00012c68:    ffffffff    ....    DCD    4294967295
        0x00012c6c:    ffffffff    ....    DCD    4294967295
        0x00012c70:    10119102    ....    DCD    269586690
        0x00012c74:    85820180    ....    DCD    2239889792
        0x00012c78:    10029190    ....    DCD    268603792
        0x00012c7c:    a5a200a0    ....    DCD    2778857632
        0x00012c80:    b185b4b3    ....    DCD    2978329779
        0x00012c84:    10020183    ....    DCD    268566915
        0x00012c88:    93928111    ....    DCD    2475852049
        0x00012c8c:    12a2a101    ....    DCD    312647937
        0x00012c90:    81b211b0    ....    DCD    2175930800
        0x00012c94:    80b20201    ....    DCD    2159149569
        0x00012c98:    809291a4    ....    DCD    2157089188
        0x00012c9c:    9200a190    ....    DCD    2449514896
        0x00012ca0:    8202b1a0    ....    DCD    2181214624
        0x00012ca4:    83858402    ....    DCD    2206565378
        0x00012ca8:    84950083    ....    DCD    2224357507
        0x00012cac:    10a5b4a3    ....    DCD    279295139
        0x00012cb0:    90b5b400    ....    DCD    2427827200
        0x00012cb4:    b50081b3    ....    DCD    3036709299
        0x00012cb8:    00929111    ....    DCD    9605393
        0x00012cbc:    b0a2a110    ....    DCD    2963448080
        0x00012cc0:    0102b100    ....    DCD    16953600
        0x00012cc4:    11858410    ....    DCD    293962768
        0x00012cc8:    00029401    ....    DCD    168961
        0x00012ccc:    10a5a480    ....    DCD    279291008
        0x00012cd0:    93a50090    ....    DCD    2477064336
        0x00012cd4:    94828101    ....    DCD    2491580673
        0x00012cd8:    95b291b0    ....    DCD    2511507888
        0x00012cdc:    a0a20083    ....    DCD    2694971523
        0x00012ce0:    0100b193    ....    DCD    16822675
        0x00012ce4:    118502a3    ....    DCD    293929635
        0x00012ce8:    a1b094b3    ....    DCD    2712704179
        0x00012cec:    a2010200    ....    DCD    2717975040
        0x00012cf0:    02b5b401    ....    DCD    45462529
    g_ui8nCEpins
        0x00012cf4:    02070707    ....    DCD    34014983
        0x00012cf8:    00080802    ....    DCD    526338
        0x00012cfc:    01020202    ....    DCD    16908802
        0x00012d00:    01010101    ....    DCD    16843009
        0x00012d04:    01010101    ....    DCD    16843009
        0x00012d08:    01010101    ....    DCD    16843009
        0x00012d0c:    01010101    ....    DCD    16843009
        0x00012d10:    01010101    ....    DCD    16843009
        0x00012d14:    01010101    ....    DCD    16843009
        0x00012d18:    08010101    ....    DCD    134283521
        0x00012d1c:    01010008    ....    DCD    16842760
        0x00012d20:    01010101    ....    DCD    16843009
        0x00012d24:    01010101    ....    DCD    16843009
        0x00012d28:    01010101    ....    DCD    16843009
        0x00012d2c:    01010101    ....    DCD    16843009
        0x00012d30:    01010101    ....    DCD    16843009
        0x00012d34:    01010101    ....    DCD    16843009
        0x00012d38:    01010101    ....    DCD    16843009
        0x00012d3c:    0101        ..      DCW    257
    mspi_interrupts
        0x00012d3e:    2014        .       DCW    8212
        0x00012d40:    21          !       DCB    33
    .L.str
        0x00012d41:    41706f      Apo     DCB    65,112,111
        0x00012d44:    336f6c6c    llo3    DCD    862940268
        0x00012d48:    534d2070    p MS    DCD    1397563504
        0x00012d4c:    46204950    PI F    DCD    1176521040
        0x00012d50:    6873616c    lash    DCD    1752392044
        0x00012d54:    616f4c20     Loa    DCD    1634683936
        0x00012d58:    20726564    der     DCD    544367972
        0x00012d5c:    6d617845    Exam    DCD    1835104325
        0x00012d60:    0a656c70    ple.    DCD    174419056
        0x00012d64:    000a        ..      DCW    10
    .L.str.13
        0x00012d66:    6146        Fa      DCW    24902
        0x00012d68:    64656c69    iled    DCD    1684368489
        0x00012d6c:    206f7420     to     DCD    544175136
        0x00012d70:    62616e65    enab    DCD    1650552421
        0x00012d74:    5820656c    le X    DCD    1478518124
        0x00012d78:    6d205049    IP m    DCD    1830834249
        0x00012d7c:    2065646f    ode     DCD    543515759
        0x00012d80:    74206e69    in t    DCD    1948282473
        0x00012d84:    4d206568    he M    DCD    1293968744
        0x00012d88:    21495053    SPI!    DCD    558452819
        0x00012d8c:    000a        ..      DCW    10
    .L.str.14
        0x00012d8e:    6146        Fa      DCW    24902
        0x00012d90:    64656c69    iled    DCD    1684368489
        0x00012d94:    206f7420     to     DCD    544175136
        0x00012d98:    61736964    disa    DCD    1634953572
        0x00012d9c:    20656c62    ble     DCD    543517794
        0x00012da0:    20504958    XIP     DCD    542132568
        0x00012da4:    65646f6d    mode    DCD    1701080941
        0x00012da8:    206e6920     in     DCD    544106784
        0x00012dac:    20656874    the     DCD    543516788
        0x00012db0:    4950534d    MSPI    DCD    1230000973
        0x00012db4:    0a21        !.      DCW    2593
        0x00012db6:    00          .       DCB    0
    .L.str.9
        0x00012db7:    49          I       DCB    73
        0x00012db8:    6974696e    niti    DCD    1769236846
        0x00012dbc:    6e697461    atin    DCD    1852404833
        0x00012dc0:    72652067    g er    DCD    1919230055
        0x00012dc4:    20657361    ase     DCD    543519585
        0x00012dc8:    7220666f    of r    DCD    1914725999
        0x00012dcc:    69757165    equi    DCD    1769304421
        0x00012dd0:    20646572    red     DCD    543450482
        0x00012dd4:    74636573    sect    DCD    1952671091
        0x00012dd8:    2073726f    ors     DCD    544436847
        0x00012ddc:    4620666f    of F    DCD    1176528495
        0x00012de0:    6873616c    lash    DCD    1752392044
        0x00012de4:    76654420     Dev    DCD    1986348064
        0x00012de8:    21656369    ice!    DCD    560292713
        0x00012dec:    000a        ..      DCW    10
    .L.str.19
        0x00012dee:    6556        Ve      DCW    25942
        0x00012df0:    79666972    rify    DCD    2036754802
        0x00012df4:    20676e69    ing     DCD    543649385
        0x00012df8:    67616d69    imag    DCD    1734438249
        0x00012dfc:    6e692065    e in    DCD    1852383333
        0x00012e00:    74784520     Ext    DCD    1954039072
        0x00012e04:    616e7265    erna    DCD    1634628197
        0x00012e08:    6c46206c    l Fl    DCD    1816535148
        0x00012e0c:    20687361    ash     DCD    543716193
        0x00012e10:    69766544    Devi    DCD    1769366852
        0x00012e14:    0a216563    ce!.    DCD    169960803
        0x00012e18:    00          .       DCB    0
    .L.str.17
        0x00012e19:    577269      Wri     DCB    87,114,105
        0x00012e1c:    676e6974    ting    DCD    1735289204
        0x00012e20:    616d6920     ima    DCD    1634560288
        0x00012e24:    74206567    ge t    DCD    1948280167
        0x00012e28:    7845206f    o Ex    DCD    2017796207
        0x00012e2c:    6e726574    tern    DCD    1852990836
        0x00012e30:    46206c61    al F    DCD    1176530017
        0x00012e34:    6873616c    lash    DCD    1752392044
        0x00012e38:    76654420     Dev    DCD    1986348064
        0x00012e3c:    21656369    ice!    DCD    560292713
        0x00012e40:    000a        ..      DCW    10
    .L.str.20
        0x00012e42:    6146        Fa      DCW    24902
        0x00012e44:    64656c69    iled    DCD    1684368489
        0x00012e48:    206f7420     to     DCD    544175136
        0x00012e4c:    64616572    read    DCD    1684104562
        0x00012e50:    66756220     buf    DCD    1718968864
        0x00012e54:    20726566    fer     DCD    544367974
        0x00012e58:    46206f74    to F    DCD    1176530804
        0x00012e5c:    6873616c    lash    DCD    1752392044
        0x00012e60:    76654420     Dev    DCD    1986348064
        0x00012e64:    21656369    ice!    DCD    560292713
        0x00012e68:    000a        ..      DCW    10
    .L.str.18
        0x00012e6a:    6146        Fa      DCW    24902
        0x00012e6c:    64656c69    iled    DCD    1684368489
        0x00012e70:    206f7420     to     DCD    544175136
        0x00012e74:    74697277    writ    DCD    1953067639
        0x00012e78:    75622065    e bu    DCD    1969365093
        0x00012e7c:    72656666    ffer    DCD    1919247974
        0x00012e80:    206f7420     to     DCD    544175136
        0x00012e84:    73616c46    Flas    DCD    1935764550
        0x00012e88:    65442068    h De    DCD    1698963560
        0x00012e8c:    65636976    vice    DCD    1701013878
        0x00012e90:    0a21        !.      DCW    2593
        0x00012e92:    00          .       DCB    0
    .L.str.23
        0x00012e93:    46          F       DCB    70
        0x00012e94:    656c6961    aile    DCD    1701603681
        0x00012e98:    6f742064    d to    DCD    1869881444
        0x00012e9c:    74757020     put    DCD    1953853472
        0x00012ea0:    65687420     the    DCD    1701344288
        0x00012ea4:    50534d20     MSP    DCD    1347636512
        0x00012ea8:    6e692049    I in    DCD    1852383305
        0x00012eac:    58206f74    to X    DCD    1478520692
        0x00012eb0:    6d205049    IP m    DCD    1830834249
        0x00012eb4:    2165646f    ode!    DCD    560292975
        0x00012eb8:    000a        ..      DCW    10
    .L.str.12
        0x00012eba:    7245        Er      DCW    29253
        0x00012ebc:    20657361    ase     DCD    543519585
        0x00012ec0:    656e6f44    Done    DCD    1701736260
        0x00012ec4:    0a21        !.      DCW    2593
        0x00012ec6:    00          .       DCB    0
    .L.str.16
        0x00012ec7:    46          F       DCB    70
        0x00012ec8:    656c6961    aile    DCD    1701603681
        0x00012ecc:    6f742064    d to    DCD    1869881444
        0x00012ed0:    616e6520     ena    DCD    1634624800
        0x00012ed4:    20656c62    ble     DCD    543517794
        0x00012ed8:    4950534d    MSPI    DCD    1230000973
        0x00012edc:    72637320     scr    DCD    1919120160
        0x00012ee0:    6c626d61    ambl    DCD    1818389857
        0x00012ee4:    21676e69    ing!    DCD    560426601
        0x00012ee8:    000a        ..      DCW    10
    .L.str.11
        0x00012eea:    6146        Fa      DCW    24902
        0x00012eec:    64656c69    iled    DCD    1684368489
        0x00012ef0:    206f7420     to     DCD    544175136
        0x00012ef4:    73617265    eras    DCD    1935766117
        0x00012ef8:    6c462065    e Fl    DCD    1816535141
        0x00012efc:    20687361    ash     DCD    543716193
        0x00012f00:    69766544    Devi    DCD    1769366852
        0x00012f04:    73206563    ce s    DCD    1931502947
        0x00012f08:    6f746365    ecto    DCD    1869898597
        0x00012f0c:    000a2172    r!..    DCD    663922
    .L.str.21
        0x00012f10:    61205854    TX a    DCD    1629509716
        0x00012f14:    5220646e    nd R    DCD    1377854574
        0x00012f18:    75622058    X bu    DCD    1969365080
        0x00012f1c:    72656666    ffer    DCD    1919247974
        0x00012f20:    61662073    s fa    DCD    1634082931
        0x00012f24:    64656c69    iled    DCD    1684368489
        0x00012f28:    206f7420     to     DCD    544175136
        0x00012f2c:    706d6f63    comp    DCD    1886220131
        0x00012f30:    20657261    are     DCD    543519329
        0x00012f34:    6f207461    at o    DCD    1864397921
        0x00012f38:    65736666    ffse    DCD    1702061670
        0x00012f3c:    78302074    t 0x    DCD    2016419956
        0x00012f40:    2d207825    %x -    DCD    757102629
        0x00012f44:    70784520     Exp    DCD    1886930208
        0x00012f48:    65746365    ecte    DCD    1702126437
        0x00012f4c:    78302064    d 0x    DCD    2016419940
        0x00012f50:    41207825    %x A    DCD    1092646949
        0x00012f54:    61757463    ctua    DCD    1635087459
        0x00012f58:    7830206c    l 0x    DCD    2016419948
        0x00012f5c:    0a217825    %x!.    DCD    169965605
        0x00012f60:    00          .       DCB    0
    .L.str.8
        0x00012f61:    466169      Fai     DCB    70,97,105
        0x00012f64:    2064656c    led     DCD    543450476
        0x00012f68:    63206f74    to c    DCD    1663070068
        0x00012f6c:    69666e6f    onfi    DCD    1768320623
        0x00012f70:    65727567    gure    DCD    1701999975
        0x00012f74:    65687420     the    DCD    1701344288
        0x00012f78:    50534d20     MSP    DCD    1347636512
        0x00012f7c:    6e612049    I an    DCD    1851859017
        0x00012f80:    6c462064    d Fl    DCD    1816535140
        0x00012f84:    20687361    ash     DCD    543716193
        0x00012f88:    69766544    Devi    DCD    1769366852
        0x00012f8c:    63206563    ce c    DCD    1663067491
        0x00012f90:    6572726f    orre    DCD    1701999215
        0x00012f94:    796c7463    ctly    DCD    2037150819
        0x00012f98:    0a21        !.      DCW    2593
        0x00012f9a:    00          .       DCB    0
    .L.str.10
        0x00012f9b:    45          E       DCB    69
        0x00012f9c:    69736172    rasi    DCD    1769169266
        0x00012fa0:    5320676e    ng S    DCD    1394632558
        0x00012fa4:    6f746365    ecto    DCD    1869898597
        0x00012fa8:    64252072    r %d    DCD    1680154738
        0x00012fac:    000a        ..      DCW    10
    .L.str.25
        0x00012fae:    534d        MS      DCW    21325
        0x00012fb0:    46204950    PI F    DCD    1176521040
        0x00012fb4:    6873616c    lash    DCD    1752392044
        0x00012fb8:    616f4c20     Loa    DCD    1634683936
        0x00012fbc:    0a646564    ded.    DCD    174351716
        0x00012fc0:    00          .       DCB    0
    .L.str.1
        0x00012fc1:    56616c      Val     DCB    86,97,108
        0x00012fc4:    50206469    id P    DCD    1344300137
        0x00012fc8:    68637461    atch    DCD    1751348321
        0x00012fcc:    69206465    ed i    DCD    1763730533
        0x00012fd0:    726f666e    nfor    DCD    1919903342
        0x00012fd4:    6974616d    mati    DCD    1769234797
        0x00012fd8:    66206e6f    on f    DCD    1713401455
        0x00012fdc:    646e756f    ound    DCD    1684960623
        0x00012fe0:    000a        ..      DCW    10
    .L.str.22
        0x00012fe2:    7550        Pu      DCW    30032
        0x00012fe4:    6e697474    ttin    DCD    1852404852
        0x00012fe8:    68742067    g th    DCD    1752440935
        0x00012fec:    534d2065    e MS    DCD    1397563493
        0x00012ff0:    61204950    PI a    DCD    1629505872
        0x00012ff4:    4520646e    nd E    DCD    1159750766
        0x00012ff8:    72657478    xter    DCD    1919251576
        0x00012ffc:    206c616e    nal     DCD    543973742
        0x00013000:    73616c46    Flas    DCD    1935764550
        0x00013004:    6e692068    h in    DCD    1852383336
        0x00013008:    58206f74    to X    DCD    1478520692
        0x0001300c:    6d205049    IP m    DCD    1830834249
        0x00013010:    0a65646f    ode.    DCD    174417007
        0x00013014:    00          .       DCB    0
    .L.str.15
        0x00013015:    507574      Put     DCB    80,117,116
        0x00013018:    676e6974    ting    DCD    1735289204
        0x0001301c:    65687420     the    DCD    1701344288
        0x00013020:    50534d20     MSP    DCD    1347636512
        0x00013024:    6e692049    I in    DCD    1852383305
        0x00013028:    53206f74    to S    DCD    1394634612
        0x0001302c:    6d617263    cram    DCD    1835102819
        0x00013030:    6e696c62    blin    DCD    1852402786
        0x00013034:    6f6d2067    g mo    DCD    1869422695
        0x00013038:    000a6564    de..    DCD    681316
    .L.str.24
        0x0001303c:    706d754a    Jump    DCD    1886221642
        0x00013040:    20676e69    ing     DCD    543649385
        0x00013044:    72206f74    to r    DCD    1914728308
        0x00013048:    636f6c65    eloc    DCD    1668246629
        0x0001304c:    64657461    ated    DCD    1684370529
        0x00013050:    616d6920     ima    DCD    1634560288
        0x00013054:    69206567    ge i    DCD    1763730791
        0x00013058:    534d206e    n MS    DCD    1397563502
        0x0001305c:    46204950    PI F    DCD    1176521040
        0x00013060:    6873616c    lash    DCD    1752392044
        0x00013064:    000a        ..      DCW    10
    .L.str.5
        0x00013066:    6353        Sc      DCW    25427
        0x00013068:    626d6172    ramb    DCD    1651335538
        0x0001306c:    676e696c    ling    DCD    1735289196
        0x00013070:    20736920     is     DCD    544434464
        0x00013074:    000a7325    %s..    DCD    684837
    .L.str.4
        0x00013078:    206e6942    Bin     DCD    544106818
        0x0001307c:    657a6953    Size    DCD    1702521171
        0x00013080:    30203d20     = 0    DCD    807419168
        0x00013084:    0a782578    x%x.    DCD    175646072
        0x00013088:    00          .       DCB    0
    .L.str.2
        0x00013089:    42696e      Bin     DCB    66,105,110
        0x0001308c:    64644120     Add    DCD    1684291872
        0x00013090:    73736572    ress    DCD    1936942450
        0x00013094:    206e6920     in     DCD    544106784
        0x00013098:    65746e69    inte    DCD    1702129257
        0x0001309c:    6c616e72    rnal    DCD    1818324594
        0x000130a0:    616c6620     fla    DCD    1634493984
        0x000130a4:    3d206873    sh =    DCD    1025534067
        0x000130a8:    25783020     0x%    DCD    628633632
        0x000130ac:    0a78        x.      DCW    2680
        0x000130ae:    00          .       DCB    0
    .L.str.3
        0x000130af:    42          B       DCB    66
        0x000130b0:    49206e69    in I    DCD    1226862185
        0x000130b4:    6174736e    nsta    DCD    1635021678
        0x000130b8:    41206c6c    ll A    DCD    1092643948
        0x000130bc:    65726464    ddre    DCD    1701995620
        0x000130c0:    69207373    ss i    DCD    1763734387
        0x000130c4:    7865206e    n ex    DCD    2019893358
        0x000130c8:    6e726574    tern    DCD    1852990836
        0x000130cc:    66206c61    al f    DCD    1713400929
        0x000130d0:    6873616c    lash    DCD    1752392044
        0x000130d4:    30203d20     = 0    DCD    807419168
        0x000130d8:    0a782578    x%x.    DCD    175646072
        0x000130dc:    00          .       DCB    0
    .L.str.6
        0x000130dd:    456e61      Ena     DCB    69,110,97
        0x000130e0:    64656c62    bled    DCD    1684368482
        0x000130e4:    00          .       DCB    0
    .L.str.7
        0x000130e5:    446973      Dis     DCB    68,105,115
        0x000130e8:    656c6261    able    DCD    1701601889
        0x000130ec:    0064        d.      DCW    100
    .L.str.1
        0x000130ee:    2020                DCW    8224
        0x000130f0:    6e492020      In    DCD    1850286112
        0x000130f4:    696c6176    vali    DCD    1768710518
        0x000130f8:    50532064    d SP    DCD    1347625060
        0x000130fc:    65687720     whe    DCD    1701345056
        0x00013100:    6148206e    n Ha    DCD    1632116846
        0x00013104:    46206472    rd F    DCD    1176527986
        0x00013108:    746c7561    ault    DCD    1953264993
        0x0001310c:    63636f20     occ    DCD    1667460896
        0x00013110:    64657275    ured    DCD    1684370037
        0x00013114:    7830203a    : 0x    DCD    2016419898
        0x00013118:    58383025    %08X    DCD    1480077349
        0x0001311c:    6f6e2820     (no    DCD    1869490208
        0x00013120:    61745320     Sta    DCD    1635013408
        0x00013124:    64656b63    cked    DCD    1684368227
        0x00013128:    74616420     dat    DCD    1952539680
        0x0001312c:    0a0a2961    a)..    DCD    168438113
        0x00013130:    00          .       DCB    0
    .L.str.29
        0x00013131:    0a0a44      ..D     DCB    10,10,68
        0x00013134:    20656e6f    one     DCD    543518319
        0x00013138:    68746977    with    DCD    1752459639
        0x0001313c:    74756f20     out    DCD    1953853216
        0x00013140:    2e747570    put.    DCD    779384176
        0x00013144:    746e4520     Ent    DCD    1953383712
        0x00013148:    6e697265    erin    DCD    1852404325
        0x0001314c:    6e692067    g in    DCD    1852383335
        0x00013150:    696e6966    fini    DCD    1768843622
        0x00013154:    6c206574    te l    DCD    1814062452
        0x00013158:    2e706f6f    oop.    DCD    779120495
        0x0001315c:    0a0a        ..      DCW    2570
        0x0001315e:    00          .       DCB    0
    .L.str
        0x0001315f:    2a          *       DCB    42
        0x00013160:    6148202a    * Ha    DCD    1632116778
        0x00013164:    46206472    rd F    DCD    1176527986
        0x00013168:    746c7561    ault    DCD    1953264993
        0x0001316c:    63634f20     Occ    DCD    1667452704
        0x00013170:    65727275    urre    DCD    1701999221
        0x00013174:    0a0a3a64    d:..    DCD    168442468
        0x00013178:    00          .       DCB    0
    .L.str.10
        0x00013179:    202020              DCB    32,32,32
        0x0001317c:    52535020     PSR    DCD    1381191712
        0x00013180:    30203d20     = 0    DCD    807419168
        0x00013184:    38302578    x%08    DCD    942679416
        0x00013188:    000a0a58    X...    DCD    658008
    .L.str.2
        0x0001318c:    64726148    Hard    DCD    1685217608
        0x00013190:    75614620     Fau    DCD    1969309216
        0x00013194:    7320746c    lt s    DCD    1931506796
        0x00013198:    6b636174    tack    DCD    1801675124
        0x0001319c:    64206465    ed d    DCD    1679844453
        0x000131a0:    3a617461    ata:    DCD    979465313
        0x000131a4:    000a        ..      DCW    10
    .L.str.25
        0x000131a6:    4d0a        .M      DCW    19722
        0x000131a8:    46205543    CU F    DCD    1176524099
        0x000131ac:    746c7561    ault    DCD    1953264993
        0x000131b0:    74616420     dat    DCD    1952539680
        0x000131b4:    000a3a61    a:..    DCD    670305
    .L.str.11
        0x000131b8:    6568744f    Othe    DCD    1701344335
        0x000131bc:    61482072    r Ha    DCD    1632116850
        0x000131c0:    46206472    rd F    DCD    1176527986
        0x000131c4:    746c7561    ault    DCD    1953264993
        0x000131c8:    74616420     dat    DCD    1952539680
        0x000131cc:    000a3a61    a:..    DCD    670305
    .L.str.18
        0x000131d0:    20202020            DCD    538976288
        0x000131d4:    20202020            DCD    538976288
        0x000131d8:    52534642    BFSR    DCD    1381189186
        0x000131dc:    74696220     bit    DCD    1953063456
        0x000131e0:    52203a36    6: R    DCD    1377843766
        0x000131e4:    52455345    ESER    DCD    1380275013
        0x000131e8:    0a444556    VED.    DCD    172246358
        0x000131ec:    00          .       DCB    0
    .L.str.17
        0x000131ed:    202020              DCB    32,32,32
        0x000131f0:    20202020            DCD    538976288
        0x000131f4:    53464220     BFS    DCD    1397113376
        0x000131f8:    69622052    R bi    DCD    1768038482
        0x000131fc:    203a3774    t7:     DCD    540686196
        0x00013200:    52414642    BFAR    DCD    1380009538
        0x00013204:    494c4156    VALI    DCD    1229734230
        0x00013208:    0a44        D.      DCW    2628
        0x0001320a:    00          .       DCB    0
    .L.str.23
        0x0001320b:    20                  DCB    32
        0x0001320c:    20202020            DCD    538976288
        0x00013210:    42202020       B    DCD    1109401632
        0x00013214:    20525346    FSR     DCD    542266182
        0x00013218:    31746962    bit1    DCD    829712738
        0x0001321c:    5250203a    : PR    DCD    1380982842
        0x00013220:    53494345    ECIS    DCD    1397310277
        0x00013224:    52524545    EERR    DCD    1381123397
        0x00013228:    000a        ..      DCW    10
    .L.str.20
        0x0001322a:    2020                DCW    8224
        0x0001322c:    20202020            DCD    538976288
        0x00013230:    46422020      BF    DCD    1178738720
        0x00013234:    62205253    SR b    DCD    1646285395
        0x00013238:    3a347469    it4:    DCD    976516201
        0x0001323c:    4b545320     STK    DCD    1263817504
        0x00013240:    0a525245    ERR.    DCD    173167173
        0x00013244:    00          .       DCB    0
    .L.str.21
        0x00013245:    202020              DCB    32,32,32
        0x00013248:    20202020            DCD    538976288
        0x0001324c:    53464220     BFS    DCD    1397113376
        0x00013250:    69622052    R bi    DCD    1768038482
        0x00013254:    203a3374    t3:     DCD    540685172
        0x00013258:    54534e55    UNST    DCD    1414745685
        0x0001325c:    5252454b    KERR    DCD    1381123403
        0x00013260:    000a        ..      DCW    10
    .L.str.19
        0x00013262:    2020                DCW    8224
        0x00013264:    20202020            DCD    538976288
        0x00013268:    46422020      BF    DCD    1178738720
        0x0001326c:    62205253    SR b    DCD    1646285395
        0x00013270:    3a357469    it5:    DCD    976581737
        0x00013274:    50534c20     LSP    DCD    1347636256
        0x00013278:    0a525245    ERR.    DCD    173167173
        0x0001327c:    00          .       DCB    0
    .L.str.22
        0x0001327d:    202020              DCB    32,32,32
        0x00013280:    20202020            DCD    538976288
        0x00013284:    53464220     BFS    DCD    1397113376
        0x00013288:    69622052    R bi    DCD    1768038482
        0x0001328c:    203a3274    t2:     DCD    540684916
        0x00013290:    52504d49    IMPR    DCD    1380994377
        0x00013294:    53494345    ECIS    DCD    1397310277
        0x00013298:    0a525245    ERR.    DCD    173167173
        0x0001329c:    00          .       DCB    0
    .L.str.24
        0x0001329d:    202020              DCB    32,32,32
        0x000132a0:    20202020            DCD    538976288
        0x000132a4:    53464220     BFS    DCD    1397113376
        0x000132a8:    69622052    R bi    DCD    1768038482
        0x000132ac:    203a3074    t0:     DCD    540684404
        0x000132b0:    53554249    IBUS    DCD    1398096457
        0x000132b4:    0a525245    ERR.    DCD    173167173
        0x000132b8:    00          .       DCB    0
    .L.str.16
        0x000132b9:    202020              DCB    32,32,32
        0x000132bc:    53464220     BFS    DCD    1397113376
        0x000132c0:    42282052    R (B    DCD    1109925970
        0x000132c4:    46207375    us F    DCD    1176531829
        0x000132c8:    746c7561    ault    DCD    1953264993
        0x000132cc:    61745320     Sta    DCD    1635013408
        0x000132d0:    20737574    tus     DCD    544437620
        0x000132d4:    29676552    Reg)    DCD    694642002
        0x000132d8:    30203d20     = 0    DCD    807419168
        0x000132dc:    32302578    x%02    DCD    842016120
        0x000132e0:    0a58        X.      DCW    2648
        0x000132e2:    00          .       DCB    0
    .L.str.14
        0x000132e3:    20                  DCB    32
        0x000132e4:    4d202020       M    DCD    1293951008
        0x000132e8:    2052534d    MSR     DCD    542266189
        0x000132ec:    6d654d28    (Mem    DCD    1835355432
        0x000132f0:    6d674d20     Mgm    DCD    1835486496
        0x000132f4:    61462074    t Fa    DCD    1631985780
        0x000132f8:    20746c75    ult     DCD    544500853
        0x000132fc:    74617453    Stat    DCD    1952543827
        0x00013300:    52207375    us R    DCD    1377858421
        0x00013304:    20296765    eg)     DCD    539584357
        0x00013308:    7830203d    = 0x    DCD    2016419901
        0x0001330c:    58323025    %02X    DCD    1479684133
        0x00013310:    000a        ..      DCW    10
    .L.str.15
        0x00013312:    2020                DCW    8224
        0x00013314:    46552020      UF    DCD    1179983904
        0x00013318:    28205253    SR (    DCD    673206867
        0x0001331c:    67617355    Usag    DCD    1734439765
        0x00013320:    61462065    e Fa    DCD    1631985765
        0x00013324:    20746c75    ult     DCD    544500853
        0x00013328:    74617453    Stat    DCD    1952543827
        0x0001332c:    52207375    us R    DCD    1377858421
        0x00013330:    20296765    eg)     DCD    539584357
        0x00013334:    7830203d    = 0x    DCD    2016419901
        0x00013338:    58343025    %04X    DCD    1479815205
        0x0001333c:    000a        ..      DCW    10
    .L.str.27
        0x0001333e:    2020                DCW    8224
        0x00013340:    43442020      DC    DCD    1128538144
        0x00013344:    2045444f    ODE     DCD    541410383
        0x00013348:    6c756146    Faul    DCD    1819631942
        0x0001334c:    64412074    t Ad    DCD    1681989748
        0x00013350:    73657264    dres    DCD    1936028260
        0x00013354:    30203a73    s: 0    DCD    807418483
        0x00013358:    38302578    x%08    DCD    942679416
        0x0001335c:    0a58        X.      DCW    2648
        0x0001335e:    00          .       DCB    0
    .L.str.26
        0x0001335f:    20                  DCB    32
        0x00013360:    49202020       I    DCD    1226842144
        0x00013364:    45444f43    CODE    DCD    1162104643
        0x00013368:    75614620     Fau    DCD    1969309216
        0x0001336c:    4120746c    lt A    DCD    1092645996
        0x00013370:    65726464    ddre    DCD    1701995620
        0x00013374:    203a7373    ss:     DCD    540701555
        0x00013378:    30257830    0x%0    DCD    807761968
        0x0001337c:    000a5838    8X..    DCD    677944
    .L.str.28
        0x00013380:    20202020            DCD    538976288
        0x00013384:    20535953    SYS     DCD    542333267
        0x00013388:    6c756146    Faul    DCD    1819631942
        0x0001338c:    64412074    t Ad    DCD    1681989748
        0x00013390:    73657264    dres    DCD    1936028260
        0x00013394:    30203a73    s: 0    DCD    807418483
        0x00013398:    38302578    x%08    DCD    942679416
        0x0001339c:    0a58        X.      DCW    2648
        0x0001339e:    00          .       DCB    0
    .L.str.3
        0x0001339f:    20                  DCB    32
        0x000133a0:    52202020       R    DCD    1377837088
        0x000133a4:    3d202030    0  =    DCD    1025515568
        0x000133a8:    25783020     0x%    DCD    628633632
        0x000133ac:    0a583830    08X.    DCD    173553712
        0x000133b0:    00          .       DCB    0
    .L.str.4
        0x000133b1:    202020              DCB    32,32,32
        0x000133b4:    20315220     R1     DCD    540103200
        0x000133b8:    30203d20     = 0    DCD    807419168
        0x000133bc:    38302578    x%08    DCD    942679416
        0x000133c0:    0a58        X.      DCW    2648
        0x000133c2:    00          .       DCB    0
    .L.str.5
        0x000133c3:    20                  DCB    32
        0x000133c4:    52202020       R    DCD    1377837088
        0x000133c8:    3d202032    2  =    DCD    1025515570
        0x000133cc:    25783020     0x%    DCD    628633632
        0x000133d0:    0a583830    08X.    DCD    173553712
        0x000133d4:    00          .       DCB    0
    .L.str.6
        0x000133d5:    202020              DCB    32,32,32
        0x000133d8:    20335220     R3     DCD    540234272
        0x000133dc:    30203d20     = 0    DCD    807419168
        0x000133e0:    38302578    x%08    DCD    942679416
        0x000133e4:    0a58        X.      DCW    2648
        0x000133e6:    00          .       DCB    0
    .L.str.9
        0x000133e7:    20                  DCB    32
        0x000133e8:    50202020       P    DCD    1344282656
        0x000133ec:    3d202043    C  =    DCD    1025515587
        0x000133f0:    25783020     0x%    DCD    628633632
        0x000133f4:    0a583830    08X.    DCD    173553712
        0x000133f8:    00          .       DCB    0
    .L.str.8
        0x000133f9:    202020              DCB    32,32,32
        0x000133fc:    20524c20     LR     DCD    542264352
        0x00013400:    30203d20     = 0    DCD    807419168
        0x00013404:    38302578    x%08    DCD    942679416
        0x00013408:    0a58        X.      DCW    2648
        0x0001340a:    00          .       DCB    0
    .L.str.13
        0x0001340b:    20                  DCB    32
        0x0001340c:    42202020       B    DCD    1109401632
        0x00013410:    20524146    FAR     DCD    542261574
        0x00013414:    73754228    (Bus    DCD    1937064488
        0x00013418:    75614620     Fau    DCD    1969309216
        0x0001341c:    4120746c    lt A    DCD    1092645996
        0x00013420:    20726464    ddr     DCD    544367716
        0x00013424:    29676552    Reg)    DCD    694642002
        0x00013428:    30203d20     = 0    DCD    807419168
        0x0001342c:    38302578    x%08    DCD    942679416
        0x00013430:    0a58        X.      DCW    2648
        0x00013432:    00          .       DCB    0
    .L.str.7
        0x00013433:    20                  DCB    32
        0x00013434:    52202020       R    DCD    1377837088
        0x00013438:    3d203231    12 =    DCD    1025520177
        0x0001343c:    25783020     0x%    DCD    628633632
        0x00013440:    0a583830    08X.    DCD    173553712
        0x00013444:    00          .       DCB    0
    .L.str.12
        0x00013445:    202020              DCB    32,32,32
        0x00013448:    75614620     Fau    DCD    1969309216
        0x0001344c:    6120746c    lt a    DCD    1629516908
        0x00013450:    65726464    ddre    DCD    1701995620
        0x00013454:    3d207373    ss =    DCD    1025536883
        0x00013458:    25783020     0x%    DCD    628633632
        0x0001345c:    0a583830    08X.    DCD    173553712
        0x00013460:    00          .       DCB    0
    .L.str
        0x00013461:    0a0a0a      ...     DCB    10,10,10
        0x00013464:    0a0a0a0a    ....    DCD    168430090
        0x00013468:    0a0a0a0a    ....    DCD    168430090
        0x0001346c:    0a0a0a0a    ....    DCD    168430090
        0x00013470:    000a0a0a    ....    DCD    657930
    Region$$Table$$Base
        0x00013474:    000134a8    .4..    DCD    79016
        0x00013478:    10011000    ....    DCD    268505088
        0x0001347c:    00000170    p...    DCD    368
        0x00013480:    0000c170    p...    DCD    49520
        0x00013484:    00013538    85..    DCD    79160
        0x00013488:    10011170    p...    DCD    268505456
        0x0001348c:    00005260    `R..    DCD    21088
        0x00013490:    0000c1e8    ....    DCD    49640
        0x00013494:    00013538    85..    DCD    79160
        0x00013498:    10010000    ....    DCD    268500992
        0x0001349c:    00001000    ....    DCD    4096
        0x000134a0:    0000c1e8    ....    DCD    49640
    Region$$Table$$Limit

** Section #2 'RWMEM' (SHT_PROGBITS) [SHF_ALLOC + SHF_WRITE]
    Size   : 144 bytes (alignment 8)
    Address: 0x10011000

    Data section was compressed (Original size: 368 bytes)

    0x10011000:   08 03 00 0b 02 06 00 00 02 00 01 01 01 00 00 00    ................
    0x10011010:   00 00 00 00 00 00 00 00 00 00 00 00 00 00 00 00    ................
    0x10011020:   00 00 00 00 08 03 00 0b 02 07 00 00 02 00 01 01    ................
    0x10011030:   01 00 00 00 00 00 00 00 00 00 00 00 00 00 00 00    ................
    0x10011040:   00 00 00 00 00 00 00 00 08 03 00 0b 02 04 00 00    ................
    0x10011050:   02 00 01 01 01 00 00 00 00 00 00 00 00 00 00 00    ................
    0x10011060:   00 00 00 00 00 00 00 00 00 00 00 00 08 03 00 0b    ................
    0x10011070:   02 05 00 00 02 00 01 01 01 00 00 00 00 00 00 00    ................
    0x10011080:   00 00 00 00 00 00 00 00 00 00 00 00 00 00 00 00    ................
    0x10011090:   08 03 00 0b 02 00 00 00 03 00 01 01 01 00 00 00    ................
    0x100110a0:   00 00 00 00 00 00 00 00 00 00 00 00 00 00 00 00    ................
    0x100110b0:   00 00 00 00 08 03 00 0b 02 01 00 00 02 00 01 01    ................
    0x100110c0:   01 00 00 00 00 00 00 00 00 00 00 00 00 00 00 00    ................
    0x100110d0:   00 00 00 00 00 00 00 00 0a 00 00 00 03 00 00 00    ................
    0x100110e0:   1e 00 00 00 03 00 00 00 0f 00 00 00 03 00 00 00    ................
    0x100110f0:   0e 00 00 00 03 00 00 00 11 00 00 00 03 00 00 00    ................
    0x10011100:   4d 53 50 49 20 46 4c 41 53 48 20 41 54 58 50 30    MSPI FLASH ATXP0
    0x10011110:   33 32 00 00 79 cf 00 00 25 cd 00 00 15 cf 00 00    32..y...%.......
    0x10011120:   ad d7 00 00 79 d4 00 00 89 d3 00 00 d9 d5 00 00    ....y...........
    0x10011130:   cd ce 00 00 41 ce 00 00 9d ce 00 00 e5 cd 00 00    ....A...........
    0x10011140:   00 00 00 00 90 10 01 10 01 00 00 00 b4 10 01 10    ................
    0x10011150:   04 00 00 00 48 10 01 10 05 00 00 00 6c 10 01 10    ....H.......l...
    0x10011160:   06 00 00 00 00 10 01 10 07 00 00 00 24 10 01 10    ............$...


** Section #3 'RWMEM' (SHT_NOBITS) [SHF_ALLOC + SHF_WRITE]
    Size   : 21088 bytes (alignment 8)
    Address: 0x10011170


** Section #4 'STACKMEM' (SHT_NOBITS) [SHF_ALLOC + SHF_WRITE]
    Size   : 4096 bytes (alignment 8)
    Address: 0x10010000


** Section #5 '.debug_abbrev' (SHT_PROGBITS)
    Size   : 1690 bytes


** Section #6 '.debug_frame' (SHT_PROGBITS)
    Size   : 6644 bytes


** Section #7 '.debug_info' (SHT_PROGBITS)
    Size   : 13656 bytes


** Section #8 '.debug_line' (SHT_PROGBITS)
    Size   : 10794 bytes


** Section #9 '.debug_ranges' (SHT_PROGBITS)
    Size   : 448 bytes


** Section #10 '.debug_str' (SHT_PROGBITS)
    Size   : 12726 bytes


** Section #11 '.symtab' (SHT_SYMTAB)
    Size   : 9600 bytes (alignment 4)
    String table #12 '.strtab'
    Last local symbol no. 308

    Symbol table .symtab (599 symbols, 308 local)

      #  Symbol Name                Value      Bind  Sec  Type  Vis  Size
    ========================================================================

      1  $d                         0x0000c000   Lc    1   --   De 
      2  $t                         0x0000c100   Lc    1   --   De 
      3  $d                         0x0000c130   Lc    1   --   De 
      4  $t                         0x0000c134   Lc    1   --   De 
      5  $d                         0x0000c168   Lc    1   --   De 
      6  $t                         0x0000c170   Lc    1   --   De 
      7  $d                         0x0000c23a   Lc    1   --   De 
      8  $t                         0x0000c248   Lc    1   --   De 
      9  $d                         0x0000c3ec   Lc    1   --   De 
     10  $t                         0x0000c3f0   Lc    1   --   De 
     11  $d                         0x0000c3f8   Lc    1   --   De 
     12  $t                         0x0000c3fc   Lc    1   --   De 
     13  $t.0                       0x0000c400   Lc    1   --   De 
     14  $d.4                       0x0000c420   Lc    1   --   De 
     15  $t.2                       0x0000c424   Lc    1   --   De 
     16  $d.15                      0x0000c586   Lc    1   --   De 
     17  $t.16                      0x0000c5b0   Lc    1   --   De 
     18  $d.17                      0x0000c610   Lc    1   --   De 
     19  $t.18                      0x0000c638   Lc    1   --   De 
     20  $d.19                      0x0000c696   Lc    1   --   De 
     21  $t.20                      0x0000c6c0   Lc    1   --   De 
     22  $d.4                       0x0000db10   Lc    1   --   De 
     23  $t.5                       0x0000db24   Lc    1   --   De 
     24  $d.1                       0x0000dcfc   Lc    1   --   De 
     25  $t.2                       0x0000dd08   Lc    1   --   De 
     26  $d.2                       0x0000e5ca   Lc    1   --   De 
     27  $t.3                       0x0000e5d0   Lc    1   --   De 
     28  $d.7                       0x0000e71c   Lc    1   --   De 
     29  $t.8                       0x0000e724   Lc    1   --   De 
     30  $d.1                       0x0000e946   Lc    1   --   De 
     31  $t.2                       0x0000e94c   Lc    1   --   De 
     32  $d.3                       0x0000ea18   Lc    1   --   De 
     33  $t.4                       0x0000ea28   Lc    1   --   De 
     34  $d.5                       0x0000ea74   Lc    1   --   De 
     35  $t.6                       0x0000ea84   Lc    1   --   De 
     36  $d.11                      0x0000ed50   Lc    1   --   De 
     37  $t.12                      0x0000ed88   Lc    1   --   De 
     38  $d.5                       0x0000f9cc   Lc    1   --   De 
     39  $t.2                       0x0000f9d8   Lc    1   --   De 
     40  $d.4                       0x00010be6   Lc    1   --   De 
     41  $t.5                       0x00010c4c   Lc    1   --   De 
     42  $d.7                       0x00011c30   Lc    1   --   De 
     43  $t.8                       0x00011c58   Lc    1   --   De 
     44  $t                         0x0001263c   Lc    1   --   De 
     45  $d                         0x0001268c   Lc    1   --   De 
     46  $t                         0x00012690   Lc    1   --   De 
     47  $d                         0x0001270e   Lc    1   --   De 
     48  $t                         0x00012712   Lc    1   --   De 
     49  $d.realdata                0x00012760   Lc    1   --   De 
     50  $d.realdata                0x10011000   Lc    2   --   De 
     51  $d.realdata                0x10010000   Lc    4   --   De 
     52  mspi_flash_loader.c        0x00000000   Lc  Abs  File  De 
     53  __NVIC_EnableIRQ           0x0000c425   Lc    1  Code  De   0x30
     54  run_new_image              0x0001216d   Lc    1  Code  De   0x12
     55  .L.str                     0x00012d41   Lc    1  Data  De   0x25
     56  .L.str.13                  0x00012d66   Lc    1  Data  De   0x28
     57  .L.str.14                  0x00012d8e   Lc    1  Data  De   0x29
     58  .L.str.9                   0x00012db7   Lc    1  Data  De   0x37
     59  .L.str.19                  0x00012dee   Lc    1  Data  De   0x2b
     60  .L.str.17                  0x00012e19   Lc    1  Data  De   0x29
     61  .L.str.20                  0x00012e42   Lc    1  Data  De   0x28
     62  .L.str.18                  0x00012e6a   Lc    1  Data  De   0x29
     63  .L.str.23                  0x00012e93   Lc    1  Data  De   0x27
     64  .L.str.12                  0x00012eba   Lc    1  Data  De   0xd
     65  .L.str.16                  0x00012ec7   Lc    1  Data  De   0x23
     66  .L.str.11                  0x00012eea   Lc    1  Data  De   0x26
     67  .L.str.21                  0x00012f10   Lc    1  Data  De   0x51
     68  .L.str.8                   0x00012f61   Lc    1  Data  De   0x3a
     69  .L.str.10                  0x00012f9b   Lc    1  Data  De   0x13
     70  .L.str.25                  0x00012fae   Lc    1  Data  De   0x13
     71  .L.str.1                   0x00012fc1   Lc    1  Data  De   0x21
     72  .L.str.22                  0x00012fe2   Lc    1  Data  De   0x33
     73  .L.str.15                  0x00013015   Lc    1  Data  De   0x27
     74  .L.str.24                  0x0001303c   Lc    1  Data  De   0x2a
     75  .L.str.5                   0x00013066   Lc    1  Data  De   0x12
     76  .L.str.4                   0x00013078   Lc    1  Data  De   0x11
     77  .L.str.2                   0x00013089   Lc    1  Data  De   0x26
     78  .L.str.3                   0x000130af   Lc    1  Data  De   0x2e
     79  .L.str.6                   0x000130dd   Lc    1  Data  De   0x8
     80  .L.str.7                   0x000130e5   Lc    1  Data  De   0x9
     81  mspi_interrupts            0x00012d3e   Lc    1  Data  De   0x3
     82  am_devices_mspi_atxp032.c  0x00000000   Lc  Abs  File  De 
     83  am_device_init_flash       0x0000cb25   Lc    1  Code  De   0xd8
     84  am_device_deinit_flash     0x0000ca7d   Lc    1  Code  De   0xa8
     85  am_devices_mspi_atxp032_command_write
                                    0x0000cca1   Lc    1  Code  De   0x84
     86  am_devices_mspi_atxp032_command_read
                                    0x0000cbfd   Lc    1  Code  De   0xa4
     87  pfnMSPI_ATXP032_Callback   0x0001215d   Lc    1  Code  De   0x10
     88  am_util_delay.c            0x00000000   Lc  Abs  File  De 
     89  am_util_faultisr.c         0x00000000   Lc  Abs  File  De 
     90  .L.str.1                   0x000130ee   Lc    1  Data  De   0x43
     91  .L.str.29                  0x00013131   Lc    1  Data  De   0x2e
     92  .L.str                     0x0001315f   Lc    1  Data  De   0x1a
     93  .L.str.10                  0x00013179   Lc    1  Data  De   0x13
     94  .L.str.2                   0x0001318c   Lc    1  Data  De   0x1a
     95  .L.str.25                  0x000131a6   Lc    1  Data  De   0x12
     96  .L.str.11                  0x000131b8   Lc    1  Data  De   0x18
     97  .L.str.18                  0x000131d0   Lc    1  Data  De   0x1d
     98  .L.str.17                  0x000131ed   Lc    1  Data  De   0x1e
     99  .L.str.23                  0x0001320b   Lc    1  Data  De   0x1f
    100  .L.str.20                  0x0001322a   Lc    1  Data  De   0x1b
    101  .L.str.21                  0x00013245   Lc    1  Data  De   0x1d
    102  .L.str.19                  0x00013262   Lc    1  Data  De   0x1b
    103  .L.str.22                  0x0001327d   Lc    1  Data  De   0x20
    104  .L.str.24                  0x0001329d   Lc    1  Data  De   0x1c
    105  .L.str.16                  0x000132b9   Lc    1  Data  De   0x2a
    106  .L.str.14                  0x000132e3   Lc    1  Data  De   0x2f
    107  .L.str.15                  0x00013312   Lc    1  Data  De   0x2c
    108  .L.str.27                  0x0001333e   Lc    1  Data  De   0x21
    109  .L.str.26                  0x0001335f   Lc    1  Data  De   0x21
    110  .L.str.28                  0x00013380   Lc    1  Data  De   0x1f
    111  .L.str.3                   0x0001339f   Lc    1  Data  De   0x12
    112  .L.str.4                   0x000133b1   Lc    1  Data  De   0x12
    113  .L.str.5                   0x000133c3   Lc    1  Data  De   0x12
    114  .L.str.6                   0x000133d5   Lc    1  Data  De   0x12
    115  .L.str.9                   0x000133e7   Lc    1  Data  De   0x12
    116  .L.str.8                   0x000133f9   Lc    1  Data  De   0x12
    117  .L.str.13                  0x0001340b   Lc    1  Data  De   0x28
    118  .L.str.7                   0x00013433   Lc    1  Data  De   0x12
    119  .L.str.12                  0x00013445   Lc    1  Data  De   0x1c
    120  am_util_stdio.c            0x00000000   Lc  Abs  File  De 
    121  decstr_to_int              0x00011295   Lc    1  Code  De   0xa6
    122  simple_strlen              0x000124bd   Lc    1  Code  De   0x36
    123  padbuffer                  0x0001210d   Lc    1  Code  De   0x50
    124  ndigits_in_hex             0x00012061   Lc    1  Code  De   0x3e
    125  uint64_to_hexstr           0x000124f5   Lc    1  Code  De   0xc0
    126  ndigits_in_u64             0x000120d1   Lc    1  Code  De   0x3c
    127  uint64_to_str              0x000125b5   Lc    1  Code  De   0x88
    128  ndigits_in_i64             0x000120a1   Lc    1  Code  De   0x30
    129  ftoa                       0x00011455   Lc    1  Code  De   0x230
    130  divu64_10                  0x0001133d   Lc    1  Code  De   0x118
    131  g_bTxtXlate                0x10015fc8   Lc    3  Data  De   0x1
    132  g_prfbuf                   0x10015fd0   Lc    3  Data  De   0x400
    133  .L.str                     0x00013461   Lc    1  Data  De   0x13
    134  ../keil6/startup_keil6.s   0x00000000   Lc  Abs  File  De 
    135  STACK                      0x10010000   Lc    4  Sect  De   0x1000
    136  StackMem                   0x10010000   Lc    4  Data  De 
    137  HEAP                       0x100163d0   Lc    3  Sect  De 
    138  HeapMem                    0x100163d0   Lc    3  Data  De 
    139  RESET                      0x0000c000   Lc    1  Sect  De   0x134
    140  $v0                        0x0000c100   Lc    1   --   De 
    141  .text                      0x0000c230   Lc    1  Sect  De   0x18
    142  $v0                        0x0000c230   Lc    1   --   De 
    143  am_bsp.c                   0x00000000   Lc  Abs  File  De 
    144  .L_MergedGlobals           0x100111d0   Lc    3  Data  De   0x8
    145  g_ui32PrintInterface       0x100111d0   Lc    3  Data  De   0x4
    146  g_sCOMUART                 0x100111d4   Lc    3  Data  De   0x4
    147  am_hal_cachectrl.c         0x00000000   Lc  Abs  File  De 
    148  set_LPMMODE                0x00012295   Lc    1  Code  De   0xba
    149  set_SEDELAY                0x00012401   Lc    1  Code  De   0xba
    150  set_RDWAIT                 0x00012351   Lc    1  Code  De   0xae
    151  am_hal_clkgen.c            0x00000000   Lc  Abs  File  De 
    152  am_hal_flash.c             0x00000000   Lc  Abs  File  De 
    153  am_hal_interrupt.c         0x00000000   Lc  Abs  File  De 
    154  am_hal_mcuctrl.c           0x00000000   Lc  Abs  File  De 
    155  am_hal_mspi.c              0x00000000   Lc  Abs  File  De 
    156  mspi_device_configure      0x00011c25   Lc    1  Code  De   0x2ea
    157  mspi_cq_pause              0x00011ba1   Lc    1  Code  De   0x82
    158  mspi_seq_loopback          0x0001203d   Lc    1  Code  De   0x24
    159  sched_hiprio               0x00012181   Lc    1  Code  De   0x112
    160  mspi_dummy_callback        0x00011f11   Lc    1  Code  De   0x2
    161  mspi_fifo_read             0x00011f15   Lc    1  Code  De   0xba
    162  mspi_fifo_write            0x00011fd1   Lc    1  Code  De   0x6a
    163  g_MSPIState                0x10013dd0   Lc    3  Data  De   0x19f8
    164  am_bsp_pins.c              0x00000000   Lc  Abs  File  De 
    165  am_hal_cmdq.c              0x00000000   Lc  Abs  File  De 
    166  gAmHalCmdq                 0x10013a0c   Lc    3  Data  De   0x1b8
    167  gAmHalCmdQReg              0x00012844   Lc    1  Data  De   0x190
    168  am_hal_gpio.c              0x00000000   Lc  Abs  File  De 
    169  g_ui8Bit76Capabilities     0x00012b38   Lc    1  Data  De   0x4a
    170  g_ui8Inpen                 0x00012b82   Lc    1  Data  De   0x4a
    171  g_ui8nCEpins               0x00012cf4   Lc    1  Data  De   0x4a
    172  g_ui8NCEtable              0x00012bcc   Lc    1  Data  De   0x128
    173  am_hal_itm.c               0x00000000   Lc  Abs  File  De 
    174  am_hal_pwrctrl.c           0x00000000   Lc  Abs  File  De 
    175  .L_MergedGlobals           0x100111d8   Lc    3  Data  De   0x2
    176  am_hal_reset.c             0x00000000   Lc  Abs  File  De 
    177  am_hal_rtc.c               0x00000000   Lc  Abs  File  De 
    178  am_hal_tpiu.c              0x00000000   Lc  Abs  File  De 
    179  am_hal_uart.c              0x00000000   Lc  Abs  File  De 
    180  am_hal_burst.c             0x00000000   Lc  Abs  File  De 
    181  am_hal_queue.c             0x00000000   Lc  Abs  File  De 
    182  dc.s                       0x00000000   Lc  Abs  File  De 
    183  ../clib/memcpset.s         0x00000000   Lc  Abs  File  De 
    184  .text                      0x0000c248   Lc    1  Sect  De   0x8a
    185  ../clib/memcpset.s         0x00000000   Lc  Abs  File  De 
    186  .text                      0x0000c2d2   Lc    1  Sect  De   0x4e
    187  ../clib/heapaux.c          0x00000000   Lc  Abs  File  De 
    188  .text                      0x0000c320   Lc    1  Sect  De 
    189  ../clib/angel/startup.s    0x00000000   Lc  Abs  File  De 
    190  !!!main                    0x0000c134   Lc    1  Sect  De   0x8
    191  ../clib/angel/handlers.s   0x00000000   Lc  Abs  File  De 
    192  !!handler_copy             0x0000c1cc   Lc    1  Sect  De   0x1a
    193  ../fplib/d2f.s             0x00000000   Lc  Abs  File  De 
    194  x$fpl$d2f                  0x0001263c   Lc    1  Sect  De   0x62
    195  $v0                        0x0001263c   Lc    1   --   De 
    196  ../clib/angel/kernel.s     0x00000000   Lc  Abs  File  De 
    197  .ARM.Collect$$rtentry$$00000000
                                    0x0000c210   Lc    1  Sect  De 
    198  ../clib/memcpset.s         0x00000000   Lc  Abs  File  De 
    199  .text                      0x0000c326   Lc    1  Sect  De   0x64
    200  ../fplib/dnaninf.s         0x00000000   Lc  Abs  File  De 
    201  x$fpl$dnaninf              0x0001269e   Lc    1  Sect  De   0x9c
    202  $v0                        0x0001269e   Lc    1   --   De 
    203  ../fplib/fretinf.s         0x00000000   Lc  Abs  File  De 
    204  x$fpl$fretinf              0x00012754   Lc    1  Sect  De   0xa
    205  $v0                        0x00012754   Lc    1   --   De 
    206  ../fplib/usenofp.s         0x00000000   Lc  Abs  File  De 
    207  x$fpl$usenofp              0x0001275e   Lc    1  Sect  De 
    208  ../clib/angel/kernel.s     0x00000000   Lc  Abs  File  De 
    209  .ARM.Collect$$rtentry$$00000002
                                    0x0000c210   Lc    1  Sect  De 
    210  .ARM.Collect$$rtentry$$00000009
                                    0x0000c216   Lc    1  Sect  De 
    211  .ARM.Collect$$rtentry$$0000000A
                                    0x0000c216   Lc    1  Sect  De   0x4
    212  .ARM.Collect$$rtentry$$0000000C
                                    0x0000c21a   Lc    1  Sect  De 
    213  .ARM.Collect$$rtentry$$0000000D
                                    0x0000c21a   Lc    1  Sect  De   0x8
    214  ../clib/angel/kernel.s     0x00000000   Lc  Abs  File  De 
    215  .ARM.Collect$$rtentry$$00000004
                                    0x0000c210   Lc    1  Sect  De   0x6
    216  ../clib/angel/sys.s        0x00000000   Lc  Abs  File  De 
    217  .text                      0x0000c38a   Lc    1  Sect  De   0x4a
    218  ../clib/stdlib.c           0x00000000   Lc  Abs  File  De 
    219  .text                      0x0000c3d4   Lc    1  Sect  De 
    220  ../clib/angel/boardlib.s   0x00000000   Lc  Abs  File  De 
    221  ../clib/angel/boardlib.s   0x00000000   Lc  Abs  File  De 
    222  ../clib/angel/boardlib.s   0x00000000   Lc  Abs  File  De 
    223  ../clib/libinit.s          0x00000000   Lc  Abs  File  De 
    224  .ARM.Collect$$libinit$$00000000
                                    0x0000c204   Lc    1  Sect  De   0x2
    225  ../clib/angel/sys.s        0x00000000   Lc  Abs  File  De 
    226  .text                      0x0000c3e8   Lc    1  Sect  De   0x8
    227  .bss                       0x10011170   Lc    3  Sect  De   0x60
    228  ../clib/angel/kernel.s     0x00000000   Lc  Abs  File  De 
    229  .ARM.Collect$$rtexit$$00000000
                                    0x0000c222   Lc    1  Sect  De   0x2
    230  ../clib/libinit.s          0x00000000   Lc  Abs  File  De 
    231  .ARM.Collect$$libinit$$00000001
                                    0x0000c206   Lc    1  Sect  De   0x4
    232  .ARM.Collect$$libinit$$00000004
                                    0x0000c20a   Lc    1  Sect  De 
    233  .ARM.Collect$$libinit$$00000006
                                    0x0000c20a   Lc    1  Sect  De 
    234  .ARM.Collect$$libinit$$0000000C
                                    0x0000c20a   Lc    1  Sect  De 
    235  .ARM.Collect$$libinit$$0000000E
                                    0x0000c20a   Lc    1  Sect  De 
    236  .ARM.Collect$$libinit$$00000010
                                    0x0000c20a   Lc    1  Sect  De 
    237  .ARM.Collect$$libinit$$00000013
                                    0x0000c20a   Lc    1  Sect  De 
    238  .ARM.Collect$$libinit$$00000015
                                    0x0000c20a   Lc    1  Sect  De 
    239  .ARM.Collect$$libinit$$00000017
                                    0x0000c20a   Lc    1  Sect  De 
    240  .ARM.Collect$$libinit$$00000019
                                    0x0000c20a   Lc    1  Sect  De 
    241  .ARM.Collect$$libinit$$0000001B
                                    0x0000c20a   Lc    1  Sect  De 
    242  .ARM.Collect$$libinit$$0000001D
                                    0x0000c20a   Lc    1  Sect  De 
    243  .ARM.Collect$$libinit$$0000001F
                                    0x0000c20a   Lc    1  Sect  De 
    244  .ARM.Collect$$libinit$$00000021
                                    0x0000c20a   Lc    1  Sect  De 
    245  .ARM.Collect$$libinit$$00000023
                                    0x0000c20a   Lc    1  Sect  De 
    246  .ARM.Collect$$libinit$$00000025
                                    0x0000c20a   Lc    1  Sect  De 
    247  .ARM.Collect$$libinit$$00000027
                                    0x0000c20a   Lc    1  Sect  De 
    248  .ARM.Collect$$libinit$$0000002E
                                    0x0000c20a   Lc    1  Sect  De 
    249  .ARM.Collect$$libinit$$00000030
                                    0x0000c20a   Lc    1  Sect  De 
    250  .ARM.Collect$$libinit$$00000032
                                    0x0000c20a   Lc    1  Sect  De 
    251  .ARM.Collect$$libinit$$00000034
                                    0x0000c20a   Lc    1  Sect  De 
    252  .ARM.Collect$$libinit$$00000035
                                    0x0000c20a   Lc    1  Sect  De   0x2
    253  ../clib/angel/kernel.s     0x00000000   Lc  Abs  File  De 
    254  .ARM.Collect$$rtexit$$00000002
                                    0x0000c224   Lc    1  Sect  De 
    255  .ARM.Collect$$rtexit$$00000003
                                    0x0000c224   Lc    1  Sect  De   0x4
    256  .ARM.Collect$$rtexit$$00000004
                                    0x0000c228   Lc    1  Sect  De   0x6
    257  ../clib/armsys.c           0x00000000   Lc  Abs  File  De 
    258  ../clib/armsys.c           0x00000000   Lc  Abs  File  De 
    259  ../fplib/fpinit.s          0x00000000   Lc  Abs  File  De 
    260  x$fpl$fpinit               0x0001273a   Lc    1  Sect  De   0x1a
    261  $v0                        0x0001273a   Lc    1   --   De 
    262  ../clib/angel/sysapp.c     0x00000000   Lc  Abs  File  De 
    263  .text                      0x0000c3f0   Lc    1  Sect  De 
    264  ../clib/angel/sysapp.c     0x00000000   Lc  Abs  File  De 
    265  ../clib/angel/boardlib.s   0x00000000   Lc  Abs  File  De 
    266  ../clib/armsys.c           0x00000000   Lc  Abs  File  De 
    267  ../clib/armsys.c           0x00000000   Lc  Abs  File  De 
    268  ../clib/libinit.s          0x00000000   Lc  Abs  File  De 
    269  .ARM.Collect$$libshutdown$$00000000
                                    0x0000c20c   Lc    1  Sect  De   0x2
    270  ../clib/angel/sysapp.c     0x00000000   Lc  Abs  File  De 
    271  ../clib/angel/sysapp.c     0x00000000   Lc  Abs  File  De 
    272  ../clib/angel/sys.s        0x00000000   Lc  Abs  File  De 
    273  .text                      0x0000c3fc   Lc    1  Sect  De   0x2
    274  ../clib/angel/sys.s        0x00000000   Lc  Abs  File  De 
    275  .text                      0x0000c3fe   Lc    1  Sect  De 
    276  ../clib/heapalloc.c        0x00000000   Lc  Abs  File  De 
    277  ../clib/signal.c           0x00000000   Lc  Abs  File  De 
    278  ../clib/signal.c           0x00000000   Lc  Abs  File  De 
    279  ../clib/libinit.s          0x00000000   Lc  Abs  File  De 
    280  .ARM.Collect$$libshutdown$$00000002
                                    0x0000c20e   Lc    1  Sect  De 
    281  .ARM.Collect$$libshutdown$$00000004
                                    0x0000c20e   Lc    1  Sect  De 
    282  .ARM.Collect$$libshutdown$$00000007
                                    0x0000c20e   Lc    1  Sect  De 
    283  .ARM.Collect$$libshutdown$$0000000A
                                    0x0000c20e   Lc    1  Sect  De 
    284  .ARM.Collect$$libshutdown$$0000000C
                                    0x0000c20e   Lc    1  Sect  De 
    285  .ARM.Collect$$libshutdown$$0000000F
                                    0x0000c20e   Lc    1  Sect  De 
    286  .ARM.Collect$$libshutdown$$00000010
                                    0x0000c20e   Lc    1  Sect  De   0x2
    287  ../clib/angel/rt.s         0x00000000   Lc  Abs  File  De 
    288  ../clib/signal.c           0x00000000   Lc  Abs  File  De 
    289  ../clib/signal.c           0x00000000   Lc  Abs  File  De 
    290  ../clib/signal.c           0x00000000   Lc  Abs  File  De 
    291  ../clib/signal.c           0x00000000   Lc  Abs  File  De 
    292  ../clib/angel/sysapp.c     0x00000000   Lc  Abs  File  De 
    293  ../clib/angel/sysapp.c     0x00000000   Lc  Abs  File  De 
    294  ../clib/signal.s           0x00000000   Lc  Abs  File  De 
    295  ../clib/signal.c           0x00000000   Lc  Abs  File  De 
    296  ../clib/signal.c           0x00000000   Lc  Abs  File  De 
    297  ../clib/signal.c           0x00000000   Lc  Abs  File  De 
    298  ../clib/signal.c           0x00000000   Lc  Abs  File  De 
    299  ../clib/signal.c           0x00000000   Lc  Abs  File  De 
    300  ../clib/signal.c           0x00000000   Lc  Abs  File  De 
    301  ../clib/signal.c           0x00000000   Lc  Abs  File  De 
    302  ../clib/signal.c           0x00000000   Lc  Abs  File  De 
    303  ../clib/angel/dczerorl2.s  0x00000000   Lc  Abs  File  De 
    304  !!dczerorl2                0x0000c170   Lc    1  Sect  De   0x5a
    305  ../clib/angel/scatter.s    0x00000000   Lc  Abs  File  De 
    306  !!!scatter                 0x0000c13c   Lc    1  Sect  De   0x34
    307  ../clib/angel/handlers.s   0x00000000   Lc  Abs  File  De 
    308  !!handler_zi               0x0000c1e8   Lc    1  Sect  De   0x1c
    309  BuildAttributes$$THM_ISAv4$E$P$D$K$B$S$7EM$VFPi3$EXTD16$VFPS$VFMA$PE$A:L22UL41UL21$X:L11$S22US41US21$IEEE1$IW$~IW$USESV6$~STKCKD$USESV7$~SHL$OTIME$ROPI$EBA8$UX$STANDARDLIB$REQ8$PRES8$EABIv2
                                    0x00000000   Gb  Abs   --   Hi 
    310  __Vectors                  0x0000c000   Gb    1  Data  Hi 
    311  __Patchable                0x0000c0c8   Gb    1  Data  Hi 
    312  Reset_Handler              0x0000c101   Wk    1  Code  Hi   0x1c
    313  NMI_Handler                0x0000c11f   Wk    1  Code  Hi   0x2
    314  MemManage_Handler          0x0000c121   Wk    1  Code  Hi   0x2
    315  BusFault_Handler           0x0000c123   Wk    1  Code  Hi   0x2
    316  UsageFault_Handler         0x0000c125   Wk    1  Code  Hi   0x2
    317  SVC_Handler                0x0000c127   Wk    1  Code  Hi   0x2
    318  DebugMon_Handler           0x0000c129   Wk    1  Code  Hi   0x2
    319  PendSV_Handler             0x0000c12b   Wk    1  Code  Hi   0x2
    320  SysTick_Handler            0x0000c12d   Wk    1  Code  Hi   0x2
    321  am_adc_isr                 0x0000c12f   Wk    1  Code  Hi 
    322  am_ble_isr                 0x0000c12f   Wk    1  Code  Hi 
    323  am_brownout_isr            0x0000c12f   Wk    1  Code  Hi 
    324  am_clkgen_isr              0x0000c12f   Wk    1  Code  Hi 
    325  am_ctimer_isr              0x0000c12f   Wk    1  Code  Hi 
    326  am_gpio_isr                0x0000c12f   Wk    1  Code  Hi 
    327  am_iomaster0_isr           0x0000c12f   Wk    1  Code  Hi 
    328  am_iomaster1_isr           0x0000c12f   Wk    1  Code  Hi 
    329  am_iomaster2_isr           0x0000c12f   Wk    1  Code  Hi 
    330  am_iomaster3_isr           0x0000c12f   Wk    1  Code  Hi 
    331  am_iomaster4_isr           0x0000c12f   Wk    1  Code  Hi 
    332  am_iomaster5_isr           0x0000c12f   Wk    1  Code  Hi 
    333  am_ioslave_acc_isr         0x0000c12f   Wk    1  Code  Hi 
    334  am_ioslave_ios_isr         0x0000c12f   Wk    1  Code  Hi 
    335  am_mspi0_isr               0x0000c12f   Wk    1  Code  Hi 
    336  am_mspi2_isr               0x0000c12f   Wk    1  Code  Hi 
    337  am_pdm0_isr                0x0000c12f   Wk    1  Code  Hi 
    338  am_rtc_isr                 0x0000c12f   Wk    1  Code  Hi 
    339  am_scard_isr               0x0000c12f   Wk    1  Code  Hi 
    340  am_software0_isr           0x0000c12f   Wk    1  Code  Hi 
    341  am_stimer_cmpr0_isr        0x0000c12f   Wk    1  Code  Hi 
    342  am_stimer_cmpr1_isr        0x0000c12f   Wk    1  Code  Hi 
    343  am_stimer_cmpr2_isr        0x0000c12f   Wk    1  Code  Hi 
    344  am_stimer_cmpr3_isr        0x0000c12f   Wk    1  Code  Hi 
    345  am_stimer_cmpr4_isr        0x0000c12f   Wk    1  Code  Hi 
    346  am_stimer_cmpr5_isr        0x0000c12f   Wk    1  Code  Hi 
    347  am_stimer_cmpr6_isr        0x0000c12f   Wk    1  Code  Hi 
    348  am_stimer_cmpr7_isr        0x0000c12f   Wk    1  Code  Hi 
    349  am_stimer_isr              0x0000c12f   Wk    1  Code  Hi 
    350  am_uart0_isr               0x0000c12f   Wk    1  Code  Hi 
    351  am_uart1_isr               0x0000c12f   Wk    1  Code  Hi 
    352  am_uart_isr                0x0000c12f   Wk    1  Code  Hi 
    353  am_vcomp_isr               0x0000c12f   Wk    1  Code  Hi 
    354  am_watchdog_isr            0x0000c12f   Wk    1  Code  Hi 
    355  __main                     0x0000c135   Gb    1  Code  Hi   0x8
    356  __scatterload              0x0000c13d   Gb    1  Code  Hi 
    357  __scatterload_rt2          0x0000c13d   Gb    1  Code  Hi   0x2c
    358  __scatterload_rt2_thumb_only
                                    0x0000c13d   Gb    1  Code  Hi 
    359  __scatterload_null         0x0000c14b   Gb    1  Code  Hi 
    360  __decompress               0x0000c171   Gb    1  Code  Hi   0x5a
    361  __decompress1              0x0000c171   Gb    1  Code  Hi 
    362  __scatterload_copy         0x0000c1cd   Gb    1  Code  Hi   0x1a
    363  __scatterload_zeroinit     0x0000c1e9   Gb    1  Code  Hi   0x1c
    364  __rt_lib_init              0x0000c205   Gb    1  Code  De 
    365  __rt_lib_init_fp_1         0x0000c207   Gb    1  Code  Hi 
    366  __rt_lib_init_alloca_1     0x0000c20b   Gb    1  Code  Hi 
    367  __rt_lib_init_argv_1       0x0000c20b   Gb    1  Code  Hi 
    368  __rt_lib_init_atexit_1     0x0000c20b   Gb    1  Code  Hi 
    369  __rt_lib_init_clock_1      0x0000c20b   Gb    1  Code  Hi 
    370  __rt_lib_init_cpp_1        0x0000c20b   Gb    1  Code  Hi 
    371  __rt_lib_init_exceptions_1 0x0000c20b   Gb    1  Code  Hi 
    372  __rt_lib_init_fp_trap_1    0x0000c20b   Gb    1  Code  Hi 
    373  __rt_lib_init_getenv_1     0x0000c20b   Gb    1  Code  Hi 
    374  __rt_lib_init_heap_1       0x0000c20b   Gb    1  Code  Hi 
    375  __rt_lib_init_lc_collate_1 0x0000c20b   Gb    1  Code  Hi 
    376  __rt_lib_init_lc_ctype_1   0x0000c20b   Gb    1  Code  Hi 
    377  __rt_lib_init_lc_monetary_1
                                    0x0000c20b   Gb    1  Code  Hi 
    378  __rt_lib_init_lc_numeric_1 0x0000c20b   Gb    1  Code  Hi 
    379  __rt_lib_init_lc_time_1    0x0000c20b   Gb    1  Code  Hi 
    380  __rt_lib_init_preinit_1    0x0000c20b   Gb    1  Code  Hi 
    381  __rt_lib_init_rand_1       0x0000c20b   Gb    1  Code  Hi 
    382  __rt_lib_init_relocate_pie_1
                                    0x0000c20b   Gb    1  Code  Hi 
    383  __rt_lib_init_return       0x0000c20b   Gb    1  Code  Hi 
    384  __rt_lib_init_signal_1     0x0000c20b   Gb    1  Code  Hi 
    385  __rt_lib_init_stdio_1      0x0000c20b   Gb    1  Code  Hi 
    386  __rt_lib_init_user_alloc_1 0x0000c20b   Gb    1  Code  Hi 
    387  __rt_lib_shutdown          0x0000c20d   Gb    1  Code  De 
    388  __rt_lib_shutdown_cpp_1    0x0000c20f   Gb    1  Code  Hi 
    389  __rt_lib_shutdown_fp_trap_1
                                    0x0000c20f   Gb    1  Code  Hi 
    390  __rt_lib_shutdown_heap_1   0x0000c20f   Gb    1  Code  Hi 
    391  __rt_lib_shutdown_return   0x0000c20f   Gb    1  Code  Hi 
    392  __rt_lib_shutdown_signal_1 0x0000c20f   Gb    1  Code  Hi 
    393  __rt_lib_shutdown_stdio_1  0x0000c20f   Gb    1  Code  Hi 
    394  __rt_lib_shutdown_user_alloc_1
                                    0x0000c20f   Gb    1  Code  Hi 
    395  __rt_entry                 0x0000c211   Gb    1  Code  Hi 
    396  __rt_entry_presh_1         0x0000c211   Gb    1  Code  Hi 
    397  __rt_entry_sh              0x0000c211   Gb    1  Code  Hi 
    398  __rt_entry_li              0x0000c217   Gb    1  Code  Hi 
    399  __rt_entry_postsh_1        0x0000c217   Gb    1  Code  Hi 
    400  __rt_entry_main            0x0000c21b   Gb    1  Code  Hi 
    401  __rt_entry_postli_1        0x0000c21b   Gb    1  Code  Hi 
    402  __rt_exit                  0x0000c223   Gb    1  Code  De 
    403  __rt_exit_ls               0x0000c225   Gb    1  Code  Hi 
    404  __rt_exit_prels_1          0x0000c225   Gb    1  Code  Hi 
    405  __rt_exit_exit             0x0000c229   Gb    1  Code  Hi 
    406  __user_initial_stackheap   0x0000c231   Gb    1  Code  Hi   0xa
    407  __aeabi_memcpy             0x0000c249   Gb    1  Code  De 
    408  __rt_memcpy                0x0000c249   Gb    1  Code  De   0x8a
    409  _memcpy_lastbytes          0x0000c2af   Gb    1  Code  De 
    410  __aeabi_memclr4            0x0000c2d3   Gb    1  Code  De 
    411  __aeabi_memclr8            0x0000c2d3   Gb    1  Code  De 
    412  __rt_memclr_w              0x0000c2d3   Gb    1  Code  De 
    413  _memset_w                  0x0000c2d7   Gb    1  Code  De   0x4a
    414  __use_two_region_memory    0x0000c321   Gb    1  Code  Hi   0x2
    415  __rt_heap_escrow$2region   0x0000c323   Gb    1  Code  De   0x2
    416  __rt_heap_expand$2region   0x0000c325   Gb    1  Code  De   0x2
    417  __aeabi_memcpy4            0x0000c327   Gb    1  Code  De 
    418  __aeabi_memcpy8            0x0000c327   Gb    1  Code  De 
    419  __rt_memcpy_w              0x0000c327   Gb    1  Code  De   0x64
    420  _memcpy_lastbytes_aligned  0x0000c36f   Gb    1  Code  De 
    421  __user_setup_stackheap     0x0000c38b   Gb    1  Code  De   0x4a
    422  exit                       0x0000c3d5   Gb    1  Code  De   0x12
    423  __user_libspace            0x0000c3e9   Wk    1  Code  De   0x8
    424  __user_perproc_libspace    0x0000c3e9   Wk    1  Code  De 
    425  __user_perthread_libspace  0x0000c3e9   Wk    1  Code  De 
    426  _sys_exit                  0x0000c3f1   Gb    1  Code  De   0x8
    427  __I$use$semihosting        0x0000c3fd   Gb    1  Code  Hi 
    428  __use_no_semihosting_swi   0x0000c3fd   Gb    1  Code  Hi   0x2
    429  __semihosting_library_function
                                    0x0000c3ff   Gb    1  Code  Hi 
    430  HardFault_Handler          0x0000c401   Gb    1  Code  Hi   0x1e
    431  am_bsp_itm_printf_enable   0x0000c455   Gb    1  Code  Hi   0x44
    432  am_bsp_low_power_init      0x0000c499   Gb    1  Code  Hi   0xa2
    433  am_bsp_mspi_pins_enable    0x0000c53d   Gb    1  Code  Hi   0x540
    434  am_devices_mspi_atxp032_deinit
                                    0x0000cd25   Gb    1  Code  Hi   0xc0
    435  am_devices_mspi_atxp032_disable_scrambling
                                    0x0000cde5   Gb    1  Code  Hi   0x5c
    436  am_devices_mspi_atxp032_disable_xip
                                    0x0000ce41   Gb    1  Code  Hi   0x5c
    437  am_devices_mspi_atxp032_enable_scrambling
                                    0x0000ce9d   Gb    1  Code  Hi   0x30
    438  am_devices_mspi_atxp032_enable_xip
                                    0x0000cecd   Gb    1  Code  Hi   0x48
    439  am_devices_mspi_atxp032_id 0x0000cf15   Gb    1  Code  Hi   0x62
    440  am_devices_mspi_atxp032_init
                                    0x0000cf79   Gb    1  Code  Hi   0x410
    441  am_devices_mspi_atxp032_mass_erase
                                    0x0000d389   Gb    1  Code  Hi   0xf0
    442  am_devices_mspi_atxp032_read
                                    0x0000d479   Gb    1  Code  Hi   0xdc
    443  am_devices_mspi_atxp032_reset
                                    0x0000d555   Gb    1  Code  Hi   0x82
    444  am_devices_mspi_atxp032_sector_erase
                                    0x0000d5d9   Gb    1  Code  Hi   0x1d4
    445  am_devices_mspi_atxp032_write
                                    0x0000d7ad   Gb    1  Code  Hi   0x232
    446  am_getStackedReg           0x0000d9e1   Gb    1  Code  Hi   0x12
    447  am_hal_burst_ldo_charge    0x0000d9f5   Gb    1  Code  Hi   0xc4
    448  am_hal_cachectrl_config    0x0000dab9   Gb    1  Code  Hi   0x48
    449  am_hal_cachectrl_control   0x0000db01   Gb    1  Code  Hi   0x1c4
    450  am_hal_cachectrl_enable    0x0000dcc5   Gb    1  Code  Hi   0x14
    451  am_hal_clkgen_control      0x0000dcd9   Gb    1  Code  Hi   0x15a
    452  am_hal_clkgen_status_get   0x0000de35   Gb    1  Code  Hi   0x3a
    453  am_hal_cmdq_alloc_block    0x0000de71   Gb    1  Code  Hi   0xce
    454  am_hal_cmdq_disable        0x0000df41   Gb    1  Code  Hi   0x38
    455  am_hal_cmdq_enable         0x0000df79   Gb    1  Code  Hi   0x38
    456  am_hal_cmdq_error_resume   0x0000dfb1   Gb    1  Code  Hi   0x9c
    457  am_hal_cmdq_get_status     0x0000e04d   Gb    1  Code  Hi   0x9a
    458  am_hal_cmdq_init           0x0000e0e9   Gb    1  Code  Hi   0xbe
    459  am_hal_cmdq_post_block     0x0000e1a9   Gb    1  Code  Hi   0x48
    460  am_hal_cmdq_post_loop_block
                                    0x0000e1f1   Gb    1  Code  Hi   0x54
    461  am_hal_cmdq_release_block  0x0000e245   Gb    1  Code  Hi   0x30
    462  am_hal_cmdq_reset          0x0000e275   Gb    1  Code  Hi   0x5c
    463  am_hal_cmdq_term           0x0000e2d1   Gb    1  Code  Hi   0x86
    464  am_hal_flash_delay         0x0000e359   Gb    1  Code  Hi   0x2a
    465  am_hal_flash_delay_status_check
                                    0x0000e385   Gb    1  Code  Hi   0xb6
    466  am_hal_flash_load_ui32     0x0000e43d   Gb    1  Code  Hi   0x8
    467  am_hal_flash_store_ui32    0x0000e445   Gb    1  Code  Hi   0x2c
    468  am_hal_gpio_pinconfig      0x0000e471   Gb    1  Code  Hi   0x26a
    469  am_hal_gpio_state_write    0x0000e6dd   Gb    1  Code  Hi   0xb4
    470  am_hal_interrupt_master_disable
                                    0x0000e791   Gb    1  Code  Hi   0x8
    471  am_hal_interrupt_master_enable
                                    0x0000e799   Gb    1  Code  Hi   0x8
    472  am_hal_interrupt_master_set
                                    0x0000e7a1   Gb    1  Code  Hi   0x6
    473  am_hal_itm_enable          0x0000e7a9   Gb    1  Code  Hi   0x56
    474  am_hal_itm_print           0x0000e801   Gb    1  Code  Hi   0x136
    475  am_hal_mcuctrl_control     0x0000e939   Gb    1  Code  Hi   0x182
    476  am_hal_mcuctrl_info_get    0x0000eabd   Gb    1  Code  Hi   0x128
    477  am_hal_mspi_blocking_transfer
                                    0x0000ebe5   Gb    1  Code  Hi   0x128
    478  am_hal_mspi_control        0x0000ed0d   Gb    1  Code  Hi   0xa50
    479  am_hal_mspi_deinitialize   0x0000f75d   Gb    1  Code  Hi   0x76
    480  am_hal_mspi_device_configure
                                    0x0000f7d5   Gb    1  Code  Hi   0x1f8
    481  am_hal_mspi_disable        0x0000f9d9   Gb    1  Code  Hi   0x68
    482  am_hal_mspi_enable         0x0000fa41   Gb    1  Code  Hi   0xa2
    483  am_hal_mspi_initialize     0x0000fae5   Gb    1  Code  Hi   0x48
    484  am_hal_mspi_interrupt_clear
                                    0x0000fb2d   Gb    1  Code  Hi   0x2c
    485  am_hal_mspi_interrupt_disable
                                    0x0000fb59   Gb    1  Code  Hi   0x30
    486  am_hal_mspi_interrupt_enable
                                    0x0000fb89   Gb    1  Code  Hi   0x30
    487  am_hal_mspi_interrupt_service
                                    0x0000fbb9   Gb    1  Code  Hi   0x2ba
    488  am_hal_mspi_interrupt_status_get
                                    0x0000fe75   Gb    1  Code  Hi   0x3c
    489  am_hal_mspi_nonblocking_transfer
                                    0x0000feb1   Gb    1  Code  Hi   0x190
    490  am_hal_mspi_power_control  0x00010041   Gb    1  Code  Hi   0x264
    491  am_hal_pwrctrl_low_power_init
                                    0x000102a5   Gb    1  Code  Hi   0x1fe
    492  am_hal_pwrctrl_periph_disable
                                    0x000104a5   Gb    1  Code  Hi   0xa8
    493  am_hal_pwrctrl_periph_enable
                                    0x0001054d   Gb    1  Code  Hi   0x76
    494  am_hal_rtc_osc_disable     0x000105c5   Gb    1  Code  Hi   0x12
    495  am_hal_tpiu_enable         0x000105d9   Gb    1  Code  Hi   0x98
    496  am_mspi1_isr               0x00010671   Gb    1  Code  Hi   0x30
    497  am_util_delay_ms           0x000106a1   Gb    1  Code  Hi   0x30
    498  am_util_delay_us           0x000106d1   Gb    1  Code  Hi   0x30
    499  am_util_faultisr_collect_data
                                    0x00010701   Gb    1  Code  Hi   0x32a
    500  am_util_stdio_printf       0x00010a2d   Gb    1  Code  Hi   0x5c
    501  am_util_stdio_printf_init  0x00010a89   Gb    1  Code  Hi   0x14
    502  am_util_stdio_terminal_clear
                                    0x00010a9d   Gb    1  Code  Hi   0x10
    503  am_util_stdio_vsprintf     0x00010aad   Gb    1  Code  Hi   0x654
    504  am_valid_sp                0x00011101   Gb    1  Code  Hi   0x36
    505  build_dma_cmdlist          0x00011139   Gb    1  Code  Hi   0x15a
    506  main                       0x00011685   Gb    1  Code  Hi   0x51a
    507  __aeabi_d2f                0x0001263d   Gb    1  Code  De 
    508  _d2f                       0x0001263d   Gb    1  Code  De   0x62
    509  __fpl_dnaninf              0x0001269f   Gb    1  Code  De   0x9c
    510  _fp_init                   0x0001273b   Gb    1  Code  De   0x1a
    511  __fplib_config_fpu_vfp     0x00012753   Gb    1  Code  De 
    512  __fplib_config_pureend_doubles
                                    0x00012753   Gb    1  Code  De 
    513  __fpl_fretinf              0x00012755   Gb    1  Code  De   0xa
    514  __I$use$fp                 0x0001275e   Gb    1   --   De 
    515  MSPI_Flash_Config          0x00012760   Gb    1  Data  Hi   0x14
    516  am_hal_cachectrl_defaults  0x00012774   Gb    1  Data  Hi   0x3
    517  am_hal_pwrctrl_peripheral_control
                                    0x00012778   Gb    1  Data  Hi   0xcc
    518  g_AM_BSP_GPIO_DSPL0_CE0    0x000129d4   Gb    1  Data  Hi   0x4
    519  g_AM_BSP_GPIO_DSPL0_D0     0x000129d8   Gb    1  Data  Hi   0x4
    520  g_AM_BSP_GPIO_DSPL0_D1     0x000129dc   Gb    1  Data  Hi   0x4
    521  g_AM_BSP_GPIO_DSPL0_D2     0x000129e0   Gb    1  Data  Hi   0x4
    522  g_AM_BSP_GPIO_DSPL0_D3     0x000129e4   Gb    1  Data  Hi   0x4
    523  g_AM_BSP_GPIO_DSPL0_SCK    0x000129e8   Gb    1  Data  Hi   0x4
    524  g_AM_BSP_GPIO_FLASH0_CE0   0x000129ec   Gb    1  Data  Hi   0x4
    525  g_AM_BSP_GPIO_FLASH0_D0    0x000129f0   Gb    1  Data  Hi   0x4
    526  g_AM_BSP_GPIO_FLASH0_D1    0x000129f4   Gb    1  Data  Hi   0x4
    527  g_AM_BSP_GPIO_FLASH0_D2    0x000129f8   Gb    1  Data  Hi   0x4
    528  g_AM_BSP_GPIO_FLASH0_D3    0x000129fc   Gb    1  Data  Hi   0x4
    529  g_AM_BSP_GPIO_FLASH0_SCK   0x00012a00   Gb    1  Data  Hi   0x4
    530  g_AM_BSP_GPIO_FLASH1_CE0   0x00012a04   Gb    1  Data  Hi   0x4
    531  g_AM_BSP_GPIO_FLASH1_D0    0x00012a08   Gb    1  Data  Hi   0x4
    532  g_AM_BSP_GPIO_FLASH1_D1    0x00012a0c   Gb    1  Data  Hi   0x4
    533  g_AM_BSP_GPIO_FLASH1_D2    0x00012a10   Gb    1  Data  Hi   0x4
    534  g_AM_BSP_GPIO_FLASH1_D3    0x00012a14   Gb    1  Data  Hi   0x4
    535  g_AM_BSP_GPIO_FLASH1_D4    0x00012a18   Gb    1  Data  Hi   0x4
    536  g_AM_BSP_GPIO_FLASH1_D5    0x00012a1c   Gb    1  Data  Hi   0x4
    537  g_AM_BSP_GPIO_FLASH1_D6    0x00012a20   Gb    1  Data  Hi   0x4
    538  g_AM_BSP_GPIO_FLASH1_D7    0x00012a24   Gb    1  Data  Hi   0x4
    539  g_AM_BSP_GPIO_FLASH1_DS    0x00012a28   Gb    1  Data  Hi   0x4
    540  g_AM_BSP_GPIO_FLASH1_SCK   0x00012a2c   Gb    1  Data  Hi   0x4
    541  g_AM_BSP_GPIO_ITM_SWO      0x00012a30   Gb    1  Data  Hi   0x4
    542  g_AM_BSP_GPIO_MSPI0_CE0    0x00012a34   Gb    1  Data  Hi   0x4
    543  g_AM_BSP_GPIO_MSPI0_CE1    0x00012a38   Gb    1  Data  Hi   0x4
    544  g_AM_BSP_GPIO_MSPI0_D0     0x00012a3c   Gb    1  Data  Hi   0x4
    545  g_AM_BSP_GPIO_MSPI0_D1     0x00012a40   Gb    1  Data  Hi   0x4
    546  g_AM_BSP_GPIO_MSPI0_D2     0x00012a44   Gb    1  Data  Hi   0x4
    547  g_AM_BSP_GPIO_MSPI0_D3     0x00012a48   Gb    1  Data  Hi   0x4
    548  g_AM_BSP_GPIO_MSPI0_SCK    0x00012a4c   Gb    1  Data  Hi   0x4
    549  g_AM_BSP_GPIO_MSPI1_CE0    0x00012a50   Gb    1  Data  Hi   0x4
    550  g_AM_BSP_GPIO_MSPI1_CE1    0x00012a54   Gb    1  Data  Hi   0x4
    551  g_AM_BSP_GPIO_MSPI1_D0     0x00012a58   Gb    1  Data  Hi   0x4
    552  g_AM_BSP_GPIO_MSPI1_D1     0x00012a5c   Gb    1  Data  Hi   0x4
    553  g_AM_BSP_GPIO_MSPI1_D2     0x00012a60   Gb    1  Data  Hi   0x4
    554  g_AM_BSP_GPIO_MSPI1_D3     0x00012a64   Gb    1  Data  Hi   0x4
    555  g_AM_BSP_GPIO_MSPI1_D4     0x00012a68   Gb    1  Data  Hi   0x4
    556  g_AM_BSP_GPIO_MSPI1_D5     0x00012a6c   Gb    1  Data  Hi   0x4
    557  g_AM_BSP_GPIO_MSPI1_D6     0x00012a70   Gb    1  Data  Hi   0x4
    558  g_AM_BSP_GPIO_MSPI1_D7     0x00012a74   Gb    1  Data  Hi   0x4
    559  g_AM_BSP_GPIO_MSPI1_DMDQS  0x00012a78   Gb    1  Data  Hi   0x4
    560  g_AM_BSP_GPIO_MSPI1_SCK    0x00012a7c   Gb    1  Data  Hi   0x4
    561  g_AM_BSP_GPIO_MSPI2_CE0    0x00012a80   Gb    1  Data  Hi   0x4
    562  g_AM_BSP_GPIO_MSPI2_CE1    0x00012a84   Gb    1  Data  Hi   0x4
    563  g_AM_BSP_GPIO_MSPI2_D0     0x00012a88   Gb    1  Data  Hi   0x4
    564  g_AM_BSP_GPIO_MSPI2_D1     0x00012a8c   Gb    1  Data  Hi   0x4
    565  g_AM_BSP_GPIO_MSPI2_D2     0x00012a90   Gb    1  Data  Hi   0x4
    566  g_AM_BSP_GPIO_MSPI2_D3     0x00012a94   Gb    1  Data  Hi   0x4
    567  g_AM_BSP_GPIO_MSPI2_SCK    0x00012a98   Gb    1  Data  Hi   0x4
    568  g_AM_BSP_GPIO_PSRAM_CE0    0x00012a9c   Gb    1  Data  Hi   0x4
    569  g_AM_BSP_GPIO_PSRAM_D0     0x00012aa0   Gb    1  Data  Hi   0x4
    570  g_AM_BSP_GPIO_PSRAM_D1     0x00012aa4   Gb    1  Data  Hi   0x4
    571  g_AM_BSP_GPIO_PSRAM_D2     0x00012aa8   Gb    1  Data  Hi   0x4
    572  g_AM_BSP_GPIO_PSRAM_D3     0x00012aac   Gb    1  Data  Hi   0x4
    573  g_AM_BSP_GPIO_PSRAM_SCK    0x00012ab0   Gb    1  Data  Hi   0x4
    574  g_AM_HAL_GPIO_OUTPUT       0x00012ab4   Gb    1  Data  Hi   0x4
    575  g_am_hal_mcuctrl_flash_size
                                    0x00012ab8   Gb    1  Data  Hi   0x40
    576  g_am_hal_mcuctrl_sram_size 0x00012af8   Gb    1  Data  Hi   0x40
    577  Region$$Table$$Base        0x00013474   Gb    1   --   Hi 
    578  Region$$Table$$Limit       0x000134a4   Gb    1   --   Hi 
    579  MSPI_ATXP032_Octal_CE0_MSPIConfig
                                    0x10011000   Gb    2  Data  Hi   0x24
    580  MSPI_ATXP032_Octal_CE1_MSPIConfig
                                    0x10011024   Gb    2  Data  Hi   0x24
    581  MSPI_ATXP032_Quad_CE0_MSPIConfig
                                    0x10011048   Gb    2  Data  Hi   0x24
    582  MSPI_ATXP032_Quad_CE1_MSPIConfig
                                    0x1001106c   Gb    2  Data  Hi   0x24
    583  MSPI_ATXP032_Serial_CE0_MSPIConfig
                                    0x10011090   Gb    2  Data  Hi   0x24
    584  MSPI_ATXP032_Serial_CE1_MSPIConfig
                                    0x100110b4   Gb    2  Data  Hi   0x24
    585  am_bsp_psLEDs              0x100110d8   Gb    2  Data  Hi   0x28
    586  device_func                0x10011100   Gb    2  Data  Hi   0x40
    587  g_ATXP032_DevConfig        0x10011140   Gb    2  Data  Hi   0x30
    588  __libspace_start           0x10011170   Gb    3  Data  De   0x60
    589  __temporary_stack_top$libspace
                                    0x100111d0   Gb    3  Data  De 
    590  g_bSimobuckTrimsDone       0x100111d8   Gb    3  Data  Hi   0x1
    591  g_bVddfTrimsDone           0x100111d9   Gb    3  Data  Hi   0x1
    592  DMATCBBuffer               0x100111dc   Gb    3  Data  Hi   0x2800
    593  gAmAtxp032                 0x100139dc   Gb    3  Data  Hi   0x30
    594  gAmHalResetStatus          0x10013bc4   Gb    3  Data  Hi   0x4
    595  gFaultStack                0x10013bc8   Gb    3  Data  Hi   0x200
    596  g_FlashHdl                 0x10013dc8   Gb    3  Data  Hi   0x4
    597  g_MSPIHdl                  0x10013dcc   Gb    3  Data  Hi   0x4
    598  g_TempBuf                  0x100157c8   Gb    3  Data  Hi   0x800
    599  g_pfnCharPrint             0x10015fcc   Gb    3  Data  Hi   0x4


** Section #12 '.strtab' (SHT_STRTAB)
    Size   : 9852 bytes

            #  Offset String
        ====================================

            1      1: $d
            2      4: $t
            3      7: $t.0
            4     12: $d.4
            5     17: $t.2
            6     22: $d.15
            7     28: $t.16
            8     34: $d.17
            9     40: $t.18
           10     46: $d.19
           11     52: $t.20
           12     58: $t.5
           13     63: $d.1
           14     68: $d.2
           15     73: $t.3
           16     78: $d.7
           17     83: $t.8
           18     88: $d.3
           19     93: $t.4
           20     98: $d.5
           21    103: $t.6
           22    108: $d.11
           23    114: $t.12
           24    120: $d.realdata
           25    132: mspi_flash_loader.c
           26    152: __NVIC_EnableIRQ
           27    169: run_new_image
           28    183: .L.str
           29    190: .L.str.13
           30    200: .L.str.14
           31    210: .L.str.9
           32    219: .L.str.19
           33    229: .L.str.17
           34    239: .L.str.20
           35    249: .L.str.18
           36    259: .L.str.23
           37    269: .L.str.12
           38    279: .L.str.16
           39    289: .L.str.11
           40    299: .L.str.21
           41    309: .L.str.8
           42    318: .L.str.10
           43    328: .L.str.25
           44    338: .L.str.1
           45    347: .L.str.22
           46    357: .L.str.15
           47    367: .L.str.24
           48    377: .L.str.5
           49    386: .L.str.4
           50    395: .L.str.2
           51    404: .L.str.3
           52    413: .L.str.6
           53    422: .L.str.7
           54    431: mspi_interrupts
           55    447: am_devices_mspi_atxp032.c
           56    473: am_device_init_flash
           57    494: am_device_deinit_flash
           58    517: am_devices_mspi_atxp032_command_write
           59    555: am_devices_mspi_atxp032_command_read
           60    592: pfnMSPI_ATXP032_Callback
           61    617: am_util_delay.c
           62    633: am_util_faultisr.c
           63    652: .L.str.29
           64    662: .L.str.27
           65    672: .L.str.26
           66    682: .L.str.28
           67    692: am_util_stdio.c
           68    708: decstr_to_int
           69    722: simple_strlen
           70    736: padbuffer
           71    746: ndigits_in_hex
           72    761: uint64_to_hexstr
           73    778: ndigits_in_u64
           74    793: uint64_to_str
           75    807: ndigits_in_i64
           76    822: ftoa
           77    827: divu64_10
           78    837: g_bTxtXlate
           79    849: g_prfbuf
           80    858: ../keil6/startup_keil6.s
           81    883: STACK
           82    889: StackMem
           83    898: HEAP
           84    903: HeapMem
           85    911: RESET
           86    917: $v0
           87    921: .text
           88    927: am_bsp.c
           89    936: .L_MergedGlobals
           90    953: g_ui32PrintInterface
           91    974: g_sCOMUART
           92    985: am_hal_cachectrl.c
           93   1004: set_LPMMODE
           94   1016: set_SEDELAY
           95   1028: set_RDWAIT
           96   1039: am_hal_clkgen.c
           97   1055: am_hal_flash.c
           98   1070: am_hal_interrupt.c
           99   1089: am_hal_mcuctrl.c
          100   1106: am_hal_mspi.c
          101   1120: mspi_device_configure
          102   1142: mspi_cq_pause
          103   1156: mspi_seq_loopback
          104   1174: sched_hiprio
          105   1187: mspi_dummy_callback
          106   1207: mspi_fifo_read
          107   1222: mspi_fifo_write
          108   1238: g_MSPIState
          109   1250: am_bsp_pins.c
          110   1264: am_hal_cmdq.c
          111   1278: gAmHalCmdq
          112   1289: gAmHalCmdQReg
          113   1303: am_hal_gpio.c
          114   1317: g_ui8Bit76Capabilities
          115   1340: g_ui8Inpen
          116   1351: g_ui8nCEpins
          117   1364: g_ui8NCEtable
          118   1378: am_hal_itm.c
          119   1391: am_hal_pwrctrl.c
          120   1408: am_hal_reset.c
          121   1423: am_hal_rtc.c
          122   1436: am_hal_tpiu.c
          123   1450: am_hal_uart.c
          124   1464: am_hal_burst.c
          125   1479: am_hal_queue.c
          126   1494: dc.s
          127   1499: ../clib/memcpset.s
          128   1518: ../clib/heapaux.c
          129   1536: ../clib/angel/startup.s
          130   1560: !!!main
          131   1568: ../clib/angel/handlers.s
          132   1593: !!handler_copy
          133   1608: ../fplib/d2f.s
          134   1623: x$fpl$d2f
          135   1633: ../clib/angel/kernel.s
          136   1656: .ARM.Collect$$rtentry$$00000000
          137   1688: ../fplib/dnaninf.s
          138   1707: x$fpl$dnaninf
          139   1721: ../fplib/fretinf.s
          140   1740: x$fpl$fretinf
          141   1754: ../fplib/usenofp.s
          142   1773: x$fpl$usenofp
          143   1787: .ARM.Collect$$rtentry$$00000002
          144   1819: .ARM.Collect$$rtentry$$00000009
          145   1851: .ARM.Collect$$rtentry$$0000000A
          146   1883: .ARM.Collect$$rtentry$$0000000C
          147   1915: .ARM.Collect$$rtentry$$0000000D
          148   1947: .ARM.Collect$$rtentry$$00000004
          149   1979: ../clib/angel/sys.s
          150   1999: ../clib/stdlib.c
          151   2016: ../clib/angel/boardlib.s
          152   2041: ../clib/libinit.s
          153   2059: .ARM.Collect$$libinit$$00000000
          154   2091: .bss
          155   2096: .ARM.Collect$$rtexit$$00000000
          156   2127: .ARM.Collect$$libinit$$00000001
          157   2159: .ARM.Collect$$libinit$$00000004
          158   2191: .ARM.Collect$$libinit$$00000006
          159   2223: .ARM.Collect$$libinit$$0000000C
          160   2255: .ARM.Collect$$libinit$$0000000E
          161   2287: .ARM.Collect$$libinit$$00000010
          162   2319: .ARM.Collect$$libinit$$00000013
          163   2351: .ARM.Collect$$libinit$$00000015
          164   2383: .ARM.Collect$$libinit$$00000017
          165   2415: .ARM.Collect$$libinit$$00000019
          166   2447: .ARM.Collect$$libinit$$0000001B
          167   2479: .ARM.Collect$$libinit$$0000001D
          168   2511: .ARM.Collect$$libinit$$0000001F
          169   2543: .ARM.Collect$$libinit$$00000021
          170   2575: .ARM.Collect$$libinit$$00000023
          171   2607: .ARM.Collect$$libinit$$00000025
          172   2639: .ARM.Collect$$libinit$$00000027
          173   2671: .ARM.Collect$$libinit$$0000002E
          174   2703: .ARM.Collect$$libinit$$00000030
          175   2735: .ARM.Collect$$libinit$$00000032
          176   2767: .ARM.Collect$$libinit$$00000034
          177   2799: .ARM.Collect$$libinit$$00000035
          178   2831: .ARM.Collect$$rtexit$$00000002
          179   2862: .ARM.Collect$$rtexit$$00000003
          180   2893: .ARM.Collect$$rtexit$$00000004
          181   2924: ../clib/armsys.c
          182   2941: ../fplib/fpinit.s
          183   2959: x$fpl$fpinit
          184   2972: ../clib/angel/sysapp.c
          185   2995: .ARM.Collect$$libshutdown$$00000000
          186   3031: ../clib/heapalloc.c
          187   3051: ../clib/signal.c
          188   3068: .ARM.Collect$$libshutdown$$00000002
          189   3104: .ARM.Collect$$libshutdown$$00000004
          190   3140: .ARM.Collect$$libshutdown$$00000007
          191   3176: .ARM.Collect$$libshutdown$$0000000A
          192   3212: .ARM.Collect$$libshutdown$$0000000C
          193   3248: .ARM.Collect$$libshutdown$$0000000F
          194   3284: .ARM.Collect$$libshutdown$$00000010
          195   3320: ../clib/angel/rt.s
          196   3339: ../clib/signal.s
          197   3356: ../clib/angel/dczerorl2.s
          198   3382: !!dczerorl2
          199   3394: ../clib/angel/scatter.s
          200   3418: !!!scatter
          201   3429: !!handler_zi
          202   3442: BuildAttributes$$THM_ISAv4$E$P$D$K$B$S$7EM$VFPi3$EXTD16$VFPS$VFMA$PE$A:L22UL41UL21$X:L11$S22US41US21$IEEE1$IW$~IW$USESV6$~STKCKD$USESV7$~SHL$OTIME$ROPI$EBA8$UX$STANDARDLIB$REQ8$PRES8$EABIv2
          203   3632: __Vectors
          204   3642: __Patchable
          205   3654: Reset_Handler
          206   3668: NMI_Handler
          207   3680: MemManage_Handler
          208   3698: BusFault_Handler
          209   3715: UsageFault_Handler
          210   3734: SVC_Handler
          211   3746: DebugMon_Handler
          212   3763: PendSV_Handler
          213   3778: SysTick_Handler
          214   3794: am_adc_isr
          215   3805: am_ble_isr
          216   3816: am_brownout_isr
          217   3832: am_clkgen_isr
          218   3846: am_ctimer_isr
          219   3860: am_gpio_isr
          220   3872: am_iomaster0_isr
          221   3889: am_iomaster1_isr
          222   3906: am_iomaster2_isr
          223   3923: am_iomaster3_isr
          224   3940: am_iomaster4_isr
          225   3957: am_iomaster5_isr
          226   3974: am_ioslave_acc_isr
          227   3993: am_ioslave_ios_isr
          228   4012: am_mspi0_isr
          229   4025: am_mspi2_isr
          230   4038: am_pdm0_isr
          231   4050: am_rtc_isr
          232   4061: am_scard_isr
          233   4074: am_software0_isr
          234   4091: am_stimer_cmpr0_isr
          235   4111: am_stimer_cmpr1_isr
          236   4131: am_stimer_cmpr2_isr
          237   4151: am_stimer_cmpr3_isr
          238   4171: am_stimer_cmpr4_isr
          239   4191: am_stimer_cmpr5_isr
          240   4211: am_stimer_cmpr6_isr
          241   4231: am_stimer_cmpr7_isr
          242   4251: am_stimer_isr
          243   4265: am_uart0_isr
          244   4278: am_uart1_isr
          245   4291: am_uart_isr
          246   4303: am_vcomp_isr
          247   4316: am_watchdog_isr
          248   4332: __main
          249   4339: __scatterload
          250   4353: __scatterload_rt2
          251   4371: __scatterload_rt2_thumb_only
          252   4400: __scatterload_null
          253   4419: __decompress
          254   4432: __decompress1
          255   4446: __scatterload_copy
          256   4465: __scatterload_zeroinit
          257   4488: __rt_lib_init
          258   4502: __rt_lib_init_fp_1
          259   4521: __rt_lib_init_alloca_1
          260   4544: __rt_lib_init_argv_1
          261   4565: __rt_lib_init_atexit_1
          262   4588: __rt_lib_init_clock_1
          263   4610: __rt_lib_init_cpp_1
          264   4630: __rt_lib_init_exceptions_1
          265   4657: __rt_lib_init_fp_trap_1
          266   4681: __rt_lib_init_getenv_1
          267   4704: __rt_lib_init_heap_1
          268   4725: __rt_lib_init_lc_collate_1
          269   4752: __rt_lib_init_lc_ctype_1
          270   4777: __rt_lib_init_lc_monetary_1
          271   4805: __rt_lib_init_lc_numeric_1
          272   4832: __rt_lib_init_lc_time_1
          273   4856: __rt_lib_init_preinit_1
          274   4880: __rt_lib_init_rand_1
          275   4901: __rt_lib_init_relocate_pie_1
          276   4930: __rt_lib_init_return
          277   4951: __rt_lib_init_signal_1
          278   4974: __rt_lib_init_stdio_1
          279   4996: __rt_lib_init_user_alloc_1
          280   5023: __rt_lib_shutdown
          281   5041: __rt_lib_shutdown_cpp_1
          282   5065: __rt_lib_shutdown_fp_trap_1
          283   5093: __rt_lib_shutdown_heap_1
          284   5118: __rt_lib_shutdown_return
          285   5143: __rt_lib_shutdown_signal_1
          286   5170: __rt_lib_shutdown_stdio_1
          287   5196: __rt_lib_shutdown_user_alloc_1
          288   5227: __rt_entry
          289   5238: __rt_entry_presh_1
          290   5257: __rt_entry_sh
          291   5271: __rt_entry_li
          292   5285: __rt_entry_postsh_1
          293   5305: __rt_entry_main
          294   5321: __rt_entry_postli_1
          295   5341: __rt_exit
          296   5351: __rt_exit_ls
          297   5364: __rt_exit_prels_1
          298   5382: __rt_exit_exit
          299   5397: __user_initial_stackheap
          300   5422: __aeabi_memcpy
          301   5437: __rt_memcpy
          302   5449: _memcpy_lastbytes
          303   5467: __aeabi_memclr4
          304   5483: __aeabi_memclr8
          305   5499: __rt_memclr_w
          306   5513: _memset_w
          307   5523: __use_two_region_memory
          308   5547: __rt_heap_escrow$2region
          309   5572: __rt_heap_expand$2region
          310   5597: __aeabi_memcpy4
          311   5613: __aeabi_memcpy8
          312   5629: __rt_memcpy_w
          313   5643: _memcpy_lastbytes_aligned
          314   5669: __user_setup_stackheap
          315   5692: exit
          316   5697: __user_libspace
          317   5713: __user_perproc_libspace
          318   5737: __user_perthread_libspace
          319   5763: _sys_exit
          320   5773: __I$use$semihosting
          321   5793: __use_no_semihosting_swi
          322   5818: __semihosting_library_function
          323   5849: HardFault_Handler
          324   5867: am_bsp_itm_printf_enable
          325   5892: am_bsp_low_power_init
          326   5914: am_bsp_mspi_pins_enable
          327   5938: am_devices_mspi_atxp032_deinit
          328   5969: am_devices_mspi_atxp032_disable_scrambling
          329   6012: am_devices_mspi_atxp032_disable_xip
          330   6048: am_devices_mspi_atxp032_enable_scrambling
          331   6090: am_devices_mspi_atxp032_enable_xip
          332   6125: am_devices_mspi_atxp032_id
          333   6152: am_devices_mspi_atxp032_init
          334   6181: am_devices_mspi_atxp032_mass_erase
          335   6216: am_devices_mspi_atxp032_read
          336   6245: am_devices_mspi_atxp032_reset
          337   6275: am_devices_mspi_atxp032_sector_erase
          338   6312: am_devices_mspi_atxp032_write
          339   6342: am_getStackedReg
          340   6359: am_hal_burst_ldo_charge
          341   6383: am_hal_cachectrl_config
          342   6407: am_hal_cachectrl_control
          343   6432: am_hal_cachectrl_enable
          344   6456: am_hal_clkgen_control
          345   6478: am_hal_clkgen_status_get
          346   6503: am_hal_cmdq_alloc_block
          347   6527: am_hal_cmdq_disable
          348   6547: am_hal_cmdq_enable
          349   6566: am_hal_cmdq_error_resume
          350   6591: am_hal_cmdq_get_status
          351   6614: am_hal_cmdq_init
          352   6631: am_hal_cmdq_post_block
          353   6654: am_hal_cmdq_post_loop_block
          354   6682: am_hal_cmdq_release_block
          355   6708: am_hal_cmdq_reset
          356   6726: am_hal_cmdq_term
          357   6743: am_hal_flash_delay
          358   6762: am_hal_flash_delay_status_check
          359   6794: am_hal_flash_load_ui32
          360   6817: am_hal_flash_store_ui32
          361   6841: am_hal_gpio_pinconfig
          362   6863: am_hal_gpio_state_write
          363   6887: am_hal_interrupt_master_disable
          364   6919: am_hal_interrupt_master_enable
          365   6950: am_hal_interrupt_master_set
          366   6978: am_hal_itm_enable
          367   6996: am_hal_itm_print
          368   7013: am_hal_mcuctrl_control
          369   7036: am_hal_mcuctrl_info_get
          370   7060: am_hal_mspi_blocking_transfer
          371   7090: am_hal_mspi_control
          372   7110: am_hal_mspi_deinitialize
          373   7135: am_hal_mspi_device_configure
          374   7164: am_hal_mspi_disable
          375   7184: am_hal_mspi_enable
          376   7203: am_hal_mspi_initialize
          377   7226: am_hal_mspi_interrupt_clear
          378   7254: am_hal_mspi_interrupt_disable
          379   7284: am_hal_mspi_interrupt_enable
          380   7313: am_hal_mspi_interrupt_service
          381   7343: am_hal_mspi_interrupt_status_get
          382   7376: am_hal_mspi_nonblocking_transfer
          383   7409: am_hal_mspi_power_control
          384   7435: am_hal_pwrctrl_low_power_init
          385   7465: am_hal_pwrctrl_periph_disable
          386   7495: am_hal_pwrctrl_periph_enable
          387   7524: am_hal_rtc_osc_disable
          388   7547: am_hal_tpiu_enable
          389   7566: am_mspi1_isr
          390   7579: am_util_delay_ms
          391   7596: am_util_delay_us
          392   7613: am_util_faultisr_collect_data
          393   7643: am_util_stdio_printf
          394   7664: am_util_stdio_printf_init
          395   7690: am_util_stdio_terminal_clear
          396   7719: am_util_stdio_vsprintf
          397   7742: am_valid_sp
          398   7754: build_dma_cmdlist
          399   7772: main
          400   7777: __aeabi_d2f
          401   7789: _d2f
          402   7794: __fpl_dnaninf
          403   7808: _fp_init
          404   7817: __fplib_config_fpu_vfp
          405   7840: __fplib_config_pureend_doubles
          406   7871: __fpl_fretinf
          407   7885: __I$use$fp
          408   7896: MSPI_Flash_Config
          409   7914: am_hal_cachectrl_defaults
          410   7940: am_hal_pwrctrl_peripheral_control
          411   7974: g_AM_BSP_GPIO_DSPL0_CE0
          412   7998: g_AM_BSP_GPIO_DSPL0_D0
          413   8021: g_AM_BSP_GPIO_DSPL0_D1
          414   8044: g_AM_BSP_GPIO_DSPL0_D2
          415   8067: g_AM_BSP_GPIO_DSPL0_D3
          416   8090: g_AM_BSP_GPIO_DSPL0_SCK
          417   8114: g_AM_BSP_GPIO_FLASH0_CE0
          418   8139: g_AM_BSP_GPIO_FLASH0_D0
          419   8163: g_AM_BSP_GPIO_FLASH0_D1
          420   8187: g_AM_BSP_GPIO_FLASH0_D2
          421   8211: g_AM_BSP_GPIO_FLASH0_D3
          422   8235: g_AM_BSP_GPIO_FLASH0_SCK
          423   8260: g_AM_BSP_GPIO_FLASH1_CE0
          424   8285: g_AM_BSP_GPIO_FLASH1_D0
          425   8309: g_AM_BSP_GPIO_FLASH1_D1
          426   8333: g_AM_BSP_GPIO_FLASH1_D2
          427   8357: g_AM_BSP_GPIO_FLASH1_D3
          428   8381: g_AM_BSP_GPIO_FLASH1_D4
          429   8405: g_AM_BSP_GPIO_FLASH1_D5
          430   8429: g_AM_BSP_GPIO_FLASH1_D6
          431   8453: g_AM_BSP_GPIO_FLASH1_D7
          432   8477: g_AM_BSP_GPIO_FLASH1_DS
          433   8501: g_AM_BSP_GPIO_FLASH1_SCK
          434   8526: g_AM_BSP_GPIO_ITM_SWO
          435   8548: g_AM_BSP_GPIO_MSPI0_CE0
          436   8572: g_AM_BSP_GPIO_MSPI0_CE1
          437   8596: g_AM_BSP_GPIO_MSPI0_D0
          438   8619: g_AM_BSP_GPIO_MSPI0_D1
          439   8642: g_AM_BSP_GPIO_MSPI0_D2
          440   8665: g_AM_BSP_GPIO_MSPI0_D3
          441   8688: g_AM_BSP_GPIO_MSPI0_SCK
          442   8712: g_AM_BSP_GPIO_MSPI1_CE0
          443   8736: g_AM_BSP_GPIO_MSPI1_CE1
          444   8760: g_AM_BSP_GPIO_MSPI1_D0
          445   8783: g_AM_BSP_GPIO_MSPI1_D1
          446   8806: g_AM_BSP_GPIO_MSPI1_D2
          447   8829: g_AM_BSP_GPIO_MSPI1_D3
          448   8852: g_AM_BSP_GPIO_MSPI1_D4
          449   8875: g_AM_BSP_GPIO_MSPI1_D5
          450   8898: g_AM_BSP_GPIO_MSPI1_D6
          451   8921: g_AM_BSP_GPIO_MSPI1_D7
          452   8944: g_AM_BSP_GPIO_MSPI1_DMDQS
          453   8970: g_AM_BSP_GPIO_MSPI1_SCK
          454   8994: g_AM_BSP_GPIO_MSPI2_CE0
          455   9018: g_AM_BSP_GPIO_MSPI2_CE1
          456   9042: g_AM_BSP_GPIO_MSPI2_D0
          457   9065: g_AM_BSP_GPIO_MSPI2_D1
          458   9088: g_AM_BSP_GPIO_MSPI2_D2
          459   9111: g_AM_BSP_GPIO_MSPI2_D3
          460   9134: g_AM_BSP_GPIO_MSPI2_SCK
          461   9158: g_AM_BSP_GPIO_PSRAM_CE0
          462   9182: g_AM_BSP_GPIO_PSRAM_D0
          463   9205: g_AM_BSP_GPIO_PSRAM_D1
          464   9228: g_AM_BSP_GPIO_PSRAM_D2
          465   9251: g_AM_BSP_GPIO_PSRAM_D3
          466   9274: g_AM_BSP_GPIO_PSRAM_SCK
          467   9298: g_AM_HAL_GPIO_OUTPUT
          468   9319: g_am_hal_mcuctrl_flash_size
          469   9347: g_am_hal_mcuctrl_sram_size
          470   9374: Region$$Table$$Base
          471   9394: Region$$Table$$Limit
          472   9415: MSPI_ATXP032_Octal_CE0_MSPIConfig
          473   9449: MSPI_ATXP032_Octal_CE1_MSPIConfig
          474   9483: MSPI_ATXP032_Quad_CE0_MSPIConfig
          475   9516: MSPI_ATXP032_Quad_CE1_MSPIConfig
          476   9549: MSPI_ATXP032_Serial_CE0_MSPIConfig
          477   9584: MSPI_ATXP032_Serial_CE1_MSPIConfig
          478   9619: am_bsp_psLEDs
          479   9633: device_func
          480   9645: g_ATXP032_DevConfig
          481   9665: __libspace_start
          482   9682: __temporary_stack_top$libspace
          483   9713: g_bSimobuckTrimsDone
          484   9734: g_bVddfTrimsDone
          485   9751: DMATCBBuffer
          486   9764: gAmAtxp032
          487   9775: gAmHalResetStatus
          488   9793: gFaultStack
          489   9805: g_FlashHdl
          490   9816: g_MSPIHdl
          491   9826: g_TempBuf
          492   9836: g_pfnCharPrint
          493   9851: 


** Section #13 '.note' (SHT_NOTE)
    Size   : 32 bytes (alignment 4)


** Section #14 '.comment' (SHT_PROGBITS)
    Size   : 1572 bytes


** Section #15 '.shstrtab' (SHT_STRTAB)
    Size   : 144 bytes

            #  Offset String
        ====================================

            1      1: ROMEM
            2      7: RWMEM
            3     13: TCM
            4     17: STACKMEM
            5     26: .debug_abbrev
            6     40: .debug_frame
            7     53: .debug_info
            8     65: .debug_line
            9     77: .debug_ranges
           10     91: .debug_str
           11    102: .symtab
           12    110: .strtab
           13    118: .note
           14    124: .comment
           15    133: .shstrtab
           16    143: 


